(dp1
S'paths_per_day'
p2
(dp3
S'type'
p4
S'integer'
p5
sS'sortable'
p6
I2
sS'sql'
p7
S'INTEGER'
p8
ssS'id'
p9
(dp10
g4
g9
sg6
I1
sg7
S'INTEGER PRIMARY KEY AUTOINCREMENT'
p11
ssS'days_per_week'
p12
(dp13
g4
g5
sg6
I3
sg7
S'INTEGER'
p14
ss.