(dp1
S'id'
p2
(dp3
S'type'
p4
S'id'
p5
sS'sortable'
p6
I1
sS'sql'
p7
S'INTEGER PRIMARY KEY AUTOINCREMENT'
p8
ssS'score'
p9
(dp10
g4
S'double'
p11
sg6
I4
sg7
S'DOUBLE'
p12
ssS'name'
p13
(dp14
g4
S'reference auth_user'
p15
sg6
I2
sg7
S'INTEGER REFERENCES auth_user(id) ON DELETE CASCADE'
p16
ssS'date_taken'
p17
(dp18
g4
S'datetime'
p19
sg6
I5
sg7
S'TIMESTAMP'
p20
ssS'quiz'
p21
(dp22
g4
S'reference quizzes'
p23
sg6
I3
sg7
S'INTEGER REFERENCES quizzes(id) ON DELETE CASCADE'
p24
ss.