(dp1
S'step_class'
p2
(dp3
S'type'
p4
S'string'
p5
sS'sortable'
p6
I4
sS'sql'
p7
S'CHAR(512)'
p8
ssS'widget'
p9
(dp10
g4
g5
sg6
I3
sg7
S'CHAR(512)'
p11
ssg4
(dp12
g4
g5
sg6
I2
sg7
S'CHAR(512)'
p13
ssS'id'
p14
(dp15
g4
g14
sg6
I1
sg7
S'INTEGER PRIMARY KEY AUTOINCREMENT'
p16
ss.