(dp1
S'item_name'
p2
(dp3
S'type'
p4
S'string'
p5
sS'sortable'
p6
I2
sS'sql'
p7
S'CHAR(512)'
p8
ssS'id'
p9
(dp10
g4
S'id'
p11
sg6
I1
sg7
S'INTEGER PRIMARY KEY AUTOINCREMENT'
p12
ssS'item_image'
p13
(dp14
g4
S'reference images'
p15
sg6
I3
sg7
S'INTEGER REFERENCES images(id) ON DELETE CASCADE'
p16
ss.