(dp1
S'class_id'
p2
(dp3
S'type'
p4
S'string'
p5
sS'sortable'
p6
I2
sS'sql'
p7
S'CHAR(512)'
p8
ssS'paths_per_day'
p9
(dp10
g4
S'integer'
p11
sg6
I3
sg7
S'INTEGER'
p12
ssS'id'
p13
(dp14
g4
S'id'
p15
sg6
I1
sg7
S'INTEGER PRIMARY KEY AUTOINCREMENT'
p16
ssS'days_per_week'
p17
(dp18
g4
g11
sg6
I4
sg7
S'INTEGER'
p19
ss.