(dp1
S'position'
p2
(dp3
S'type'
p4
S'integer'
p5
sS'sortable'
p6
I5
sS'sql'
p7
S'INTEGER'
p8
ssS'deck_name'
p9
(dp10
g4
S'string'
p11
sg6
I2
sg7
S'CHAR(512)'
p12
ssS'theme'
p13
(dp14
g4
S'list:reference db.plugin_slider_themes'
p15
sg6
I4
sg7
S'TEXT'
p16
ssS'id'
p17
(dp18
g4
S'id'
p19
sg6
I1
sg7
S'INTEGER PRIMARY KEY AUTOINCREMENT'
p20
ssS'deck_slides'
p21
(dp22
g4
S'list:reference db.plugin_slider_slides'
p23
sg6
I3
sg7
g16
ss.