(dp1
S'description'
p2
(dp3
S'type'
p4
S'text'
p5
sS'sortable'
p6
I4
sS'sql'
p7
S'TEXT'
p8
ssS'tag'
p9
(dp10
g4
S'reference tags'
p11
sg6
I3
sg7
S'INTEGER REFERENCES tags(id) ON DELETE CASCADE'
p12
ssS'id'
p13
(dp14
g4
g13
sg6
I1
sg7
S'INTEGER PRIMARY KEY AUTOINCREMENT'
p15
ssS'badge_name'
p16
(dp17
g4
S'string'
p18
sg6
I2
sg7
S'CHAR(512) UNIQUE'
p19
ss.