(dp1
S'id'
p2
(dp3
S'type'
p4
S'id'
p5
sS'sortable'
p6
I1
sS'sql'
p7
S'INTEGER PRIMARY KEY AUTOINCREMENT'
p8
ssS'background'
p9
(dp10
g4
S'upload'
p11
sg6
I3
sg7
S'CHAR(512)'
p12
ssS'location'
p13
(dp14
g4
S'string'
p15
sg6
I2
sg7
S'CHAR(512)'
p16
ss.