(dp1
S'session_start'
p2
(dp3
S'type'
p4
S'datetime'
p5
sS'sortable'
p6
I4
sS'sql'
p7
S'TIMESTAMP'
p8
ssS'updated'
p9
(dp10
g4
g5
sg6
I3
sg7
S'TIMESTAMP'
p11
ssS'data'
p12
(dp13
g4
S'text'
p14
sg6
I5
sg7
S'TEXT'
p15
ssS'id'
p16
(dp17
g4
S'id'
p18
sg6
I1
sg7
S'INTEGER PRIMARY KEY AUTOINCREMENT'
p19
ssS'user'
p20
(dp21
g4
S'reference auth_user'
p22
sg6
I2
sg7
S'INTEGER REFERENCES auth_user (id) ON DELETE CASCADE'
p23
ss.