(dp1
S'npcs'
p2
(dp3
S'type'
p4
S'list:reference db.npcs'
p5
sS'sortable'
p6
I5
sS'sql'
p7
S'TEXT'
p8
ssS'steps'
p9
(dp10
g4
S'list:reference db.steps'
p11
sg6
I3
sg7
g8
ssS'tags'
p12
(dp13
g4
S'list:reference db.tags'
p14
sg6
I6
sg7
g8
ssS'id'
p15
(dp16
g4
S'id'
p17
sg6
I1
sg7
S'INTEGER PRIMARY KEY AUTOINCREMENT'
p18
ssS'locations'
p19
(dp20
g4
S'list:reference db.locations'
p21
sg6
I4
sg7
g8
ssS'label'
p22
(dp23
g4
S'string'
p24
sg6
I2
sg7
S'CHAR(512)'
p25
ss.