(dp1
S'id'
p2
(dp3
S'type'
p4
S'id'
p5
sS'sortable'
p6
I1
sS'sql'
p7
S'INTEGER PRIMARY KEY AUTOINCREMENT'
p8
ssS'image'
p9
(dp10
g4
S'upload'
p11
sg6
I4
sg7
S'CHAR(512)'
p12
ssS'notes'
p13
(dp14
g4
S'text'
p15
sg6
I5
sg7
S'TEXT'
p16
ssS'location'
p17
(dp18
g4
S'list:reference db.locations'
p19
sg6
I3
sg7
S'TEXT'
p20
ssS'name'
p21
(dp22
g4
S'string'
p23
sg6
I2
sg7
S'CHAR(512)'
p24
ss.