(dp1
S'content'
p2
(dp3
S'type'
p4
S'text'
p5
sS'sortable'
p6
I3
sS'sql'
p7
S'TEXT'
p8
ssS'theme'
p9
(dp10
g4
S'list:reference db.plugin_slider_themes'
p11
sg6
I4
sg7
S'TEXT'
p12
ssS'id'
p13
(dp14
g4
S'id'
p15
sg6
I1
sg7
S'INTEGER PRIMARY KEY AUTOINCREMENT'
p16
ssS'slide_name'
p17
(dp18
g4
S'string'
p19
sg6
I2
sg7
S'CHAR(512)'
p20
ss.