(dp1
S'tag'
p2
(dp3
S'type'
p4
S'reference tags'
p5
sS'sortable'
p6
I3
sS'sql'
p7
S'INTEGER REFERENCES tags(id) ON DELETE CASCADE'
p8
ssS'badge_name'
p9
(dp10
g4
S'string'
p11
sg6
I2
sg7
S'CHAR(512) UNIQUE'
p12
ssS'id'
p13
(dp14
g4
S'id'
p15
sg6
I1
sg7
S'INTEGER PRIMARY KEY AUTOINCREMENT'
p16
ssS'description'
p17
(dp18
g4
S'text'
p19
sg6
I4
sg7
S'TEXT'
p20
ss.