(dp1
S'status_label'
p2
(dp3
S'length'
p4
I32768
sS'unique'
p5
I01
sS'sortable'
p6
I3
sS'sql'
p7
S'TEXT UNIQUE'
p8
sS'notnull'
p9
I00
sS'type'
p10
S'text'
p11
ssS'id'
p12
(dp13
g4
I512
sg5
I00
sg6
I1
sg7
S'INTEGER PRIMARY KEY AUTOINCREMENT'
p14
sg9
I00
sg10
S'id'
p15
ssS'status_num'
p16
(dp17
g4
I512
sg5
I01
sg6
I2
sg7
S'INTEGER UNIQUE'
p18
sg9
I00
sg10
S'integer'
p19
ss.