(dp1
S'story'
p2
(dp3
S'type'
p4
S'text'
p5
sS'sortable'
p6
I2
sS'sql'
p7
S'TEXT'
p8
ssS'name'
p9
(dp10
g4
S'reference auth_user'
p11
sg6
I4
sg7
S'INTEGER REFERENCES auth_user(id) ON DELETE CASCADE'
p12
ssS'title'
p13
(dp14
g4
S'string'
p15
sg6
I3
sg7
S'CHAR(512)'
p16
ssS'date_submitted'
p17
(dp18
g4
S'datetime'
p19
sg6
I5
sg7
S'TIMESTAMP'
p20
ssS'last_edit'
p21
(dp22
g4
g19
sg6
I6
sg7
S'TIMESTAMP'
p23
ssS'id'
p24
(dp25
g4
g24
sg6
I1
sg7
S'INTEGER PRIMARY KEY AUTOINCREMENT'
p26
ss.