(dp1
S'pages'
p2
(dp3
S'type'
p4
S'list:reference pages'
p5
sS'sortable'
p6
I3
sS'sql'
p7
S'TEXT'
p8
ssS'id'
p9
(dp10
g4
S'id'
p11
sg6
I1
sg7
S'INTEGER PRIMARY KEY AUTOINCREMENT'
p12
ssS'user'
p13
(dp14
g4
S'reference auth_user'
p15
sg6
I2
sg7
S'INTEGER REFERENCES auth_user(id) ON DELETE CASCADE'
p16
ss.