(dp1
S'a_submitted'
p2
(dp3
S'type'
p4
S'string'
p5
sS'sortable'
p6
I3
sS'sql'
p7
S'CHAR(512)'
p8
ssS'date_submitted'
p9
(dp10
g4
S'date'
p11
sg6
I5
sg7
S'DATE'
p12
ssS'question'
p13
(dp14
g4
S'reference questions'
p15
sg6
I2
sg7
S'INTEGER REFERENCES questions(id) ON DELETE CASCADE'
p16
ssS'id'
p17
(dp18
g4
g17
sg6
I1
sg7
S'INTEGER PRIMARY KEY AUTOINCREMENT'
p19
ssS'name'
p20
(dp21
g4
S'reference auth_user'
p22
sg6
I4
sg7
S'INTEGER REFERENCES auth_user(id) ON DELETE CASCADE'
p23
ss.