(dp1
S'position'
p2
(dp3
S'type'
p4
S'integer'
p5
sS'sortable'
p6
I3
sS'sql'
p7
S'INTEGER'
p8
ssS'tag'
p9
(dp10
g4
S'string'
p11
sg6
I2
sg7
S'CHAR(512)'
p12
ssS'id'
p13
(dp14
g4
S'id'
p15
sg6
I1
sg7
S'INTEGER PRIMARY KEY AUTOINCREMENT'
p16
ss.