(dp1
S'owner'
p2
(dp3
S'type'
p4
S'reference auth_user'
p5
sS'sortable'
p6
I2
sS'sql'
p7
S'INTEGER REFERENCES auth_user (id) ON DELETE CASCADE'
p8
ssS'items_held'
p9
(dp10
g4
S'list:reference inv_items'
p11
sg6
I3
sg7
S'TEXT'
p12
ssS'id'
p13
(dp14
g4
S'id'
p15
sg6
I1
sg7
S'INTEGER PRIMARY KEY AUTOINCREMENT'
p16
ss.