(dp1
S'npcs'
p2
(dp3
S'type'
p4
S'list:reference db.npcs'
p5
sS'sortable'
p6
I5
sS'sql'
p7
S'TEXT'
p8
ssS'label'
p9
(dp10
g4
S'string'
p11
sg6
I2
sg7
S'CHAR(512)'
p12
ssS'steps'
p13
(dp14
g4
S'list:reference db.steps'
p15
sg6
I3
sg7
g8
ssS'id'
p16
(dp17
g4
S'id'
p18
sg6
I1
sg7
S'INTEGER PRIMARY KEY AUTOINCREMENT'
p19
ssS'locations'
p20
(dp21
g4
S'list:reference db.locations'
p22
sg6
I4
sg7
g8
ss.