(dp1
S'score'
p2
(dp3
S'type'
p4
S'double'
p5
sS'sortable'
p6
I4
sS'sql'
p7
S'DOUBLE'
p8
ssS'quiz'
p9
(dp10
g4
S'reference quizzes'
p11
sg6
I3
sg7
S'INTEGER REFERENCES quizzes(id) ON DELETE CASCADE'
p12
ssS'id'
p13
(dp14
g4
g13
sg6
I1
sg7
S'INTEGER PRIMARY KEY AUTOINCREMENT'
p15
ssS'date_taken'
p16
(dp17
g4
S'date'
p18
sg6
I5
sg7
S'DATE'
p19
ssS'name'
p20
(dp21
g4
S'reference auth_user'
p22
sg6
I2
sg7
S'INTEGER REFERENCES auth_user(id) ON DELETE CASCADE'
p23
ss.