(dp1
S'slides'
p2
(dp3
S'type'
p4
S'list:reference db.plugin_slider_decks'
p5
sS'sortable'
p6
I4
sS'sql'
p7
S'TEXT'
p8
ssS'position'
p9
(dp10
g4
S'integer'
p11
sg6
I3
sg7
S'INTEGER'
p12
ssS'tag'
p13
(dp14
g4
S'string'
p15
sg6
I2
sg7
S'CHAR(512) UNIQUE'
p16
ssS'id'
p17
(dp18
g4
S'id'
p19
sg6
I1
sg7
S'INTEGER PRIMARY KEY AUTOINCREMENT'
p20
ss.