(dp1
S'output'
p2
S"<type 'exceptions.NameError'> global name 'cat' is not defined"
p3
sS'layer'
p4
S'/home/ian/web2py/applications/paideia/controllers/exploring.py'
p5
sS'code'
p6
S'# coding: utf8\nif 0:\n    from gluon import current, redirect, URL, SQLFORM, A, Field, IS_NOT_EMPTY\n    from gluon.dal import DAL\n    from gluon.tools import Auth\n    request,session,response,T,cache=current.request,current.session,current.response,current.T,current.cache\n    db = DAL()\n    auth = Auth()\n    from modules.paideia_exploring import activepath, counter\n    from modules.paideia_questions import question\n\nfrom paideia_exploring import activepath, counter\nfrom paideia_questions import question\n\n@auth.requires_login()\ndef index():\n\n    #after user selects quiz (or \'next question\')\n    if request.args(0) == \'ask\':\n        if not request.vars.response:\n            set_path = activepath()\n            set_counter = counter()\n            the_question = question()\n            the_question.selectq()\n\n        form = SQLFORM.factory(\n            Field(\'response\', \'string\', requires=IS_NOT_EMPTY())\n        )\n        if form.accepts(request.vars,session):\n            session.response = request.vars.response\n            redirect(URL(\'index\', args=[\'reply\']))\n\n        return dict(question=session.question_text, form=form)\n\n    #after submitting answer\n    elif request.args(0) == \'reply\':\n        #see whether answer matches any of the three answer fields\n        q = question()\n        the_eval = q.evalq()\n\n        #build response to user\n        if session.eval == \'correct\':\n            the_reply = "Right. \xce\x9a\xce\xac\xce\xbb\xce\xb7."\n        elif session.eval == \'partial\':\n            the_reply = "\xce\x9f\xe1\xbd\x90 \xce\xba\xce\xac\xce\xba\xce\xbf\xcf\x82. You\'re close."\n        else:\n            the_reply = "Incorrect. Try again!"\n\n        #add a record for this attempt in db.attempt_log\n        db.attempt_log.insert(question=session.q_ID, score=q.score, quiz=session.path_id)\n\n        return dict(reply=the_reply, answer=session.readable_answer, raw_answer=session.answer, score=session.score)\n\n    #if there\'s an error thrown after submitting an answer\n    elif request.args(0) == \'error\':\n        if request.args(1) == \'unknown\':\n            db.q_bugs.insert(question=session.qID, a_submitted=request.vars.answer)\n            #TODO: fix problem with changing column name for status\n            #db(db.questions.id==session.qID).update(qqq_status=1);\n        if request.args(1) == \'regex\':\n            db.q_bugs.insert(question=session.qID, a_submitted=request.vars.answer)\n            #db(db.questions.id==session.qID).update(qqq_status=1);\n        message = "Oops! Something about that question confused me, and I\'m not sure whether your answer was right. Let\'s try another one."\n        button = A(\'continue\', _href=URL(\'index\', args=[\'ask\']), _class=\'button-green-grad next_q\', cid=request.cid)\n        #don\'t include this question in counting the number attempted\n        session.q_counter -= 1\n        return dict(message = message, button = button)\n\n    #when first arrive at start page\n    else:\n        the_quizzes = db().select(db.quizzes.ALL, orderby=db.quizzes.quiz)\n        return dict(quizzes = the_quizzes)\n\nresponse._vars=response._caller(index)\n'
p7
sS'snapshot'
p8
(dp9
S'exception'
p10
(dp11
S'__hash__'
p12
S"<method-wrapper '__hash__' of exceptions.NameError object>"
p13
sS'__setattr__'
p14
S"<method-wrapper '__setattr__' of exceptions.NameError object>"
p15
sS'__reduce_ex__'
p16
S'<built-in method __reduce_ex__ of exceptions.NameError object>'
p17
sS'__getslice__'
p18
S"<method-wrapper '__getslice__' of exceptions.NameError object>"
p19
sS'__getitem__'
p20
S"<method-wrapper '__getitem__' of exceptions.NameError object>"
p21
sS'__setstate__'
p22
S'<built-in method __setstate__ of exceptions.NameError object>'
p23
sS'args'
p24
S'("global name \'cat\' is not defined",)'
p25
sS'__reduce__'
p26
S'<built-in method __reduce__ of exceptions.NameError object>'
p27
sS'__str__'
p28
S"<method-wrapper '__str__' of exceptions.NameError object>"
p29
sS'__format__'
p30
S'<built-in method __format__ of exceptions.NameError object>'
p31
sS'__getattribute__'
p32
S"<method-wrapper '__getattribute__' of exceptions.NameError object>"
p33
sS'__class__'
p34
S"<type 'exceptions.NameError'>"
p35
sS'__unicode__'
p36
S'<built-in method __unicode__ of exceptions.NameError object>'
p37
sS'__delattr__'
p38
S"<method-wrapper '__delattr__' of exceptions.NameError object>"
p39
sS'__subclasshook__'
p40
S'<built-in method __subclasshook__ of type object>'
p41
sS'__repr__'
p42
S"<method-wrapper '__repr__' of exceptions.NameError object>"
p43
sS'__dict__'
p44
S'{}'
p45
sS'__sizeof__'
p46
S'<built-in method __sizeof__ of exceptions.NameError object>'
p47
sS'__doc__'
p48
S"'Name not found globally.'"
p49
sS'__init__'
p50
S"<method-wrapper '__init__' of exceptions.NameError object>"
p51
sS'__new__'
p52
S'<built-in method __new__ of type object>'
p53
ssS'evalue'
p54
S"global name 'cat' is not defined"
p55
sS'request'
p56
ccopy_reg
_reconstructor
p57
(cgluon.html
BEAUTIFY
p58
c__builtin__
object
p59
NtRp60
(dp61
S'attributes'
p62
(dp63
sS'components'
p64
(lp65
g57
(cgluon.html
TABLE
p66
g59
NtRp67
(dp68
g62
(dp69
S'level'
p70
I5
ssS'parent'
p71
Nsg64
(lp72
g57
(cgluon.html
TR
p73
g59
NtRp74
(dp75
g62
(dp76
sg71
g67
sg64
(lp77
g57
(cgluon.html
TD
p78
g59
NtRp79
(dp80
g62
(dp81
S'_style'
p82
S'font-weight:bold;vertical-align:top'
p83
ssg71
g74
sg64
(lp84
S'ajax'
p85
asbag57
(g78
g59
NtRp86
(dp87
g62
(dp88
S'_valign'
p89
S'top'
p90
ssg71
g74
sg64
(lp91
S':'
asbag57
(g78
g59
NtRp92
(dp93
g62
(dp94
sg71
g74
sg64
(lp95
g57
(g58
g59
NtRp96
(dp97
g62
(dp98
g70
I5
ssg71
g92
sg64
(lp99
S'True'
p100
asbasbasbag57
(g73
g59
NtRp101
(dp102
g62
(dp103
sg71
g67
sg64
(lp104
g57
(g78
g59
NtRp105
(dp106
g62
(dp107
g82
g83
ssg71
g101
sg64
(lp108
S'application'
p109
asbag57
(g78
g59
NtRp110
(dp111
g62
(dp112
g89
g90
ssg71
g101
sg64
(lp113
S':'
asbag57
(g78
g59
NtRp114
(dp115
g62
(dp116
sg71
g101
sg64
(lp117
g57
(g58
g59
NtRp118
(dp119
g62
(dp120
g70
I5
ssg71
g114
sg64
(lp121
S'paideia'
p122
asbasbasbag57
(g73
g59
NtRp123
(dp124
g62
(dp125
sg71
g67
sg64
(lp126
g57
(g78
g59
NtRp127
(dp128
g62
(dp129
g82
g83
ssg71
g123
sg64
(lp130
g24
asbag57
(g78
g59
NtRp131
(dp132
g62
(dp133
g89
g90
ssg71
g123
sg64
(lp134
S':'
asbag57
(g78
g59
NtRp135
(dp136
g62
(dp137
sg71
g123
sg64
(lp138
g57
(g58
g59
NtRp139
(dp140
g62
(dp141
g70
I5
ssg71
g135
sg64
(lp142
g57
(g66
g59
NtRp143
(dp144
g62
(dp145
g70
I4
ssg71
Nsg64
(lp146
g57
(g73
g59
NtRp147
(dp148
g62
(dp149
sg71
g143
sg64
(lp150
g57
(g78
g59
NtRp151
(dp152
g62
(dp153
sg71
g147
sg64
(lp154
g57
(g58
g59
NtRp155
(dp156
g62
(dp157
g70
I4
ssg71
g151
sg64
(lp158
S'reply'
p159
asbasbasbasbasbasbasbag57
(g73
g59
NtRp160
(dp161
g62
(dp162
sg71
g67
sg64
(lp163
g57
(g78
g59
NtRp164
(dp165
g62
(dp166
g82
g83
ssg71
g160
sg64
(lp167
S'body'
p168
asbag57
(g78
g59
NtRp169
(dp170
g62
(dp171
g89
g90
ssg71
g160
sg64
(lp172
S':'
asbag57
(g78
g59
NtRp173
(dp174
g62
(dp175
sg71
g160
sg64
(lp176
g57
(g58
g59
NtRp177
(dp178
g62
(dp179
g70
I5
ssg71
g173
sg64
(lp180
S'<cStringIO.StringO object at 0x2a06298>'
p181
asbasbasbag57
(g73
g59
NtRp182
(dp183
g62
(dp184
sg71
g67
sg64
(lp185
g57
(g78
g59
NtRp186
(dp187
g62
(dp188
g82
g83
ssg71
g182
sg64
(lp189
S'cid'
p190
asbag57
(g78
g59
NtRp191
(dp192
g62
(dp193
g89
g90
ssg71
g182
sg64
(lp194
S':'
asbag57
(g78
g59
NtRp195
(dp196
g62
(dp197
sg71
g182
sg64
(lp198
g57
(g58
g59
NtRp199
(dp200
g62
(dp201
g70
I5
ssg71
g195
sg64
(lp202
S'page'
p203
asbasbasbag57
(g73
g59
NtRp204
(dp205
g62
(dp206
sg71
g67
sg64
(lp207
g57
(g78
g59
NtRp208
(dp209
g62
(dp210
g82
g83
ssg71
g204
sg64
(lp211
S'client'
p212
asbag57
(g78
g59
NtRp213
(dp214
g62
(dp215
g89
g90
ssg71
g204
sg64
(lp216
S':'
asbag57
(g78
g59
NtRp217
(dp218
g62
(dp219
sg71
g204
sg64
(lp220
g57
(g58
g59
NtRp221
(dp222
g62
(dp223
g70
I5
ssg71
g217
sg64
(lp224
S'127.0.0.1'
p225
asbasbasbag57
(g73
g59
NtRp226
(dp227
g62
(dp228
sg71
g67
sg64
(lp229
g57
(g78
g59
NtRp230
(dp231
g62
(dp232
g82
g83
ssg71
g226
sg64
(lp233
S'controller'
p234
asbag57
(g78
g59
NtRp235
(dp236
g62
(dp237
g89
g90
ssg71
g226
sg64
(lp238
S':'
asbag57
(g78
g59
NtRp239
(dp240
g62
(dp241
sg71
g226
sg64
(lp242
g57
(g58
g59
NtRp243
(dp244
g62
(dp245
g70
I5
ssg71
g239
sg64
(lp246
S'exploring'
p247
asbasbasbag57
(g73
g59
NtRp248
(dp249
g62
(dp250
sg71
g67
sg64
(lp251
g57
(g78
g59
NtRp252
(dp253
g62
(dp254
g82
g83
ssg71
g248
sg64
(lp255
S'cookies'
p256
asbag57
(g78
g59
NtRp257
(dp258
g62
(dp259
g89
g90
ssg71
g248
sg64
(lp260
S':'
asbag57
(g78
g59
NtRp261
(dp262
g62
(dp263
sg71
g248
sg64
(lp264
g57
(g58
g59
NtRp265
(dp266
g62
(dp267
g70
I5
ssg71
g261
sg64
(lp268
g57
(g66
g59
NtRp269
(dp270
g62
(dp271
g70
I4
ssg71
Nsg64
(lp272
g57
(g73
g59
NtRp273
(dp274
g62
(dp275
sg71
g269
sg64
(lp276
g57
(g78
g59
NtRp277
(dp278
g62
(dp279
g82
g83
ssg71
g273
sg64
(lp280
S'session_id_admin'
p281
asbag57
(g78
g59
NtRp282
(dp283
g62
(dp284
g89
g90
ssg71
g273
sg64
(lp285
S':'
asbag57
(g78
g59
NtRp286
(dp287
g62
(dp288
sg71
g273
sg64
(lp289
g57
(g58
g59
NtRp290
(dp291
g62
(dp292
g70
I4
ssg71
g286
sg64
(lp293
g57
(g66
g59
NtRp294
(dp295
g62
(dp296
g70
I3
ssg71
Nsg64
(lp297
g57
(g73
g59
NtRp298
(dp299
g62
(dp300
sg71
g294
sg64
(lp301
g57
(g78
g59
NtRp302
(dp303
g62
(dp304
g82
g83
ssg71
g298
sg64
(lp305
S'comment'
p306
asbag57
(g78
g59
NtRp307
(dp308
g62
(dp309
g89
g90
ssg71
g298
sg64
(lp310
S':'
asbag57
(g78
g59
NtRp311
(dp312
g62
(dp313
sg71
g298
sg64
(lp314
g57
(g58
g59
NtRp315
(dp316
g62
(dp317
g70
I3
ssg71
g311
sg64
(lp318
S''
asbasbasbag57
(g73
g59
NtRp319
(dp320
g62
(dp321
sg71
g294
sg64
(lp322
g57
(g78
g59
NtRp323
(dp324
g62
(dp325
g82
g83
ssg71
g319
sg64
(lp326
S'domain'
p327
asbag57
(g78
g59
NtRp328
(dp329
g62
(dp330
g89
g90
ssg71
g319
sg64
(lp331
S':'
asbag57
(g78
g59
NtRp332
(dp333
g62
(dp334
sg71
g319
sg64
(lp335
g57
(g58
g59
NtRp336
(dp337
g62
(dp338
g70
I3
ssg71
g332
sg64
(lp339
S''
asbasbasbag57
(g73
g59
NtRp340
(dp341
g62
(dp342
sg71
g294
sg64
(lp343
g57
(g78
g59
NtRp344
(dp345
g62
(dp346
g82
g83
ssg71
g340
sg64
(lp347
S'expires'
p348
asbag57
(g78
g59
NtRp349
(dp350
g62
(dp351
g89
g90
ssg71
g340
sg64
(lp352
S':'
asbag57
(g78
g59
NtRp353
(dp354
g62
(dp355
sg71
g340
sg64
(lp356
g57
(g58
g59
NtRp357
(dp358
g62
(dp359
g70
I3
ssg71
g353
sg64
(lp360
S''
asbasbasbag57
(g73
g59
NtRp361
(dp362
g62
(dp363
sg71
g294
sg64
(lp364
g57
(g78
g59
NtRp365
(dp366
g62
(dp367
g82
g83
ssg71
g361
sg64
(lp368
S'httponly'
p369
asbag57
(g78
g59
NtRp370
(dp371
g62
(dp372
g89
g90
ssg71
g361
sg64
(lp373
S':'
asbag57
(g78
g59
NtRp374
(dp375
g62
(dp376
sg71
g361
sg64
(lp377
g57
(g58
g59
NtRp378
(dp379
g62
(dp380
g70
I3
ssg71
g374
sg64
(lp381
S''
asbasbasbag57
(g73
g59
NtRp382
(dp383
g62
(dp384
sg71
g294
sg64
(lp385
g57
(g78
g59
NtRp386
(dp387
g62
(dp388
g82
g83
ssg71
g382
sg64
(lp389
S'max-age'
p390
asbag57
(g78
g59
NtRp391
(dp392
g62
(dp393
g89
g90
ssg71
g382
sg64
(lp394
S':'
asbag57
(g78
g59
NtRp395
(dp396
g62
(dp397
sg71
g382
sg64
(lp398
g57
(g58
g59
NtRp399
(dp400
g62
(dp401
g70
I3
ssg71
g395
sg64
(lp402
S''
asbasbasbag57
(g73
g59
NtRp403
(dp404
g62
(dp405
sg71
g294
sg64
(lp406
g57
(g78
g59
NtRp407
(dp408
g62
(dp409
g82
g83
ssg71
g403
sg64
(lp410
S'path'
p411
asbag57
(g78
g59
NtRp412
(dp413
g62
(dp414
g89
g90
ssg71
g403
sg64
(lp415
S':'
asbag57
(g78
g59
NtRp416
(dp417
g62
(dp418
sg71
g403
sg64
(lp419
g57
(g58
g59
NtRp420
(dp421
g62
(dp422
g70
I3
ssg71
g416
sg64
(lp423
S''
asbasbasbag57
(g73
g59
NtRp424
(dp425
g62
(dp426
sg71
g294
sg64
(lp427
g57
(g78
g59
NtRp428
(dp429
g62
(dp430
g82
g83
ssg71
g424
sg64
(lp431
S'secure'
p432
asbag57
(g78
g59
NtRp433
(dp434
g62
(dp435
g89
g90
ssg71
g424
sg64
(lp436
S':'
asbag57
(g78
g59
NtRp437
(dp438
g62
(dp439
sg71
g424
sg64
(lp440
g57
(g58
g59
NtRp441
(dp442
g62
(dp443
g70
I3
ssg71
g437
sg64
(lp444
S''
asbasbasbag57
(g73
g59
NtRp445
(dp446
g62
(dp447
sg71
g294
sg64
(lp448
g57
(g78
g59
NtRp449
(dp450
g62
(dp451
g82
g83
ssg71
g445
sg64
(lp452
S'version'
p453
asbag57
(g78
g59
NtRp454
(dp455
g62
(dp456
g89
g90
ssg71
g445
sg64
(lp457
S':'
asbag57
(g78
g59
NtRp458
(dp459
g62
(dp460
sg71
g445
sg64
(lp461
g57
(g58
g59
NtRp462
(dp463
g62
(dp464
g70
I3
ssg71
g458
sg64
(lp465
S''
asbasbasbasbasbasbasbag57
(g73
g59
NtRp466
(dp467
g62
(dp468
sg71
g269
sg64
(lp469
g57
(g78
g59
NtRp470
(dp471
g62
(dp472
g82
g83
ssg71
g466
sg64
(lp473
S'session_id_grades'
p474
asbag57
(g78
g59
NtRp475
(dp476
g62
(dp477
g89
g90
ssg71
g466
sg64
(lp478
S':'
asbag57
(g78
g59
NtRp479
(dp480
g62
(dp481
sg71
g466
sg64
(lp482
g57
(g58
g59
NtRp483
(dp484
g62
(dp485
g70
I4
ssg71
g479
sg64
(lp486
g57
(g66
g59
NtRp487
(dp488
g62
(dp489
g70
I3
ssg71
Nsg64
(lp490
g57
(g73
g59
NtRp491
(dp492
g62
(dp493
sg71
g487
sg64
(lp494
g57
(g78
g59
NtRp495
(dp496
g62
(dp497
g82
g83
ssg71
g491
sg64
(lp498
g306
asbag57
(g78
g59
NtRp499
(dp500
g62
(dp501
g89
g90
ssg71
g491
sg64
(lp502
S':'
asbag57
(g78
g59
NtRp503
(dp504
g62
(dp505
sg71
g491
sg64
(lp506
g57
(g58
g59
NtRp507
(dp508
g62
(dp509
g70
I3
ssg71
g503
sg64
(lp510
S''
asbasbasbag57
(g73
g59
NtRp511
(dp512
g62
(dp513
sg71
g487
sg64
(lp514
g57
(g78
g59
NtRp515
(dp516
g62
(dp517
g82
g83
ssg71
g511
sg64
(lp518
g327
asbag57
(g78
g59
NtRp519
(dp520
g62
(dp521
g89
g90
ssg71
g511
sg64
(lp522
S':'
asbag57
(g78
g59
NtRp523
(dp524
g62
(dp525
sg71
g511
sg64
(lp526
g57
(g58
g59
NtRp527
(dp528
g62
(dp529
g70
I3
ssg71
g523
sg64
(lp530
S''
asbasbasbag57
(g73
g59
NtRp531
(dp532
g62
(dp533
sg71
g487
sg64
(lp534
g57
(g78
g59
NtRp535
(dp536
g62
(dp537
g82
g83
ssg71
g531
sg64
(lp538
g348
asbag57
(g78
g59
NtRp539
(dp540
g62
(dp541
g89
g90
ssg71
g531
sg64
(lp542
S':'
asbag57
(g78
g59
NtRp543
(dp544
g62
(dp545
sg71
g531
sg64
(lp546
g57
(g58
g59
NtRp547
(dp548
g62
(dp549
g70
I3
ssg71
g543
sg64
(lp550
S''
asbasbasbag57
(g73
g59
NtRp551
(dp552
g62
(dp553
sg71
g487
sg64
(lp554
g57
(g78
g59
NtRp555
(dp556
g62
(dp557
g82
g83
ssg71
g551
sg64
(lp558
g369
asbag57
(g78
g59
NtRp559
(dp560
g62
(dp561
g89
g90
ssg71
g551
sg64
(lp562
S':'
asbag57
(g78
g59
NtRp563
(dp564
g62
(dp565
sg71
g551
sg64
(lp566
g57
(g58
g59
NtRp567
(dp568
g62
(dp569
g70
I3
ssg71
g563
sg64
(lp570
S''
asbasbasbag57
(g73
g59
NtRp571
(dp572
g62
(dp573
sg71
g487
sg64
(lp574
g57
(g78
g59
NtRp575
(dp576
g62
(dp577
g82
g83
ssg71
g571
sg64
(lp578
g390
asbag57
(g78
g59
NtRp579
(dp580
g62
(dp581
g89
g90
ssg71
g571
sg64
(lp582
S':'
asbag57
(g78
g59
NtRp583
(dp584
g62
(dp585
sg71
g571
sg64
(lp586
g57
(g58
g59
NtRp587
(dp588
g62
(dp589
g70
I3
ssg71
g583
sg64
(lp590
S''
asbasbasbag57
(g73
g59
NtRp591
(dp592
g62
(dp593
sg71
g487
sg64
(lp594
g57
(g78
g59
NtRp595
(dp596
g62
(dp597
g82
g83
ssg71
g591
sg64
(lp598
g411
asbag57
(g78
g59
NtRp599
(dp600
g62
(dp601
g89
g90
ssg71
g591
sg64
(lp602
S':'
asbag57
(g78
g59
NtRp603
(dp604
g62
(dp605
sg71
g591
sg64
(lp606
g57
(g58
g59
NtRp607
(dp608
g62
(dp609
g70
I3
ssg71
g603
sg64
(lp610
S''
asbasbasbag57
(g73
g59
NtRp611
(dp612
g62
(dp613
sg71
g487
sg64
(lp614
g57
(g78
g59
NtRp615
(dp616
g62
(dp617
g82
g83
ssg71
g611
sg64
(lp618
g432
asbag57
(g78
g59
NtRp619
(dp620
g62
(dp621
g89
g90
ssg71
g611
sg64
(lp622
S':'
asbag57
(g78
g59
NtRp623
(dp624
g62
(dp625
sg71
g611
sg64
(lp626
g57
(g58
g59
NtRp627
(dp628
g62
(dp629
g70
I3
ssg71
g623
sg64
(lp630
S''
asbasbasbag57
(g73
g59
NtRp631
(dp632
g62
(dp633
sg71
g487
sg64
(lp634
g57
(g78
g59
NtRp635
(dp636
g62
(dp637
g82
g83
ssg71
g631
sg64
(lp638
g453
asbag57
(g78
g59
NtRp639
(dp640
g62
(dp641
g89
g90
ssg71
g631
sg64
(lp642
S':'
asbag57
(g78
g59
NtRp643
(dp644
g62
(dp645
sg71
g631
sg64
(lp646
g57
(g58
g59
NtRp647
(dp648
g62
(dp649
g70
I3
ssg71
g643
sg64
(lp650
S''
asbasbasbasbasbasbasbag57
(g73
g59
NtRp651
(dp652
g62
(dp653
sg71
g269
sg64
(lp654
g57
(g78
g59
NtRp655
(dp656
g62
(dp657
g82
g83
ssg71
g651
sg64
(lp658
S'session_id_grammateus3'
p659
asbag57
(g78
g59
NtRp660
(dp661
g62
(dp662
g89
g90
ssg71
g651
sg64
(lp663
S':'
asbag57
(g78
g59
NtRp664
(dp665
g62
(dp666
sg71
g651
sg64
(lp667
g57
(g58
g59
NtRp668
(dp669
g62
(dp670
g70
I4
ssg71
g664
sg64
(lp671
g57
(g66
g59
NtRp672
(dp673
g62
(dp674
g70
I3
ssg71
Nsg64
(lp675
g57
(g73
g59
NtRp676
(dp677
g62
(dp678
sg71
g672
sg64
(lp679
g57
(g78
g59
NtRp680
(dp681
g62
(dp682
g82
g83
ssg71
g676
sg64
(lp683
g306
asbag57
(g78
g59
NtRp684
(dp685
g62
(dp686
g89
g90
ssg71
g676
sg64
(lp687
S':'
asbag57
(g78
g59
NtRp688
(dp689
g62
(dp690
sg71
g676
sg64
(lp691
g57
(g58
g59
NtRp692
(dp693
g62
(dp694
g70
I3
ssg71
g688
sg64
(lp695
S''
asbasbasbag57
(g73
g59
NtRp696
(dp697
g62
(dp698
sg71
g672
sg64
(lp699
g57
(g78
g59
NtRp700
(dp701
g62
(dp702
g82
g83
ssg71
g696
sg64
(lp703
g327
asbag57
(g78
g59
NtRp704
(dp705
g62
(dp706
g89
g90
ssg71
g696
sg64
(lp707
S':'
asbag57
(g78
g59
NtRp708
(dp709
g62
(dp710
sg71
g696
sg64
(lp711
g57
(g58
g59
NtRp712
(dp713
g62
(dp714
g70
I3
ssg71
g708
sg64
(lp715
S''
asbasbasbag57
(g73
g59
NtRp716
(dp717
g62
(dp718
sg71
g672
sg64
(lp719
g57
(g78
g59
NtRp720
(dp721
g62
(dp722
g82
g83
ssg71
g716
sg64
(lp723
g348
asbag57
(g78
g59
NtRp724
(dp725
g62
(dp726
g89
g90
ssg71
g716
sg64
(lp727
S':'
asbag57
(g78
g59
NtRp728
(dp729
g62
(dp730
sg71
g716
sg64
(lp731
g57
(g58
g59
NtRp732
(dp733
g62
(dp734
g70
I3
ssg71
g728
sg64
(lp735
S''
asbasbasbag57
(g73
g59
NtRp736
(dp737
g62
(dp738
sg71
g672
sg64
(lp739
g57
(g78
g59
NtRp740
(dp741
g62
(dp742
g82
g83
ssg71
g736
sg64
(lp743
g369
asbag57
(g78
g59
NtRp744
(dp745
g62
(dp746
g89
g90
ssg71
g736
sg64
(lp747
S':'
asbag57
(g78
g59
NtRp748
(dp749
g62
(dp750
sg71
g736
sg64
(lp751
g57
(g58
g59
NtRp752
(dp753
g62
(dp754
g70
I3
ssg71
g748
sg64
(lp755
S''
asbasbasbag57
(g73
g59
NtRp756
(dp757
g62
(dp758
sg71
g672
sg64
(lp759
g57
(g78
g59
NtRp760
(dp761
g62
(dp762
g82
g83
ssg71
g756
sg64
(lp763
g390
asbag57
(g78
g59
NtRp764
(dp765
g62
(dp766
g89
g90
ssg71
g756
sg64
(lp767
S':'
asbag57
(g78
g59
NtRp768
(dp769
g62
(dp770
sg71
g756
sg64
(lp771
g57
(g58
g59
NtRp772
(dp773
g62
(dp774
g70
I3
ssg71
g768
sg64
(lp775
S''
asbasbasbag57
(g73
g59
NtRp776
(dp777
g62
(dp778
sg71
g672
sg64
(lp779
g57
(g78
g59
NtRp780
(dp781
g62
(dp782
g82
g83
ssg71
g776
sg64
(lp783
g411
asbag57
(g78
g59
NtRp784
(dp785
g62
(dp786
g89
g90
ssg71
g776
sg64
(lp787
S':'
asbag57
(g78
g59
NtRp788
(dp789
g62
(dp790
sg71
g776
sg64
(lp791
g57
(g58
g59
NtRp792
(dp793
g62
(dp794
g70
I3
ssg71
g788
sg64
(lp795
S''
asbasbasbag57
(g73
g59
NtRp796
(dp797
g62
(dp798
sg71
g672
sg64
(lp799
g57
(g78
g59
NtRp800
(dp801
g62
(dp802
g82
g83
ssg71
g796
sg64
(lp803
g432
asbag57
(g78
g59
NtRp804
(dp805
g62
(dp806
g89
g90
ssg71
g796
sg64
(lp807
S':'
asbag57
(g78
g59
NtRp808
(dp809
g62
(dp810
sg71
g796
sg64
(lp811
g57
(g58
g59
NtRp812
(dp813
g62
(dp814
g70
I3
ssg71
g808
sg64
(lp815
S''
asbasbasbag57
(g73
g59
NtRp816
(dp817
g62
(dp818
sg71
g672
sg64
(lp819
g57
(g78
g59
NtRp820
(dp821
g62
(dp822
g82
g83
ssg71
g816
sg64
(lp823
g453
asbag57
(g78
g59
NtRp824
(dp825
g62
(dp826
g89
g90
ssg71
g816
sg64
(lp827
S':'
asbag57
(g78
g59
NtRp828
(dp829
g62
(dp830
sg71
g816
sg64
(lp831
g57
(g58
g59
NtRp832
(dp833
g62
(dp834
g70
I3
ssg71
g828
sg64
(lp835
S''
asbasbasbasbasbasbasbag57
(g73
g59
NtRp836
(dp837
g62
(dp838
sg71
g269
sg64
(lp839
g57
(g78
g59
NtRp840
(dp841
g62
(dp842
g82
g83
ssg71
g836
sg64
(lp843
S'session_id_paideia'
p844
asbag57
(g78
g59
NtRp845
(dp846
g62
(dp847
g89
g90
ssg71
g836
sg64
(lp848
S':'
asbag57
(g78
g59
NtRp849
(dp850
g62
(dp851
sg71
g836
sg64
(lp852
g57
(g58
g59
NtRp853
(dp854
g62
(dp855
g70
I4
ssg71
g849
sg64
(lp856
g57
(g66
g59
NtRp857
(dp858
g62
(dp859
g70
I3
ssg71
Nsg64
(lp860
g57
(g73
g59
NtRp861
(dp862
g62
(dp863
sg71
g857
sg64
(lp864
g57
(g78
g59
NtRp865
(dp866
g62
(dp867
g82
g83
ssg71
g861
sg64
(lp868
g306
asbag57
(g78
g59
NtRp869
(dp870
g62
(dp871
g89
g90
ssg71
g861
sg64
(lp872
S':'
asbag57
(g78
g59
NtRp873
(dp874
g62
(dp875
sg71
g861
sg64
(lp876
g57
(g58
g59
NtRp877
(dp878
g62
(dp879
g70
I3
ssg71
g873
sg64
(lp880
S''
asbasbasbag57
(g73
g59
NtRp881
(dp882
g62
(dp883
sg71
g857
sg64
(lp884
g57
(g78
g59
NtRp885
(dp886
g62
(dp887
g82
g83
ssg71
g881
sg64
(lp888
g327
asbag57
(g78
g59
NtRp889
(dp890
g62
(dp891
g89
g90
ssg71
g881
sg64
(lp892
S':'
asbag57
(g78
g59
NtRp893
(dp894
g62
(dp895
sg71
g881
sg64
(lp896
g57
(g58
g59
NtRp897
(dp898
g62
(dp899
g70
I3
ssg71
g893
sg64
(lp900
S''
asbasbasbag57
(g73
g59
NtRp901
(dp902
g62
(dp903
sg71
g857
sg64
(lp904
g57
(g78
g59
NtRp905
(dp906
g62
(dp907
g82
g83
ssg71
g901
sg64
(lp908
g348
asbag57
(g78
g59
NtRp909
(dp910
g62
(dp911
g89
g90
ssg71
g901
sg64
(lp912
S':'
asbag57
(g78
g59
NtRp913
(dp914
g62
(dp915
sg71
g901
sg64
(lp916
g57
(g58
g59
NtRp917
(dp918
g62
(dp919
g70
I3
ssg71
g913
sg64
(lp920
S''
asbasbasbag57
(g73
g59
NtRp921
(dp922
g62
(dp923
sg71
g857
sg64
(lp924
g57
(g78
g59
NtRp925
(dp926
g62
(dp927
g82
g83
ssg71
g921
sg64
(lp928
g369
asbag57
(g78
g59
NtRp929
(dp930
g62
(dp931
g89
g90
ssg71
g921
sg64
(lp932
S':'
asbag57
(g78
g59
NtRp933
(dp934
g62
(dp935
sg71
g921
sg64
(lp936
g57
(g58
g59
NtRp937
(dp938
g62
(dp939
g70
I3
ssg71
g933
sg64
(lp940
S''
asbasbasbag57
(g73
g59
NtRp941
(dp942
g62
(dp943
sg71
g857
sg64
(lp944
g57
(g78
g59
NtRp945
(dp946
g62
(dp947
g82
g83
ssg71
g941
sg64
(lp948
g390
asbag57
(g78
g59
NtRp949
(dp950
g62
(dp951
g89
g90
ssg71
g941
sg64
(lp952
S':'
asbag57
(g78
g59
NtRp953
(dp954
g62
(dp955
sg71
g941
sg64
(lp956
g57
(g58
g59
NtRp957
(dp958
g62
(dp959
g70
I3
ssg71
g953
sg64
(lp960
S''
asbasbasbag57
(g73
g59
NtRp961
(dp962
g62
(dp963
sg71
g857
sg64
(lp964
g57
(g78
g59
NtRp965
(dp966
g62
(dp967
g82
g83
ssg71
g961
sg64
(lp968
g411
asbag57
(g78
g59
NtRp969
(dp970
g62
(dp971
g89
g90
ssg71
g961
sg64
(lp972
S':'
asbag57
(g78
g59
NtRp973
(dp974
g62
(dp975
sg71
g961
sg64
(lp976
g57
(g58
g59
NtRp977
(dp978
g62
(dp979
g70
I3
ssg71
g973
sg64
(lp980
S''
asbasbasbag57
(g73
g59
NtRp981
(dp982
g62
(dp983
sg71
g857
sg64
(lp984
g57
(g78
g59
NtRp985
(dp986
g62
(dp987
g82
g83
ssg71
g981
sg64
(lp988
g432
asbag57
(g78
g59
NtRp989
(dp990
g62
(dp991
g89
g90
ssg71
g981
sg64
(lp992
S':'
asbag57
(g78
g59
NtRp993
(dp994
g62
(dp995
sg71
g981
sg64
(lp996
g57
(g58
g59
NtRp997
(dp998
g62
(dp999
g70
I3
ssg71
g993
sg64
(lp1000
S''
asbasbasbag57
(g73
g59
NtRp1001
(dp1002
g62
(dp1003
sg71
g857
sg64
(lp1004
g57
(g78
g59
NtRp1005
(dp1006
g62
(dp1007
g82
g83
ssg71
g1001
sg64
(lp1008
g453
asbag57
(g78
g59
NtRp1009
(dp1010
g62
(dp1011
g89
g90
ssg71
g1001
sg64
(lp1012
S':'
asbag57
(g78
g59
NtRp1013
(dp1014
g62
(dp1015
sg71
g1001
sg64
(lp1016
g57
(g58
g59
NtRp1017
(dp1018
g62
(dp1019
g70
I3
ssg71
g1013
sg64
(lp1020
S''
asbasbasbasbasbasbasbag57
(g73
g59
NtRp1021
(dp1022
g62
(dp1023
sg71
g269
sg64
(lp1024
g57
(g78
g59
NtRp1025
(dp1026
g62
(dp1027
g82
g83
ssg71
g1021
sg64
(lp1028
S'session_id_places'
p1029
asbag57
(g78
g59
NtRp1030
(dp1031
g62
(dp1032
g89
g90
ssg71
g1021
sg64
(lp1033
S':'
asbag57
(g78
g59
NtRp1034
(dp1035
g62
(dp1036
sg71
g1021
sg64
(lp1037
g57
(g58
g59
NtRp1038
(dp1039
g62
(dp1040
g70
I4
ssg71
g1034
sg64
(lp1041
g57
(g66
g59
NtRp1042
(dp1043
g62
(dp1044
g70
I3
ssg71
Nsg64
(lp1045
g57
(g73
g59
NtRp1046
(dp1047
g62
(dp1048
sg71
g1042
sg64
(lp1049
g57
(g78
g59
NtRp1050
(dp1051
g62
(dp1052
g82
g83
ssg71
g1046
sg64
(lp1053
g306
asbag57
(g78
g59
NtRp1054
(dp1055
g62
(dp1056
g89
g90
ssg71
g1046
sg64
(lp1057
S':'
asbag57
(g78
g59
NtRp1058
(dp1059
g62
(dp1060
sg71
g1046
sg64
(lp1061
g57
(g58
g59
NtRp1062
(dp1063
g62
(dp1064
g70
I3
ssg71
g1058
sg64
(lp1065
S''
asbasbasbag57
(g73
g59
NtRp1066
(dp1067
g62
(dp1068
sg71
g1042
sg64
(lp1069
g57
(g78
g59
NtRp1070
(dp1071
g62
(dp1072
g82
g83
ssg71
g1066
sg64
(lp1073
g327
asbag57
(g78
g59
NtRp1074
(dp1075
g62
(dp1076
g89
g90
ssg71
g1066
sg64
(lp1077
S':'
asbag57
(g78
g59
NtRp1078
(dp1079
g62
(dp1080
sg71
g1066
sg64
(lp1081
g57
(g58
g59
NtRp1082
(dp1083
g62
(dp1084
g70
I3
ssg71
g1078
sg64
(lp1085
S''
asbasbasbag57
(g73
g59
NtRp1086
(dp1087
g62
(dp1088
sg71
g1042
sg64
(lp1089
g57
(g78
g59
NtRp1090
(dp1091
g62
(dp1092
g82
g83
ssg71
g1086
sg64
(lp1093
g348
asbag57
(g78
g59
NtRp1094
(dp1095
g62
(dp1096
g89
g90
ssg71
g1086
sg64
(lp1097
S':'
asbag57
(g78
g59
NtRp1098
(dp1099
g62
(dp1100
sg71
g1086
sg64
(lp1101
g57
(g58
g59
NtRp1102
(dp1103
g62
(dp1104
g70
I3
ssg71
g1098
sg64
(lp1105
S''
asbasbasbag57
(g73
g59
NtRp1106
(dp1107
g62
(dp1108
sg71
g1042
sg64
(lp1109
g57
(g78
g59
NtRp1110
(dp1111
g62
(dp1112
g82
g83
ssg71
g1106
sg64
(lp1113
g369
asbag57
(g78
g59
NtRp1114
(dp1115
g62
(dp1116
g89
g90
ssg71
g1106
sg64
(lp1117
S':'
asbag57
(g78
g59
NtRp1118
(dp1119
g62
(dp1120
sg71
g1106
sg64
(lp1121
g57
(g58
g59
NtRp1122
(dp1123
g62
(dp1124
g70
I3
ssg71
g1118
sg64
(lp1125
S''
asbasbasbag57
(g73
g59
NtRp1126
(dp1127
g62
(dp1128
sg71
g1042
sg64
(lp1129
g57
(g78
g59
NtRp1130
(dp1131
g62
(dp1132
g82
g83
ssg71
g1126
sg64
(lp1133
g390
asbag57
(g78
g59
NtRp1134
(dp1135
g62
(dp1136
g89
g90
ssg71
g1126
sg64
(lp1137
S':'
asbag57
(g78
g59
NtRp1138
(dp1139
g62
(dp1140
sg71
g1126
sg64
(lp1141
g57
(g58
g59
NtRp1142
(dp1143
g62
(dp1144
g70
I3
ssg71
g1138
sg64
(lp1145
S''
asbasbasbag57
(g73
g59
NtRp1146
(dp1147
g62
(dp1148
sg71
g1042
sg64
(lp1149
g57
(g78
g59
NtRp1150
(dp1151
g62
(dp1152
g82
g83
ssg71
g1146
sg64
(lp1153
g411
asbag57
(g78
g59
NtRp1154
(dp1155
g62
(dp1156
g89
g90
ssg71
g1146
sg64
(lp1157
S':'
asbag57
(g78
g59
NtRp1158
(dp1159
g62
(dp1160
sg71
g1146
sg64
(lp1161
g57
(g58
g59
NtRp1162
(dp1163
g62
(dp1164
g70
I3
ssg71
g1158
sg64
(lp1165
S''
asbasbasbag57
(g73
g59
NtRp1166
(dp1167
g62
(dp1168
sg71
g1042
sg64
(lp1169
g57
(g78
g59
NtRp1170
(dp1171
g62
(dp1172
g82
g83
ssg71
g1166
sg64
(lp1173
g432
asbag57
(g78
g59
NtRp1174
(dp1175
g62
(dp1176
g89
g90
ssg71
g1166
sg64
(lp1177
S':'
asbag57
(g78
g59
NtRp1178
(dp1179
g62
(dp1180
sg71
g1166
sg64
(lp1181
g57
(g58
g59
NtRp1182
(dp1183
g62
(dp1184
g70
I3
ssg71
g1178
sg64
(lp1185
S''
asbasbasbag57
(g73
g59
NtRp1186
(dp1187
g62
(dp1188
sg71
g1042
sg64
(lp1189
g57
(g78
g59
NtRp1190
(dp1191
g62
(dp1192
g82
g83
ssg71
g1186
sg64
(lp1193
g453
asbag57
(g78
g59
NtRp1194
(dp1195
g62
(dp1196
g89
g90
ssg71
g1186
sg64
(lp1197
S':'
asbag57
(g78
g59
NtRp1198
(dp1199
g62
(dp1200
sg71
g1186
sg64
(lp1201
g57
(g58
g59
NtRp1202
(dp1203
g62
(dp1204
g70
I3
ssg71
g1198
sg64
(lp1205
S''
asbasbasbasbasbasbasbag57
(g73
g59
NtRp1206
(dp1207
g62
(dp1208
sg71
g269
sg64
(lp1209
g57
(g78
g59
NtRp1210
(dp1211
g62
(dp1212
g82
g83
ssg71
g1206
sg64
(lp1213
S'session_id_topoi'
p1214
asbag57
(g78
g59
NtRp1215
(dp1216
g62
(dp1217
g89
g90
ssg71
g1206
sg64
(lp1218
S':'
asbag57
(g78
g59
NtRp1219
(dp1220
g62
(dp1221
sg71
g1206
sg64
(lp1222
g57
(g58
g59
NtRp1223
(dp1224
g62
(dp1225
g70
I4
ssg71
g1219
sg64
(lp1226
g57
(g66
g59
NtRp1227
(dp1228
g62
(dp1229
g70
I3
ssg71
Nsg64
(lp1230
g57
(g73
g59
NtRp1231
(dp1232
g62
(dp1233
sg71
g1227
sg64
(lp1234
g57
(g78
g59
NtRp1235
(dp1236
g62
(dp1237
g82
g83
ssg71
g1231
sg64
(lp1238
g306
asbag57
(g78
g59
NtRp1239
(dp1240
g62
(dp1241
g89
g90
ssg71
g1231
sg64
(lp1242
S':'
asbag57
(g78
g59
NtRp1243
(dp1244
g62
(dp1245
sg71
g1231
sg64
(lp1246
g57
(g58
g59
NtRp1247
(dp1248
g62
(dp1249
g70
I3
ssg71
g1243
sg64
(lp1250
S''
asbasbasbag57
(g73
g59
NtRp1251
(dp1252
g62
(dp1253
sg71
g1227
sg64
(lp1254
g57
(g78
g59
NtRp1255
(dp1256
g62
(dp1257
g82
g83
ssg71
g1251
sg64
(lp1258
g327
asbag57
(g78
g59
NtRp1259
(dp1260
g62
(dp1261
g89
g90
ssg71
g1251
sg64
(lp1262
S':'
asbag57
(g78
g59
NtRp1263
(dp1264
g62
(dp1265
sg71
g1251
sg64
(lp1266
g57
(g58
g59
NtRp1267
(dp1268
g62
(dp1269
g70
I3
ssg71
g1263
sg64
(lp1270
S''
asbasbasbag57
(g73
g59
NtRp1271
(dp1272
g62
(dp1273
sg71
g1227
sg64
(lp1274
g57
(g78
g59
NtRp1275
(dp1276
g62
(dp1277
g82
g83
ssg71
g1271
sg64
(lp1278
g348
asbag57
(g78
g59
NtRp1279
(dp1280
g62
(dp1281
g89
g90
ssg71
g1271
sg64
(lp1282
S':'
asbag57
(g78
g59
NtRp1283
(dp1284
g62
(dp1285
sg71
g1271
sg64
(lp1286
g57
(g58
g59
NtRp1287
(dp1288
g62
(dp1289
g70
I3
ssg71
g1283
sg64
(lp1290
S''
asbasbasbag57
(g73
g59
NtRp1291
(dp1292
g62
(dp1293
sg71
g1227
sg64
(lp1294
g57
(g78
g59
NtRp1295
(dp1296
g62
(dp1297
g82
g83
ssg71
g1291
sg64
(lp1298
g369
asbag57
(g78
g59
NtRp1299
(dp1300
g62
(dp1301
g89
g90
ssg71
g1291
sg64
(lp1302
S':'
asbag57
(g78
g59
NtRp1303
(dp1304
g62
(dp1305
sg71
g1291
sg64
(lp1306
g57
(g58
g59
NtRp1307
(dp1308
g62
(dp1309
g70
I3
ssg71
g1303
sg64
(lp1310
S''
asbasbasbag57
(g73
g59
NtRp1311
(dp1312
g62
(dp1313
sg71
g1227
sg64
(lp1314
g57
(g78
g59
NtRp1315
(dp1316
g62
(dp1317
g82
g83
ssg71
g1311
sg64
(lp1318
g390
asbag57
(g78
g59
NtRp1319
(dp1320
g62
(dp1321
g89
g90
ssg71
g1311
sg64
(lp1322
S':'
asbag57
(g78
g59
NtRp1323
(dp1324
g62
(dp1325
sg71
g1311
sg64
(lp1326
g57
(g58
g59
NtRp1327
(dp1328
g62
(dp1329
g70
I3
ssg71
g1323
sg64
(lp1330
S''
asbasbasbag57
(g73
g59
NtRp1331
(dp1332
g62
(dp1333
sg71
g1227
sg64
(lp1334
g57
(g78
g59
NtRp1335
(dp1336
g62
(dp1337
g82
g83
ssg71
g1331
sg64
(lp1338
g411
asbag57
(g78
g59
NtRp1339
(dp1340
g62
(dp1341
g89
g90
ssg71
g1331
sg64
(lp1342
S':'
asbag57
(g78
g59
NtRp1343
(dp1344
g62
(dp1345
sg71
g1331
sg64
(lp1346
g57
(g58
g59
NtRp1347
(dp1348
g62
(dp1349
g70
I3
ssg71
g1343
sg64
(lp1350
S''
asbasbasbag57
(g73
g59
NtRp1351
(dp1352
g62
(dp1353
sg71
g1227
sg64
(lp1354
g57
(g78
g59
NtRp1355
(dp1356
g62
(dp1357
g82
g83
ssg71
g1351
sg64
(lp1358
g432
asbag57
(g78
g59
NtRp1359
(dp1360
g62
(dp1361
g89
g90
ssg71
g1351
sg64
(lp1362
S':'
asbag57
(g78
g59
NtRp1363
(dp1364
g62
(dp1365
sg71
g1351
sg64
(lp1366
g57
(g58
g59
NtRp1367
(dp1368
g62
(dp1369
g70
I3
ssg71
g1363
sg64
(lp1370
S''
asbasbasbag57
(g73
g59
NtRp1371
(dp1372
g62
(dp1373
sg71
g1227
sg64
(lp1374
g57
(g78
g59
NtRp1375
(dp1376
g62
(dp1377
g82
g83
ssg71
g1371
sg64
(lp1378
g453
asbag57
(g78
g59
NtRp1379
(dp1380
g62
(dp1381
g89
g90
ssg71
g1371
sg64
(lp1382
S':'
asbag57
(g78
g59
NtRp1383
(dp1384
g62
(dp1385
sg71
g1371
sg64
(lp1386
g57
(g58
g59
NtRp1387
(dp1388
g62
(dp1389
g70
I3
ssg71
g1383
sg64
(lp1390
S''
asbasbasbasbasbasbasbag57
(g73
g59
NtRp1391
(dp1392
g62
(dp1393
sg71
g269
sg64
(lp1394
g57
(g78
g59
NtRp1395
(dp1396
g62
(dp1397
g82
g83
ssg71
g1391
sg64
(lp1398
S'session_id_welcome'
p1399
asbag57
(g78
g59
NtRp1400
(dp1401
g62
(dp1402
g89
g90
ssg71
g1391
sg64
(lp1403
S':'
asbag57
(g78
g59
NtRp1404
(dp1405
g62
(dp1406
sg71
g1391
sg64
(lp1407
g57
(g58
g59
NtRp1408
(dp1409
g62
(dp1410
g70
I4
ssg71
g1404
sg64
(lp1411
g57
(g66
g59
NtRp1412
(dp1413
g62
(dp1414
g70
I3
ssg71
Nsg64
(lp1415
g57
(g73
g59
NtRp1416
(dp1417
g62
(dp1418
sg71
g1412
sg64
(lp1419
g57
(g78
g59
NtRp1420
(dp1421
g62
(dp1422
g82
g83
ssg71
g1416
sg64
(lp1423
g306
asbag57
(g78
g59
NtRp1424
(dp1425
g62
(dp1426
g89
g90
ssg71
g1416
sg64
(lp1427
S':'
asbag57
(g78
g59
NtRp1428
(dp1429
g62
(dp1430
sg71
g1416
sg64
(lp1431
g57
(g58
g59
NtRp1432
(dp1433
g62
(dp1434
g70
I3
ssg71
g1428
sg64
(lp1435
S''
asbasbasbag57
(g73
g59
NtRp1436
(dp1437
g62
(dp1438
sg71
g1412
sg64
(lp1439
g57
(g78
g59
NtRp1440
(dp1441
g62
(dp1442
g82
g83
ssg71
g1436
sg64
(lp1443
g327
asbag57
(g78
g59
NtRp1444
(dp1445
g62
(dp1446
g89
g90
ssg71
g1436
sg64
(lp1447
S':'
asbag57
(g78
g59
NtRp1448
(dp1449
g62
(dp1450
sg71
g1436
sg64
(lp1451
g57
(g58
g59
NtRp1452
(dp1453
g62
(dp1454
g70
I3
ssg71
g1448
sg64
(lp1455
S''
asbasbasbag57
(g73
g59
NtRp1456
(dp1457
g62
(dp1458
sg71
g1412
sg64
(lp1459
g57
(g78
g59
NtRp1460
(dp1461
g62
(dp1462
g82
g83
ssg71
g1456
sg64
(lp1463
g348
asbag57
(g78
g59
NtRp1464
(dp1465
g62
(dp1466
g89
g90
ssg71
g1456
sg64
(lp1467
S':'
asbag57
(g78
g59
NtRp1468
(dp1469
g62
(dp1470
sg71
g1456
sg64
(lp1471
g57
(g58
g59
NtRp1472
(dp1473
g62
(dp1474
g70
I3
ssg71
g1468
sg64
(lp1475
S''
asbasbasbag57
(g73
g59
NtRp1476
(dp1477
g62
(dp1478
sg71
g1412
sg64
(lp1479
g57
(g78
g59
NtRp1480
(dp1481
g62
(dp1482
g82
g83
ssg71
g1476
sg64
(lp1483
g369
asbag57
(g78
g59
NtRp1484
(dp1485
g62
(dp1486
g89
g90
ssg71
g1476
sg64
(lp1487
S':'
asbag57
(g78
g59
NtRp1488
(dp1489
g62
(dp1490
sg71
g1476
sg64
(lp1491
g57
(g58
g59
NtRp1492
(dp1493
g62
(dp1494
g70
I3
ssg71
g1488
sg64
(lp1495
S''
asbasbasbag57
(g73
g59
NtRp1496
(dp1497
g62
(dp1498
sg71
g1412
sg64
(lp1499
g57
(g78
g59
NtRp1500
(dp1501
g62
(dp1502
g82
g83
ssg71
g1496
sg64
(lp1503
g390
asbag57
(g78
g59
NtRp1504
(dp1505
g62
(dp1506
g89
g90
ssg71
g1496
sg64
(lp1507
S':'
asbag57
(g78
g59
NtRp1508
(dp1509
g62
(dp1510
sg71
g1496
sg64
(lp1511
g57
(g58
g59
NtRp1512
(dp1513
g62
(dp1514
g70
I3
ssg71
g1508
sg64
(lp1515
S''
asbasbasbag57
(g73
g59
NtRp1516
(dp1517
g62
(dp1518
sg71
g1412
sg64
(lp1519
g57
(g78
g59
NtRp1520
(dp1521
g62
(dp1522
g82
g83
ssg71
g1516
sg64
(lp1523
g411
asbag57
(g78
g59
NtRp1524
(dp1525
g62
(dp1526
g89
g90
ssg71
g1516
sg64
(lp1527
S':'
asbag57
(g78
g59
NtRp1528
(dp1529
g62
(dp1530
sg71
g1516
sg64
(lp1531
g57
(g58
g59
NtRp1532
(dp1533
g62
(dp1534
g70
I3
ssg71
g1528
sg64
(lp1535
S''
asbasbasbag57
(g73
g59
NtRp1536
(dp1537
g62
(dp1538
sg71
g1412
sg64
(lp1539
g57
(g78
g59
NtRp1540
(dp1541
g62
(dp1542
g82
g83
ssg71
g1536
sg64
(lp1543
g432
asbag57
(g78
g59
NtRp1544
(dp1545
g62
(dp1546
g89
g90
ssg71
g1536
sg64
(lp1547
S':'
asbag57
(g78
g59
NtRp1548
(dp1549
g62
(dp1550
sg71
g1536
sg64
(lp1551
g57
(g58
g59
NtRp1552
(dp1553
g62
(dp1554
g70
I3
ssg71
g1548
sg64
(lp1555
S''
asbasbasbag57
(g73
g59
NtRp1556
(dp1557
g62
(dp1558
sg71
g1412
sg64
(lp1559
g57
(g78
g59
NtRp1560
(dp1561
g62
(dp1562
g82
g83
ssg71
g1556
sg64
(lp1563
g453
asbag57
(g78
g59
NtRp1564
(dp1565
g62
(dp1566
g89
g90
ssg71
g1556
sg64
(lp1567
S':'
asbag57
(g78
g59
NtRp1568
(dp1569
g62
(dp1570
sg71
g1556
sg64
(lp1571
g57
(g58
g59
NtRp1572
(dp1573
g62
(dp1574
g70
I3
ssg71
g1568
sg64
(lp1575
S''
asbasbasbasbasbasbasbasbasbasbasbag57
(g73
g59
NtRp1576
(dp1577
g62
(dp1578
sg71
g67
sg64
(lp1579
g57
(g78
g59
NtRp1580
(dp1581
g62
(dp1582
g82
g83
ssg71
g1576
sg64
(lp1583
S'env'
p1584
asbag57
(g78
g59
NtRp1585
(dp1586
g62
(dp1587
g89
g90
ssg71
g1576
sg64
(lp1588
S':'
asbag57
(g78
g59
NtRp1589
(dp1590
g62
(dp1591
sg71
g1576
sg64
(lp1592
g57
(g58
g59
NtRp1593
(dp1594
g62
(dp1595
g70
I5
ssg71
g1589
sg64
(lp1596
g57
(g66
g59
NtRp1597
(dp1598
g62
(dp1599
g70
I4
ssg71
Nsg64
(lp1600
g57
(g73
g59
NtRp1601
(dp1602
g62
(dp1603
sg71
g1597
sg64
(lp1604
g57
(g78
g59
NtRp1605
(dp1606
g62
(dp1607
g82
g83
ssg71
g1601
sg64
(lp1608
S'app_folders'
p1609
asbag57
(g78
g59
NtRp1610
(dp1611
g62
(dp1612
g89
g90
ssg71
g1601
sg64
(lp1613
S':'
asbag57
(g78
g59
NtRp1614
(dp1615
g62
(dp1616
sg71
g1601
sg64
(lp1617
g57
(g58
g59
NtRp1618
(dp1619
g62
(dp1620
g70
I4
ssg71
g1614
sg64
(lp1621
S"set(['/home/ian/web2py/applications/grammateus3/', '/home/ian/web2py/applications/paideia/', '/home/ian/web2py/applications/welcome/', '/home/ian/web2py/applications/places/', '/home/ian/web2py/applications/admin/'])"
p1622
asbasbasbag57
(g73
g59
NtRp1623
(dp1624
g62
(dp1625
sg71
g1597
sg64
(lp1626
g57
(g78
g59
NtRp1627
(dp1628
g62
(dp1629
g82
g83
ssg71
g1623
sg64
(lp1630
S'applications_parent'
p1631
asbag57
(g78
g59
NtRp1632
(dp1633
g62
(dp1634
g89
g90
ssg71
g1623
sg64
(lp1635
S':'
asbag57
(g78
g59
NtRp1636
(dp1637
g62
(dp1638
sg71
g1623
sg64
(lp1639
g57
(g58
g59
NtRp1640
(dp1641
g62
(dp1642
g70
I4
ssg71
g1636
sg64
(lp1643
S'/home/ian/web2py'
p1644
asbasbasbag57
(g73
g59
NtRp1645
(dp1646
g62
(dp1647
sg71
g1597
sg64
(lp1648
g57
(g78
g59
NtRp1649
(dp1650
g62
(dp1651
g82
g83
ssg71
g1645
sg64
(lp1652
S'cmd_args'
p1653
asbag57
(g78
g59
NtRp1654
(dp1655
g62
(dp1656
g89
g90
ssg71
g1645
sg64
(lp1657
S':'
asbag57
(g78
g59
NtRp1658
(dp1659
g62
(dp1660
sg71
g1645
sg64
(lp1661
g57
(g58
g59
NtRp1662
(dp1663
g62
(dp1664
g70
I4
ssg71
g1658
sg64
(lp1665
g57
(g66
g59
NtRp1666
(dp1667
g62
(dp1668
g70
I3
ssg71
Nsg64
(lp1669
sbasbasbasbag57
(g73
g59
NtRp1670
(dp1671
g62
(dp1672
sg71
g1597
sg64
(lp1673
g57
(g78
g59
NtRp1674
(dp1675
g62
(dp1676
g82
g83
ssg71
g1670
sg64
(lp1677
S'cmd_options'
p1678
asbag57
(g78
g59
NtRp1679
(dp1680
g62
(dp1681
g89
g90
ssg71
g1670
sg64
(lp1682
S':'
asbag57
(g78
g59
NtRp1683
(dp1684
g62
(dp1685
sg71
g1670
sg64
(lp1686
g57
(g58
g59
NtRp1687
(dp1688
g62
(dp1689
g70
I4
ssg71
g1683
sg64
(lp1690
S"<Values at 0x1f97b00: {'verbose': False, 'ip': '127.0.0.1', 'shutdown_timeout': 5, 'taskbar': False, 'nocron': False, 'pid_filename': 'httpserver.pid', 'maxthreads': None, 'softcron': False, 'server_name': 'Ariel-ubuntu', 'bpython': False, 'nogui': False, 'port': 8000, 'extcron': False, 'debuglevel': 30, 'test': None, 'folder': '/home/ian/web2py', 'config': '', 'import_models': False, 'winservice': '', 'shell': None, 'run': '', 'log_filename': 'httpserver.log', 'args': [''], 'socket_timeout': 1, 'ssl_ca_certificate': None, 'scheduler': None, 'profiler_filename': None, 'ssl_private_key': '', 'password': '<ask>', 'request_queue_size': 5, 'ssl_certificate': '', 'cronjob': False, 'numthreads': None, 'quiet': False, 'interfaces': None, 'minthreads': None, 'timeout': 10, 'plain': False, 'nobanner': False}>"
p1691
asbasbasbag57
(g73
g59
NtRp1692
(dp1693
g62
(dp1694
sg71
g1597
sg64
(lp1695
g57
(g78
g59
NtRp1696
(dp1697
g62
(dp1698
g82
g83
ssg71
g1692
sg64
(lp1699
S'content_type'
p1700
asbag57
(g78
g59
NtRp1701
(dp1702
g62
(dp1703
g89
g90
ssg71
g1692
sg64
(lp1704
S':'
asbag57
(g78
g59
NtRp1705
(dp1706
g62
(dp1707
sg71
g1692
sg64
(lp1708
g57
(g58
g59
NtRp1709
(dp1710
g62
(dp1711
g70
I4
ssg71
g1705
sg64
(lp1712
S'application/x-www-form-urlencoded'
p1713
asbasbasbag57
(g73
g59
NtRp1714
(dp1715
g62
(dp1716
sg71
g1597
sg64
(lp1717
g57
(g78
g59
NtRp1718
(dp1719
g62
(dp1720
g82
g83
ssg71
g1714
sg64
(lp1721
S'db_sessions'
p1722
asbag57
(g78
g59
NtRp1723
(dp1724
g62
(dp1725
g89
g90
ssg71
g1714
sg64
(lp1726
S':'
asbag57
(g78
g59
NtRp1727
(dp1728
g62
(dp1729
sg71
g1714
sg64
(lp1730
g57
(g58
g59
NtRp1731
(dp1732
g62
(dp1733
g70
I4
ssg71
g1727
sg64
(lp1734
S'set([])'
p1735
asbasbasbag57
(g73
g59
NtRp1736
(dp1737
g62
(dp1738
sg71
g1597
sg64
(lp1739
g57
(g78
g59
NtRp1740
(dp1741
g62
(dp1742
g82
g83
ssg71
g1736
sg64
(lp1743
S'debugging'
p1744
asbag57
(g78
g59
NtRp1745
(dp1746
g62
(dp1747
g89
g90
ssg71
g1736
sg64
(lp1748
S':'
asbag57
(g78
g59
NtRp1749
(dp1750
g62
(dp1751
sg71
g1736
sg64
(lp1752
g57
(g58
g59
NtRp1753
(dp1754
g62
(dp1755
g70
I4
ssg71
g1749
sg64
(lp1756
S'False'
p1757
asbasbasbag57
(g73
g59
NtRp1758
(dp1759
g62
(dp1760
sg71
g1597
sg64
(lp1761
g57
(g78
g59
NtRp1762
(dp1763
g62
(dp1764
g82
g83
ssg71
g1758
sg64
(lp1765
S'gluon_parent'
p1766
asbag57
(g78
g59
NtRp1767
(dp1768
g62
(dp1769
g89
g90
ssg71
g1758
sg64
(lp1770
S':'
asbag57
(g78
g59
NtRp1771
(dp1772
g62
(dp1773
sg71
g1758
sg64
(lp1774
g57
(g58
g59
NtRp1775
(dp1776
g62
(dp1777
g70
I4
ssg71
g1771
sg64
(lp1778
S'/home/ian/web2py'
p1779
asbasbasbag57
(g73
g59
NtRp1780
(dp1781
g62
(dp1782
sg71
g1597
sg64
(lp1783
g57
(g78
g59
NtRp1784
(dp1785
g62
(dp1786
g82
g83
ssg71
g1780
sg64
(lp1787
S'http_accept'
p1788
asbag57
(g78
g59
NtRp1789
(dp1790
g62
(dp1791
g89
g90
ssg71
g1780
sg64
(lp1792
S':'
asbag57
(g78
g59
NtRp1793
(dp1794
g62
(dp1795
sg71
g1780
sg64
(lp1796
g57
(g58
g59
NtRp1797
(dp1798
g62
(dp1799
g70
I4
ssg71
g1793
sg64
(lp1800
S'*/*'
p1801
asbasbasbag57
(g73
g59
NtRp1802
(dp1803
g62
(dp1804
sg71
g1597
sg64
(lp1805
g57
(g78
g59
NtRp1806
(dp1807
g62
(dp1808
g82
g83
ssg71
g1802
sg64
(lp1809
S'http_accept_charset'
p1810
asbag57
(g78
g59
NtRp1811
(dp1812
g62
(dp1813
g89
g90
ssg71
g1802
sg64
(lp1814
S':'
asbag57
(g78
g59
NtRp1815
(dp1816
g62
(dp1817
sg71
g1802
sg64
(lp1818
g57
(g58
g59
NtRp1819
(dp1820
g62
(dp1821
g70
I4
ssg71
g1815
sg64
(lp1822
S'ISO-8859-1,utf-8;q=0.7,*;q=0.7'
p1823
asbasbasbag57
(g73
g59
NtRp1824
(dp1825
g62
(dp1826
sg71
g1597
sg64
(lp1827
g57
(g78
g59
NtRp1828
(dp1829
g62
(dp1830
g82
g83
ssg71
g1824
sg64
(lp1831
S'http_accept_encoding'
p1832
asbag57
(g78
g59
NtRp1833
(dp1834
g62
(dp1835
g89
g90
ssg71
g1824
sg64
(lp1836
S':'
asbag57
(g78
g59
NtRp1837
(dp1838
g62
(dp1839
sg71
g1824
sg64
(lp1840
g57
(g58
g59
NtRp1841
(dp1842
g62
(dp1843
g70
I4
ssg71
g1837
sg64
(lp1844
S'gzip, deflate'
p1845
asbasbasbag57
(g73
g59
NtRp1846
(dp1847
g62
(dp1848
sg71
g1597
sg64
(lp1849
g57
(g78
g59
NtRp1850
(dp1851
g62
(dp1852
g82
g83
ssg71
g1846
sg64
(lp1853
S'http_accept_language'
p1854
asbag57
(g78
g59
NtRp1855
(dp1856
g62
(dp1857
g89
g90
ssg71
g1846
sg64
(lp1858
S':'
asbag57
(g78
g59
NtRp1859
(dp1860
g62
(dp1861
sg71
g1846
sg64
(lp1862
g57
(g58
g59
NtRp1863
(dp1864
g62
(dp1865
g70
I4
ssg71
g1859
sg64
(lp1866
S'en-us,en;q=0.5'
p1867
asbasbasbag57
(g73
g59
NtRp1868
(dp1869
g62
(dp1870
sg71
g1597
sg64
(lp1871
g57
(g78
g59
NtRp1872
(dp1873
g62
(dp1874
g82
g83
ssg71
g1868
sg64
(lp1875
S'http_cache_control'
p1876
asbag57
(g78
g59
NtRp1877
(dp1878
g62
(dp1879
g89
g90
ssg71
g1868
sg64
(lp1880
S':'
asbag57
(g78
g59
NtRp1881
(dp1882
g62
(dp1883
sg71
g1868
sg64
(lp1884
g57
(g58
g59
NtRp1885
(dp1886
g62
(dp1887
g70
I4
ssg71
g1881
sg64
(lp1888
S'no-cache'
p1889
asbasbasbag57
(g73
g59
NtRp1890
(dp1891
g62
(dp1892
sg71
g1597
sg64
(lp1893
g57
(g78
g59
NtRp1894
(dp1895
g62
(dp1896
g82
g83
ssg71
g1890
sg64
(lp1897
S'http_connection'
p1898
asbag57
(g78
g59
NtRp1899
(dp1900
g62
(dp1901
g89
g90
ssg71
g1890
sg64
(lp1902
S':'
asbag57
(g78
g59
NtRp1903
(dp1904
g62
(dp1905
sg71
g1890
sg64
(lp1906
g57
(g58
g59
NtRp1907
(dp1908
g62
(dp1909
g70
I4
ssg71
g1903
sg64
(lp1910
S'keep-alive'
p1911
asbasbasbag57
(g73
g59
NtRp1912
(dp1913
g62
(dp1914
sg71
g1597
sg64
(lp1915
g57
(g78
g59
NtRp1916
(dp1917
g62
(dp1918
g82
g83
ssg71
g1912
sg64
(lp1919
S'http_content_type'
p1920
asbag57
(g78
g59
NtRp1921
(dp1922
g62
(dp1923
g89
g90
ssg71
g1912
sg64
(lp1924
S':'
asbag57
(g78
g59
NtRp1925
(dp1926
g62
(dp1927
sg71
g1912
sg64
(lp1928
g57
(g58
g59
NtRp1929
(dp1930
g62
(dp1931
g70
I4
ssg71
g1925
sg64
(lp1932
g1713
asbasbasbag57
(g73
g59
NtRp1933
(dp1934
g62
(dp1935
sg71
g1597
sg64
(lp1936
g57
(g78
g59
NtRp1937
(dp1938
g62
(dp1939
g82
g83
ssg71
g1933
sg64
(lp1940
S'http_cookie'
p1941
asbag57
(g78
g59
NtRp1942
(dp1943
g62
(dp1944
g89
g90
ssg71
g1933
sg64
(lp1945
S':'
asbag57
(g78
g59
NtRp1946
(dp1947
g62
(dp1948
sg71
g1933
sg64
(lp1949
g57
(g58
g59
NtRp1950
(dp1951
g62
(dp1952
g70
I4
ssg71
g1946
sg64
(lp1953
S'__utma_a2a=9789918665.1351576430.1320019504.1320019504.1320019504.1; session_id_grades=127.0.0.1-dd79f5dc-b5bd-45ea-8db7-d0bfdd939f5e; session_id_paideia=127.0.0.1-e39bb56e-30eb-4da5-9f4e-559a6c22ef0d; session_id_topoi=127.0.0.1-36a47132-9f63-403c-93e8-4b961484278b; session_id_welcome=127.0.0.1-7881acf5-01e8-44a6-93c6-b4ef4b66a579; session_id_admin=127.0.0.1-d1fa8c52-e754-4757-8567-7834ef88db88; session_id_places=127.0.0.1-2e075f1c-456a-4472-af0e-7b51c8631d9f; session_id_grammateus3=127.0.0.1-01ccaabc-d344-432a-9562-6ea9c8f6d979'
p1954
asbasbasbag57
(g73
g59
NtRp1955
(dp1956
g62
(dp1957
sg71
g1597
sg64
(lp1958
g57
(g78
g59
NtRp1959
(dp1960
g62
(dp1961
g82
g83
ssg71
g1955
sg64
(lp1962
S'http_host'
p1963
asbag57
(g78
g59
NtRp1964
(dp1965
g62
(dp1966
g89
g90
ssg71
g1955
sg64
(lp1967
S':'
asbag57
(g78
g59
NtRp1968
(dp1969
g62
(dp1970
sg71
g1955
sg64
(lp1971
g57
(g58
g59
NtRp1972
(dp1973
g62
(dp1974
g70
I4
ssg71
g1968
sg64
(lp1975
S'127.0.0.1:8000'
p1976
asbasbasbag57
(g73
g59
NtRp1977
(dp1978
g62
(dp1979
sg71
g1597
sg64
(lp1980
g57
(g78
g59
NtRp1981
(dp1982
g62
(dp1983
g82
g83
ssg71
g1977
sg64
(lp1984
S'http_pragma'
p1985
asbag57
(g78
g59
NtRp1986
(dp1987
g62
(dp1988
g89
g90
ssg71
g1977
sg64
(lp1989
S':'
asbag57
(g78
g59
NtRp1990
(dp1991
g62
(dp1992
sg71
g1977
sg64
(lp1993
g57
(g58
g59
NtRp1994
(dp1995
g62
(dp1996
g70
I4
ssg71
g1990
sg64
(lp1997
S'no-cache'
p1998
asbasbasbag57
(g73
g59
NtRp1999
(dp2000
g62
(dp2001
sg71
g1597
sg64
(lp2002
g57
(g78
g59
NtRp2003
(dp2004
g62
(dp2005
g82
g83
ssg71
g1999
sg64
(lp2006
S'http_referer'
p2007
asbag57
(g78
g59
NtRp2008
(dp2009
g62
(dp2010
g89
g90
ssg71
g1999
sg64
(lp2011
S':'
asbag57
(g78
g59
NtRp2012
(dp2013
g62
(dp2014
sg71
g1999
sg64
(lp2015
g57
(g58
g59
NtRp2016
(dp2017
g62
(dp2018
g70
I4
ssg71
g2012
sg64
(lp2019
S'http://127.0.0.1:8000/paideia/exploring/index'
p2020
asbasbasbag57
(g73
g59
NtRp2021
(dp2022
g62
(dp2023
sg71
g1597
sg64
(lp2024
g57
(g78
g59
NtRp2025
(dp2026
g62
(dp2027
g82
g83
ssg71
g2021
sg64
(lp2028
S'http_user_agent'
p2029
asbag57
(g78
g59
NtRp2030
(dp2031
g62
(dp2032
g89
g90
ssg71
g2021
sg64
(lp2033
S':'
asbag57
(g78
g59
NtRp2034
(dp2035
g62
(dp2036
sg71
g2021
sg64
(lp2037
g57
(g58
g59
NtRp2038
(dp2039
g62
(dp2040
g70
I4
ssg71
g2034
sg64
(lp2041
S'Mozilla/5.0 (Ubuntu; X11; Linux x86_64; rv:9.0.1) Gecko/20100101 Firefox/9.0.1'
p2042
asbasbasbag57
(g73
g59
NtRp2043
(dp2044
g62
(dp2045
sg71
g1597
sg64
(lp2046
g57
(g78
g59
NtRp2047
(dp2048
g62
(dp2049
g82
g83
ssg71
g2043
sg64
(lp2050
S'http_web2py_component_element'
p2051
asbag57
(g78
g59
NtRp2052
(dp2053
g62
(dp2054
g89
g90
ssg71
g2043
sg64
(lp2055
S':'
asbag57
(g78
g59
NtRp2056
(dp2057
g62
(dp2058
sg71
g2043
sg64
(lp2059
g57
(g58
g59
NtRp2060
(dp2061
g62
(dp2062
g70
I4
ssg71
g2056
sg64
(lp2063
g203
asbasbasbag57
(g73
g59
NtRp2064
(dp2065
g62
(dp2066
sg71
g1597
sg64
(lp2067
g57
(g78
g59
NtRp2068
(dp2069
g62
(dp2070
g82
g83
ssg71
g2064
sg64
(lp2071
S'http_web2py_component_location'
p2072
asbag57
(g78
g59
NtRp2073
(dp2074
g62
(dp2075
g89
g90
ssg71
g2064
sg64
(lp2076
S':'
asbag57
(g78
g59
NtRp2077
(dp2078
g62
(dp2079
sg71
g2064
sg64
(lp2080
g57
(g58
g59
NtRp2081
(dp2082
g62
(dp2083
g70
I4
ssg71
g2077
sg64
(lp2084
S'http://127.0.0.1:8000/paideia/exploring/index'
p2085
asbasbasbag57
(g73
g59
NtRp2086
(dp2087
g62
(dp2088
sg71
g1597
sg64
(lp2089
g57
(g78
g59
NtRp2090
(dp2091
g62
(dp2092
g82
g83
ssg71
g2086
sg64
(lp2093
S'http_x_requested_with'
p2094
asbag57
(g78
g59
NtRp2095
(dp2096
g62
(dp2097
g89
g90
ssg71
g2086
sg64
(lp2098
S':'
asbag57
(g78
g59
NtRp2099
(dp2100
g62
(dp2101
sg71
g2086
sg64
(lp2102
g57
(g58
g59
NtRp2103
(dp2104
g62
(dp2105
g70
I4
ssg71
g2099
sg64
(lp2106
S'XMLHttpRequest'
p2107
asbasbasbag57
(g73
g59
NtRp2108
(dp2109
g62
(dp2110
sg71
g1597
sg64
(lp2111
g57
(g78
g59
NtRp2112
(dp2113
g62
(dp2114
g82
g83
ssg71
g2108
sg64
(lp2115
S'is_jython'
p2116
asbag57
(g78
g59
NtRp2117
(dp2118
g62
(dp2119
g89
g90
ssg71
g2108
sg64
(lp2120
S':'
asbag57
(g78
g59
NtRp2121
(dp2122
g62
(dp2123
sg71
g2108
sg64
(lp2124
g57
(g58
g59
NtRp2125
(dp2126
g62
(dp2127
g70
I4
ssg71
g2121
sg64
(lp2128
g1757
asbasbasbag57
(g73
g59
NtRp2129
(dp2130
g62
(dp2131
sg71
g1597
sg64
(lp2132
g57
(g78
g59
NtRp2133
(dp2134
g62
(dp2135
g82
g83
ssg71
g2129
sg64
(lp2136
S'is_pypy'
p2137
asbag57
(g78
g59
NtRp2138
(dp2139
g62
(dp2140
g89
g90
ssg71
g2129
sg64
(lp2141
S':'
asbag57
(g78
g59
NtRp2142
(dp2143
g62
(dp2144
sg71
g2129
sg64
(lp2145
g57
(g58
g59
NtRp2146
(dp2147
g62
(dp2148
g70
I4
ssg71
g2142
sg64
(lp2149
g1757
asbasbasbag57
(g73
g59
NtRp2150
(dp2151
g62
(dp2152
sg71
g1597
sg64
(lp2153
g57
(g78
g59
NtRp2154
(dp2155
g62
(dp2156
g82
g83
ssg71
g2150
sg64
(lp2157
S'path_info'
p2158
asbag57
(g78
g59
NtRp2159
(dp2160
g62
(dp2161
g89
g90
ssg71
g2150
sg64
(lp2162
S':'
asbag57
(g78
g59
NtRp2163
(dp2164
g62
(dp2165
sg71
g2150
sg64
(lp2166
g57
(g58
g59
NtRp2167
(dp2168
g62
(dp2169
g70
I4
ssg71
g2163
sg64
(lp2170
S'/paideia/exploring/index.load/reply'
p2171
asbasbasbag57
(g73
g59
NtRp2172
(dp2173
g62
(dp2174
sg71
g1597
sg64
(lp2175
g57
(g78
g59
NtRp2176
(dp2177
g62
(dp2178
g82
g83
ssg71
g2172
sg64
(lp2179
S'query_string'
p2180
asbag57
(g78
g59
NtRp2181
(dp2182
g62
(dp2183
g89
g90
ssg71
g2172
sg64
(lp2184
S':'
asbag57
(g78
g59
NtRp2185
(dp2186
g62
(dp2187
sg71
g2172
sg64
(lp2188
g57
(g58
g59
NtRp2189
(dp2190
g62
(dp2191
g70
I4
ssg71
g2185
sg64
(lp2192
S''
asbasbasbag57
(g73
g59
NtRp2193
(dp2194
g62
(dp2195
sg71
g1597
sg64
(lp2196
g57
(g78
g59
NtRp2197
(dp2198
g62
(dp2199
g82
g83
ssg71
g2193
sg64
(lp2200
S'remote_addr'
p2201
asbag57
(g78
g59
NtRp2202
(dp2203
g62
(dp2204
g89
g90
ssg71
g2193
sg64
(lp2205
S':'
asbag57
(g78
g59
NtRp2206
(dp2207
g62
(dp2208
sg71
g2193
sg64
(lp2209
g57
(g58
g59
NtRp2210
(dp2211
g62
(dp2212
g70
I4
ssg71
g2206
sg64
(lp2213
g225
asbasbasbag57
(g73
g59
NtRp2214
(dp2215
g62
(dp2216
sg71
g1597
sg64
(lp2217
g57
(g78
g59
NtRp2218
(dp2219
g62
(dp2220
g82
g83
ssg71
g2214
sg64
(lp2221
S'remote_port'
p2222
asbag57
(g78
g59
NtRp2223
(dp2224
g62
(dp2225
g89
g90
ssg71
g2214
sg64
(lp2226
S':'
asbag57
(g78
g59
NtRp2227
(dp2228
g62
(dp2229
sg71
g2214
sg64
(lp2230
g57
(g58
g59
NtRp2231
(dp2232
g62
(dp2233
g70
I4
ssg71
g2227
sg64
(lp2234
S'53276'
p2235
asbasbasbag57
(g73
g59
NtRp2236
(dp2237
g62
(dp2238
sg71
g1597
sg64
(lp2239
g57
(g78
g59
NtRp2240
(dp2241
g62
(dp2242
g82
g83
ssg71
g2236
sg64
(lp2243
S'request_method'
p2244
asbag57
(g78
g59
NtRp2245
(dp2246
g62
(dp2247
g89
g90
ssg71
g2236
sg64
(lp2248
S':'
asbag57
(g78
g59
NtRp2249
(dp2250
g62
(dp2251
sg71
g2236
sg64
(lp2252
g57
(g58
g59
NtRp2253
(dp2254
g62
(dp2255
g70
I4
ssg71
g2249
sg64
(lp2256
S'GET'
p2257
asbasbasbag57
(g73
g59
NtRp2258
(dp2259
g62
(dp2260
sg71
g1597
sg64
(lp2261
g57
(g78
g59
NtRp2262
(dp2263
g62
(dp2264
g82
g83
ssg71
g2258
sg64
(lp2265
S'script_name'
p2266
asbag57
(g78
g59
NtRp2267
(dp2268
g62
(dp2269
g89
g90
ssg71
g2258
sg64
(lp2270
S':'
asbag57
(g78
g59
NtRp2271
(dp2272
g62
(dp2273
sg71
g2258
sg64
(lp2274
g57
(g58
g59
NtRp2275
(dp2276
g62
(dp2277
g70
I4
ssg71
g2271
sg64
(lp2278
S''
asbasbasbag57
(g73
g59
NtRp2279
(dp2280
g62
(dp2281
sg71
g1597
sg64
(lp2282
g57
(g78
g59
NtRp2283
(dp2284
g62
(dp2285
g82
g83
ssg71
g2279
sg64
(lp2286
S'server_name'
p2287
asbag57
(g78
g59
NtRp2288
(dp2289
g62
(dp2290
g89
g90
ssg71
g2279
sg64
(lp2291
S':'
asbag57
(g78
g59
NtRp2292
(dp2293
g62
(dp2294
sg71
g2279
sg64
(lp2295
g57
(g58
g59
NtRp2296
(dp2297
g62
(dp2298
g70
I4
ssg71
g2292
sg64
(lp2299
S'Ariel-ubuntu'
p2300
asbasbasbag57
(g73
g59
NtRp2301
(dp2302
g62
(dp2303
sg71
g1597
sg64
(lp2304
g57
(g78
g59
NtRp2305
(dp2306
g62
(dp2307
g82
g83
ssg71
g2301
sg64
(lp2308
S'server_port'
p2309
asbag57
(g78
g59
NtRp2310
(dp2311
g62
(dp2312
g89
g90
ssg71
g2301
sg64
(lp2313
S':'
asbag57
(g78
g59
NtRp2314
(dp2315
g62
(dp2316
sg71
g2301
sg64
(lp2317
g57
(g58
g59
NtRp2318
(dp2319
g62
(dp2320
g70
I4
ssg71
g2314
sg64
(lp2321
S'8000'
p2322
asbasbasbag57
(g73
g59
NtRp2323
(dp2324
g62
(dp2325
sg71
g1597
sg64
(lp2326
g57
(g78
g59
NtRp2327
(dp2328
g62
(dp2329
g82
g83
ssg71
g2323
sg64
(lp2330
S'server_protocol'
p2331
asbag57
(g78
g59
NtRp2332
(dp2333
g62
(dp2334
g89
g90
ssg71
g2323
sg64
(lp2335
S':'
asbag57
(g78
g59
NtRp2336
(dp2337
g62
(dp2338
sg71
g2323
sg64
(lp2339
g57
(g58
g59
NtRp2340
(dp2341
g62
(dp2342
g70
I4
ssg71
g2336
sg64
(lp2343
S'HTTP/1.1'
p2344
asbasbasbag57
(g73
g59
NtRp2345
(dp2346
g62
(dp2347
sg71
g1597
sg64
(lp2348
g57
(g78
g59
NtRp2349
(dp2350
g62
(dp2351
g82
g83
ssg71
g2345
sg64
(lp2352
S'server_software'
p2353
asbag57
(g78
g59
NtRp2354
(dp2355
g62
(dp2356
g89
g90
ssg71
g2345
sg64
(lp2357
S':'
asbag57
(g78
g59
NtRp2358
(dp2359
g62
(dp2360
sg71
g2345
sg64
(lp2361
g57
(g58
g59
NtRp2362
(dp2363
g62
(dp2364
g70
I4
ssg71
g2358
sg64
(lp2365
S'Rocket 1.2.4'
p2366
asbasbasbag57
(g73
g59
NtRp2367
(dp2368
g62
(dp2369
sg71
g1597
sg64
(lp2370
g57
(g78
g59
NtRp2371
(dp2372
g62
(dp2373
g82
g83
ssg71
g2367
sg64
(lp2374
S'web2py_crontype'
p2375
asbag57
(g78
g59
NtRp2376
(dp2377
g62
(dp2378
g89
g90
ssg71
g2367
sg64
(lp2379
S':'
asbag57
(g78
g59
NtRp2380
(dp2381
g62
(dp2382
sg71
g2367
sg64
(lp2383
g57
(g58
g59
NtRp2384
(dp2385
g62
(dp2386
g70
I4
ssg71
g2380
sg64
(lp2387
S'hard'
p2388
asbasbasbag57
(g73
g59
NtRp2389
(dp2390
g62
(dp2391
sg71
g1597
sg64
(lp2392
g57
(g78
g59
NtRp2393
(dp2394
g62
(dp2395
g82
g83
ssg71
g2389
sg64
(lp2396
S'web2py_path'
p2397
asbag57
(g78
g59
NtRp2398
(dp2399
g62
(dp2400
g89
g90
ssg71
g2389
sg64
(lp2401
S':'
asbag57
(g78
g59
NtRp2402
(dp2403
g62
(dp2404
sg71
g2389
sg64
(lp2405
g57
(g58
g59
NtRp2406
(dp2407
g62
(dp2408
g70
I4
ssg71
g2402
sg64
(lp2409
g1644
asbasbasbag57
(g73
g59
NtRp2410
(dp2411
g62
(dp2412
sg71
g1597
sg64
(lp2413
g57
(g78
g59
NtRp2414
(dp2415
g62
(dp2416
g82
g83
ssg71
g2410
sg64
(lp2417
S'web2py_version'
p2418
asbag57
(g78
g59
NtRp2419
(dp2420
g62
(dp2421
g89
g90
ssg71
g2410
sg64
(lp2422
S':'
asbag57
(g78
g59
NtRp2423
(dp2424
g62
(dp2425
sg71
g2410
sg64
(lp2426
g57
(g58
g59
NtRp2427
(dp2428
g62
(dp2429
g70
I4
ssg71
g2423
sg64
(lp2430
g57
(g66
g59
NtRp2431
(dp2432
g62
(dp2433
g70
I3
ssg71
Nsg64
(lp2434
g57
(g73
g59
NtRp2435
(dp2436
g62
(dp2437
sg71
g2431
sg64
(lp2438
g57
(g78
g59
NtRp2439
(dp2440
g62
(dp2441
sg71
g2435
sg64
(lp2442
g57
(g58
g59
NtRp2443
(dp2444
g62
(dp2445
g70
I3
ssg71
g2439
sg64
(lp2446
S'1'
asbasbasbag57
(g73
g59
NtRp2447
(dp2448
g62
(dp2449
sg71
g2431
sg64
(lp2450
g57
(g78
g59
NtRp2451
(dp2452
g62
(dp2453
sg71
g2447
sg64
(lp2454
g57
(g58
g59
NtRp2455
(dp2456
g62
(dp2457
g70
I3
ssg71
g2451
sg64
(lp2458
S'99'
p2459
asbasbasbag57
(g73
g59
NtRp2460
(dp2461
g62
(dp2462
sg71
g2431
sg64
(lp2463
g57
(g78
g59
NtRp2464
(dp2465
g62
(dp2466
sg71
g2460
sg64
(lp2467
g57
(g58
g59
NtRp2468
(dp2469
g62
(dp2470
g70
I3
ssg71
g2464
sg64
(lp2471
S'4'
asbasbasbag57
(g73
g59
NtRp2472
(dp2473
g62
(dp2474
sg71
g2431
sg64
(lp2475
g57
(g78
g59
NtRp2476
(dp2477
g62
(dp2478
sg71
g2472
sg64
(lp2479
g57
(g58
g59
NtRp2480
(dp2481
g62
(dp2482
g70
I3
ssg71
g2476
sg64
(lp2483
S'datetime.datetime(2011, 12, 14, 14, 46, 14)'
p2484
asbasbasbag57
(g73
g59
NtRp2485
(dp2486
g62
(dp2487
sg71
g2431
sg64
(lp2488
g57
(g78
g59
NtRp2489
(dp2490
g62
(dp2491
sg71
g2485
sg64
(lp2492
g57
(g58
g59
NtRp2493
(dp2494
g62
(dp2495
g70
I3
ssg71
g2489
sg64
(lp2496
S'stable'
p2497
asbasbasbasbasbasbasbag57
(g73
g59
NtRp2498
(dp2499
g62
(dp2500
sg71
g1597
sg64
(lp2501
g57
(g78
g59
NtRp2502
(dp2503
g62
(dp2504
g82
g83
ssg71
g2498
sg64
(lp2505
S'wsgi_errors'
p2506
asbag57
(g78
g59
NtRp2507
(dp2508
g62
(dp2509
g89
g90
ssg71
g2498
sg64
(lp2510
S':'
asbag57
(g78
g59
NtRp2511
(dp2512
g62
(dp2513
sg71
g2498
sg64
(lp2514
g57
(g58
g59
NtRp2515
(dp2516
g62
(dp2517
g70
I4
ssg71
g2511
sg64
(lp2518
S"<open file '<stderr>', mode 'w' at 0x7f8f31378270>"
p2519
asbasbasbag57
(g73
g59
NtRp2520
(dp2521
g62
(dp2522
sg71
g1597
sg64
(lp2523
g57
(g78
g59
NtRp2524
(dp2525
g62
(dp2526
g82
g83
ssg71
g2520
sg64
(lp2527
S'wsgi_file_wrapper'
p2528
asbag57
(g78
g59
NtRp2529
(dp2530
g62
(dp2531
g89
g90
ssg71
g2520
sg64
(lp2532
S':'
asbag57
(g78
g59
NtRp2533
(dp2534
g62
(dp2535
sg71
g2520
sg64
(lp2536
g57
(g58
g59
NtRp2537
(dp2538
g62
(dp2539
g70
I4
ssg71
g2533
sg64
(lp2540
S'<class wsgiref.util.FileWrapper at 0x1e53c80>'
p2541
asbasbasbag57
(g73
g59
NtRp2542
(dp2543
g62
(dp2544
sg71
g1597
sg64
(lp2545
g57
(g78
g59
NtRp2546
(dp2547
g62
(dp2548
g82
g83
ssg71
g2542
sg64
(lp2549
S'wsgi_input'
p2550
asbag57
(g78
g59
NtRp2551
(dp2552
g62
(dp2553
g89
g90
ssg71
g2542
sg64
(lp2554
S':'
asbag57
(g78
g59
NtRp2555
(dp2556
g62
(dp2557
sg71
g2542
sg64
(lp2558
g57
(g58
g59
NtRp2559
(dp2560
g62
(dp2561
g70
I4
ssg71
g2555
sg64
(lp2562
S'<socket._fileobject object at 0x2b47d50>'
p2563
asbasbasbag57
(g73
g59
NtRp2564
(dp2565
g62
(dp2566
sg71
g1597
sg64
(lp2567
g57
(g78
g59
NtRp2568
(dp2569
g62
(dp2570
g82
g83
ssg71
g2564
sg64
(lp2571
S'wsgi_multiprocess'
p2572
asbag57
(g78
g59
NtRp2573
(dp2574
g62
(dp2575
g89
g90
ssg71
g2564
sg64
(lp2576
S':'
asbag57
(g78
g59
NtRp2577
(dp2578
g62
(dp2579
sg71
g2564
sg64
(lp2580
g57
(g58
g59
NtRp2581
(dp2582
g62
(dp2583
g70
I4
ssg71
g2577
sg64
(lp2584
g1757
asbasbasbag57
(g73
g59
NtRp2585
(dp2586
g62
(dp2587
sg71
g1597
sg64
(lp2588
g57
(g78
g59
NtRp2589
(dp2590
g62
(dp2591
g82
g83
ssg71
g2585
sg64
(lp2592
S'wsgi_multithread'
p2593
asbag57
(g78
g59
NtRp2594
(dp2595
g62
(dp2596
g89
g90
ssg71
g2585
sg64
(lp2597
S':'
asbag57
(g78
g59
NtRp2598
(dp2599
g62
(dp2600
sg71
g2585
sg64
(lp2601
g57
(g58
g59
NtRp2602
(dp2603
g62
(dp2604
g70
I4
ssg71
g2598
sg64
(lp2605
g100
asbasbasbag57
(g73
g59
NtRp2606
(dp2607
g62
(dp2608
sg71
g1597
sg64
(lp2609
g57
(g78
g59
NtRp2610
(dp2611
g62
(dp2612
g82
g83
ssg71
g2606
sg64
(lp2613
S'wsgi_run_once'
p2614
asbag57
(g78
g59
NtRp2615
(dp2616
g62
(dp2617
g89
g90
ssg71
g2606
sg64
(lp2618
S':'
asbag57
(g78
g59
NtRp2619
(dp2620
g62
(dp2621
sg71
g2606
sg64
(lp2622
g57
(g58
g59
NtRp2623
(dp2624
g62
(dp2625
g70
I4
ssg71
g2619
sg64
(lp2626
g1757
asbasbasbag57
(g73
g59
NtRp2627
(dp2628
g62
(dp2629
sg71
g1597
sg64
(lp2630
g57
(g78
g59
NtRp2631
(dp2632
g62
(dp2633
g82
g83
ssg71
g2627
sg64
(lp2634
S'wsgi_url_scheme'
p2635
asbag57
(g78
g59
NtRp2636
(dp2637
g62
(dp2638
g89
g90
ssg71
g2627
sg64
(lp2639
S':'
asbag57
(g78
g59
NtRp2640
(dp2641
g62
(dp2642
sg71
g2627
sg64
(lp2643
g57
(g58
g59
NtRp2644
(dp2645
g62
(dp2646
g70
I4
ssg71
g2640
sg64
(lp2647
S'http'
p2648
asbasbasbag57
(g73
g59
NtRp2649
(dp2650
g62
(dp2651
sg71
g1597
sg64
(lp2652
g57
(g78
g59
NtRp2653
(dp2654
g62
(dp2655
g82
g83
ssg71
g2649
sg64
(lp2656
S'wsgi_version'
p2657
asbag57
(g78
g59
NtRp2658
(dp2659
g62
(dp2660
g89
g90
ssg71
g2649
sg64
(lp2661
S':'
asbag57
(g78
g59
NtRp2662
(dp2663
g62
(dp2664
sg71
g2649
sg64
(lp2665
g57
(g58
g59
NtRp2666
(dp2667
g62
(dp2668
g70
I4
ssg71
g2662
sg64
(lp2669
g57
(g66
g59
NtRp2670
(dp2671
g62
(dp2672
g70
I3
ssg71
Nsg64
(lp2673
g57
(g73
g59
NtRp2674
(dp2675
g62
(dp2676
sg71
g2670
sg64
(lp2677
g57
(g78
g59
NtRp2678
(dp2679
g62
(dp2680
sg71
g2674
sg64
(lp2681
g57
(g58
g59
NtRp2682
(dp2683
g62
(dp2684
g70
I3
ssg71
g2678
sg64
(lp2685
S'1'
asbasbasbag57
(g73
g59
NtRp2686
(dp2687
g62
(dp2688
sg71
g2670
sg64
(lp2689
g57
(g78
g59
NtRp2690
(dp2691
g62
(dp2692
sg71
g2686
sg64
(lp2693
g57
(g58
g59
NtRp2694
(dp2695
g62
(dp2696
g70
I3
ssg71
g2690
sg64
(lp2697
S'0'
asbasbasbasbasbasbasbasbasbasbasbag57
(g73
g59
NtRp2698
(dp2699
g62
(dp2700
sg71
g67
sg64
(lp2701
g57
(g78
g59
NtRp2702
(dp2703
g62
(dp2704
g82
g83
ssg71
g2698
sg64
(lp2705
S'extension'
p2706
asbag57
(g78
g59
NtRp2707
(dp2708
g62
(dp2709
g89
g90
ssg71
g2698
sg64
(lp2710
S':'
asbag57
(g78
g59
NtRp2711
(dp2712
g62
(dp2713
sg71
g2698
sg64
(lp2714
g57
(g58
g59
NtRp2715
(dp2716
g62
(dp2717
g70
I5
ssg71
g2711
sg64
(lp2718
S'load'
p2719
asbasbasbag57
(g73
g59
NtRp2720
(dp2721
g62
(dp2722
sg71
g67
sg64
(lp2723
g57
(g78
g59
NtRp2724
(dp2725
g62
(dp2726
g82
g83
ssg71
g2720
sg64
(lp2727
S'folder'
p2728
asbag57
(g78
g59
NtRp2729
(dp2730
g62
(dp2731
g89
g90
ssg71
g2720
sg64
(lp2732
S':'
asbag57
(g78
g59
NtRp2733
(dp2734
g62
(dp2735
sg71
g2720
sg64
(lp2736
g57
(g58
g59
NtRp2737
(dp2738
g62
(dp2739
g70
I5
ssg71
g2733
sg64
(lp2740
S'/home/ian/web2py/applications/paideia/'
p2741
asbasbasbag57
(g73
g59
NtRp2742
(dp2743
g62
(dp2744
sg71
g67
sg64
(lp2745
g57
(g78
g59
NtRp2746
(dp2747
g62
(dp2748
g82
g83
ssg71
g2742
sg64
(lp2749
S'function'
p2750
asbag57
(g78
g59
NtRp2751
(dp2752
g62
(dp2753
g89
g90
ssg71
g2742
sg64
(lp2754
S':'
asbag57
(g78
g59
NtRp2755
(dp2756
g62
(dp2757
sg71
g2742
sg64
(lp2758
g57
(g58
g59
NtRp2759
(dp2760
g62
(dp2761
g70
I5
ssg71
g2755
sg64
(lp2762
S'index'
p2763
asbasbasbag57
(g73
g59
NtRp2764
(dp2765
g62
(dp2766
sg71
g67
sg64
(lp2767
g57
(g78
g59
NtRp2768
(dp2769
g62
(dp2770
g82
g83
ssg71
g2764
sg64
(lp2771
S'get_vars'
p2772
asbag57
(g78
g59
NtRp2773
(dp2774
g62
(dp2775
g89
g90
ssg71
g2764
sg64
(lp2776
S':'
asbag57
(g78
g59
NtRp2777
(dp2778
g62
(dp2779
sg71
g2764
sg64
(lp2780
g57
(g58
g59
NtRp2781
(dp2782
g62
(dp2783
g70
I5
ssg71
g2777
sg64
(lp2784
g57
(g66
g59
NtRp2785
(dp2786
g62
(dp2787
g70
I4
ssg71
Nsg64
(lp2788
sbasbasbasbag57
(g73
g59
NtRp2789
(dp2790
g62
(dp2791
sg71
g67
sg64
(lp2792
g57
(g78
g59
NtRp2793
(dp2794
g62
(dp2795
g82
g83
ssg71
g2789
sg64
(lp2796
S'global_settings'
p2797
asbag57
(g78
g59
NtRp2798
(dp2799
g62
(dp2800
g89
g90
ssg71
g2789
sg64
(lp2801
S':'
asbag57
(g78
g59
NtRp2802
(dp2803
g62
(dp2804
sg71
g2789
sg64
(lp2805
g57
(g58
g59
NtRp2806
(dp2807
g62
(dp2808
g70
I5
ssg71
g2802
sg64
(lp2809
g57
(g66
g59
NtRp2810
(dp2811
g62
(dp2812
g70
I4
ssg71
Nsg64
(lp2813
g57
(g73
g59
NtRp2814
(dp2815
g62
(dp2816
sg71
g2810
sg64
(lp2817
g57
(g78
g59
NtRp2818
(dp2819
g62
(dp2820
g82
g83
ssg71
g2814
sg64
(lp2821
g1609
asbag57
(g78
g59
NtRp2822
(dp2823
g62
(dp2824
g89
g90
ssg71
g2814
sg64
(lp2825
S':'
asbag57
(g78
g59
NtRp2826
(dp2827
g62
(dp2828
sg71
g2814
sg64
(lp2829
g57
(g58
g59
NtRp2830
(dp2831
g62
(dp2832
g70
I4
ssg71
g2826
sg64
(lp2833
S"set(['/home/ian/web2py/applications/grammateus3/', '/home/ian/web2py/applications/paideia/', '/home/ian/web2py/applications/welcome/', '/home/ian/web2py/applications/places/', '/home/ian/web2py/applications/admin/'])"
p2834
asbasbasbag57
(g73
g59
NtRp2835
(dp2836
g62
(dp2837
sg71
g2810
sg64
(lp2838
g57
(g78
g59
NtRp2839
(dp2840
g62
(dp2841
g82
g83
ssg71
g2835
sg64
(lp2842
g1631
asbag57
(g78
g59
NtRp2843
(dp2844
g62
(dp2845
g89
g90
ssg71
g2835
sg64
(lp2846
S':'
asbag57
(g78
g59
NtRp2847
(dp2848
g62
(dp2849
sg71
g2835
sg64
(lp2850
g57
(g58
g59
NtRp2851
(dp2852
g62
(dp2853
g70
I4
ssg71
g2847
sg64
(lp2854
g1644
asbasbasbag57
(g73
g59
NtRp2855
(dp2856
g62
(dp2857
sg71
g2810
sg64
(lp2858
g57
(g78
g59
NtRp2859
(dp2860
g62
(dp2861
g82
g83
ssg71
g2855
sg64
(lp2862
g1653
asbag57
(g78
g59
NtRp2863
(dp2864
g62
(dp2865
g89
g90
ssg71
g2855
sg64
(lp2866
S':'
asbag57
(g78
g59
NtRp2867
(dp2868
g62
(dp2869
sg71
g2855
sg64
(lp2870
g57
(g58
g59
NtRp2871
(dp2872
g62
(dp2873
g70
I4
ssg71
g2867
sg64
(lp2874
g57
(g66
g59
NtRp2875
(dp2876
g62
(dp2877
g70
I3
ssg71
Nsg64
(lp2878
sbasbasbasbag57
(g73
g59
NtRp2879
(dp2880
g62
(dp2881
sg71
g2810
sg64
(lp2882
g57
(g78
g59
NtRp2883
(dp2884
g62
(dp2885
g82
g83
ssg71
g2879
sg64
(lp2886
g1678
asbag57
(g78
g59
NtRp2887
(dp2888
g62
(dp2889
g89
g90
ssg71
g2879
sg64
(lp2890
S':'
asbag57
(g78
g59
NtRp2891
(dp2892
g62
(dp2893
sg71
g2879
sg64
(lp2894
g57
(g58
g59
NtRp2895
(dp2896
g62
(dp2897
g70
I4
ssg71
g2891
sg64
(lp2898
S"<Values at 0x1f97b00: {'verbose': False, 'ip': '127.0.0.1', 'shutdown_timeout': 5, 'taskbar': False, 'nocron': False, 'pid_filename': 'httpserver.pid', 'maxthreads': None, 'softcron': False, 'server_name': 'Ariel-ubuntu', 'bpython': False, 'nogui': False, 'port': 8000, 'extcron': False, 'debuglevel': 30, 'test': None, 'folder': '/home/ian/web2py', 'config': '', 'import_models': False, 'winservice': '', 'shell': None, 'run': '', 'log_filename': 'httpserver.log', 'args': [''], 'socket_timeout': 1, 'ssl_ca_certificate': None, 'scheduler': None, 'profiler_filename': None, 'ssl_private_key': '', 'password': '<ask>', 'request_queue_size': 5, 'ssl_certificate': '', 'cronjob': False, 'numthreads': None, 'quiet': False, 'interfaces': None, 'minthreads': None, 'timeout': 10, 'plain': False, 'nobanner': False}>"
p2899
asbasbasbag57
(g73
g59
NtRp2900
(dp2901
g62
(dp2902
sg71
g2810
sg64
(lp2903
g57
(g78
g59
NtRp2904
(dp2905
g62
(dp2906
g82
g83
ssg71
g2900
sg64
(lp2907
g1722
asbag57
(g78
g59
NtRp2908
(dp2909
g62
(dp2910
g89
g90
ssg71
g2900
sg64
(lp2911
S':'
asbag57
(g78
g59
NtRp2912
(dp2913
g62
(dp2914
sg71
g2900
sg64
(lp2915
g57
(g58
g59
NtRp2916
(dp2917
g62
(dp2918
g70
I4
ssg71
g2912
sg64
(lp2919
S'set([])'
p2920
asbasbasbag57
(g73
g59
NtRp2921
(dp2922
g62
(dp2923
sg71
g2810
sg64
(lp2924
g57
(g78
g59
NtRp2925
(dp2926
g62
(dp2927
g82
g83
ssg71
g2921
sg64
(lp2928
g1744
asbag57
(g78
g59
NtRp2929
(dp2930
g62
(dp2931
g89
g90
ssg71
g2921
sg64
(lp2932
S':'
asbag57
(g78
g59
NtRp2933
(dp2934
g62
(dp2935
sg71
g2921
sg64
(lp2936
g57
(g58
g59
NtRp2937
(dp2938
g62
(dp2939
g70
I4
ssg71
g2933
sg64
(lp2940
g1757
asbasbasbag57
(g73
g59
NtRp2941
(dp2942
g62
(dp2943
sg71
g2810
sg64
(lp2944
g57
(g78
g59
NtRp2945
(dp2946
g62
(dp2947
g82
g83
ssg71
g2941
sg64
(lp2948
g1766
asbag57
(g78
g59
NtRp2949
(dp2950
g62
(dp2951
g89
g90
ssg71
g2941
sg64
(lp2952
S':'
asbag57
(g78
g59
NtRp2953
(dp2954
g62
(dp2955
sg71
g2941
sg64
(lp2956
g57
(g58
g59
NtRp2957
(dp2958
g62
(dp2959
g70
I4
ssg71
g2953
sg64
(lp2960
g1779
asbasbasbag57
(g73
g59
NtRp2961
(dp2962
g62
(dp2963
sg71
g2810
sg64
(lp2964
g57
(g78
g59
NtRp2965
(dp2966
g62
(dp2967
g82
g83
ssg71
g2961
sg64
(lp2968
g2116
asbag57
(g78
g59
NtRp2969
(dp2970
g62
(dp2971
g89
g90
ssg71
g2961
sg64
(lp2972
S':'
asbag57
(g78
g59
NtRp2973
(dp2974
g62
(dp2975
sg71
g2961
sg64
(lp2976
g57
(g58
g59
NtRp2977
(dp2978
g62
(dp2979
g70
I4
ssg71
g2973
sg64
(lp2980
g1757
asbasbasbag57
(g73
g59
NtRp2981
(dp2982
g62
(dp2983
sg71
g2810
sg64
(lp2984
g57
(g78
g59
NtRp2985
(dp2986
g62
(dp2987
g82
g83
ssg71
g2981
sg64
(lp2988
g2137
asbag57
(g78
g59
NtRp2989
(dp2990
g62
(dp2991
g89
g90
ssg71
g2981
sg64
(lp2992
S':'
asbag57
(g78
g59
NtRp2993
(dp2994
g62
(dp2995
sg71
g2981
sg64
(lp2996
g57
(g58
g59
NtRp2997
(dp2998
g62
(dp2999
g70
I4
ssg71
g2993
sg64
(lp3000
g1757
asbasbasbag57
(g73
g59
NtRp3001
(dp3002
g62
(dp3003
sg71
g2810
sg64
(lp3004
g57
(g78
g59
NtRp3005
(dp3006
g62
(dp3007
g82
g83
ssg71
g3001
sg64
(lp3008
g2375
asbag57
(g78
g59
NtRp3009
(dp3010
g62
(dp3011
g89
g90
ssg71
g3001
sg64
(lp3012
S':'
asbag57
(g78
g59
NtRp3013
(dp3014
g62
(dp3015
sg71
g3001
sg64
(lp3016
g57
(g58
g59
NtRp3017
(dp3018
g62
(dp3019
g70
I4
ssg71
g3013
sg64
(lp3020
g2388
asbasbasbag57
(g73
g59
NtRp3021
(dp3022
g62
(dp3023
sg71
g2810
sg64
(lp3024
g57
(g78
g59
NtRp3025
(dp3026
g62
(dp3027
g82
g83
ssg71
g3021
sg64
(lp3028
g2418
asbag57
(g78
g59
NtRp3029
(dp3030
g62
(dp3031
g89
g90
ssg71
g3021
sg64
(lp3032
S':'
asbag57
(g78
g59
NtRp3033
(dp3034
g62
(dp3035
sg71
g3021
sg64
(lp3036
g57
(g58
g59
NtRp3037
(dp3038
g62
(dp3039
g70
I4
ssg71
g3033
sg64
(lp3040
g57
(g66
g59
NtRp3041
(dp3042
g62
(dp3043
g70
I3
ssg71
Nsg64
(lp3044
g57
(g73
g59
NtRp3045
(dp3046
g62
(dp3047
sg71
g3041
sg64
(lp3048
g57
(g78
g59
NtRp3049
(dp3050
g62
(dp3051
sg71
g3045
sg64
(lp3052
g57
(g58
g59
NtRp3053
(dp3054
g62
(dp3055
g70
I3
ssg71
g3049
sg64
(lp3056
S'1'
asbasbasbag57
(g73
g59
NtRp3057
(dp3058
g62
(dp3059
sg71
g3041
sg64
(lp3060
g57
(g78
g59
NtRp3061
(dp3062
g62
(dp3063
sg71
g3057
sg64
(lp3064
g57
(g58
g59
NtRp3065
(dp3066
g62
(dp3067
g70
I3
ssg71
g3061
sg64
(lp3068
S'99'
p3069
asbasbasbag57
(g73
g59
NtRp3070
(dp3071
g62
(dp3072
sg71
g3041
sg64
(lp3073
g57
(g78
g59
NtRp3074
(dp3075
g62
(dp3076
sg71
g3070
sg64
(lp3077
g57
(g58
g59
NtRp3078
(dp3079
g62
(dp3080
g70
I3
ssg71
g3074
sg64
(lp3081
S'4'
asbasbasbag57
(g73
g59
NtRp3082
(dp3083
g62
(dp3084
sg71
g3041
sg64
(lp3085
g57
(g78
g59
NtRp3086
(dp3087
g62
(dp3088
sg71
g3082
sg64
(lp3089
g57
(g58
g59
NtRp3090
(dp3091
g62
(dp3092
g70
I3
ssg71
g3086
sg64
(lp3093
S'datetime.datetime(2011, 12, 14, 14, 46, 14)'
p3094
asbasbasbag57
(g73
g59
NtRp3095
(dp3096
g62
(dp3097
sg71
g3041
sg64
(lp3098
g57
(g78
g59
NtRp3099
(dp3100
g62
(dp3101
sg71
g3095
sg64
(lp3102
g57
(g58
g59
NtRp3103
(dp3104
g62
(dp3105
g70
I3
ssg71
g3099
sg64
(lp3106
g2497
asbasbasbasbasbasbasbasbasbasbasbag57
(g73
g59
NtRp3107
(dp3108
g62
(dp3109
sg71
g67
sg64
(lp3110
g57
(g78
g59
NtRp3111
(dp3112
g62
(dp3113
g82
g83
ssg71
g3107
sg64
(lp3114
S'is_https'
p3115
asbag57
(g78
g59
NtRp3116
(dp3117
g62
(dp3118
g89
g90
ssg71
g3107
sg64
(lp3119
S':'
asbag57
(g78
g59
NtRp3120
(dp3121
g62
(dp3122
sg71
g3107
sg64
(lp3123
g57
(g58
g59
NtRp3124
(dp3125
g62
(dp3126
g70
I5
ssg71
g3120
sg64
(lp3127
g1757
asbasbasbag57
(g73
g59
NtRp3128
(dp3129
g62
(dp3130
sg71
g67
sg64
(lp3131
g57
(g78
g59
NtRp3132
(dp3133
g62
(dp3134
g82
g83
ssg71
g3128
sg64
(lp3135
S'is_local'
p3136
asbag57
(g78
g59
NtRp3137
(dp3138
g62
(dp3139
g89
g90
ssg71
g3128
sg64
(lp3140
S':'
asbag57
(g78
g59
NtRp3141
(dp3142
g62
(dp3143
sg71
g3128
sg64
(lp3144
g57
(g58
g59
NtRp3145
(dp3146
g62
(dp3147
g70
I5
ssg71
g3141
sg64
(lp3148
g100
asbasbasbag57
(g73
g59
NtRp3149
(dp3150
g62
(dp3151
sg71
g67
sg64
(lp3152
g57
(g78
g59
NtRp3153
(dp3154
g62
(dp3155
g82
g83
ssg71
g3149
sg64
(lp3156
S'is_restful'
p3157
asbag57
(g78
g59
NtRp3158
(dp3159
g62
(dp3160
g89
g90
ssg71
g3149
sg64
(lp3161
S':'
asbag57
(g78
g59
NtRp3162
(dp3163
g62
(dp3164
sg71
g3149
sg64
(lp3165
g57
(g58
g59
NtRp3166
(dp3167
g62
(dp3168
g70
I5
ssg71
g3162
sg64
(lp3169
g1757
asbasbasbag57
(g73
g59
NtRp3170
(dp3171
g62
(dp3172
sg71
g67
sg64
(lp3173
g57
(g78
g59
NtRp3174
(dp3175
g62
(dp3176
g82
g83
ssg71
g3170
sg64
(lp3177
S'now'
p3178
asbag57
(g78
g59
NtRp3179
(dp3180
g62
(dp3181
g89
g90
ssg71
g3170
sg64
(lp3182
S':'
asbag57
(g78
g59
NtRp3183
(dp3184
g62
(dp3185
sg71
g3170
sg64
(lp3186
g57
(g58
g59
NtRp3187
(dp3188
g62
(dp3189
g70
I5
ssg71
g3183
sg64
(lp3190
S'datetime.datetime(2012, 1, 27, 11, 5, 47, 325371)'
p3191
asbasbasbag57
(g73
g59
NtRp3192
(dp3193
g62
(dp3194
sg71
g67
sg64
(lp3195
g57
(g78
g59
NtRp3196
(dp3197
g62
(dp3198
g82
g83
ssg71
g3192
sg64
(lp3199
S'post_vars'
p3200
asbag57
(g78
g59
NtRp3201
(dp3202
g62
(dp3203
g89
g90
ssg71
g3192
sg64
(lp3204
S':'
asbag57
(g78
g59
NtRp3205
(dp3206
g62
(dp3207
sg71
g3192
sg64
(lp3208
g57
(g58
g59
NtRp3209
(dp3210
g62
(dp3211
g70
I5
ssg71
g3205
sg64
(lp3212
g57
(g66
g59
NtRp3213
(dp3214
g62
(dp3215
g70
I4
ssg71
Nsg64
(lp3216
sbasbasbasbag57
(g73
g59
NtRp3217
(dp3218
g62
(dp3219
sg71
g67
sg64
(lp3220
g57
(g78
g59
NtRp3221
(dp3222
g62
(dp3223
g82
g83
ssg71
g3217
sg64
(lp3224
S'raw_args'
p3225
asbag57
(g78
g59
NtRp3226
(dp3227
g62
(dp3228
g89
g90
ssg71
g3217
sg64
(lp3229
S':'
asbag57
(g78
g59
NtRp3230
(dp3231
g62
(dp3232
sg71
g3217
sg64
(lp3233
g57
(g58
g59
NtRp3234
(dp3235
g62
(dp3236
g70
I5
ssg71
g3230
sg64
(lp3237
g159
asbasbasbag57
(g73
g59
NtRp3238
(dp3239
g62
(dp3240
sg71
g67
sg64
(lp3241
g57
(g78
g59
NtRp3242
(dp3243
g62
(dp3244
g82
g83
ssg71
g3238
sg64
(lp3245
S'raw_extension'
p3246
asbag57
(g78
g59
NtRp3247
(dp3248
g62
(dp3249
g89
g90
ssg71
g3238
sg64
(lp3250
S':'
asbag57
(g78
g59
NtRp3251
(dp3252
g62
(dp3253
sg71
g3238
sg64
(lp3254
g57
(g58
g59
NtRp3255
(dp3256
g62
(dp3257
g70
I5
ssg71
g3251
sg64
(lp3258
g2719
asbasbasbag57
(g73
g59
NtRp3259
(dp3260
g62
(dp3261
sg71
g67
sg64
(lp3262
g57
(g78
g59
NtRp3263
(dp3264
g62
(dp3265
g82
g83
ssg71
g3259
sg64
(lp3266
S'url'
p3267
asbag57
(g78
g59
NtRp3268
(dp3269
g62
(dp3270
g89
g90
ssg71
g3259
sg64
(lp3271
S':'
asbag57
(g78
g59
NtRp3272
(dp3273
g62
(dp3274
sg71
g3259
sg64
(lp3275
g57
(g58
g59
NtRp3276
(dp3277
g62
(dp3278
g70
I5
ssg71
g3272
sg64
(lp3279
S'/paideia/exploring/index.load/reply'
p3280
asbasbasbag57
(g73
g59
NtRp3281
(dp3282
g62
(dp3283
sg71
g67
sg64
(lp3284
g57
(g78
g59
NtRp3285
(dp3286
g62
(dp3287
g82
g83
ssg71
g3281
sg64
(lp3288
S'utcnow'
p3289
asbag57
(g78
g59
NtRp3290
(dp3291
g62
(dp3292
g89
g90
ssg71
g3281
sg64
(lp3293
S':'
asbag57
(g78
g59
NtRp3294
(dp3295
g62
(dp3296
sg71
g3281
sg64
(lp3297
g57
(g58
g59
NtRp3298
(dp3299
g62
(dp3300
g70
I5
ssg71
g3294
sg64
(lp3301
S'datetime.datetime(2012, 1, 27, 16, 5, 47, 325412)'
p3302
asbasbasbag57
(g73
g59
NtRp3303
(dp3304
g62
(dp3305
sg71
g67
sg64
(lp3306
g57
(g78
g59
NtRp3307
(dp3308
g62
(dp3309
g82
g83
ssg71
g3303
sg64
(lp3310
S'uuid'
p3311
asbag57
(g78
g59
NtRp3312
(dp3313
g62
(dp3314
g89
g90
ssg71
g3303
sg64
(lp3315
S':'
asbag57
(g78
g59
NtRp3316
(dp3317
g62
(dp3318
sg71
g3303
sg64
(lp3319
g57
(g58
g59
NtRp3320
(dp3321
g62
(dp3322
g70
I5
ssg71
g3316
sg64
(lp3323
S'paideia/127.0.0.1.2012-01-27.11-05-47.6656fb35-db42-4c62-b898-8fae5551260f'
p3324
asbasbasbag57
(g73
g59
NtRp3325
(dp3326
g62
(dp3327
sg71
g67
sg64
(lp3328
g57
(g78
g59
NtRp3329
(dp3330
g62
(dp3331
g82
g83
ssg71
g3325
sg64
(lp3332
S'vars'
p3333
asbag57
(g78
g59
NtRp3334
(dp3335
g62
(dp3336
g89
g90
ssg71
g3325
sg64
(lp3337
S':'
asbag57
(g78
g59
NtRp3338
(dp3339
g62
(dp3340
sg71
g3325
sg64
(lp3341
g57
(g58
g59
NtRp3342
(dp3343
g62
(dp3344
g70
I5
ssg71
g3338
sg64
(lp3345
g57
(g66
g59
NtRp3346
(dp3347
g62
(dp3348
g70
I4
ssg71
Nsg64
(lp3349
sbasbasbasbag57
(g73
g59
NtRp3350
(dp3351
g62
(dp3352
sg71
g67
sg64
(lp3353
g57
(g78
g59
NtRp3354
(dp3355
g62
(dp3356
g82
g83
ssg71
g3350
sg64
(lp3357
S'wsgi'
p3358
asbag57
(g78
g59
NtRp3359
(dp3360
g62
(dp3361
g89
g90
ssg71
g3350
sg64
(lp3362
S':'
asbag57
(g78
g59
NtRp3363
(dp3364
g62
(dp3365
sg71
g3350
sg64
(lp3366
g57
(g58
g59
NtRp3367
(dp3368
g62
(dp3369
g70
I5
ssg71
g3363
sg64
(lp3370
g57
(g66
g59
NtRp3371
(dp3372
g62
(dp3373
g70
I4
ssg71
Nsg64
(lp3374
g57
(g73
g59
NtRp3375
(dp3376
g62
(dp3377
sg71
g3371
sg64
(lp3378
g57
(g78
g59
NtRp3379
(dp3380
g62
(dp3381
g82
g83
ssg71
g3375
sg64
(lp3382
S'environ'
p3383
asbag57
(g78
g59
NtRp3384
(dp3385
g62
(dp3386
g89
g90
ssg71
g3375
sg64
(lp3387
S':'
asbag57
(g78
g59
NtRp3388
(dp3389
g62
(dp3390
sg71
g3375
sg64
(lp3391
g57
(g58
g59
NtRp3392
(dp3393
g62
(dp3394
g70
I4
ssg71
g3388
sg64
(lp3395
g57
(g66
g59
NtRp3396
(dp3397
g62
(dp3398
g70
I3
ssg71
Nsg64
(lp3399
g57
(g73
g59
NtRp3400
(dp3401
g62
(dp3402
sg71
g3396
sg64
(lp3403
g57
(g78
g59
NtRp3404
(dp3405
g62
(dp3406
g82
g83
ssg71
g3400
sg64
(lp3407
S'CONTENT_TYPE'
p3408
asbag57
(g78
g59
NtRp3409
(dp3410
g62
(dp3411
g89
g90
ssg71
g3400
sg64
(lp3412
S':'
asbag57
(g78
g59
NtRp3413
(dp3414
g62
(dp3415
sg71
g3400
sg64
(lp3416
g57
(g58
g59
NtRp3417
(dp3418
g62
(dp3419
g70
I3
ssg71
g3413
sg64
(lp3420
g1713
asbasbasbag57
(g73
g59
NtRp3421
(dp3422
g62
(dp3423
sg71
g3396
sg64
(lp3424
g57
(g78
g59
NtRp3425
(dp3426
g62
(dp3427
g82
g83
ssg71
g3421
sg64
(lp3428
S'HTTP_ACCEPT'
p3429
asbag57
(g78
g59
NtRp3430
(dp3431
g62
(dp3432
g89
g90
ssg71
g3421
sg64
(lp3433
S':'
asbag57
(g78
g59
NtRp3434
(dp3435
g62
(dp3436
sg71
g3421
sg64
(lp3437
g57
(g58
g59
NtRp3438
(dp3439
g62
(dp3440
g70
I3
ssg71
g3434
sg64
(lp3441
g1801
asbasbasbag57
(g73
g59
NtRp3442
(dp3443
g62
(dp3444
sg71
g3396
sg64
(lp3445
g57
(g78
g59
NtRp3446
(dp3447
g62
(dp3448
g82
g83
ssg71
g3442
sg64
(lp3449
S'HTTP_ACCEPT_CHARSET'
p3450
asbag57
(g78
g59
NtRp3451
(dp3452
g62
(dp3453
g89
g90
ssg71
g3442
sg64
(lp3454
S':'
asbag57
(g78
g59
NtRp3455
(dp3456
g62
(dp3457
sg71
g3442
sg64
(lp3458
g57
(g58
g59
NtRp3459
(dp3460
g62
(dp3461
g70
I3
ssg71
g3455
sg64
(lp3462
g1823
asbasbasbag57
(g73
g59
NtRp3463
(dp3464
g62
(dp3465
sg71
g3396
sg64
(lp3466
g57
(g78
g59
NtRp3467
(dp3468
g62
(dp3469
g82
g83
ssg71
g3463
sg64
(lp3470
S'HTTP_ACCEPT_ENCODING'
p3471
asbag57
(g78
g59
NtRp3472
(dp3473
g62
(dp3474
g89
g90
ssg71
g3463
sg64
(lp3475
S':'
asbag57
(g78
g59
NtRp3476
(dp3477
g62
(dp3478
sg71
g3463
sg64
(lp3479
g57
(g58
g59
NtRp3480
(dp3481
g62
(dp3482
g70
I3
ssg71
g3476
sg64
(lp3483
g1845
asbasbasbag57
(g73
g59
NtRp3484
(dp3485
g62
(dp3486
sg71
g3396
sg64
(lp3487
g57
(g78
g59
NtRp3488
(dp3489
g62
(dp3490
g82
g83
ssg71
g3484
sg64
(lp3491
S'HTTP_ACCEPT_LANGUAGE'
p3492
asbag57
(g78
g59
NtRp3493
(dp3494
g62
(dp3495
g89
g90
ssg71
g3484
sg64
(lp3496
S':'
asbag57
(g78
g59
NtRp3497
(dp3498
g62
(dp3499
sg71
g3484
sg64
(lp3500
g57
(g58
g59
NtRp3501
(dp3502
g62
(dp3503
g70
I3
ssg71
g3497
sg64
(lp3504
g1867
asbasbasbag57
(g73
g59
NtRp3505
(dp3506
g62
(dp3507
sg71
g3396
sg64
(lp3508
g57
(g78
g59
NtRp3509
(dp3510
g62
(dp3511
g82
g83
ssg71
g3505
sg64
(lp3512
S'HTTP_CACHE_CONTROL'
p3513
asbag57
(g78
g59
NtRp3514
(dp3515
g62
(dp3516
g89
g90
ssg71
g3505
sg64
(lp3517
S':'
asbag57
(g78
g59
NtRp3518
(dp3519
g62
(dp3520
sg71
g3505
sg64
(lp3521
g57
(g58
g59
NtRp3522
(dp3523
g62
(dp3524
g70
I3
ssg71
g3518
sg64
(lp3525
g1889
asbasbasbag57
(g73
g59
NtRp3526
(dp3527
g62
(dp3528
sg71
g3396
sg64
(lp3529
g57
(g78
g59
NtRp3530
(dp3531
g62
(dp3532
g82
g83
ssg71
g3526
sg64
(lp3533
S'HTTP_CONNECTION'
p3534
asbag57
(g78
g59
NtRp3535
(dp3536
g62
(dp3537
g89
g90
ssg71
g3526
sg64
(lp3538
S':'
asbag57
(g78
g59
NtRp3539
(dp3540
g62
(dp3541
sg71
g3526
sg64
(lp3542
g57
(g58
g59
NtRp3543
(dp3544
g62
(dp3545
g70
I3
ssg71
g3539
sg64
(lp3546
g1911
asbasbasbag57
(g73
g59
NtRp3547
(dp3548
g62
(dp3549
sg71
g3396
sg64
(lp3550
g57
(g78
g59
NtRp3551
(dp3552
g62
(dp3553
g82
g83
ssg71
g3547
sg64
(lp3554
S'HTTP_CONTENT_TYPE'
p3555
asbag57
(g78
g59
NtRp3556
(dp3557
g62
(dp3558
g89
g90
ssg71
g3547
sg64
(lp3559
S':'
asbag57
(g78
g59
NtRp3560
(dp3561
g62
(dp3562
sg71
g3547
sg64
(lp3563
g57
(g58
g59
NtRp3564
(dp3565
g62
(dp3566
g70
I3
ssg71
g3560
sg64
(lp3567
g1713
asbasbasbag57
(g73
g59
NtRp3568
(dp3569
g62
(dp3570
sg71
g3396
sg64
(lp3571
g57
(g78
g59
NtRp3572
(dp3573
g62
(dp3574
g82
g83
ssg71
g3568
sg64
(lp3575
S'HTTP_COOKIE'
p3576
asbag57
(g78
g59
NtRp3577
(dp3578
g62
(dp3579
g89
g90
ssg71
g3568
sg64
(lp3580
S':'
asbag57
(g78
g59
NtRp3581
(dp3582
g62
(dp3583
sg71
g3568
sg64
(lp3584
g57
(g58
g59
NtRp3585
(dp3586
g62
(dp3587
g70
I3
ssg71
g3581
sg64
(lp3588
g1954
asbasbasbag57
(g73
g59
NtRp3589
(dp3590
g62
(dp3591
sg71
g3396
sg64
(lp3592
g57
(g78
g59
NtRp3593
(dp3594
g62
(dp3595
g82
g83
ssg71
g3589
sg64
(lp3596
S'HTTP_HOST'
p3597
asbag57
(g78
g59
NtRp3598
(dp3599
g62
(dp3600
g89
g90
ssg71
g3589
sg64
(lp3601
S':'
asbag57
(g78
g59
NtRp3602
(dp3603
g62
(dp3604
sg71
g3589
sg64
(lp3605
g57
(g58
g59
NtRp3606
(dp3607
g62
(dp3608
g70
I3
ssg71
g3602
sg64
(lp3609
g1976
asbasbasbag57
(g73
g59
NtRp3610
(dp3611
g62
(dp3612
sg71
g3396
sg64
(lp3613
g57
(g78
g59
NtRp3614
(dp3615
g62
(dp3616
g82
g83
ssg71
g3610
sg64
(lp3617
S'HTTP_PRAGMA'
p3618
asbag57
(g78
g59
NtRp3619
(dp3620
g62
(dp3621
g89
g90
ssg71
g3610
sg64
(lp3622
S':'
asbag57
(g78
g59
NtRp3623
(dp3624
g62
(dp3625
sg71
g3610
sg64
(lp3626
g57
(g58
g59
NtRp3627
(dp3628
g62
(dp3629
g70
I3
ssg71
g3623
sg64
(lp3630
g1998
asbasbasbag57
(g73
g59
NtRp3631
(dp3632
g62
(dp3633
sg71
g3396
sg64
(lp3634
g57
(g78
g59
NtRp3635
(dp3636
g62
(dp3637
g82
g83
ssg71
g3631
sg64
(lp3638
S'HTTP_REFERER'
p3639
asbag57
(g78
g59
NtRp3640
(dp3641
g62
(dp3642
g89
g90
ssg71
g3631
sg64
(lp3643
S':'
asbag57
(g78
g59
NtRp3644
(dp3645
g62
(dp3646
sg71
g3631
sg64
(lp3647
g57
(g58
g59
NtRp3648
(dp3649
g62
(dp3650
g70
I3
ssg71
g3644
sg64
(lp3651
g2020
asbasbasbag57
(g73
g59
NtRp3652
(dp3653
g62
(dp3654
sg71
g3396
sg64
(lp3655
g57
(g78
g59
NtRp3656
(dp3657
g62
(dp3658
g82
g83
ssg71
g3652
sg64
(lp3659
S'HTTP_USER_AGENT'
p3660
asbag57
(g78
g59
NtRp3661
(dp3662
g62
(dp3663
g89
g90
ssg71
g3652
sg64
(lp3664
S':'
asbag57
(g78
g59
NtRp3665
(dp3666
g62
(dp3667
sg71
g3652
sg64
(lp3668
g57
(g58
g59
NtRp3669
(dp3670
g62
(dp3671
g70
I3
ssg71
g3665
sg64
(lp3672
g2042
asbasbasbag57
(g73
g59
NtRp3673
(dp3674
g62
(dp3675
sg71
g3396
sg64
(lp3676
g57
(g78
g59
NtRp3677
(dp3678
g62
(dp3679
g82
g83
ssg71
g3673
sg64
(lp3680
S'HTTP_WEB2PY_COMPONENT_ELEMENT'
p3681
asbag57
(g78
g59
NtRp3682
(dp3683
g62
(dp3684
g89
g90
ssg71
g3673
sg64
(lp3685
S':'
asbag57
(g78
g59
NtRp3686
(dp3687
g62
(dp3688
sg71
g3673
sg64
(lp3689
g57
(g58
g59
NtRp3690
(dp3691
g62
(dp3692
g70
I3
ssg71
g3686
sg64
(lp3693
g203
asbasbasbag57
(g73
g59
NtRp3694
(dp3695
g62
(dp3696
sg71
g3396
sg64
(lp3697
g57
(g78
g59
NtRp3698
(dp3699
g62
(dp3700
g82
g83
ssg71
g3694
sg64
(lp3701
S'HTTP_WEB2PY_COMPONENT_LOCATION'
p3702
asbag57
(g78
g59
NtRp3703
(dp3704
g62
(dp3705
g89
g90
ssg71
g3694
sg64
(lp3706
S':'
asbag57
(g78
g59
NtRp3707
(dp3708
g62
(dp3709
sg71
g3694
sg64
(lp3710
g57
(g58
g59
NtRp3711
(dp3712
g62
(dp3713
g70
I3
ssg71
g3707
sg64
(lp3714
g2085
asbasbasbag57
(g73
g59
NtRp3715
(dp3716
g62
(dp3717
sg71
g3396
sg64
(lp3718
g57
(g78
g59
NtRp3719
(dp3720
g62
(dp3721
g82
g83
ssg71
g3715
sg64
(lp3722
S'HTTP_X_REQUESTED_WITH'
p3723
asbag57
(g78
g59
NtRp3724
(dp3725
g62
(dp3726
g89
g90
ssg71
g3715
sg64
(lp3727
S':'
asbag57
(g78
g59
NtRp3728
(dp3729
g62
(dp3730
sg71
g3715
sg64
(lp3731
g57
(g58
g59
NtRp3732
(dp3733
g62
(dp3734
g70
I3
ssg71
g3728
sg64
(lp3735
g2107
asbasbasbag57
(g73
g59
NtRp3736
(dp3737
g62
(dp3738
sg71
g3396
sg64
(lp3739
g57
(g78
g59
NtRp3740
(dp3741
g62
(dp3742
g82
g83
ssg71
g3736
sg64
(lp3743
S'PATH_INFO'
p3744
asbag57
(g78
g59
NtRp3745
(dp3746
g62
(dp3747
g89
g90
ssg71
g3736
sg64
(lp3748
S':'
asbag57
(g78
g59
NtRp3749
(dp3750
g62
(dp3751
sg71
g3736
sg64
(lp3752
g57
(g58
g59
NtRp3753
(dp3754
g62
(dp3755
g70
I3
ssg71
g3749
sg64
(lp3756
g2171
asbasbasbag57
(g73
g59
NtRp3757
(dp3758
g62
(dp3759
sg71
g3396
sg64
(lp3760
g57
(g78
g59
NtRp3761
(dp3762
g62
(dp3763
g82
g83
ssg71
g3757
sg64
(lp3764
S'QUERY_STRING'
p3765
asbag57
(g78
g59
NtRp3766
(dp3767
g62
(dp3768
g89
g90
ssg71
g3757
sg64
(lp3769
S':'
asbag57
(g78
g59
NtRp3770
(dp3771
g62
(dp3772
sg71
g3757
sg64
(lp3773
g57
(g58
g59
NtRp3774
(dp3775
g62
(dp3776
g70
I3
ssg71
g3770
sg64
(lp3777
S''
asbasbasbag57
(g73
g59
NtRp3778
(dp3779
g62
(dp3780
sg71
g3396
sg64
(lp3781
g57
(g78
g59
NtRp3782
(dp3783
g62
(dp3784
g82
g83
ssg71
g3778
sg64
(lp3785
S'REMOTE_ADDR'
p3786
asbag57
(g78
g59
NtRp3787
(dp3788
g62
(dp3789
g89
g90
ssg71
g3778
sg64
(lp3790
S':'
asbag57
(g78
g59
NtRp3791
(dp3792
g62
(dp3793
sg71
g3778
sg64
(lp3794
g57
(g58
g59
NtRp3795
(dp3796
g62
(dp3797
g70
I3
ssg71
g3791
sg64
(lp3798
g225
asbasbasbag57
(g73
g59
NtRp3799
(dp3800
g62
(dp3801
sg71
g3396
sg64
(lp3802
g57
(g78
g59
NtRp3803
(dp3804
g62
(dp3805
g82
g83
ssg71
g3799
sg64
(lp3806
S'REMOTE_PORT'
p3807
asbag57
(g78
g59
NtRp3808
(dp3809
g62
(dp3810
g89
g90
ssg71
g3799
sg64
(lp3811
S':'
asbag57
(g78
g59
NtRp3812
(dp3813
g62
(dp3814
sg71
g3799
sg64
(lp3815
g57
(g58
g59
NtRp3816
(dp3817
g62
(dp3818
g70
I3
ssg71
g3812
sg64
(lp3819
g2235
asbasbasbag57
(g73
g59
NtRp3820
(dp3821
g62
(dp3822
sg71
g3396
sg64
(lp3823
g57
(g78
g59
NtRp3824
(dp3825
g62
(dp3826
g82
g83
ssg71
g3820
sg64
(lp3827
S'REQUEST_METHOD'
p3828
asbag57
(g78
g59
NtRp3829
(dp3830
g62
(dp3831
g89
g90
ssg71
g3820
sg64
(lp3832
S':'
asbag57
(g78
g59
NtRp3833
(dp3834
g62
(dp3835
sg71
g3820
sg64
(lp3836
g57
(g58
g59
NtRp3837
(dp3838
g62
(dp3839
g70
I3
ssg71
g3833
sg64
(lp3840
g2257
asbasbasbag57
(g73
g59
NtRp3841
(dp3842
g62
(dp3843
sg71
g3396
sg64
(lp3844
g57
(g78
g59
NtRp3845
(dp3846
g62
(dp3847
g82
g83
ssg71
g3841
sg64
(lp3848
S'SCRIPT_NAME'
p3849
asbag57
(g78
g59
NtRp3850
(dp3851
g62
(dp3852
g89
g90
ssg71
g3841
sg64
(lp3853
S':'
asbag57
(g78
g59
NtRp3854
(dp3855
g62
(dp3856
sg71
g3841
sg64
(lp3857
g57
(g58
g59
NtRp3858
(dp3859
g62
(dp3860
g70
I3
ssg71
g3854
sg64
(lp3861
S''
asbasbasbag57
(g73
g59
NtRp3862
(dp3863
g62
(dp3864
sg71
g3396
sg64
(lp3865
g57
(g78
g59
NtRp3866
(dp3867
g62
(dp3868
g82
g83
ssg71
g3862
sg64
(lp3869
S'SERVER_NAME'
p3870
asbag57
(g78
g59
NtRp3871
(dp3872
g62
(dp3873
g89
g90
ssg71
g3862
sg64
(lp3874
S':'
asbag57
(g78
g59
NtRp3875
(dp3876
g62
(dp3877
sg71
g3862
sg64
(lp3878
g57
(g58
g59
NtRp3879
(dp3880
g62
(dp3881
g70
I3
ssg71
g3875
sg64
(lp3882
g2300
asbasbasbag57
(g73
g59
NtRp3883
(dp3884
g62
(dp3885
sg71
g3396
sg64
(lp3886
g57
(g78
g59
NtRp3887
(dp3888
g62
(dp3889
g82
g83
ssg71
g3883
sg64
(lp3890
S'SERVER_PORT'
p3891
asbag57
(g78
g59
NtRp3892
(dp3893
g62
(dp3894
g89
g90
ssg71
g3883
sg64
(lp3895
S':'
asbag57
(g78
g59
NtRp3896
(dp3897
g62
(dp3898
sg71
g3883
sg64
(lp3899
g57
(g58
g59
NtRp3900
(dp3901
g62
(dp3902
g70
I3
ssg71
g3896
sg64
(lp3903
g2322
asbasbasbag57
(g73
g59
NtRp3904
(dp3905
g62
(dp3906
sg71
g3396
sg64
(lp3907
g57
(g78
g59
NtRp3908
(dp3909
g62
(dp3910
g82
g83
ssg71
g3904
sg64
(lp3911
S'SERVER_PROTOCOL'
p3912
asbag57
(g78
g59
NtRp3913
(dp3914
g62
(dp3915
g89
g90
ssg71
g3904
sg64
(lp3916
S':'
asbag57
(g78
g59
NtRp3917
(dp3918
g62
(dp3919
sg71
g3904
sg64
(lp3920
g57
(g58
g59
NtRp3921
(dp3922
g62
(dp3923
g70
I3
ssg71
g3917
sg64
(lp3924
g2344
asbasbasbag57
(g73
g59
NtRp3925
(dp3926
g62
(dp3927
sg71
g3396
sg64
(lp3928
g57
(g78
g59
NtRp3929
(dp3930
g62
(dp3931
g82
g83
ssg71
g3925
sg64
(lp3932
S'SERVER_SOFTWARE'
p3933
asbag57
(g78
g59
NtRp3934
(dp3935
g62
(dp3936
g89
g90
ssg71
g3925
sg64
(lp3937
S':'
asbag57
(g78
g59
NtRp3938
(dp3939
g62
(dp3940
sg71
g3925
sg64
(lp3941
g57
(g58
g59
NtRp3942
(dp3943
g62
(dp3944
g70
I3
ssg71
g3938
sg64
(lp3945
g2366
asbasbasbag57
(g73
g59
NtRp3946
(dp3947
g62
(dp3948
sg71
g3396
sg64
(lp3949
g57
(g78
g59
NtRp3950
(dp3951
g62
(dp3952
g82
g83
ssg71
g3946
sg64
(lp3953
S'wsgi.errors'
p3954
asbag57
(g78
g59
NtRp3955
(dp3956
g62
(dp3957
g89
g90
ssg71
g3946
sg64
(lp3958
S':'
asbag57
(g78
g59
NtRp3959
(dp3960
g62
(dp3961
sg71
g3946
sg64
(lp3962
g57
(g58
g59
NtRp3963
(dp3964
g62
(dp3965
g70
I3
ssg71
g3959
sg64
(lp3966
S"<open file '<stderr>', mode 'w' at 0x7f8f31378270>"
p3967
asbasbasbag57
(g73
g59
NtRp3968
(dp3969
g62
(dp3970
sg71
g3396
sg64
(lp3971
g57
(g78
g59
NtRp3972
(dp3973
g62
(dp3974
g82
g83
ssg71
g3968
sg64
(lp3975
S'wsgi.file_wrapper'
p3976
asbag57
(g78
g59
NtRp3977
(dp3978
g62
(dp3979
g89
g90
ssg71
g3968
sg64
(lp3980
S':'
asbag57
(g78
g59
NtRp3981
(dp3982
g62
(dp3983
sg71
g3968
sg64
(lp3984
g57
(g58
g59
NtRp3985
(dp3986
g62
(dp3987
g70
I3
ssg71
g3981
sg64
(lp3988
S'<class wsgiref.util.FileWrapper at 0x1e53c80>'
p3989
asbasbasbag57
(g73
g59
NtRp3990
(dp3991
g62
(dp3992
sg71
g3396
sg64
(lp3993
g57
(g78
g59
NtRp3994
(dp3995
g62
(dp3996
g82
g83
ssg71
g3990
sg64
(lp3997
S'wsgi.input'
p3998
asbag57
(g78
g59
NtRp3999
(dp4000
g62
(dp4001
g89
g90
ssg71
g3990
sg64
(lp4002
S':'
asbag57
(g78
g59
NtRp4003
(dp4004
g62
(dp4005
sg71
g3990
sg64
(lp4006
g57
(g58
g59
NtRp4007
(dp4008
g62
(dp4009
g70
I3
ssg71
g4003
sg64
(lp4010
S'<cStringIO.StringO object at 0x2a06298>'
p4011
asbasbasbag57
(g73
g59
NtRp4012
(dp4013
g62
(dp4014
sg71
g3396
sg64
(lp4015
g57
(g78
g59
NtRp4016
(dp4017
g62
(dp4018
g82
g83
ssg71
g4012
sg64
(lp4019
S'wsgi.multiprocess'
p4020
asbag57
(g78
g59
NtRp4021
(dp4022
g62
(dp4023
g89
g90
ssg71
g4012
sg64
(lp4024
S':'
asbag57
(g78
g59
NtRp4025
(dp4026
g62
(dp4027
sg71
g4012
sg64
(lp4028
g57
(g58
g59
NtRp4029
(dp4030
g62
(dp4031
g70
I3
ssg71
g4025
sg64
(lp4032
g1757
asbasbasbag57
(g73
g59
NtRp4033
(dp4034
g62
(dp4035
sg71
g3396
sg64
(lp4036
g57
(g78
g59
NtRp4037
(dp4038
g62
(dp4039
g82
g83
ssg71
g4033
sg64
(lp4040
S'wsgi.multithread'
p4041
asbag57
(g78
g59
NtRp4042
(dp4043
g62
(dp4044
g89
g90
ssg71
g4033
sg64
(lp4045
S':'
asbag57
(g78
g59
NtRp4046
(dp4047
g62
(dp4048
sg71
g4033
sg64
(lp4049
g57
(g58
g59
NtRp4050
(dp4051
g62
(dp4052
g70
I3
ssg71
g4046
sg64
(lp4053
g100
asbasbasbag57
(g73
g59
NtRp4054
(dp4055
g62
(dp4056
sg71
g3396
sg64
(lp4057
g57
(g78
g59
NtRp4058
(dp4059
g62
(dp4060
g82
g83
ssg71
g4054
sg64
(lp4061
S'wsgi.run_once'
p4062
asbag57
(g78
g59
NtRp4063
(dp4064
g62
(dp4065
g89
g90
ssg71
g4054
sg64
(lp4066
S':'
asbag57
(g78
g59
NtRp4067
(dp4068
g62
(dp4069
sg71
g4054
sg64
(lp4070
g57
(g58
g59
NtRp4071
(dp4072
g62
(dp4073
g70
I3
ssg71
g4067
sg64
(lp4074
g1757
asbasbasbag57
(g73
g59
NtRp4075
(dp4076
g62
(dp4077
sg71
g3396
sg64
(lp4078
g57
(g78
g59
NtRp4079
(dp4080
g62
(dp4081
g82
g83
ssg71
g4075
sg64
(lp4082
S'wsgi.url_scheme'
p4083
asbag57
(g78
g59
NtRp4084
(dp4085
g62
(dp4086
g89
g90
ssg71
g4075
sg64
(lp4087
S':'
asbag57
(g78
g59
NtRp4088
(dp4089
g62
(dp4090
sg71
g4075
sg64
(lp4091
g57
(g58
g59
NtRp4092
(dp4093
g62
(dp4094
g70
I3
ssg71
g4088
sg64
(lp4095
g2648
asbasbasbag57
(g73
g59
NtRp4096
(dp4097
g62
(dp4098
sg71
g3396
sg64
(lp4099
g57
(g78
g59
NtRp4100
(dp4101
g62
(dp4102
g82
g83
ssg71
g4096
sg64
(lp4103
S'wsgi.version'
p4104
asbag57
(g78
g59
NtRp4105
(dp4106
g62
(dp4107
g89
g90
ssg71
g4096
sg64
(lp4108
S':'
asbag57
(g78
g59
NtRp4109
(dp4110
g62
(dp4111
sg71
g4096
sg64
(lp4112
g57
(g58
g59
NtRp4113
(dp4114
g62
(dp4115
g70
I3
ssg71
g4109
sg64
(lp4116
S'1'
asbasbasbasbasbasbasbasbasbasbasbasbasbsS'frames'
p4117
(lp4118
(dp4119
S'file'
p4120
S'/home/ian/web2py/gluon/restricted.py'
p4121
sS'dump'
p4122
(dp4123
S'environment'
p4124
S"{'A': <class 'gluon.html.A'>, 'Auth': <class 'gluon.tools.Auth'>, 'B': <class 'gluon.html.B'>, 'BEAUTIFY': <class 'gluon.html.BEAUTIFY'>, 'BODY': <class 'gluon.html.BODY'>, 'BR': <class 'gluon.html.BR'>, 'BUTTON': <class 'gluon.html.BUTTON'>, 'CAT': <class 'gluon.html.CAT'>, 'CENTER': <class 'gluon.html.CENTER'>, 'CLEANUP': <class 'gluon.validators.CLEANUP'>, ...}"
p4125
sS'ccode'
p4126
S'<code object <module> at 0x2b476b0, file "/home/...ations/paideia/controllers/exploring.py", line 1>'
p4127
ssS'lnum'
p4128
I204
sS'lines'
p4129
(dp4130
I199
S'    try:'
p4131
sI200
S'        if type(code) == types.CodeType:'
p4132
sI201
S'            ccode = code'
p4133
sI202
S'        else:'
p4134
sI203
S'            ccode = compile2(code,layer)'
p4135
sI204
S'        exec ccode in environment'
p4136
sI205
S'    except HTTP:'
p4137
sI206
S'        raise'
p4138
sI207
S'    except RestrictedError:'
p4139
sI208
S'        # do not encapsulate (obfuscate) the original RestrictedError'
p4140
ssS'call'
p4141
S"(code='# coding: utf8\\nif 0:\\n    from gluon import curre...quizzes)\\n\\nresponse._vars=response._caller(index)\\n', environment={'A': <class 'gluon.html.A'>, 'Auth': <class 'gluon.tools.Auth'>, 'B': <class 'gluon.html.B'>, 'BEAUTIFY': <class 'gluon.html.BEAUTIFY'>, 'BODY': <class 'gluon.html.BODY'>, 'BR': <class 'gluon.html.BR'>, 'BUTTON': <class 'gluon.html.BUTTON'>, 'CAT': <class 'gluon.html.CAT'>, 'CENTER': <class 'gluon.html.CENTER'>, 'CLEANUP': <class 'gluon.validators.CLEANUP'>, ...}, layer='/home/ian/web2py/applications/paideia/controllers/exploring.py')"
p4142
sS'func'
p4143
S'restricted'
p4144
sa(dp4145
g4120
S'/home/ian/web2py/applications/paideia/controllers/exploring.py'
p4146
sg4122
(dp4147
sg4128
I74
sg4129
(dp4148
I64
S"        button = A('continue', _href=URL('index', args=['ask']), _class='button-green-grad next_q', cid=request.cid)"
p4149
sI65
S"        #don't include this question in counting the number attempted"
p4150
sI66
S'        session.q_counter -= 1'
p4151
sI67
S'        return dict(message = message, button = button)'
p4152
sI68
S''
sI69
S'    #when first arrive at start page'
p4153
sI70
S'    else:'
p4154
sI71
S'        the_quizzes = db().select(db.quizzes.ALL, orderby=db.quizzes.quiz)'
p4155
sI72
S'        return dict(quizzes = the_quizzes)'
p4156
sI63
S'        message = "Oops! Something about that question confused me, and I\'m not sure whether your answer was right. Let\'s try another one."'
p4157
ssg4141
S'()'
p4158
sg4143
S'<module>'
p4159
sa(dp4160
g4120
S'/home/ian/web2py/gluon/globals.py'
p4161
sg4122
(dp4162
S'self'
p4163
S'undefined'
p4164
sS'f'
S'<function index>'
p4165
ssg4128
I172
sg4129
(dp4166
I167
S'        self.meta = Storage()      # used by web2py_ajax.html'
p4167
sI168
S'        self.menu = []             # used by the default view layout'
p4168
sI169
S'        self.files = []            # used by web2py_ajax.html'
p4169
sI170
S'        self.generic_patterns = [] # patterns to allow generic views'
p4170
sI171
S'        self._vars = None'
p4171
sI172
S'        self._caller = lambda f: f()'
p4172
sI173
S'        self._view_environment = None'
p4173
sI174
S'        self._custom_commit = None'
p4174
sI175
S'        self._custom_rollback = None'
p4175
sI176
S''
ssg4141
S'(f=<function index>)'
p4176
sg4143
S'<lambda>'
p4177
sa(dp4178
g4120
S'/home/ian/web2py/gluon/tools.py'
p4179
sg4122
(dp4180
S'action'
p4181
S'<function index>'
p4182
sS'a'
S'()'
p4183
sS'b'
g45
ssg4128
I2533
sg4129
(dp4184
I2528
S'                # otherwise case 3 would be ok.'
p4185
sI2529
S'                if not (callable(condition) and condition() == True) and not condition == True:'
p4186
sI2530
S'                    current.session.flash = self.messages.access_denied'
p4187
sI2531
S'                    return call_or_redirect('
p4188
sI2532
S'                        self.settings.on_failed_authorization)'
p4189
sI2533
S'                return action(*a, **b)'
p4190
sI2534
S'            f.__doc__ = action.__doc__'
p4191
sI2535
S'            f.__name__ = action.__name__'
p4192
sI2536
S'            f.__dict__.update(action.__dict__)'
p4193
sI2537
S'            return f'
p4194
ssg4141
S'(*a=(), **b={})'
p4195
sg4143
S'f'
sa(dp4196
g4120
S'/home/ian/web2py/applications/paideia/controllers/exploring.py'
p4197
sg4122
(dp4198
S'q'
S'<applications.paideia.modules.paideia_questions.question instance>'
p4199
sS'q.evalq'
p4200
S'<bound method question.evalq of <applications.paideia.modules.paideia_questions.question instance>>'
p4201
sS'the_eval'
p4202
g4164
ssg4128
I39
sg4129
(dp4203
I34
S''
sI35
S'    #after submitting answer'
p4204
sI36
S"    elif request.args(0) == 'reply':"
p4205
sI37
S'        #see whether answer matches any of the three answer fields'
p4206
sI38
S'        q = question()'
p4207
sI39
S'        the_eval = q.evalq()'
p4208
sI40
S''
sI41
S'        #build response to user'
p4209
sI42
S"        if session.eval == 'correct':"
p4210
sI43
S'            the_reply = "Right. \xce\x9a\xce\xac\xce\xbb\xce\xb7."'
p4211
ssg4141
S'()'
p4212
sg4143
S'index'
p4213
sa(dp4214
g4120
S'/home/ian/web2py/applications/paideia/modules/paideia_questions.py'
p4215
sg4122
(dp4216
S'self'
p4217
S'<applications.paideia.modules.paideia_questions.question instance>'
p4218
sS'self.recordq'
p4219
S'<bound method question.recordq of <applications....eia.modules.paideia_questions.question instance>>'
p4220
ssg4128
I157
sg4129
(dp4221
I160
S'        #handle errors if the response cannot be evaluated'
p4222
sI161
S'        except re.error:'
p4223
sI152
S'                else:'
p4224
sI153
S'                    self.rightDate = datetime.datetime.utcnow()'
p4225
sI154
S'                self.wrongDate = datetime.datetime.utcnow()'
p4226
sI155
S'                self.score = 0'
p4227
sI156
S''
sI157
S'            self.recordq()'
p4228
sI158
S'            self.recordtag(session.qID)'
p4229
sI159
S''
ssg4141
S'(self=<applications.paideia.modules.paideia_questions.question instance>)'
p4230
sg4143
S'evalq'
p4231
sa(dp4232
g4120
S'/home/ian/web2py/applications/paideia/modules/paideia_questions.py'
p4233
sg4122
(dp4234
S'last_wrong'
p4235
S'datetime.datetime(2011, 11, 9, 12, 0)'
p4236
sS'category'
p4237
g4164
sS'newTimesW'
p4238
S'11'
p4239
sS'last_right'
p4240
S'datetime.datetime(2012, 1, 27, 16, 5, 47, 574860)'
p4241
sS'times_right'
p4242
g4164
sS'newTimesR'
p4243
S'107'
p4244
sS'cat'
p4245
g4164
sS'db'
p4246
S"<DAL {'auth_event': <Table {'origin': <gluon.dal... '_id': <gluon.dal.Field object at 0x2b64550>}>}>"
p4247
sS'tlast_wrong'
p4248
g4164
sS'times_wrong'
p4249
g4164
sS'tlast_right'
p4250
g4164
sS').update'
p4251
g4164
sS'session'
p4252
S"<Storage {'path_name': 'Tyndale - Greek Exegesis...sword]': '783cbf1f-6d9b-452b-86c9-40ac9b389d31'}>"
p4253
sS'db.question_records'
p4254
S"<Table {'_db': <DAL {'auth_event': <Table {'orig...e, '_id': <gluon.dal.Field object at 0x290f190>}>"
p4255
sS'session.qID'
p4256
S'1'
sS'db.question_records.question'
p4257
S'<gluon.dal.Field object>'
p4258
ssg4128
I201
sg4129
(dp4259
I196
S'            rightWrong_dur = last_right - last_wrong'
p4260
sI197
S"            #categorize this question based on student's performance"
p4261
sI198
S'            self.categorize(now_date, last_right, last_wrong, right_dur, wrong_dur, rightWrong_dur)'
p4262
sI199
S''
sI200
S'            #update the db record'
p4263
sI201
S'            db(db.question_records.question==session.qID).update(times_right=newTimesR, times_wrong=newTimesW, tlast_right=last_right, tlast_wrong=last_wrong, category=cat)'
p4264
sI202
S"        #if the user hasn't attempted this question, create a new record for it"
p4265
sI203
S'        else:'
p4266
sI204
S'            db.question_records.insert(question=session.qID, times_right=self.rightCount, times_wrong=self.wrongCount)'
p4267
sI205
S''
ssg4141
S'(self=<applications.paideia.modules.paideia_questions.question instance>)'
p4268
sg4143
S'recordq'
p4269
sasS'pyver'
p4270
S'Python 2.7.2+: /usr/bin/python2.7'
p4271
sS'session'
p4272
g57
(g58
g59
NtRp4273
(dp4274
g62
(dp4275
sg64
(lp4276
g57
(g66
g59
NtRp4277
(dp4278
g62
(dp4279
g70
I5
ssg71
Nsg64
(lp4280
g57
(g73
g59
NtRp4281
(dp4282
g62
(dp4283
sg71
g4277
sg64
(lp4284
g57
(g78
g59
NtRp4285
(dp4286
g62
(dp4287
g82
g83
ssg71
g4281
sg64
(lp4288
S'answer'
p4289
asbag57
(g78
g59
NtRp4290
(dp4291
g62
(dp4292
g89
g90
ssg71
g4281
sg64
(lp4293
S':'
asbag57
(g78
g59
NtRp4294
(dp4295
g62
(dp4296
sg71
g4281
sg64
(lp4297
g57
(g58
g59
NtRp4298
(dp4299
g62
(dp4300
g70
I5
ssg71
g4294
sg64
(lp4301
S'^(a |the )?(command|commandment|statute|decree|injunction)(.)?$'
p4302
asbasbasbag57
(g73
g59
NtRp4303
(dp4304
g62
(dp4305
sg71
g4277
sg64
(lp4306
g57
(g78
g59
NtRp4307
(dp4308
g62
(dp4309
g82
g83
ssg71
g4303
sg64
(lp4310
S'answer2'
p4311
asbag57
(g78
g59
NtRp4312
(dp4313
g62
(dp4314
g89
g90
ssg71
g4303
sg64
(lp4315
S':'
asbag57
(g78
g59
NtRp4316
(dp4317
g62
(dp4318
sg71
g4303
sg64
(lp4319
g57
(g58
g59
NtRp4320
(dp4321
g62
(dp4322
g70
I5
ssg71
g4316
sg64
(lp4323
S'command|commandment|statute|decree'
p4324
asbasbasbag57
(g73
g59
NtRp4325
(dp4326
g62
(dp4327
sg71
g4277
sg64
(lp4328
g57
(g78
g59
NtRp4329
(dp4330
g62
(dp4331
g82
g83
ssg71
g4325
sg64
(lp4332
S'answer3'
p4333
asbag57
(g78
g59
NtRp4334
(dp4335
g62
(dp4336
g89
g90
ssg71
g4325
sg64
(lp4337
S':'
asbag57
(g78
g59
NtRp4338
(dp4339
g62
(dp4340
sg71
g4325
sg64
(lp4341
g57
(g58
g59
NtRp4342
(dp4343
g62
(dp4344
g70
I5
ssg71
g4338
sg64
(lp4345
S'null'
p4346
asbasbasbag57
(g73
g59
NtRp4347
(dp4348
g62
(dp4349
sg71
g4277
sg64
(lp4350
g57
(g78
g59
NtRp4351
(dp4352
g62
(dp4353
g82
g83
ssg71
g4347
sg64
(lp4354
S'auth'
p4355
asbag57
(g78
g59
NtRp4356
(dp4357
g62
(dp4358
g89
g90
ssg71
g4347
sg64
(lp4359
S':'
asbag57
(g78
g59
NtRp4360
(dp4361
g62
(dp4362
sg71
g4347
sg64
(lp4363
g57
(g58
g59
NtRp4364
(dp4365
g62
(dp4366
g70
I5
ssg71
g4360
sg64
(lp4367
g57
(g66
g59
NtRp4368
(dp4369
g62
(dp4370
g70
I4
ssg71
Nsg64
(lp4371
g57
(g73
g59
NtRp4372
(dp4373
g62
(dp4374
sg71
g4368
sg64
(lp4375
g57
(g78
g59
NtRp4376
(dp4377
g62
(dp4378
g82
g83
ssg71
g4372
sg64
(lp4379
S'expiration'
p4380
asbag57
(g78
g59
NtRp4381
(dp4382
g62
(dp4383
g89
g90
ssg71
g4372
sg64
(lp4384
S':'
asbag57
(g78
g59
NtRp4385
(dp4386
g62
(dp4387
sg71
g4372
sg64
(lp4388
g57
(g58
g59
NtRp4389
(dp4390
g62
(dp4391
g70
I4
ssg71
g4385
sg64
(lp4392
S'2592000'
p4393
asbasbasbag57
(g73
g59
NtRp4394
(dp4395
g62
(dp4396
sg71
g4368
sg64
(lp4397
g57
(g78
g59
NtRp4398
(dp4399
g62
(dp4400
g82
g83
ssg71
g4394
sg64
(lp4401
S'hmac_key'
p4402
asbag57
(g78
g59
NtRp4403
(dp4404
g62
(dp4405
g89
g90
ssg71
g4394
sg64
(lp4406
S':'
asbag57
(g78
g59
NtRp4407
(dp4408
g62
(dp4409
sg71
g4394
sg64
(lp4410
g57
(g58
g59
NtRp4411
(dp4412
g62
(dp4413
g70
I4
ssg71
g4407
sg64
(lp4414
S'9c41d896-b657-4970-92b7-bdd577059778'
p4415
asbasbasbag57
(g73
g59
NtRp4416
(dp4417
g62
(dp4418
sg71
g4368
sg64
(lp4419
g57
(g78
g59
NtRp4420
(dp4421
g62
(dp4422
g82
g83
ssg71
g4416
sg64
(lp4423
S'last_visit'
p4424
asbag57
(g78
g59
NtRp4425
(dp4426
g62
(dp4427
g89
g90
ssg71
g4416
sg64
(lp4428
S':'
asbag57
(g78
g59
NtRp4429
(dp4430
g62
(dp4431
sg71
g4416
sg64
(lp4432
g57
(g58
g59
NtRp4433
(dp4434
g62
(dp4435
g70
I4
ssg71
g4429
sg64
(lp4436
S'datetime.datetime(2012, 1, 20, 13, 36, 28, 206752)'
p4437
asbasbasbag57
(g73
g59
NtRp4438
(dp4439
g62
(dp4440
sg71
g4368
sg64
(lp4441
g57
(g78
g59
NtRp4442
(dp4443
g62
(dp4444
g82
g83
ssg71
g4438
sg64
(lp4445
S'remember'
p4446
asbag57
(g78
g59
NtRp4447
(dp4448
g62
(dp4449
g89
g90
ssg71
g4438
sg64
(lp4450
S':'
asbag57
(g78
g59
NtRp4451
(dp4452
g62
(dp4453
sg71
g4438
sg64
(lp4454
g57
(g58
g59
NtRp4455
(dp4456
g62
(dp4457
g70
I4
ssg71
g4451
sg64
(lp4458
g100
asbasbasbag57
(g73
g59
NtRp4459
(dp4460
g62
(dp4461
sg71
g4368
sg64
(lp4462
g57
(g78
g59
NtRp4463
(dp4464
g62
(dp4465
g82
g83
ssg71
g4459
sg64
(lp4466
S'user'
p4467
asbag57
(g78
g59
NtRp4468
(dp4469
g62
(dp4470
g89
g90
ssg71
g4459
sg64
(lp4471
S':'
asbag57
(g78
g59
NtRp4472
(dp4473
g62
(dp4474
sg71
g4459
sg64
(lp4475
g57
(g58
g59
NtRp4476
(dp4477
g62
(dp4478
g70
I4
ssg71
g4472
sg64
(lp4479
g57
(g66
g59
NtRp4480
(dp4481
g62
(dp4482
g70
I3
ssg71
Nsg64
(lp4483
g57
(g73
g59
NtRp4484
(dp4485
g62
(dp4486
sg71
g4480
sg64
(lp4487
g57
(g78
g59
NtRp4488
(dp4489
g62
(dp4490
g82
g83
ssg71
g4484
sg64
(lp4491
S'email'
p4492
asbag57
(g78
g59
NtRp4493
(dp4494
g62
(dp4495
g89
g90
ssg71
g4484
sg64
(lp4496
S':'
asbag57
(g78
g59
NtRp4497
(dp4498
g62
(dp4499
sg71
g4484
sg64
(lp4500
g57
(g58
g59
NtRp4501
(dp4502
g62
(dp4503
g70
I3
ssg71
g4497
sg64
(lp4504
S'scottianw@gmail.com'
p4505
asbasbasbag57
(g73
g59
NtRp4506
(dp4507
g62
(dp4508
sg71
g4480
sg64
(lp4509
g57
(g78
g59
NtRp4510
(dp4511
g62
(dp4512
g82
g83
ssg71
g4506
sg64
(lp4513
S'first_name'
p4514
asbag57
(g78
g59
NtRp4515
(dp4516
g62
(dp4517
g89
g90
ssg71
g4506
sg64
(lp4518
S':'
asbag57
(g78
g59
NtRp4519
(dp4520
g62
(dp4521
sg71
g4506
sg64
(lp4522
g57
(g58
g59
NtRp4523
(dp4524
g62
(dp4525
g70
I3
ssg71
g4519
sg64
(lp4526
S'Ian'
p4527
asbasbasbag57
(g73
g59
NtRp4528
(dp4529
g62
(dp4530
sg71
g4480
sg64
(lp4531
g57
(g78
g59
NtRp4532
(dp4533
g62
(dp4534
g82
g83
ssg71
g4528
sg64
(lp4535
S'id'
p4536
asbag57
(g78
g59
NtRp4537
(dp4538
g62
(dp4539
g89
g90
ssg71
g4528
sg64
(lp4540
S':'
asbag57
(g78
g59
NtRp4541
(dp4542
g62
(dp4543
sg71
g4528
sg64
(lp4544
g57
(g58
g59
NtRp4545
(dp4546
g62
(dp4547
g70
I3
ssg71
g4541
sg64
(lp4548
S'2'
asbasbasbag57
(g73
g59
NtRp4549
(dp4550
g62
(dp4551
sg71
g4480
sg64
(lp4552
g57
(g78
g59
NtRp4553
(dp4554
g62
(dp4555
g82
g83
ssg71
g4549
sg64
(lp4556
S'last_name'
p4557
asbag57
(g78
g59
NtRp4558
(dp4559
g62
(dp4560
g89
g90
ssg71
g4549
sg64
(lp4561
S':'
asbag57
(g78
g59
NtRp4562
(dp4563
g62
(dp4564
sg71
g4549
sg64
(lp4565
g57
(g58
g59
NtRp4566
(dp4567
g62
(dp4568
g70
I3
ssg71
g4562
sg64
(lp4569
S'Scott'
p4570
asbasbasbag57
(g73
g59
NtRp4571
(dp4572
g62
(dp4573
sg71
g4480
sg64
(lp4574
g57
(g78
g59
NtRp4575
(dp4576
g62
(dp4577
g82
g83
ssg71
g4571
sg64
(lp4578
S'password'
p4579
asbag57
(g78
g59
NtRp4580
(dp4581
g62
(dp4582
g89
g90
ssg71
g4571
sg64
(lp4583
S':'
asbag57
(g78
g59
NtRp4584
(dp4585
g62
(dp4586
sg71
g4571
sg64
(lp4587
g57
(g58
g59
NtRp4588
(dp4589
g62
(dp4590
g70
I3
ssg71
g4584
sg64
(lp4591
S'19738f1e9a2c8eaac81936a86bf608a1a6995e02f527fa31723cb88a2e513a1efae33471354a02805bf25ea2ea17a59c025a5fc8eca6b3bb2137bda74e538737'
p4592
asbasbasbag57
(g73
g59
NtRp4593
(dp4594
g62
(dp4595
sg71
g4480
sg64
(lp4596
g57
(g78
g59
NtRp4597
(dp4598
g62
(dp4599
g82
g83
ssg71
g4593
sg64
(lp4600
S'registration_id'
p4601
asbag57
(g78
g59
NtRp4602
(dp4603
g62
(dp4604
g89
g90
ssg71
g4593
sg64
(lp4605
S':'
asbag57
(g78
g59
NtRp4606
(dp4607
g62
(dp4608
sg71
g4593
sg64
(lp4609
g57
(g58
g59
NtRp4610
(dp4611
g62
(dp4612
g70
I3
ssg71
g4606
sg64
(lp4613
S'None'
p4614
asbasbasbag57
(g73
g59
NtRp4615
(dp4616
g62
(dp4617
sg71
g4480
sg64
(lp4618
g57
(g78
g59
NtRp4619
(dp4620
g62
(dp4621
g82
g83
ssg71
g4615
sg64
(lp4622
S'registration_key'
p4623
asbag57
(g78
g59
NtRp4624
(dp4625
g62
(dp4626
g89
g90
ssg71
g4615
sg64
(lp4627
S':'
asbag57
(g78
g59
NtRp4628
(dp4629
g62
(dp4630
sg71
g4615
sg64
(lp4631
g57
(g58
g59
NtRp4632
(dp4633
g62
(dp4634
g70
I3
ssg71
g4628
sg64
(lp4635
S''
asbasbasbag57
(g73
g59
NtRp4636
(dp4637
g62
(dp4638
sg71
g4480
sg64
(lp4639
g57
(g78
g59
NtRp4640
(dp4641
g62
(dp4642
g82
g83
ssg71
g4636
sg64
(lp4643
S'reset_password_key'
p4644
asbag57
(g78
g59
NtRp4645
(dp4646
g62
(dp4647
g89
g90
ssg71
g4636
sg64
(lp4648
S':'
asbag57
(g78
g59
NtRp4649
(dp4650
g62
(dp4651
sg71
g4636
sg64
(lp4652
g57
(g58
g59
NtRp4653
(dp4654
g62
(dp4655
g70
I3
ssg71
g4649
sg64
(lp4656
S'1327083713-2cc5b0bb-81c6-473e-adeb-2160a9624c63'
p4657
asbasbasbasbasbasbasbasbasbasbasbag57
(g73
g59
NtRp4658
(dp4659
g62
(dp4660
sg71
g4277
sg64
(lp4661
g57
(g78
g59
NtRp4662
(dp4663
g62
(dp4664
g82
g83
ssg71
g4658
sg64
(lp4665
S'debug'
p4666
asbag57
(g78
g59
NtRp4667
(dp4668
g62
(dp4669
g89
g90
ssg71
g4658
sg64
(lp4670
S':'
asbag57
(g78
g59
NtRp4671
(dp4672
g62
(dp4673
sg71
g4658
sg64
(lp4674
g57
(g58
g59
NtRp4675
(dp4676
g62
(dp4677
g70
I5
ssg71
g4671
sg64
(lp4678
S'2012-01-27'
p4679
asbasbasbag57
(g73
g59
NtRp4680
(dp4681
g62
(dp4682
sg71
g4277
sg64
(lp4683
g57
(g78
g59
NtRp4684
(dp4685
g62
(dp4686
g82
g83
ssg71
g4680
sg64
(lp4687
S'eval'
p4688
asbag57
(g78
g59
NtRp4689
(dp4690
g62
(dp4691
g89
g90
ssg71
g4680
sg64
(lp4692
S':'
asbag57
(g78
g59
NtRp4693
(dp4694
g62
(dp4695
sg71
g4680
sg64
(lp4696
g57
(g58
g59
NtRp4697
(dp4698
g62
(dp4699
g70
I5
ssg71
g4693
sg64
(lp4700
S'correct'
p4701
asbasbasbag57
(g73
g59
NtRp4702
(dp4703
g62
(dp4704
sg71
g4277
sg64
(lp4705
g57
(g78
g59
NtRp4706
(dp4707
g62
(dp4708
g82
g83
ssg71
g4702
sg64
(lp4709
S'last_query'
p4710
asbag57
(g78
g59
NtRp4711
(dp4712
g62
(dp4713
g89
g90
ssg71
g4702
sg64
(lp4714
S':'
asbag57
(g78
g59
NtRp4715
(dp4716
g62
(dp4717
sg71
g4702
sg64
(lp4718
g57
(g58
g59
NtRp4719
(dp4720
g62
(dp4721
g70
I5
ssg71
g4715
sg64
(lp4722
S'db.tag_records.id>0'
p4723
asbasbasbag57
(g73
g59
NtRp4724
(dp4725
g62
(dp4726
sg71
g4277
sg64
(lp4727
g57
(g78
g59
NtRp4728
(dp4729
g62
(dp4730
g82
g83
ssg71
g4724
sg64
(lp4731
S'path_freq'
p4732
asbag57
(g78
g59
NtRp4733
(dp4734
g62
(dp4735
g89
g90
ssg71
g4724
sg64
(lp4736
S':'
asbag57
(g78
g59
NtRp4737
(dp4738
g62
(dp4739
sg71
g4724
sg64
(lp4740
g57
(g58
g59
NtRp4741
(dp4742
g62
(dp4743
g70
I5
ssg71
g4737
sg64
(lp4744
S'70'
p4745
asbasbasbag57
(g73
g59
NtRp4746
(dp4747
g62
(dp4748
sg71
g4277
sg64
(lp4749
g57
(g78
g59
NtRp4750
(dp4751
g62
(dp4752
g82
g83
ssg71
g4746
sg64
(lp4753
S'path_id'
p4754
asbag57
(g78
g59
NtRp4755
(dp4756
g62
(dp4757
g89
g90
ssg71
g4746
sg64
(lp4758
S':'
asbag57
(g78
g59
NtRp4759
(dp4760
g62
(dp4761
sg71
g4746
sg64
(lp4762
g57
(g58
g59
NtRp4763
(dp4764
g62
(dp4765
g70
I5
ssg71
g4759
sg64
(lp4766
S'1'
asbasbasbag57
(g73
g59
NtRp4767
(dp4768
g62
(dp4769
sg71
g4277
sg64
(lp4770
g57
(g78
g59
NtRp4771
(dp4772
g62
(dp4773
g82
g83
ssg71
g4767
sg64
(lp4774
S'path_length'
p4775
asbag57
(g78
g59
NtRp4776
(dp4777
g62
(dp4778
g89
g90
ssg71
g4767
sg64
(lp4779
S':'
asbag57
(g78
g59
NtRp4780
(dp4781
g62
(dp4782
sg71
g4767
sg64
(lp4783
g57
(g58
g59
NtRp4784
(dp4785
g62
(dp4786
g70
I5
ssg71
g4780
sg64
(lp4787
S'20'
p4788
asbasbasbag57
(g73
g59
NtRp4789
(dp4790
g62
(dp4791
sg71
g4277
sg64
(lp4792
g57
(g78
g59
NtRp4793
(dp4794
g62
(dp4795
g82
g83
ssg71
g4789
sg64
(lp4796
S'path_name'
p4797
asbag57
(g78
g59
NtRp4798
(dp4799
g62
(dp4800
g89
g90
ssg71
g4789
sg64
(lp4801
S':'
asbag57
(g78
g59
NtRp4802
(dp4803
g62
(dp4804
sg71
g4789
sg64
(lp4805
g57
(g58
g59
NtRp4806
(dp4807
g62
(dp4808
g70
I5
ssg71
g4802
sg64
(lp4809
S'Tyndale - Greek Exegesis I - Week 1'
p4810
asbasbasbag57
(g73
g59
NtRp4811
(dp4812
g62
(dp4813
sg71
g4277
sg64
(lp4814
g57
(g78
g59
NtRp4815
(dp4816
g62
(dp4817
g82
g83
ssg71
g4811
sg64
(lp4818
S'path_tags'
p4819
asbag57
(g78
g59
NtRp4820
(dp4821
g62
(dp4822
g89
g90
ssg71
g4811
sg64
(lp4823
S':'
asbag57
(g78
g59
NtRp4824
(dp4825
g62
(dp4826
sg71
g4811
sg64
(lp4827
g57
(g58
g59
NtRp4828
(dp4829
g62
(dp4830
g70
I5
ssg71
g4824
sg64
(lp4831
g57
(g66
g59
NtRp4832
(dp4833
g62
(dp4834
g70
I4
ssg71
Nsg64
(lp4835
g57
(g73
g59
NtRp4836
(dp4837
g62
(dp4838
sg71
g4832
sg64
(lp4839
g57
(g78
g59
NtRp4840
(dp4841
g62
(dp4842
sg71
g4836
sg64
(lp4843
g57
(g58
g59
NtRp4844
(dp4845
g62
(dp4846
g70
I4
ssg71
g4840
sg64
(lp4847
S'6'
asbasbasbag57
(g73
g59
NtRp4848
(dp4849
g62
(dp4850
sg71
g4832
sg64
(lp4851
g57
(g78
g59
NtRp4852
(dp4853
g62
(dp4854
sg71
g4848
sg64
(lp4855
g57
(g58
g59
NtRp4856
(dp4857
g62
(dp4858
g70
I4
ssg71
g4852
sg64
(lp4859
S'1'
asbasbasbag57
(g73
g59
NtRp4860
(dp4861
g62
(dp4862
sg71
g4832
sg64
(lp4863
g57
(g78
g59
NtRp4864
(dp4865
g62
(dp4866
sg71
g4860
sg64
(lp4867
g57
(g58
g59
NtRp4868
(dp4869
g62
(dp4870
g70
I4
ssg71
g4864
sg64
(lp4871
S'7'
asbasbasbag57
(g73
g59
NtRp4872
(dp4873
g62
(dp4874
sg71
g4832
sg64
(lp4875
g57
(g78
g59
NtRp4876
(dp4877
g62
(dp4878
sg71
g4872
sg64
(lp4879
g57
(g58
g59
NtRp4880
(dp4881
g62
(dp4882
g70
I4
ssg71
g4876
sg64
(lp4883
S'8'
asbasbasbag57
(g73
g59
NtRp4884
(dp4885
g62
(dp4886
sg71
g4832
sg64
(lp4887
g57
(g78
g59
NtRp4888
(dp4889
g62
(dp4890
sg71
g4884
sg64
(lp4891
g57
(g58
g59
NtRp4892
(dp4893
g62
(dp4894
g70
I4
ssg71
g4888
sg64
(lp4895
S'9'
asbasbasbasbasbasbasbag57
(g73
g59
NtRp4896
(dp4897
g62
(dp4898
sg71
g4277
sg64
(lp4899
g57
(g78
g59
NtRp4900
(dp4901
g62
(dp4902
g82
g83
ssg71
g4896
sg64
(lp4903
S'qID'
p4904
asbag57
(g78
g59
NtRp4905
(dp4906
g62
(dp4907
g89
g90
ssg71
g4896
sg64
(lp4908
S':'
asbag57
(g78
g59
NtRp4909
(dp4910
g62
(dp4911
sg71
g4896
sg64
(lp4912
g57
(g58
g59
NtRp4913
(dp4914
g62
(dp4915
g70
I5
ssg71
g4909
sg64
(lp4916
S'1'
asbasbasbag57
(g73
g59
NtRp4917
(dp4918
g62
(dp4919
sg71
g4277
sg64
(lp4920
g57
(g78
g59
NtRp4921
(dp4922
g62
(dp4923
g82
g83
ssg71
g4917
sg64
(lp4924
S'q_counter'
p4925
asbag57
(g78
g59
NtRp4926
(dp4927
g62
(dp4928
g89
g90
ssg71
g4917
sg64
(lp4929
S':'
asbag57
(g78
g59
NtRp4930
(dp4931
g62
(dp4932
sg71
g4917
sg64
(lp4933
g57
(g58
g59
NtRp4934
(dp4935
g62
(dp4936
g70
I5
ssg71
g4930
sg64
(lp4937
S'10'
p4938
asbasbasbag57
(g73
g59
NtRp4939
(dp4940
g62
(dp4941
sg71
g4277
sg64
(lp4942
g57
(g78
g59
NtRp4943
(dp4944
g62
(dp4945
g82
g83
ssg71
g4939
sg64
(lp4946
S'question_text'
p4947
asbag57
(g78
g59
NtRp4948
(dp4949
g62
(dp4950
g89
g90
ssg71
g4939
sg64
(lp4951
S':'
asbag57
(g78
g59
NtRp4952
(dp4953
g62
(dp4954
sg71
g4939
sg64
(lp4955
g57
(g58
g59
NtRp4956
(dp4957
g62
(dp4958
g70
I5
ssg71
g4952
sg64
(lp4959
S'What does \xe1\xbc\x90\xce\xbd\xcf\x84\xce\xbf\xce\xbb\xce\xae mean?'
p4960
asbasbasbag57
(g73
g59
NtRp4961
(dp4962
g62
(dp4963
sg71
g4277
sg64
(lp4964
g57
(g78
g59
NtRp4965
(dp4966
g62
(dp4967
g82
g83
ssg71
g4961
sg64
(lp4968
S'quiz_type'
p4969
asbag57
(g78
g59
NtRp4970
(dp4971
g62
(dp4972
g89
g90
ssg71
g4961
sg64
(lp4973
S':'
asbag57
(g78
g59
NtRp4974
(dp4975
g62
(dp4976
sg71
g4961
sg64
(lp4977
g57
(g58
g59
NtRp4978
(dp4979
g62
(dp4980
g70
I5
ssg71
g4974
sg64
(lp4981
S'random'
p4982
asbasbasbag57
(g73
g59
NtRp4983
(dp4984
g62
(dp4985
sg71
g4277
sg64
(lp4986
g57
(g78
g59
NtRp4987
(dp4988
g62
(dp4989
g82
g83
ssg71
g4983
sg64
(lp4990
S'readable_answer'
p4991
asbag57
(g78
g59
NtRp4992
(dp4993
g62
(dp4994
g89
g90
ssg71
g4983
sg64
(lp4995
S':'
asbag57
(g78
g59
NtRp4996
(dp4997
g62
(dp4998
sg71
g4983
sg64
(lp4999
g57
(g58
g59
NtRp5000
(dp5001
g62
(dp5002
g70
I5
ssg71
g4996
sg64
(lp5003
S'a command, a commandment, a decree'
p5004
asbasbasbag57
(g73
g59
NtRp5005
(dp5006
g62
(dp5007
sg71
g4277
sg64
(lp5008
g57
(g78
g59
NtRp5009
(dp5010
g62
(dp5011
g82
g83
ssg71
g5005
sg64
(lp5012
S'response'
p5013
asbag57
(g78
g59
NtRp5014
(dp5015
g62
(dp5016
g89
g90
ssg71
g5005
sg64
(lp5017
S':'
asbag57
(g78
g59
NtRp5018
(dp5019
g62
(dp5020
sg71
g5005
sg64
(lp5021
g57
(g58
g59
NtRp5022
(dp5023
g62
(dp5024
g70
I5
ssg71
g5018
sg64
(lp5025
S'a command'
p5026
asbasbasbasbasbsS'etype'
p5027
S"<type 'exceptions.NameError'>"
p5028
sS'date'
p5029
S'Fri Jan 27 11:05:47 2012'
p5030
sS'response'
p5031
g57
(g58
g59
NtRp5032
(dp5033
g62
(dp5034
sg64
(lp5035
g57
(g66
g59
NtRp5036
(dp5037
g62
(dp5038
g70
I5
ssg71
Nsg64
(lp5039
g57
(g73
g59
NtRp5040
(dp5041
g62
(dp5042
sg71
g5036
sg64
(lp5043
g57
(g78
g59
NtRp5044
(dp5045
g62
(dp5046
g82
g83
ssg71
g5040
sg64
(lp5047
g168
asbag57
(g78
g59
NtRp5048
(dp5049
g62
(dp5050
g89
g90
ssg71
g5040
sg64
(lp5051
S':'
asbag57
(g78
g59
NtRp5052
(dp5053
g62
(dp5054
sg71
g5040
sg64
(lp5055
g57
(g58
g59
NtRp5056
(dp5057
g62
(dp5058
g70
I5
ssg71
g5052
sg64
(lp5059
S'<cStringIO.StringO object at 0x26124c8>'
p5060
asbasbasbag57
(g73
g59
NtRp5061
(dp5062
g62
(dp5063
sg71
g5036
sg64
(lp5064
g57
(g78
g59
NtRp5065
(dp5066
g62
(dp5067
g82
g83
ssg71
g5061
sg64
(lp5068
g256
asbag57
(g78
g59
NtRp5069
(dp5070
g62
(dp5071
g89
g90
ssg71
g5061
sg64
(lp5072
S':'
asbag57
(g78
g59
NtRp5073
(dp5074
g62
(dp5075
sg71
g5061
sg64
(lp5076
g57
(g58
g59
NtRp5077
(dp5078
g62
(dp5079
g70
I5
ssg71
g5073
sg64
(lp5080
g57
(g66
g59
NtRp5081
(dp5082
g62
(dp5083
g70
I4
ssg71
Nsg64
(lp5084
g57
(g73
g59
NtRp5085
(dp5086
g62
(dp5087
sg71
g5081
sg64
(lp5088
g57
(g78
g59
NtRp5089
(dp5090
g62
(dp5091
g82
g83
ssg71
g5085
sg64
(lp5092
S'session_id_paideia'
p5093
asbag57
(g78
g59
NtRp5094
(dp5095
g62
(dp5096
g89
g90
ssg71
g5085
sg64
(lp5097
S':'
asbag57
(g78
g59
NtRp5098
(dp5099
g62
(dp5100
sg71
g5085
sg64
(lp5101
g57
(g58
g59
NtRp5102
(dp5103
g62
(dp5104
g70
I4
ssg71
g5098
sg64
(lp5105
g57
(g66
g59
NtRp5106
(dp5107
g62
(dp5108
g70
I3
ssg71
Nsg64
(lp5109
g57
(g73
g59
NtRp5110
(dp5111
g62
(dp5112
sg71
g5106
sg64
(lp5113
g57
(g78
g59
NtRp5114
(dp5115
g62
(dp5116
g82
g83
ssg71
g5110
sg64
(lp5117
g306
asbag57
(g78
g59
NtRp5118
(dp5119
g62
(dp5120
g89
g90
ssg71
g5110
sg64
(lp5121
S':'
asbag57
(g78
g59
NtRp5122
(dp5123
g62
(dp5124
sg71
g5110
sg64
(lp5125
g57
(g58
g59
NtRp5126
(dp5127
g62
(dp5128
g70
I3
ssg71
g5122
sg64
(lp5129
S''
asbasbasbag57
(g73
g59
NtRp5130
(dp5131
g62
(dp5132
sg71
g5106
sg64
(lp5133
g57
(g78
g59
NtRp5134
(dp5135
g62
(dp5136
g82
g83
ssg71
g5130
sg64
(lp5137
g327
asbag57
(g78
g59
NtRp5138
(dp5139
g62
(dp5140
g89
g90
ssg71
g5130
sg64
(lp5141
S':'
asbag57
(g78
g59
NtRp5142
(dp5143
g62
(dp5144
sg71
g5130
sg64
(lp5145
g57
(g58
g59
NtRp5146
(dp5147
g62
(dp5148
g70
I3
ssg71
g5142
sg64
(lp5149
S''
asbasbasbag57
(g73
g59
NtRp5150
(dp5151
g62
(dp5152
sg71
g5106
sg64
(lp5153
g57
(g78
g59
NtRp5154
(dp5155
g62
(dp5156
g82
g83
ssg71
g5150
sg64
(lp5157
g348
asbag57
(g78
g59
NtRp5158
(dp5159
g62
(dp5160
g89
g90
ssg71
g5150
sg64
(lp5161
S':'
asbag57
(g78
g59
NtRp5162
(dp5163
g62
(dp5164
sg71
g5150
sg64
(lp5165
g57
(g58
g59
NtRp5166
(dp5167
g62
(dp5168
g70
I3
ssg71
g5162
sg64
(lp5169
S'2592000'
p5170
asbasbasbag57
(g73
g59
NtRp5171
(dp5172
g62
(dp5173
sg71
g5106
sg64
(lp5174
g57
(g78
g59
NtRp5175
(dp5176
g62
(dp5177
g82
g83
ssg71
g5171
sg64
(lp5178
g369
asbag57
(g78
g59
NtRp5179
(dp5180
g62
(dp5181
g89
g90
ssg71
g5171
sg64
(lp5182
S':'
asbag57
(g78
g59
NtRp5183
(dp5184
g62
(dp5185
sg71
g5171
sg64
(lp5186
g57
(g58
g59
NtRp5187
(dp5188
g62
(dp5189
g70
I3
ssg71
g5183
sg64
(lp5190
S''
asbasbasbag57
(g73
g59
NtRp5191
(dp5192
g62
(dp5193
sg71
g5106
sg64
(lp5194
g57
(g78
g59
NtRp5195
(dp5196
g62
(dp5197
g82
g83
ssg71
g5191
sg64
(lp5198
g390
asbag57
(g78
g59
NtRp5199
(dp5200
g62
(dp5201
g89
g90
ssg71
g5191
sg64
(lp5202
S':'
asbag57
(g78
g59
NtRp5203
(dp5204
g62
(dp5205
sg71
g5191
sg64
(lp5206
g57
(g58
g59
NtRp5207
(dp5208
g62
(dp5209
g70
I3
ssg71
g5203
sg64
(lp5210
S''
asbasbasbag57
(g73
g59
NtRp5211
(dp5212
g62
(dp5213
sg71
g5106
sg64
(lp5214
g57
(g78
g59
NtRp5215
(dp5216
g62
(dp5217
g82
g83
ssg71
g5211
sg64
(lp5218
g411
asbag57
(g78
g59
NtRp5219
(dp5220
g62
(dp5221
g89
g90
ssg71
g5211
sg64
(lp5222
S':'
asbag57
(g78
g59
NtRp5223
(dp5224
g62
(dp5225
sg71
g5211
sg64
(lp5226
g57
(g58
g59
NtRp5227
(dp5228
g62
(dp5229
g70
I3
ssg71
g5223
sg64
(lp5230
S'/'
asbasbasbag57
(g73
g59
NtRp5231
(dp5232
g62
(dp5233
sg71
g5106
sg64
(lp5234
g57
(g78
g59
NtRp5235
(dp5236
g62
(dp5237
g82
g83
ssg71
g5231
sg64
(lp5238
g432
asbag57
(g78
g59
NtRp5239
(dp5240
g62
(dp5241
g89
g90
ssg71
g5231
sg64
(lp5242
S':'
asbag57
(g78
g59
NtRp5243
(dp5244
g62
(dp5245
sg71
g5231
sg64
(lp5246
g57
(g58
g59
NtRp5247
(dp5248
g62
(dp5249
g70
I3
ssg71
g5243
sg64
(lp5250
S''
asbasbasbag57
(g73
g59
NtRp5251
(dp5252
g62
(dp5253
sg71
g5106
sg64
(lp5254
g57
(g78
g59
NtRp5255
(dp5256
g62
(dp5257
g82
g83
ssg71
g5251
sg64
(lp5258
g453
asbag57
(g78
g59
NtRp5259
(dp5260
g62
(dp5261
g89
g90
ssg71
g5251
sg64
(lp5262
S':'
asbag57
(g78
g59
NtRp5263
(dp5264
g62
(dp5265
sg71
g5251
sg64
(lp5266
g57
(g58
g59
NtRp5267
(dp5268
g62
(dp5269
g70
I3
ssg71
g5263
sg64
(lp5270
S''
asbasbasbasbasbasbasbasbasbasbasbag57
(g73
g59
NtRp5271
(dp5272
g62
(dp5273
sg71
g5036
sg64
(lp5274
g57
(g78
g59
NtRp5275
(dp5276
g62
(dp5277
g82
g83
ssg71
g5271
sg64
(lp5278
S'files'
p5279
asbag57
(g78
g59
NtRp5280
(dp5281
g62
(dp5282
g89
g90
ssg71
g5271
sg64
(lp5283
S':'
asbag57
(g78
g59
NtRp5284
(dp5285
g62
(dp5286
sg71
g5271
sg64
(lp5287
g57
(g58
g59
NtRp5288
(dp5289
g62
(dp5290
g70
I5
ssg71
g5284
sg64
(lp5291
g57
(g66
g59
NtRp5292
(dp5293
g62
(dp5294
g70
I4
ssg71
Nsg64
(lp5295
sbasbasbasbag57
(g73
g59
NtRp5296
(dp5297
g62
(dp5298
sg71
g5036
sg64
(lp5299
g57
(g78
g59
NtRp5300
(dp5301
g62
(dp5302
g82
g83
ssg71
g5296
sg64
(lp5303
S'flash'
p5304
asbag57
(g78
g59
NtRp5305
(dp5306
g62
(dp5307
g89
g90
ssg71
g5296
sg64
(lp5308
S':'
asbag57
(g78
g59
NtRp5309
(dp5310
g62
(dp5311
sg71
g5296
sg64
(lp5312
g57
(g58
g59
NtRp5313
(dp5314
g62
(dp5315
g70
I5
ssg71
g5309
sg64
(lp5316
S''
asbasbasbag57
(g73
g59
NtRp5317
(dp5318
g62
(dp5319
sg71
g5036
sg64
(lp5320
g57
(g78
g59
NtRp5321
(dp5322
g62
(dp5323
g82
g83
ssg71
g5317
sg64
(lp5324
S'generic_patterns'
p5325
asbag57
(g78
g59
NtRp5326
(dp5327
g62
(dp5328
g89
g90
ssg71
g5317
sg64
(lp5329
S':'
asbag57
(g78
g59
NtRp5330
(dp5331
g62
(dp5332
sg71
g5317
sg64
(lp5333
g57
(g58
g59
NtRp5334
(dp5335
g62
(dp5336
g70
I5
ssg71
g5330
sg64
(lp5337
g57
(g66
g59
NtRp5338
(dp5339
g62
(dp5340
g70
I4
ssg71
Nsg64
(lp5341
g57
(g73
g59
NtRp5342
(dp5343
g62
(dp5344
sg71
g5338
sg64
(lp5345
g57
(g78
g59
NtRp5346
(dp5347
g62
(dp5348
sg71
g5342
sg64
(lp5349
g57
(g58
g59
NtRp5350
(dp5351
g62
(dp5352
g70
I4
ssg71
g5346
sg64
(lp5353
S'*'
asbasbasbasbasbasbasbag57
(g73
g59
NtRp5354
(dp5355
g62
(dp5356
sg71
g5036
sg64
(lp5357
g57
(g78
g59
NtRp5358
(dp5359
g62
(dp5360
g82
g83
ssg71
g5354
sg64
(lp5361
S'headers'
p5362
asbag57
(g78
g59
NtRp5363
(dp5364
g62
(dp5365
g89
g90
ssg71
g5354
sg64
(lp5366
S':'
asbag57
(g78
g59
NtRp5367
(dp5368
g62
(dp5369
sg71
g5354
sg64
(lp5370
g57
(g58
g59
NtRp5371
(dp5372
g62
(dp5373
g70
I5
ssg71
g5367
sg64
(lp5374
g57
(g66
g59
NtRp5375
(dp5376
g62
(dp5377
g70
I4
ssg71
Nsg64
(lp5378
g57
(g73
g59
NtRp5379
(dp5380
g62
(dp5381
sg71
g5375
sg64
(lp5382
g57
(g78
g59
NtRp5383
(dp5384
g62
(dp5385
g82
g83
ssg71
g5379
sg64
(lp5386
S'Cache-Control'
p5387
asbag57
(g78
g59
NtRp5388
(dp5389
g62
(dp5390
g89
g90
ssg71
g5379
sg64
(lp5391
S':'
asbag57
(g78
g59
NtRp5392
(dp5393
g62
(dp5394
sg71
g5379
sg64
(lp5395
g57
(g58
g59
NtRp5396
(dp5397
g62
(dp5398
g70
I4
ssg71
g5392
sg64
(lp5399
S'no-store, no-cache, must-revalidate, post-check=0, pre-check=0'
p5400
asbasbasbag57
(g73
g59
NtRp5401
(dp5402
g62
(dp5403
sg71
g5375
sg64
(lp5404
g57
(g78
g59
NtRp5405
(dp5406
g62
(dp5407
g82
g83
ssg71
g5401
sg64
(lp5408
S'Content-Type'
p5409
asbag57
(g78
g59
NtRp5410
(dp5411
g62
(dp5412
g89
g90
ssg71
g5401
sg64
(lp5413
S':'
asbag57
(g78
g59
NtRp5414
(dp5415
g62
(dp5416
sg71
g5401
sg64
(lp5417
g57
(g58
g59
NtRp5418
(dp5419
g62
(dp5420
g70
I4
ssg71
g5414
sg64
(lp5421
S'text/html; charset=utf-8'
p5422
asbasbasbag57
(g73
g59
NtRp5423
(dp5424
g62
(dp5425
sg71
g5375
sg64
(lp5426
g57
(g78
g59
NtRp5427
(dp5428
g62
(dp5429
g82
g83
ssg71
g5423
sg64
(lp5430
S'Expires'
p5431
asbag57
(g78
g59
NtRp5432
(dp5433
g62
(dp5434
g89
g90
ssg71
g5423
sg64
(lp5435
S':'
asbag57
(g78
g59
NtRp5436
(dp5437
g62
(dp5438
sg71
g5423
sg64
(lp5439
g57
(g58
g59
NtRp5440
(dp5441
g62
(dp5442
g70
I4
ssg71
g5436
sg64
(lp5443
S'Fri, 27 Jan 2012 16:05:47 GMT'
p5444
asbasbasbag57
(g73
g59
NtRp5445
(dp5446
g62
(dp5447
sg71
g5375
sg64
(lp5448
g57
(g78
g59
NtRp5449
(dp5450
g62
(dp5451
g82
g83
ssg71
g5445
sg64
(lp5452
S'Pragma'
p5453
asbag57
(g78
g59
NtRp5454
(dp5455
g62
(dp5456
g89
g90
ssg71
g5445
sg64
(lp5457
S':'
asbag57
(g78
g59
NtRp5458
(dp5459
g62
(dp5460
sg71
g5445
sg64
(lp5461
g57
(g58
g59
NtRp5462
(dp5463
g62
(dp5464
g70
I4
ssg71
g5458
sg64
(lp5465
S'no-cache'
p5466
asbasbasbag57
(g73
g59
NtRp5467
(dp5468
g62
(dp5469
sg71
g5375
sg64
(lp5470
g57
(g78
g59
NtRp5471
(dp5472
g62
(dp5473
g82
g83
ssg71
g5467
sg64
(lp5474
S'X-Powered-By'
p5475
asbag57
(g78
g59
NtRp5476
(dp5477
g62
(dp5478
g89
g90
ssg71
g5467
sg64
(lp5479
S':'
asbag57
(g78
g59
NtRp5480
(dp5481
g62
(dp5482
sg71
g5467
sg64
(lp5483
g57
(g58
g59
NtRp5484
(dp5485
g62
(dp5486
g70
I4
ssg71
g5480
sg64
(lp5487
S'web2py'
p5488
asbasbasbasbasbasbasbag57
(g73
g59
NtRp5489
(dp5490
g62
(dp5491
sg71
g5036
sg64
(lp5492
g57
(g78
g59
NtRp5493
(dp5494
g62
(dp5495
g82
g83
ssg71
g5489
sg64
(lp5496
S'menu'
p5497
asbag57
(g78
g59
NtRp5498
(dp5499
g62
(dp5500
g89
g90
ssg71
g5489
sg64
(lp5501
S':'
asbag57
(g78
g59
NtRp5502
(dp5503
g62
(dp5504
sg71
g5489
sg64
(lp5505
g57
(g58
g59
NtRp5506
(dp5507
g62
(dp5508
g70
I5
ssg71
g5502
sg64
(lp5509
g57
(g66
g59
NtRp5510
(dp5511
g62
(dp5512
g70
I4
ssg71
Nsg64
(lp5513
g57
(g73
g59
NtRp5514
(dp5515
g62
(dp5516
sg71
g5510
sg64
(lp5517
g57
(g78
g59
NtRp5518
(dp5519
g62
(dp5520
sg71
g5514
sg64
(lp5521
g57
(g58
g59
NtRp5522
(dp5523
g62
(dp5524
g70
I4
ssg71
g5518
sg64
(lp5525
g57
(g66
g59
NtRp5526
(dp5527
g62
(dp5528
g70
I3
ssg71
Nsg64
(lp5529
g57
(g73
g59
NtRp5530
(dp5531
g62
(dp5532
sg71
g5526
sg64
(lp5533
g57
(g78
g59
NtRp5534
(dp5535
g62
(dp5536
sg71
g5530
sg64
(lp5537
g57
(g58
g59
NtRp5538
(dp5539
g62
(dp5540
g70
I3
ssg71
g5534
sg64
(lp5541
cgluon.languages
lazyT_unpickle
p5542
(S't\x04\x00\x00\x00Home'
tRp5543
asbasbasbag57
(g73
g59
NtRp5544
(dp5545
g62
(dp5546
sg71
g5526
sg64
(lp5547
g57
(g78
g59
NtRp5548
(dp5549
g62
(dp5550
sg71
g5544
sg64
(lp5551
g57
(g58
g59
NtRp5552
(dp5553
g62
(dp5554
g70
I3
ssg71
g5548
sg64
(lp5555
g1757
asbasbasbag57
(g73
g59
NtRp5556
(dp5557
g62
(dp5558
sg71
g5526
sg64
(lp5559
g57
(g78
g59
NtRp5560
(dp5561
g62
(dp5562
sg71
g5556
sg64
(lp5563
g57
(g58
g59
NtRp5564
(dp5565
g62
(dp5566
g70
I3
ssg71
g5560
sg64
(lp5567
S'/paideia/default/index.load'
p5568
asbasbasbag57
(g73
g59
NtRp5569
(dp5570
g62
(dp5571
sg71
g5526
sg64
(lp5572
g57
(g78
g59
NtRp5573
(dp5574
g62
(dp5575
sg71
g5569
sg64
(lp5576
g57
(g58
g59
NtRp5577
(dp5578
g62
(dp5579
g70
I3
ssg71
g5573
sg64
(lp5580
g57
(g66
g59
NtRp5581
(dp5582
g62
(dp5583
g70
I2
ssg71
Nsg64
(lp5584
sbasbasbasbasbasbasbasbag57
(g73
g59
NtRp5585
(dp5586
g62
(dp5587
sg71
g5510
sg64
(lp5588
g57
(g78
g59
NtRp5589
(dp5590
g62
(dp5591
sg71
g5585
sg64
(lp5592
g57
(g58
g59
NtRp5593
(dp5594
g62
(dp5595
g70
I4
ssg71
g5589
sg64
(lp5596
g57
(g66
g59
NtRp5597
(dp5598
g62
(dp5599
g70
I3
ssg71
Nsg64
(lp5600
g57
(g73
g59
NtRp5601
(dp5602
g62
(dp5603
sg71
g5597
sg64
(lp5604
g57
(g78
g59
NtRp5605
(dp5606
g62
(dp5607
sg71
g5601
sg64
(lp5608
g57
(g58
g59
NtRp5609
(dp5610
g62
(dp5611
g70
I3
ssg71
g5605
sg64
(lp5612
g5542
(S't\x05\x00\x00\x00Admin'
tRp5613
asbasbasbag57
(g73
g59
NtRp5614
(dp5615
g62
(dp5616
sg71
g5597
sg64
(lp5617
g57
(g78
g59
NtRp5618
(dp5619
g62
(dp5620
sg71
g5614
sg64
(lp5621
g57
(g58
g59
NtRp5622
(dp5623
g62
(dp5624
g70
I3
ssg71
g5618
sg64
(lp5625
g1757
asbasbasbag57
(g73
g59
NtRp5626
(dp5627
g62
(dp5628
sg71
g5597
sg64
(lp5629
g57
(g78
g59
NtRp5630
(dp5631
g62
(dp5632
sg71
g5626
sg64
(lp5633
g57
(g58
g59
NtRp5634
(dp5635
g62
(dp5636
g70
I3
ssg71
g5630
sg64
(lp5637
S'None'
p5638
asbasbasbag57
(g73
g59
NtRp5639
(dp5640
g62
(dp5641
sg71
g5597
sg64
(lp5642
g57
(g78
g59
NtRp5643
(dp5644
g62
(dp5645
sg71
g5639
sg64
(lp5646
g57
(g58
g59
NtRp5647
(dp5648
g62
(dp5649
g70
I3
ssg71
g5643
sg64
(lp5650
g57
(g66
g59
NtRp5651
(dp5652
g62
(dp5653
g70
I2
ssg71
Nsg64
(lp5654
g57
(g73
g59
NtRp5655
(dp5656
g62
(dp5657
sg71
g5651
sg64
(lp5658
g57
(g78
g59
NtRp5659
(dp5660
g62
(dp5661
sg71
g5655
sg64
(lp5662
g57
(g58
g59
NtRp5663
(dp5664
g62
(dp5665
g70
I2
ssg71
g5659
sg64
(lp5666
g57
(g66
g59
NtRp5667
(dp5668
g62
(dp5669
g70
I1
ssg71
Nsg64
(lp5670
g57
(g73
g59
NtRp5671
(dp5672
g62
(dp5673
sg71
g5667
sg64
(lp5674
g57
(g78
g59
NtRp5675
(dp5676
g62
(dp5677
sg71
g5671
sg64
(lp5678
g57
(g58
g59
NtRp5679
(dp5680
g62
(dp5681
g70
I1
ssg71
g5675
sg64
(lp5682
g5542
(S't\x06\x00\x00\x00Design'
tRp5683
asbasbasbag57
(g73
g59
NtRp5684
(dp5685
g62
(dp5686
sg71
g5667
sg64
(lp5687
g57
(g78
g59
NtRp5688
(dp5689
g62
(dp5690
sg71
g5684
sg64
(lp5691
g57
(g58
g59
NtRp5692
(dp5693
g62
(dp5694
g70
I1
ssg71
g5688
sg64
(lp5695
I00
asbasbasbag57
(g73
g59
NtRp5696
(dp5697
g62
(dp5698
sg71
g5667
sg64
(lp5699
g57
(g78
g59
NtRp5700
(dp5701
g62
(dp5702
sg71
g5696
sg64
(lp5703
g57
(g58
g59
NtRp5704
(dp5705
g62
(dp5706
g70
I1
ssg71
g5700
sg64
(lp5707
S'/admin/default/index.load'
p5708
asbasbasbasbasbasbasbag57
(g73
g59
NtRp5709
(dp5710
g62
(dp5711
sg71
g5651
sg64
(lp5712
g57
(g78
g59
NtRp5713
(dp5714
g62
(dp5715
sg71
g5709
sg64
(lp5716
g57
(g58
g59
NtRp5717
(dp5718
g62
(dp5719
g70
I2
ssg71
g5713
sg64
(lp5720
g57
(g66
g59
NtRp5721
(dp5722
g62
(dp5723
g70
I1
ssg71
Nsg64
(lp5724
g57
(g73
g59
NtRp5725
(dp5726
g62
(dp5727
sg71
g5721
sg64
(lp5728
g57
(g78
g59
NtRp5729
(dp5730
g62
(dp5731
sg71
g5725
sg64
(lp5732
g57
(g58
g59
NtRp5733
(dp5734
g62
(dp5735
g70
I1
ssg71
g5729
sg64
(lp5736
g5542
(S't\x08\x00\x00\x00Database'
tRp5737
asbasbasbag57
(g73
g59
NtRp5738
(dp5739
g62
(dp5740
sg71
g5721
sg64
(lp5741
g57
(g78
g59
NtRp5742
(dp5743
g62
(dp5744
sg71
g5738
sg64
(lp5745
g57
(g58
g59
NtRp5746
(dp5747
g62
(dp5748
g70
I1
ssg71
g5742
sg64
(lp5749
I00
asbasbasbag57
(g73
g59
NtRp5750
(dp5751
g62
(dp5752
sg71
g5721
sg64
(lp5753
g57
(g78
g59
NtRp5754
(dp5755
g62
(dp5756
sg71
g5750
sg64
(lp5757
g57
(g58
g59
NtRp5758
(dp5759
g62
(dp5760
g70
I1
ssg71
g5754
sg64
(lp5761
S'/paideia/appadmin/index.load'
p5762
asbasbasbasbasbasbasbag57
(g73
g59
NtRp5763
(dp5764
g62
(dp5765
sg71
g5651
sg64
(lp5766
g57
(g78
g59
NtRp5767
(dp5768
g62
(dp5769
sg71
g5763
sg64
(lp5770
g57
(g58
g59
NtRp5771
(dp5772
g62
(dp5773
g70
I2
ssg71
g5767
sg64
(lp5774
g57
(g66
g59
NtRp5775
(dp5776
g62
(dp5777
g70
I1
ssg71
Nsg64
(lp5778
g57
(g73
g59
NtRp5779
(dp5780
g62
(dp5781
sg71
g5775
sg64
(lp5782
g57
(g78
g59
NtRp5783
(dp5784
g62
(dp5785
sg71
g5779
sg64
(lp5786
g57
(g58
g59
NtRp5787
(dp5788
g62
(dp5789
g70
I1
ssg71
g5783
sg64
(lp5790
g5542
(S't\x05\x00\x00\x00Users'
tRp5791
asbasbasbag57
(g73
g59
NtRp5792
(dp5793
g62
(dp5794
sg71
g5775
sg64
(lp5795
g57
(g78
g59
NtRp5796
(dp5797
g62
(dp5798
sg71
g5792
sg64
(lp5799
g57
(g58
g59
NtRp5800
(dp5801
g62
(dp5802
g70
I1
ssg71
g5796
sg64
(lp5803
I00
asbasbasbag57
(g73
g59
NtRp5804
(dp5805
g62
(dp5806
sg71
g5775
sg64
(lp5807
g57
(g78
g59
NtRp5808
(dp5809
g62
(dp5810
sg71
g5804
sg64
(lp5811
g57
(g58
g59
NtRp5812
(dp5813
g62
(dp5814
g70
I1
ssg71
g5808
sg64
(lp5815
S'/paideia/listing/user.load'
p5816
asbasbasbasbasbasbasbag57
(g73
g59
NtRp5817
(dp5818
g62
(dp5819
sg71
g5651
sg64
(lp5820
g57
(g78
g59
NtRp5821
(dp5822
g62
(dp5823
sg71
g5817
sg64
(lp5824
g57
(g58
g59
NtRp5825
(dp5826
g62
(dp5827
g70
I2
ssg71
g5821
sg64
(lp5828
g57
(g66
g59
NtRp5829
(dp5830
g62
(dp5831
g70
I1
ssg71
Nsg64
(lp5832
g57
(g73
g59
NtRp5833
(dp5834
g62
(dp5835
sg71
g5829
sg64
(lp5836
g57
(g78
g59
NtRp5837
(dp5838
g62
(dp5839
sg71
g5833
sg64
(lp5840
g57
(g58
g59
NtRp5841
(dp5842
g62
(dp5843
g70
I1
ssg71
g5837
sg64
(lp5844
g5542
(S't\t\x00\x00\x00Questions'
tRp5845
asbasbasbag57
(g73
g59
NtRp5846
(dp5847
g62
(dp5848
sg71
g5829
sg64
(lp5849
g57
(g78
g59
NtRp5850
(dp5851
g62
(dp5852
sg71
g5846
sg64
(lp5853
g57
(g58
g59
NtRp5854
(dp5855
g62
(dp5856
g70
I1
ssg71
g5850
sg64
(lp5857
I00
asbasbasbag57
(g73
g59
NtRp5858
(dp5859
g62
(dp5860
sg71
g5829
sg64
(lp5861
g57
(g78
g59
NtRp5862
(dp5863
g62
(dp5864
sg71
g5858
sg64
(lp5865
g57
(g58
g59
NtRp5866
(dp5867
g62
(dp5868
g70
I1
ssg71
g5862
sg64
(lp5869
S'/paideia/plugin_listandedit/list.html/questions'
p5870
asbasbasbasbasbasbasbag57
(g73
g59
NtRp5871
(dp5872
g62
(dp5873
sg71
g5651
sg64
(lp5874
g57
(g78
g59
NtRp5875
(dp5876
g62
(dp5877
sg71
g5871
sg64
(lp5878
g57
(g58
g59
NtRp5879
(dp5880
g62
(dp5881
g70
I2
ssg71
g5875
sg64
(lp5882
g57
(g66
g59
NtRp5883
(dp5884
g62
(dp5885
g70
I1
ssg71
Nsg64
(lp5886
g57
(g73
g59
NtRp5887
(dp5888
g62
(dp5889
sg71
g5883
sg64
(lp5890
g57
(g78
g59
NtRp5891
(dp5892
g62
(dp5893
sg71
g5887
sg64
(lp5894
g57
(g58
g59
NtRp5895
(dp5896
g62
(dp5897
g70
I1
ssg71
g5891
sg64
(lp5898
g5542
(S't\x07\x00\x00\x00Quizzes'
tRp5899
asbasbasbag57
(g73
g59
NtRp5900
(dp5901
g62
(dp5902
sg71
g5883
sg64
(lp5903
g57
(g78
g59
NtRp5904
(dp5905
g62
(dp5906
sg71
g5900
sg64
(lp5907
g57
(g58
g59
NtRp5908
(dp5909
g62
(dp5910
g70
I1
ssg71
g5904
sg64
(lp5911
I00
asbasbasbag57
(g73
g59
NtRp5912
(dp5913
g62
(dp5914
sg71
g5883
sg64
(lp5915
g57
(g78
g59
NtRp5916
(dp5917
g62
(dp5918
sg71
g5912
sg64
(lp5919
g57
(g58
g59
NtRp5920
(dp5921
g62
(dp5922
g70
I1
ssg71
g5916
sg64
(lp5923
S'/paideia/plugin_listandedit/list.html/quizzes'
p5924
asbasbasbasbasbasbasbag57
(g73
g59
NtRp5925
(dp5926
g62
(dp5927
sg71
g5651
sg64
(lp5928
g57
(g78
g59
NtRp5929
(dp5930
g62
(dp5931
sg71
g5925
sg64
(lp5932
g57
(g58
g59
NtRp5933
(dp5934
g62
(dp5935
g70
I2
ssg71
g5929
sg64
(lp5936
g57
(g66
g59
NtRp5937
(dp5938
g62
(dp5939
g70
I1
ssg71
Nsg64
(lp5940
g57
(g73
g59
NtRp5941
(dp5942
g62
(dp5943
sg71
g5937
sg64
(lp5944
g57
(g78
g59
NtRp5945
(dp5946
g62
(dp5947
sg71
g5941
sg64
(lp5948
g57
(g58
g59
NtRp5949
(dp5950
g62
(dp5951
g70
I1
ssg71
g5945
sg64
(lp5952
g5542
(S't\x04\x00\x00\x00Tags'
tRp5953
asbasbasbag57
(g73
g59
NtRp5954
(dp5955
g62
(dp5956
sg71
g5937
sg64
(lp5957
g57
(g78
g59
NtRp5958
(dp5959
g62
(dp5960
sg71
g5954
sg64
(lp5961
g57
(g58
g59
NtRp5962
(dp5963
g62
(dp5964
g70
I1
ssg71
g5958
sg64
(lp5965
I00
asbasbasbag57
(g73
g59
NtRp5966
(dp5967
g62
(dp5968
sg71
g5937
sg64
(lp5969
g57
(g78
g59
NtRp5970
(dp5971
g62
(dp5972
sg71
g5966
sg64
(lp5973
g57
(g58
g59
NtRp5974
(dp5975
g62
(dp5976
g70
I1
ssg71
g5970
sg64
(lp5977
S'/paideia/plugin_listandedit/list.html/tags'
p5978
asbasbasbasbasbasbasbasbasbasbasbasbasbasbasbasbasbasbasbag57
(g73
g59
NtRp5979
(dp5980
g62
(dp5981
sg71
g5036
sg64
(lp5982
g57
(g78
g59
NtRp5983
(dp5984
g62
(dp5985
g82
g83
ssg71
g5979
sg64
(lp5986
S'meta'
p5987
asbag57
(g78
g59
NtRp5988
(dp5989
g62
(dp5990
g89
g90
ssg71
g5979
sg64
(lp5991
S':'
asbag57
(g78
g59
NtRp5992
(dp5993
g62
(dp5994
sg71
g5979
sg64
(lp5995
g57
(g58
g59
NtRp5996
(dp5997
g62
(dp5998
g70
I5
ssg71
g5992
sg64
(lp5999
g57
(g66
g59
NtRp6000
(dp6001
g62
(dp6002
g70
I4
ssg71
Nsg64
(lp6003
g57
(g73
g59
NtRp6004
(dp6005
g62
(dp6006
sg71
g6000
sg64
(lp6007
g57
(g78
g59
NtRp6008
(dp6009
g62
(dp6010
g82
g83
ssg71
g6004
sg64
(lp6011
S'author'
p6012
asbag57
(g78
g59
NtRp6013
(dp6014
g62
(dp6015
g89
g90
ssg71
g6004
sg64
(lp6016
S':'
asbag57
(g78
g59
NtRp6017
(dp6018
g62
(dp6019
sg71
g6004
sg64
(lp6020
g57
(g58
g59
NtRp6021
(dp6022
g62
(dp6023
g70
I4
ssg71
g6017
sg64
(lp6024
S'Ian W. Scott'
p6025
asbasbasbag57
(g73
g59
NtRp6026
(dp6027
g62
(dp6028
sg71
g6000
sg64
(lp6029
g57
(g78
g59
NtRp6030
(dp6031
g62
(dp6032
g82
g83
ssg71
g6026
sg64
(lp6033
S'copyright'
p6034
asbag57
(g78
g59
NtRp6035
(dp6036
g62
(dp6037
g89
g90
ssg71
g6026
sg64
(lp6038
S':'
asbag57
(g78
g59
NtRp6039
(dp6040
g62
(dp6041
sg71
g6026
sg64
(lp6042
g57
(g58
g59
NtRp6043
(dp6044
g62
(dp6045
g70
I4
ssg71
g6039
sg64
(lp6046
S'Copyright 2011'
p6047
asbasbasbag57
(g73
g59
NtRp6048
(dp6049
g62
(dp6050
sg71
g6000
sg64
(lp6051
g57
(g78
g59
NtRp6052
(dp6053
g62
(dp6054
g82
g83
ssg71
g6048
sg64
(lp6055
S'description'
p6056
asbag57
(g78
g59
NtRp6057
(dp6058
g62
(dp6059
g89
g90
ssg71
g6048
sg64
(lp6060
S':'
asbag57
(g78
g59
NtRp6061
(dp6062
g62
(dp6063
sg71
g6048
sg64
(lp6064
g57
(g58
g59
NtRp6065
(dp6066
g62
(dp6067
g70
I4
ssg71
g6061
sg64
(lp6068
S'An online space for learning New Testament Greek'
p6069
asbasbasbag57
(g73
g59
NtRp6070
(dp6071
g62
(dp6072
sg71
g6000
sg64
(lp6073
g57
(g78
g59
NtRp6074
(dp6075
g62
(dp6076
g82
g83
ssg71
g6070
sg64
(lp6077
S'generator'
p6078
asbag57
(g78
g59
NtRp6079
(dp6080
g62
(dp6081
g89
g90
ssg71
g6070
sg64
(lp6082
S':'
asbag57
(g78
g59
NtRp6083
(dp6084
g62
(dp6085
sg71
g6070
sg64
(lp6086
g57
(g58
g59
NtRp6087
(dp6088
g62
(dp6089
g70
I4
ssg71
g6083
sg64
(lp6090
S'Web2py Enterprise Framework'
p6091
asbasbasbag57
(g73
g59
NtRp6092
(dp6093
g62
(dp6094
sg71
g6000
sg64
(lp6095
g57
(g78
g59
NtRp6096
(dp6097
g62
(dp6098
g82
g83
ssg71
g6092
sg64
(lp6099
S'keywords'
p6100
asbag57
(g78
g59
NtRp6101
(dp6102
g62
(dp6103
g89
g90
ssg71
g6092
sg64
(lp6104
S':'
asbag57
(g78
g59
NtRp6105
(dp6106
g62
(dp6107
sg71
g6092
sg64
(lp6108
g57
(g58
g59
NtRp6109
(dp6110
g62
(dp6111
g70
I4
ssg71
g6105
sg64
(lp6112
S'Greek, koine, New Testament, language, education, learning'
p6113
asbasbasbasbasbasbasbag57
(g73
g59
NtRp6114
(dp6115
g62
(dp6116
sg71
g5036
sg64
(lp6117
g57
(g78
g59
NtRp6118
(dp6119
g62
(dp6120
g82
g83
ssg71
g6114
sg64
(lp6121
S'postprocessing'
p6122
asbag57
(g78
g59
NtRp6123
(dp6124
g62
(dp6125
g89
g90
ssg71
g6114
sg64
(lp6126
S':'
asbag57
(g78
g59
NtRp6127
(dp6128
g62
(dp6129
sg71
g6114
sg64
(lp6130
g57
(g58
g59
NtRp6131
(dp6132
g62
(dp6133
g70
I5
ssg71
g6127
sg64
(lp6134
g57
(g66
g59
NtRp6135
(dp6136
g62
(dp6137
g70
I4
ssg71
Nsg64
(lp6138
sbasbasbasbag57
(g73
g59
NtRp6139
(dp6140
g62
(dp6141
sg71
g5036
sg64
(lp6142
g57
(g78
g59
NtRp6143
(dp6144
g62
(dp6145
g82
g83
ssg71
g6139
sg64
(lp6146
S'session_file'
p6147
asbag57
(g78
g59
NtRp6148
(dp6149
g62
(dp6150
g89
g90
ssg71
g6139
sg64
(lp6151
S':'
asbag57
(g78
g59
NtRp6152
(dp6153
g62
(dp6154
sg71
g6139
sg64
(lp6155
g57
(g58
g59
NtRp6156
(dp6157
g62
(dp6158
g70
I5
ssg71
g6152
sg64
(lp6159
S"<open file '/home/ian/web2py/applications/paideia/sessions/127.0.0.1-e39bb56e-30eb-4da5-9f4e-559a6c22ef0d', mode 'rb+' at 0x2a4d780>"
p6160
asbasbasbag57
(g73
g59
NtRp6161
(dp6162
g62
(dp6163
sg71
g5036
sg64
(lp6164
g57
(g78
g59
NtRp6165
(dp6166
g62
(dp6167
g82
g83
ssg71
g6161
sg64
(lp6168
S'session_filename'
p6169
asbag57
(g78
g59
NtRp6170
(dp6171
g62
(dp6172
g89
g90
ssg71
g6161
sg64
(lp6173
S':'
asbag57
(g78
g59
NtRp6174
(dp6175
g62
(dp6176
sg71
g6161
sg64
(lp6177
g57
(g58
g59
NtRp6178
(dp6179
g62
(dp6180
g70
I5
ssg71
g6174
sg64
(lp6181
S'/home/ian/web2py/applications/paideia/sessions/127.0.0.1-e39bb56e-30eb-4da5-9f4e-559a6c22ef0d'
p6182
asbasbasbag57
(g73
g59
NtRp6183
(dp6184
g62
(dp6185
sg71
g5036
sg64
(lp6186
g57
(g78
g59
NtRp6187
(dp6188
g62
(dp6189
g82
g83
ssg71
g6183
sg64
(lp6190
S'session_id'
p6191
asbag57
(g78
g59
NtRp6192
(dp6193
g62
(dp6194
g89
g90
ssg71
g6183
sg64
(lp6195
S':'
asbag57
(g78
g59
NtRp6196
(dp6197
g62
(dp6198
sg71
g6183
sg64
(lp6199
g57
(g58
g59
NtRp6200
(dp6201
g62
(dp6202
g70
I5
ssg71
g6196
sg64
(lp6203
S'127.0.0.1-e39bb56e-30eb-4da5-9f4e-559a6c22ef0d'
p6204
asbasbasbag57
(g73
g59
NtRp6205
(dp6206
g62
(dp6207
sg71
g5036
sg64
(lp6208
g57
(g78
g59
NtRp6209
(dp6210
g62
(dp6211
g82
g83
ssg71
g6205
sg64
(lp6212
S'session_id_name'
p6213
asbag57
(g78
g59
NtRp6214
(dp6215
g62
(dp6216
g89
g90
ssg71
g6205
sg64
(lp6217
S':'
asbag57
(g78
g59
NtRp6218
(dp6219
g62
(dp6220
sg71
g6205
sg64
(lp6221
g57
(g58
g59
NtRp6222
(dp6223
g62
(dp6224
g70
I5
ssg71
g6218
sg64
(lp6225
g5093
asbasbasbag57
(g73
g59
NtRp6226
(dp6227
g62
(dp6228
sg71
g5036
sg64
(lp6229
g57
(g78
g59
NtRp6230
(dp6231
g62
(dp6232
g82
g83
ssg71
g6226
sg64
(lp6233
S'session_locked'
p6234
asbag57
(g78
g59
NtRp6235
(dp6236
g62
(dp6237
g89
g90
ssg71
g6226
sg64
(lp6238
S':'
asbag57
(g78
g59
NtRp6239
(dp6240
g62
(dp6241
sg71
g6226
sg64
(lp6242
g57
(g58
g59
NtRp6243
(dp6244
g62
(dp6245
g70
I5
ssg71
g6239
sg64
(lp6246
g100
asbasbasbag57
(g73
g59
NtRp6247
(dp6248
g62
(dp6249
sg71
g5036
sg64
(lp6250
g57
(g78
g59
NtRp6251
(dp6252
g62
(dp6253
g82
g83
ssg71
g6247
sg64
(lp6254
S'session_new'
p6255
asbag57
(g78
g59
NtRp6256
(dp6257
g62
(dp6258
g89
g90
ssg71
g6247
sg64
(lp6259
S':'
asbag57
(g78
g59
NtRp6260
(dp6261
g62
(dp6262
sg71
g6247
sg64
(lp6263
g57
(g58
g59
NtRp6264
(dp6265
g62
(dp6266
g70
I5
ssg71
g6260
sg64
(lp6267
g1757
asbasbasbag57
(g73
g59
NtRp6268
(dp6269
g62
(dp6270
sg71
g5036
sg64
(lp6271
g57
(g78
g59
NtRp6272
(dp6273
g62
(dp6274
g82
g83
ssg71
g6268
sg64
(lp6275
S'status'
p6276
asbag57
(g78
g59
NtRp6277
(dp6278
g62
(dp6279
g89
g90
ssg71
g6268
sg64
(lp6280
S':'
asbag57
(g78
g59
NtRp6281
(dp6282
g62
(dp6283
sg71
g6268
sg64
(lp6284
g57
(g58
g59
NtRp6285
(dp6286
g62
(dp6287
g70
I5
ssg71
g6281
sg64
(lp6288
S'200'
p6289
asbasbasbag57
(g73
g59
NtRp6290
(dp6291
g62
(dp6292
sg71
g5036
sg64
(lp6293
g57
(g78
g59
NtRp6294
(dp6295
g62
(dp6296
g82
g83
ssg71
g6290
sg64
(lp6297
S'subtitle'
p6298
asbag57
(g78
g59
NtRp6299
(dp6300
g62
(dp6301
g89
g90
ssg71
g6290
sg64
(lp6302
S':'
asbag57
(g78
g59
NtRp6303
(dp6304
g62
(dp6305
sg71
g6290
sg64
(lp6306
g57
(g58
g59
NtRp6307
(dp6308
g62
(dp6309
g70
I5
ssg71
g6303
sg64
(lp6310
g5542
(S's0\x00\x00\x00An online space for learning New Testament Greek'
tRp6311
asbasbasbag57
(g73
g59
NtRp6312
(dp6313
g62
(dp6314
sg71
g5036
sg64
(lp6315
g57
(g78
g59
NtRp6316
(dp6317
g62
(dp6318
g82
g83
ssg71
g6312
sg64
(lp6319
S'title'
p6320
asbag57
(g78
g59
NtRp6321
(dp6322
g62
(dp6323
g89
g90
ssg71
g6312
sg64
(lp6324
S':'
asbag57
(g78
g59
NtRp6325
(dp6326
g62
(dp6327
sg71
g6312
sg64
(lp6328
g57
(g58
g59
NtRp6329
(dp6330
g62
(dp6331
g70
I5
ssg71
g6325
sg64
(lp6332
g122
asbasbasbag57
(g73
g59
NtRp6333
(dp6334
g62
(dp6335
sg71
g5036
sg64
(lp6336
g57
(g78
g59
NtRp6337
(dp6338
g62
(dp6339
g82
g83
ssg71
g6333
sg64
(lp6340
g3311
asbag57
(g78
g59
NtRp6341
(dp6342
g62
(dp6343
g89
g90
ssg71
g6333
sg64
(lp6344
S':'
asbag57
(g78
g59
NtRp6345
(dp6346
g62
(dp6347
sg71
g6333
sg64
(lp6348
g57
(g58
g59
NtRp6349
(dp6350
g62
(dp6351
g70
I5
ssg71
g6345
sg64
(lp6352
g3324
asbasbasbag57
(g73
g59
NtRp6353
(dp6354
g62
(dp6355
sg71
g5036
sg64
(lp6356
g57
(g78
g59
NtRp6357
(dp6358
g62
(dp6359
g82
g83
ssg71
g6353
sg64
(lp6360
S'view'
p6361
asbag57
(g78
g59
NtRp6362
(dp6363
g62
(dp6364
g89
g90
ssg71
g6353
sg64
(lp6365
S':'
asbag57
(g78
g59
NtRp6366
(dp6367
g62
(dp6368
sg71
g6353
sg64
(lp6369
g57
(g58
g59
NtRp6370
(dp6371
g62
(dp6372
g70
I5
ssg71
g6366
sg64
(lp6373
S'exploring/index.load'
p6374
asbasbasbasbasbsS'locals'
p6375
(dp6376
S'last_wrong'
p6377
S'datetime.datetime(2011, 11, 9, 12, 0)'
p6378
sS'newTimesW'
p6379
S'11'
p6380
sS'now_date'
p6381
S'datetime.datetime(2012, 1, 27, 16, 5, 47, 578016)'
p6382
sS'last_right'
p6383
S'datetime.datetime(2012, 1, 27, 16, 5, 47, 574860)'
p6384
sS'newTimesR'
p6385
S'107'
p6386
sS'timesR'
p6387
S'106.0'
p6388
sS'db'
p6389
S"<DAL {'auth_event': <Table {'origin': <gluon.dal... '_id': <gluon.dal.Field object at 0x2b64550>}>}>"
p6390
sS'auth'
p6391
S'<gluon.tools.Auth object>'
p6392
sS'timesW'
p6393
S'11.0'
p6394
sg4272
S"<Storage {'path_name': 'Tyndale - Greek Exegesis...sword]': '783cbf1f-6d9b-452b-86c9-40ac9b389d31'}>"
p6395
sS'rightWrong_dur'
p6396
S'datetime.timedelta(79, 14747, 574860)'
p6397
sS'wrong_dur'
p6398
S'datetime.timedelta(79, 14747, 578016)'
p6399
sS'right_dur'
p6400
S'datetime.timedelta(0, 0, 3156)'
p6401
sS'self'
p6402
S'<applications.paideia.modules.paideia_questions.question instance>'
p6403
sssS'traceback'
p6404
S'Traceback (most recent call last):\n  File "/home/ian/web2py/gluon/restricted.py", line 204, in restricted\n    exec ccode in environment\n  File "/home/ian/web2py/applications/paideia/controllers/exploring.py", line 74, in <module>\n  File "/home/ian/web2py/gluon/globals.py", line 172, in <lambda>\n    self._caller = lambda f: f()\n  File "/home/ian/web2py/gluon/tools.py", line 2533, in f\n    return action(*a, **b)\n  File "/home/ian/web2py/applications/paideia/controllers/exploring.py", line 39, in index\n    the_eval = q.evalq()\n  File "applications/paideia/modules/paideia_questions.py", line 157, in evalq\n    self.recordq()\n  File "applications/paideia/modules/paideia_questions.py", line 201, in recordq\n    db(db.question_records.question==session.qID).update(times_right=newTimesR, times_wrong=newTimesW, tlast_right=last_right, tlast_wrong=last_wrong, category=cat)\nNameError: global name \'cat\' is not defined\n'
p6405
s.