(dp1
S'output'
p2
S"<type 'exceptions.SyntaxError'> invalid syntax (index.html, line 134)"
p3
sS'layer'
p4
S'/home/ian/web/web2py/applications/paideia/views/exploring/index.html'
p5
sS'code'
p6
S'response.write(\'<!DOCTYPE html>\\n<html lang="\', escape=False)\nresponse.write(T.accepted_language or \'en\')\nresponse.write(\'" class="no-js"><!-- no-js need it for modernzr -->\\n  <head>\\n    <!-- adapted by Ian W. Scott from the default layout.html file included in the web2py scaffolding app -->\\n    <meta charset="utf-8" />\\n    <!-- www.phpied.com/conditional-comments-block-downloads/ -->\\n    <!--[if IE]><![endif]-->\\n    <!-- Always force latest IE rendering engine & Chrome Frame; Remove if you use .htaccess -->\\n    <meta http-equiv="X-UA-Compatible" content="IE=edge,chrome=1">\\n    <title>\', escape=False)\nresponse.write(response.title or request.application)\nresponse.write(\'</title>\\n    <!-- http://dev.w3.org/html5/markup/meta.name.html -->\\n    <meta name="application-name" content="\', escape=False)\nresponse.write(request.application)\nresponse.write(\'" />\\n    <!-- http://google.com/webmasters -->\\n    <meta name="google-site-verification" content="" />\\n    <!--  Mobile Viewport Fix (j.mp/mobileviewport & davidbcalhoun.com/2010/viewport-metatag) -->\\n    <meta name="viewport" content="width=device-width, initial-scale=1.0, maximum-scale=1.0">\\n\\n    <link rel="stylesheet/less" type="text/css" href="\', escape=False)\nresponse.write(URL(\'static\', \'plugin_framework/framework.less\'))\nresponse.write(\'">\\n    <link rel="stylesheet/less" type="text/css" href="\', escape=False)\nresponse.write(URL(\'static\', \'plugin_framework/theme.less\'))\nresponse.write(\'">\\n\\n    <!-- Place favicon.ico and apple-touch-icon.png in the root of your domain and delete these references -->\\n    <link rel="shortcut icon" href="\', escape=False)\nresponse.write(URL(\'static\',\'favicon.ico\'))\nresponse.write(\'" type="image/x-icon">\\n    <link rel="apple-touch-icon" href="\', escape=False)\nresponse.write(URL(\'static\',\'favicon.png\'))\nresponse.write(\'">\\n    <!-- less-enabled mobile browsers like Opera Mini -->\\n    <link rel="stylesheet" media="handheld" href="\', escape=False)\nresponse.write(URL(\'static\',\'css/handheld.css\'))\nresponse.write(\'">\\n\\n    <!-- All JavaScript at the bottom, except for Modernizr which enables HTML5 elements & feature detects -->\\n    <script src="\', escape=False)\nresponse.write(URL(\'static\',\'js/modernizr-1.7.min.js\'))\nresponse.write(\'"></script>\\n    <script src="\', escape=False)\nresponse.write(URL(\'static\',\'plugin_framework/yepnope.1.0.2-min.js\'))\nresponse.write(\'"></script>\\n\\n    <!--  require CSS and JS files for this page (read info in base.css) -->\\n    \', escape=False)\nresponse.files.append(URL(\'static\',\'plugin_framework/normalize.css\'))\nresponse.write(\'\\n    \', escape=False)\nresponse.files.append(URL(\'static\',\'css/superfish.css\'))\nresponse.write(\'\\n    \', escape=False)\nresponse.files.append(URL(\'static\',\'js/superfish.js\'))\nresponse.write(\'\\n    \', escape=False)\nresponse.files.append(URL(\'static\', \'plugin_framework/jquery-ui/jquery-ui-1.8.16.custom.min.js\'))\nresponse.write(\'\\n    \', escape=False)\nresponse.files.append(URL(\'static\', \'plugin_framework/jquery-ui/theme/jquery-ui-1.8.16.custom.css\'))\nresponse.write(\'\\n    <!-- include web2py specific js code (jquery, calendar, form stuff) -->    \', escape=False)\nresponse.files.append(URL(\'static\',\'plugin_framework/less-1.1.5.min.js\'))\nresponse.write(\'\\n    \', escape=False)\nresponse.files.insert(0,URL(\'static\',\'js/jquery.js\'))\nresponse.files.insert(1,URL(\'static\',\'css/calendar.css\'))\nresponse.files.insert(2,URL(\'static\',\'js/calendar.js\'))\nfor _item in response.meta or []:\n    response.write(\'\\n     <meta name="\', escape=False)\n    response.write(_item)\n    response.write(\'" content="\', escape=False)\n    response.write(response.meta[_item])\n    response.write(\'" />\', escape=False)\n    pass\nfor _k,_file in enumerate(response.files or []):\n    if _file in response.files[:_k]:\n        continue\n    _file0=_file.lower().split(\'?\')[0]\n    if _file0.endswith(\'.css\'):\n        response.write(\'\\n     <link href="\', escape=False)\n        response.write(_file)\n        response.write(\'" rel="stylesheet" type="text/css" />\', escape=False)\n    elif _file0.endswith(\'.js\'):\n        response.write(\'\\n     <script src="\', escape=False)\n        response.write(_file)\n        response.write(\'" type="text/javascript"></script>\', escape=False)\n        pass\n    pass\nresponse.write(\'\\n    <script type="text/javascript"><!--\\n    // These variables are used by the web2py_ajax_init function in web2py_ajax.js (which is loaded below).\\n    var w2p_ajax_confirm_message = "\', escape=False)\nresponse.write(T(\'Are you sure you want to delete this object?\'))\nresponse.write(\'";\\n    var w2p_ajax_date_format = "\', escape=False)\nresponse.write(T(\'%Y-%m-%d\'))\nresponse.write(\'";\\n    var w2p_ajax_datetime_format = "\', escape=False)\nresponse.write(T(\'%Y-%m-%d %H:%M:%S\'))\nresponse.write(\'";\\n    //--></script>\\n    <script src="\', escape=False)\nresponse.write(URL(\'static\',\'js/web2py_ajax.js\'))\nresponse.write(\'" type="text/javascript"></script>\\n\', escape=False)\nresponse.write(\'\\n\\n    <!--sidebar settings-->\\n    \', escape=False)\nleft_sidebar_enabled = globals().get(\'left_sidebar_enabled\',False)\nresponse.write(\'\\n    \', escape=False)\nright_sidebar_enabled = globals().get(\'right_sidebar_enabled\',False)\nresponse.write(\'\\n\\n    \', escape=False)\nif left_sidebar_enabled and right_sidebar_enabled:\n    response.write(\'\\n        \', escape=False)\n    width_content=\'63%\'\n    response.write(\'\\n    \', escape=False)\nelif left_sidebar_enabled != right_sidebar_enabled:\n    response.write(\'\\n        \', escape=False)\n    width_content=\'740px\'\n    response.write(\'\\n    \', escape=False)\nelse:\n    response.write(\'\\n        \', escape=False)\n    width_content=\'100%\'\n    response.write(\'\\n    \', escape=False)\n    pass\nresponse.write(\'\\n\\n    \', escape=False)\nif left_sidebar_enabled:\n    response.write(\'\\n        \', escape=False)\n    left_sidebar_style = \'style="display: block;"\'\n    response.write(\'\\n    \', escape=False)\nelse:\n    response.write(\'\\n        \', escape=False)\n    left_sidebar_style = \'style="display: none;"\'\n    response.write(\'\\n    \', escape=False)\n    pass\nresponse.write(\'\\n\\n    \', escape=False)\nif right_sidebar_enabled:\n    response.write(\'\\n        \', escape=False)\n    right_sidebar_style = \'style="display: block;"\'\n    response.write(\'\\n    \', escape=False)\nelse:\n    response.write(\'\\n        \', escape=False)\n    right_sidebar_style = \'style="display: none;"\'\n    response.write(\'\\n    \', escape=False)\n    pass\nresponse.write(\'\\n    \', escape=False)\nstyle_content = \'style="width: %s"\' % width_content\nresponse.write(\'\\n\\n  </head>\\n\\n  <!-- paulirish.com/2008/conditional-stylesheets-vs-css-hacks-answer-neither/ -->\\n  <!--[if lt IE 7 ]> <body class="ie6"> <![endif]-->\\n  <!--[if IE 7 ]>    <body class="ie7"> <![endif]-->\\n  <!--[if IE 8 ]>    <body class="ie8"> <![endif]-->\\n  <!--[if IE 9 ]>    <body class="ie9"> <![endif]-->\\n  <!--[if (gt IE 9)|!(IE)]><!--> <body> <!--<![endif]-->\\n\\n    <div class="flash">\', escape=False)\nresponse.write(response.flash or \'\')\nresponse.write("</div> <!-- notification div -->\\n    <div id=\'modal_frame\'></div>\\n\\n    <header>\\n\\n        ", escape=False)\nresponse.write(\' <!-- this is default header -->\\n\\n            <nav>\\n              \', escape=False)\nresponse.write(\' <!-- this is default statusbar -->\\n              \', escape=False)\n#------ superfish menu ------\nresponse.write(\'\\n              \', escape=False)\nresponse.write(MENU(response.menu,_class=\'sf-menu\'))\nresponse.write(\'\\n              <script type="text/javascript">\\n                jQuery(document).ready(function(){\\n                jQuery(\\\'ul.sf-menu\\\').superfish();});\\n              </script>\\n              <div class="clear"></div><!-- Clear the divs -->\\n              \', escape=False)\nresponse.write(\'\\n            </nav>\\n\\n            \', escape=False)\ntry:\n    response.write(\'\\n                \', escape=False)\n    response.write(\'auth\' in globals() and auth.navbar(separators=(\'\',\' \',\'\')))\n    response.write(\'\\n            \', escape=False)\nexcept:\n    response.write(\'\\n                \', escape=False)\n    pass\nresponse.write(\'\\n            \', escape=False)\npass\nresponse.write(\'\\n\\n            <h1 id="appname">\', escape=False)\nresponse.write(A(request.application.capitalize(), _href=URL(\'default\', \'index\')))\nresponse.write(\'</h1>\\n\\n        \', escape=False)\nresponse.write(\'\\n\\n    </header>\\n\\n    <div id="page" class="\', escape=False)\nresponse.write(request.controller)\nresponse.write(\' \', escape=False)\nresponse.write(request.function)\nresponse.write(\' \', escape=False)\nif request.args\nresponse.write(request.args[0])\npass\nresponse.write(\'">\\n\\n        <!-- left_sidebar -->\\n        \', escape=False)\nif left_sidebar_enabled:\n    response.write(\'\\n            <aside id="left_sidebar" \', escape=False)\n    response.write(XML(left_sidebar_style))\n    response.write(\' >\\n                \', escape=False)\n    response.write(\'\\n                    Content Left Sidebar\\n                \', escape=False)\n    response.write(\'\\n            </aside>\\n        \', escape=False)\n    pass\nresponse.write(\'\\n\\n        <!-- right_sidebar -->\\n        \', escape=False)\nif right_sidebar_enabled:\n    response.write(\'\\n            <aside id="right_sidebar" \', escape=False)\n    response.write(XML(right_sidebar_style))\n    response.write(\' >\\n                \', escape=False)\n    response.write(\'\\n                    Content Right Sidebar\\n                \', escape=False)\n    response.write(\'\\n            </aside>\\n        \', escape=False)\n    pass\nresponse.write(\'\\n\\n        <!-- content of views-->\\n        \', escape=False)\nresponse.write(\'\\n\', escape=False)\nresponse.write(\'\\n\\n\', escape=False)\nresponse.write(LOAD(\'exploring\',\'index.load\',ajax=True,target=\'page\'))\nresponse.write(\'\\n\', escape=False)\nresponse.write(\'\\n\\n        <div class="clear"></div><!-- Clear the divs -->\\n\\n    </div><!--page-->\\n\\n    <footer>\\n        \', escape=False)\nresponse.write(\' <!-- this is default footer -->\\n            <a href="http://www.web2py.com/" >\\n                <img src="\', escape=False)\nresponse.write(URL(\'static\',\'images/poweredby.png\'))\nresponse.write(\'"/>\\n            </a>\\n            \', escape=False)\nresponse.write(T(\'Copyright\'))\nresponse.write(\' &#169; Ian W. Scott 2011 (licensed under GPL 3.0)\\n            <div class="clear"></div><!-- Clear the divs -->\\n        \', escape=False)\nresponse.write(\'\\n    </footer>\\n\\n    \', escape=False)\nif session.debug:\n    response.write(\'\\n        \', escape=False)\n    response.write(DIV(session.debug, _class="debug"))\n    response.write(\'\\n    \', escape=False)\n    pass\nresponse.write(\'\\n\\n    <!--[if lt IE 7 ]>\\n    <script src="\', escape=False)\nresponse.write(URL(\'static\',\'js/dd_belatedpng.js\'))\nresponse.write(\'"></script>\\n    <script> DD_belatedPNG.fix(\\\'img, .png_bg\\\'); //fix any <img> or .png_bg background-images </script>\\n    <![endif]-->\\n\\n    <!-- asynchronous google analytics: mathiasbynens.be/notes/async-analytics-snippet\\n     change the UA-XXXXX-X to be your site\\\'s ID -->\\n    <!--\\n       <script>\\n         var _gaq = [[\\\'_setAccount\\\', \\\'UA-XXXXX-X\\\'], [\\\'_trackPageview\\\']];\\n         (function(d, t) {\\n         var g = d.createElement(t),\\n         s = d.getElementsByTagName(t)[0];\\n         g.async = true;\\n         g.src = \\\'//www.google-analytics.com/ga.js\\\';\\n         s.parentNode.insertBefore(g, s);\\n         })(document, \\\'script\\\');\\n       </script>\\n       -->\\n  </body>\\n</html>\\n\', escape=False)'
p7
sS'snapshot'
p8
(dp9
S'exception'
p10
(dp11
S'__getslice__'
p12
S"<method-wrapper '__getslice__' of exceptions.SyntaxError object>"
p13
sS'text'
p14
S"'if request.args\\n'"
p15
sS'__str__'
p16
S"<method-wrapper '__str__' of exceptions.SyntaxError object>"
p17
sS'__reduce__'
p18
S'<built-in method __reduce__ of exceptions.SyntaxError object>'
p19
sS'__dict__'
p20
S'{}'
p21
sS'__sizeof__'
p22
S'<built-in method __sizeof__ of exceptions.SyntaxError object>'
p23
sS'__init__'
p24
S"<method-wrapper '__init__' of exceptions.SyntaxError object>"
p25
sS'__setattr__'
p26
S"<method-wrapper '__setattr__' of exceptions.SyntaxError object>"
p27
sS'__reduce_ex__'
p28
S'<built-in method __reduce_ex__ of exceptions.SyntaxError object>'
p29
sS'__new__'
p30
S'<built-in method __new__ of type object>'
p31
sS'__format__'
p32
S'<built-in method __format__ of exceptions.SyntaxError object>'
p33
sS'__class__'
p34
S"<type 'exceptions.SyntaxError'>"
p35
sS'filename'
p36
S"'/home/ian/web/web2py/applications/paideia/views/exploring/index.html'"
p37
sS'lineno'
p38
S'134'
p39
sS'msg'
p40
S"'invalid syntax'"
p41
sS'__doc__'
p42
S"'Invalid syntax.'"
p43
sS'__getitem__'
p44
S"<method-wrapper '__getitem__' of exceptions.SyntaxError object>"
p45
sS'__setstate__'
p46
S'<built-in method __setstate__ of exceptions.SyntaxError object>'
p47
sS'__getattribute__'
p48
S"<method-wrapper '__getattribute__' of exceptions.SyntaxError object>"
p49
sS'print_file_and_line'
p50
S'None'
p51
sS'args'
p52
S"('invalid syntax', ('/home/ian/web/web2py/applications/paideia/views/exploring/index.html', 134, 16, 'if request.args\\n'))"
p53
sS'__subclasshook__'
p54
S'<built-in method __subclasshook__ of type object>'
p55
sS'offset'
p56
S'16'
p57
sS'__unicode__'
p58
S'<built-in method __unicode__ of exceptions.SyntaxError object>'
p59
sS'__delattr__'
p60
S"<method-wrapper '__delattr__' of exceptions.SyntaxError object>"
p61
sS'__repr__'
p62
S"<method-wrapper '__repr__' of exceptions.SyntaxError object>"
p63
sS'__hash__'
p64
S"<method-wrapper '__hash__' of exceptions.SyntaxError object>"
p65
ssS'evalue'
p66
S'invalid syntax (index.html, line 134)'
p67
sS'request'
p68
ccopy_reg
_reconstructor
p69
(cgluon.html
BEAUTIFY
p70
c__builtin__
object
p71
NtRp72
(dp73
S'attributes'
p74
(dp75
sS'components'
p76
(lp77
g69
(cgluon.html
TABLE
p78
g71
NtRp79
(dp80
g74
(dp81
S'level'
p82
I5
ssS'parent'
p83
Nsg76
(lp84
g69
(cgluon.html
TR
p85
g71
NtRp86
(dp87
g74
(dp88
sg83
g79
sg76
(lp89
g69
(cgluon.html
TD
p90
g71
NtRp91
(dp92
g74
(dp93
S'_style'
p94
S'font-weight:bold;vertical-align:top'
p95
ssg83
g86
sg76
(lp96
S'ajax'
p97
asbag69
(g90
g71
NtRp98
(dp99
g74
(dp100
S'_valign'
p101
S'top'
p102
ssg83
g86
sg76
(lp103
S':'
asbag69
(g90
g71
NtRp104
(dp105
g74
(dp106
sg83
g86
sg76
(lp107
g69
(g70
g71
NtRp108
(dp109
g74
(dp110
g82
I5
ssg83
g104
sg76
(lp111
S'False'
p112
asbasbasbag69
(g85
g71
NtRp113
(dp114
g74
(dp115
sg83
g79
sg76
(lp116
g69
(g90
g71
NtRp117
(dp118
g74
(dp119
g94
g95
ssg83
g113
sg76
(lp120
S'application'
p121
asbag69
(g90
g71
NtRp122
(dp123
g74
(dp124
g101
g102
ssg83
g113
sg76
(lp125
S':'
asbag69
(g90
g71
NtRp126
(dp127
g74
(dp128
sg83
g113
sg76
(lp129
g69
(g70
g71
NtRp130
(dp131
g74
(dp132
g82
I5
ssg83
g126
sg76
(lp133
S'paideia'
p134
asbasbasbag69
(g85
g71
NtRp135
(dp136
g74
(dp137
sg83
g79
sg76
(lp138
g69
(g90
g71
NtRp139
(dp140
g74
(dp141
g94
g95
ssg83
g135
sg76
(lp142
g52
asbag69
(g90
g71
NtRp143
(dp144
g74
(dp145
g101
g102
ssg83
g135
sg76
(lp146
S':'
asbag69
(g90
g71
NtRp147
(dp148
g74
(dp149
sg83
g135
sg76
(lp150
g69
(g70
g71
NtRp151
(dp152
g74
(dp153
g82
I5
ssg83
g147
sg76
(lp154
g69
(g78
g71
NtRp155
(dp156
g74
(dp157
g82
I4
ssg83
Nsg76
(lp158
sbasbasbasbag69
(g85
g71
NtRp159
(dp160
g74
(dp161
sg83
g79
sg76
(lp162
g69
(g90
g71
NtRp163
(dp164
g74
(dp165
g94
g95
ssg83
g159
sg76
(lp166
S'body'
p167
asbag69
(g90
g71
NtRp168
(dp169
g74
(dp170
g101
g102
ssg83
g159
sg76
(lp171
S':'
asbag69
(g90
g71
NtRp172
(dp173
g74
(dp174
sg83
g159
sg76
(lp175
g69
(g70
g71
NtRp176
(dp177
g74
(dp178
g82
I5
ssg83
g172
sg76
(lp179
S'<cStringIO.StringO object at 0x7f0ef44c23e8>'
p180
asbasbasbag69
(g85
g71
NtRp181
(dp182
g74
(dp183
sg83
g79
sg76
(lp184
g69
(g90
g71
NtRp185
(dp186
g74
(dp187
g94
g95
ssg83
g181
sg76
(lp188
S'client'
p189
asbag69
(g90
g71
NtRp190
(dp191
g74
(dp192
g101
g102
ssg83
g181
sg76
(lp193
S':'
asbag69
(g90
g71
NtRp194
(dp195
g74
(dp196
sg83
g181
sg76
(lp197
g69
(g70
g71
NtRp198
(dp199
g74
(dp200
g82
I5
ssg83
g194
sg76
(lp201
S'127.0.0.1'
p202
asbasbasbag69
(g85
g71
NtRp203
(dp204
g74
(dp205
sg83
g79
sg76
(lp206
g69
(g90
g71
NtRp207
(dp208
g74
(dp209
g94
g95
ssg83
g203
sg76
(lp210
S'controller'
p211
asbag69
(g90
g71
NtRp212
(dp213
g74
(dp214
g101
g102
ssg83
g203
sg76
(lp215
S':'
asbag69
(g90
g71
NtRp216
(dp217
g74
(dp218
sg83
g203
sg76
(lp219
g69
(g70
g71
NtRp220
(dp221
g74
(dp222
g82
I5
ssg83
g216
sg76
(lp223
S'exploring'
p224
asbasbasbag69
(g85
g71
NtRp225
(dp226
g74
(dp227
sg83
g79
sg76
(lp228
g69
(g90
g71
NtRp229
(dp230
g74
(dp231
g94
g95
ssg83
g225
sg76
(lp232
S'cookies'
p233
asbag69
(g90
g71
NtRp234
(dp235
g74
(dp236
g101
g102
ssg83
g225
sg76
(lp237
S':'
asbag69
(g90
g71
NtRp238
(dp239
g74
(dp240
sg83
g225
sg76
(lp241
g69
(g70
g71
NtRp242
(dp243
g74
(dp244
g82
I5
ssg83
g238
sg76
(lp245
g69
(g78
g71
NtRp246
(dp247
g74
(dp248
g82
I4
ssg83
Nsg76
(lp249
g69
(g85
g71
NtRp250
(dp251
g74
(dp252
sg83
g246
sg76
(lp253
g69
(g90
g71
NtRp254
(dp255
g74
(dp256
g94
g95
ssg83
g250
sg76
(lp257
S'session_id_admin'
p258
asbag69
(g90
g71
NtRp259
(dp260
g74
(dp261
g101
g102
ssg83
g250
sg76
(lp262
S':'
asbag69
(g90
g71
NtRp263
(dp264
g74
(dp265
sg83
g250
sg76
(lp266
g69
(g70
g71
NtRp267
(dp268
g74
(dp269
g82
I4
ssg83
g263
sg76
(lp270
g69
(g78
g71
NtRp271
(dp272
g74
(dp273
g82
I3
ssg83
Nsg76
(lp274
g69
(g85
g71
NtRp275
(dp276
g74
(dp277
sg83
g271
sg76
(lp278
g69
(g90
g71
NtRp279
(dp280
g74
(dp281
g94
g95
ssg83
g275
sg76
(lp282
S'comment'
p283
asbag69
(g90
g71
NtRp284
(dp285
g74
(dp286
g101
g102
ssg83
g275
sg76
(lp287
S':'
asbag69
(g90
g71
NtRp288
(dp289
g74
(dp290
sg83
g275
sg76
(lp291
g69
(g70
g71
NtRp292
(dp293
g74
(dp294
g82
I3
ssg83
g288
sg76
(lp295
S''
asbasbasbag69
(g85
g71
NtRp296
(dp297
g74
(dp298
sg83
g271
sg76
(lp299
g69
(g90
g71
NtRp300
(dp301
g74
(dp302
g94
g95
ssg83
g296
sg76
(lp303
S'domain'
p304
asbag69
(g90
g71
NtRp305
(dp306
g74
(dp307
g101
g102
ssg83
g296
sg76
(lp308
S':'
asbag69
(g90
g71
NtRp309
(dp310
g74
(dp311
sg83
g296
sg76
(lp312
g69
(g70
g71
NtRp313
(dp314
g74
(dp315
g82
I3
ssg83
g309
sg76
(lp316
S''
asbasbasbag69
(g85
g71
NtRp317
(dp318
g74
(dp319
sg83
g271
sg76
(lp320
g69
(g90
g71
NtRp321
(dp322
g74
(dp323
g94
g95
ssg83
g317
sg76
(lp324
S'expires'
p325
asbag69
(g90
g71
NtRp326
(dp327
g74
(dp328
g101
g102
ssg83
g317
sg76
(lp329
S':'
asbag69
(g90
g71
NtRp330
(dp331
g74
(dp332
sg83
g317
sg76
(lp333
g69
(g70
g71
NtRp334
(dp335
g74
(dp336
g82
I3
ssg83
g330
sg76
(lp337
S''
asbasbasbag69
(g85
g71
NtRp338
(dp339
g74
(dp340
sg83
g271
sg76
(lp341
g69
(g90
g71
NtRp342
(dp343
g74
(dp344
g94
g95
ssg83
g338
sg76
(lp345
S'httponly'
p346
asbag69
(g90
g71
NtRp347
(dp348
g74
(dp349
g101
g102
ssg83
g338
sg76
(lp350
S':'
asbag69
(g90
g71
NtRp351
(dp352
g74
(dp353
sg83
g338
sg76
(lp354
g69
(g70
g71
NtRp355
(dp356
g74
(dp357
g82
I3
ssg83
g351
sg76
(lp358
S''
asbasbasbag69
(g85
g71
NtRp359
(dp360
g74
(dp361
sg83
g271
sg76
(lp362
g69
(g90
g71
NtRp363
(dp364
g74
(dp365
g94
g95
ssg83
g359
sg76
(lp366
S'max-age'
p367
asbag69
(g90
g71
NtRp368
(dp369
g74
(dp370
g101
g102
ssg83
g359
sg76
(lp371
S':'
asbag69
(g90
g71
NtRp372
(dp373
g74
(dp374
sg83
g359
sg76
(lp375
g69
(g70
g71
NtRp376
(dp377
g74
(dp378
g82
I3
ssg83
g372
sg76
(lp379
S''
asbasbasbag69
(g85
g71
NtRp380
(dp381
g74
(dp382
sg83
g271
sg76
(lp383
g69
(g90
g71
NtRp384
(dp385
g74
(dp386
g94
g95
ssg83
g380
sg76
(lp387
S'path'
p388
asbag69
(g90
g71
NtRp389
(dp390
g74
(dp391
g101
g102
ssg83
g380
sg76
(lp392
S':'
asbag69
(g90
g71
NtRp393
(dp394
g74
(dp395
sg83
g380
sg76
(lp396
g69
(g70
g71
NtRp397
(dp398
g74
(dp399
g82
I3
ssg83
g393
sg76
(lp400
S''
asbasbasbag69
(g85
g71
NtRp401
(dp402
g74
(dp403
sg83
g271
sg76
(lp404
g69
(g90
g71
NtRp405
(dp406
g74
(dp407
g94
g95
ssg83
g401
sg76
(lp408
S'secure'
p409
asbag69
(g90
g71
NtRp410
(dp411
g74
(dp412
g101
g102
ssg83
g401
sg76
(lp413
S':'
asbag69
(g90
g71
NtRp414
(dp415
g74
(dp416
sg83
g401
sg76
(lp417
g69
(g70
g71
NtRp418
(dp419
g74
(dp420
g82
I3
ssg83
g414
sg76
(lp421
S''
asbasbasbag69
(g85
g71
NtRp422
(dp423
g74
(dp424
sg83
g271
sg76
(lp425
g69
(g90
g71
NtRp426
(dp427
g74
(dp428
g94
g95
ssg83
g422
sg76
(lp429
S'version'
p430
asbag69
(g90
g71
NtRp431
(dp432
g74
(dp433
g101
g102
ssg83
g422
sg76
(lp434
S':'
asbag69
(g90
g71
NtRp435
(dp436
g74
(dp437
sg83
g422
sg76
(lp438
g69
(g70
g71
NtRp439
(dp440
g74
(dp441
g82
I3
ssg83
g435
sg76
(lp442
S''
asbasbasbasbasbasbasbag69
(g85
g71
NtRp443
(dp444
g74
(dp445
sg83
g246
sg76
(lp446
g69
(g90
g71
NtRp447
(dp448
g74
(dp449
g94
g95
ssg83
g443
sg76
(lp450
S'session_id_paideia'
p451
asbag69
(g90
g71
NtRp452
(dp453
g74
(dp454
g101
g102
ssg83
g443
sg76
(lp455
S':'
asbag69
(g90
g71
NtRp456
(dp457
g74
(dp458
sg83
g443
sg76
(lp459
g69
(g70
g71
NtRp460
(dp461
g74
(dp462
g82
I4
ssg83
g456
sg76
(lp463
g69
(g78
g71
NtRp464
(dp465
g74
(dp466
g82
I3
ssg83
Nsg76
(lp467
g69
(g85
g71
NtRp468
(dp469
g74
(dp470
sg83
g464
sg76
(lp471
g69
(g90
g71
NtRp472
(dp473
g74
(dp474
g94
g95
ssg83
g468
sg76
(lp475
g283
asbag69
(g90
g71
NtRp476
(dp477
g74
(dp478
g101
g102
ssg83
g468
sg76
(lp479
S':'
asbag69
(g90
g71
NtRp480
(dp481
g74
(dp482
sg83
g468
sg76
(lp483
g69
(g70
g71
NtRp484
(dp485
g74
(dp486
g82
I3
ssg83
g480
sg76
(lp487
S''
asbasbasbag69
(g85
g71
NtRp488
(dp489
g74
(dp490
sg83
g464
sg76
(lp491
g69
(g90
g71
NtRp492
(dp493
g74
(dp494
g94
g95
ssg83
g488
sg76
(lp495
g304
asbag69
(g90
g71
NtRp496
(dp497
g74
(dp498
g101
g102
ssg83
g488
sg76
(lp499
S':'
asbag69
(g90
g71
NtRp500
(dp501
g74
(dp502
sg83
g488
sg76
(lp503
g69
(g70
g71
NtRp504
(dp505
g74
(dp506
g82
I3
ssg83
g500
sg76
(lp507
S''
asbasbasbag69
(g85
g71
NtRp508
(dp509
g74
(dp510
sg83
g464
sg76
(lp511
g69
(g90
g71
NtRp512
(dp513
g74
(dp514
g94
g95
ssg83
g508
sg76
(lp515
g325
asbag69
(g90
g71
NtRp516
(dp517
g74
(dp518
g101
g102
ssg83
g508
sg76
(lp519
S':'
asbag69
(g90
g71
NtRp520
(dp521
g74
(dp522
sg83
g508
sg76
(lp523
g69
(g70
g71
NtRp524
(dp525
g74
(dp526
g82
I3
ssg83
g520
sg76
(lp527
S''
asbasbasbag69
(g85
g71
NtRp528
(dp529
g74
(dp530
sg83
g464
sg76
(lp531
g69
(g90
g71
NtRp532
(dp533
g74
(dp534
g94
g95
ssg83
g528
sg76
(lp535
g346
asbag69
(g90
g71
NtRp536
(dp537
g74
(dp538
g101
g102
ssg83
g528
sg76
(lp539
S':'
asbag69
(g90
g71
NtRp540
(dp541
g74
(dp542
sg83
g528
sg76
(lp543
g69
(g70
g71
NtRp544
(dp545
g74
(dp546
g82
I3
ssg83
g540
sg76
(lp547
S''
asbasbasbag69
(g85
g71
NtRp548
(dp549
g74
(dp550
sg83
g464
sg76
(lp551
g69
(g90
g71
NtRp552
(dp553
g74
(dp554
g94
g95
ssg83
g548
sg76
(lp555
g367
asbag69
(g90
g71
NtRp556
(dp557
g74
(dp558
g101
g102
ssg83
g548
sg76
(lp559
S':'
asbag69
(g90
g71
NtRp560
(dp561
g74
(dp562
sg83
g548
sg76
(lp563
g69
(g70
g71
NtRp564
(dp565
g74
(dp566
g82
I3
ssg83
g560
sg76
(lp567
S''
asbasbasbag69
(g85
g71
NtRp568
(dp569
g74
(dp570
sg83
g464
sg76
(lp571
g69
(g90
g71
NtRp572
(dp573
g74
(dp574
g94
g95
ssg83
g568
sg76
(lp575
g388
asbag69
(g90
g71
NtRp576
(dp577
g74
(dp578
g101
g102
ssg83
g568
sg76
(lp579
S':'
asbag69
(g90
g71
NtRp580
(dp581
g74
(dp582
sg83
g568
sg76
(lp583
g69
(g70
g71
NtRp584
(dp585
g74
(dp586
g82
I3
ssg83
g580
sg76
(lp587
S''
asbasbasbag69
(g85
g71
NtRp588
(dp589
g74
(dp590
sg83
g464
sg76
(lp591
g69
(g90
g71
NtRp592
(dp593
g74
(dp594
g94
g95
ssg83
g588
sg76
(lp595
g409
asbag69
(g90
g71
NtRp596
(dp597
g74
(dp598
g101
g102
ssg83
g588
sg76
(lp599
S':'
asbag69
(g90
g71
NtRp600
(dp601
g74
(dp602
sg83
g588
sg76
(lp603
g69
(g70
g71
NtRp604
(dp605
g74
(dp606
g82
I3
ssg83
g600
sg76
(lp607
S''
asbasbasbag69
(g85
g71
NtRp608
(dp609
g74
(dp610
sg83
g464
sg76
(lp611
g69
(g90
g71
NtRp612
(dp613
g74
(dp614
g94
g95
ssg83
g608
sg76
(lp615
g430
asbag69
(g90
g71
NtRp616
(dp617
g74
(dp618
g101
g102
ssg83
g608
sg76
(lp619
S':'
asbag69
(g90
g71
NtRp620
(dp621
g74
(dp622
sg83
g608
sg76
(lp623
g69
(g70
g71
NtRp624
(dp625
g74
(dp626
g82
I3
ssg83
g620
sg76
(lp627
S''
asbasbasbasbasbasbasbag69
(g85
g71
NtRp628
(dp629
g74
(dp630
sg83
g246
sg76
(lp631
g69
(g90
g71
NtRp632
(dp633
g74
(dp634
g94
g95
ssg83
g628
sg76
(lp635
S'session_id_topoi'
p636
asbag69
(g90
g71
NtRp637
(dp638
g74
(dp639
g101
g102
ssg83
g628
sg76
(lp640
S':'
asbag69
(g90
g71
NtRp641
(dp642
g74
(dp643
sg83
g628
sg76
(lp644
g69
(g70
g71
NtRp645
(dp646
g74
(dp647
g82
I4
ssg83
g641
sg76
(lp648
g69
(g78
g71
NtRp649
(dp650
g74
(dp651
g82
I3
ssg83
Nsg76
(lp652
g69
(g85
g71
NtRp653
(dp654
g74
(dp655
sg83
g649
sg76
(lp656
g69
(g90
g71
NtRp657
(dp658
g74
(dp659
g94
g95
ssg83
g653
sg76
(lp660
g283
asbag69
(g90
g71
NtRp661
(dp662
g74
(dp663
g101
g102
ssg83
g653
sg76
(lp664
S':'
asbag69
(g90
g71
NtRp665
(dp666
g74
(dp667
sg83
g653
sg76
(lp668
g69
(g70
g71
NtRp669
(dp670
g74
(dp671
g82
I3
ssg83
g665
sg76
(lp672
S''
asbasbasbag69
(g85
g71
NtRp673
(dp674
g74
(dp675
sg83
g649
sg76
(lp676
g69
(g90
g71
NtRp677
(dp678
g74
(dp679
g94
g95
ssg83
g673
sg76
(lp680
g304
asbag69
(g90
g71
NtRp681
(dp682
g74
(dp683
g101
g102
ssg83
g673
sg76
(lp684
S':'
asbag69
(g90
g71
NtRp685
(dp686
g74
(dp687
sg83
g673
sg76
(lp688
g69
(g70
g71
NtRp689
(dp690
g74
(dp691
g82
I3
ssg83
g685
sg76
(lp692
S''
asbasbasbag69
(g85
g71
NtRp693
(dp694
g74
(dp695
sg83
g649
sg76
(lp696
g69
(g90
g71
NtRp697
(dp698
g74
(dp699
g94
g95
ssg83
g693
sg76
(lp700
g325
asbag69
(g90
g71
NtRp701
(dp702
g74
(dp703
g101
g102
ssg83
g693
sg76
(lp704
S':'
asbag69
(g90
g71
NtRp705
(dp706
g74
(dp707
sg83
g693
sg76
(lp708
g69
(g70
g71
NtRp709
(dp710
g74
(dp711
g82
I3
ssg83
g705
sg76
(lp712
S''
asbasbasbag69
(g85
g71
NtRp713
(dp714
g74
(dp715
sg83
g649
sg76
(lp716
g69
(g90
g71
NtRp717
(dp718
g74
(dp719
g94
g95
ssg83
g713
sg76
(lp720
g346
asbag69
(g90
g71
NtRp721
(dp722
g74
(dp723
g101
g102
ssg83
g713
sg76
(lp724
S':'
asbag69
(g90
g71
NtRp725
(dp726
g74
(dp727
sg83
g713
sg76
(lp728
g69
(g70
g71
NtRp729
(dp730
g74
(dp731
g82
I3
ssg83
g725
sg76
(lp732
S''
asbasbasbag69
(g85
g71
NtRp733
(dp734
g74
(dp735
sg83
g649
sg76
(lp736
g69
(g90
g71
NtRp737
(dp738
g74
(dp739
g94
g95
ssg83
g733
sg76
(lp740
g367
asbag69
(g90
g71
NtRp741
(dp742
g74
(dp743
g101
g102
ssg83
g733
sg76
(lp744
S':'
asbag69
(g90
g71
NtRp745
(dp746
g74
(dp747
sg83
g733
sg76
(lp748
g69
(g70
g71
NtRp749
(dp750
g74
(dp751
g82
I3
ssg83
g745
sg76
(lp752
S''
asbasbasbag69
(g85
g71
NtRp753
(dp754
g74
(dp755
sg83
g649
sg76
(lp756
g69
(g90
g71
NtRp757
(dp758
g74
(dp759
g94
g95
ssg83
g753
sg76
(lp760
g388
asbag69
(g90
g71
NtRp761
(dp762
g74
(dp763
g101
g102
ssg83
g753
sg76
(lp764
S':'
asbag69
(g90
g71
NtRp765
(dp766
g74
(dp767
sg83
g753
sg76
(lp768
g69
(g70
g71
NtRp769
(dp770
g74
(dp771
g82
I3
ssg83
g765
sg76
(lp772
S''
asbasbasbag69
(g85
g71
NtRp773
(dp774
g74
(dp775
sg83
g649
sg76
(lp776
g69
(g90
g71
NtRp777
(dp778
g74
(dp779
g94
g95
ssg83
g773
sg76
(lp780
g409
asbag69
(g90
g71
NtRp781
(dp782
g74
(dp783
g101
g102
ssg83
g773
sg76
(lp784
S':'
asbag69
(g90
g71
NtRp785
(dp786
g74
(dp787
sg83
g773
sg76
(lp788
g69
(g70
g71
NtRp789
(dp790
g74
(dp791
g82
I3
ssg83
g785
sg76
(lp792
S''
asbasbasbag69
(g85
g71
NtRp793
(dp794
g74
(dp795
sg83
g649
sg76
(lp796
g69
(g90
g71
NtRp797
(dp798
g74
(dp799
g94
g95
ssg83
g793
sg76
(lp800
g430
asbag69
(g90
g71
NtRp801
(dp802
g74
(dp803
g101
g102
ssg83
g793
sg76
(lp804
S':'
asbag69
(g90
g71
NtRp805
(dp806
g74
(dp807
sg83
g793
sg76
(lp808
g69
(g70
g71
NtRp809
(dp810
g74
(dp811
g82
I3
ssg83
g805
sg76
(lp812
S''
asbasbasbasbasbasbasbag69
(g85
g71
NtRp813
(dp814
g74
(dp815
sg83
g246
sg76
(lp816
g69
(g90
g71
NtRp817
(dp818
g74
(dp819
g94
g95
ssg83
g813
sg76
(lp820
S'session_id_welcome'
p821
asbag69
(g90
g71
NtRp822
(dp823
g74
(dp824
g101
g102
ssg83
g813
sg76
(lp825
S':'
asbag69
(g90
g71
NtRp826
(dp827
g74
(dp828
sg83
g813
sg76
(lp829
g69
(g70
g71
NtRp830
(dp831
g74
(dp832
g82
I4
ssg83
g826
sg76
(lp833
g69
(g78
g71
NtRp834
(dp835
g74
(dp836
g82
I3
ssg83
Nsg76
(lp837
g69
(g85
g71
NtRp838
(dp839
g74
(dp840
sg83
g834
sg76
(lp841
g69
(g90
g71
NtRp842
(dp843
g74
(dp844
g94
g95
ssg83
g838
sg76
(lp845
g283
asbag69
(g90
g71
NtRp846
(dp847
g74
(dp848
g101
g102
ssg83
g838
sg76
(lp849
S':'
asbag69
(g90
g71
NtRp850
(dp851
g74
(dp852
sg83
g838
sg76
(lp853
g69
(g70
g71
NtRp854
(dp855
g74
(dp856
g82
I3
ssg83
g850
sg76
(lp857
S''
asbasbasbag69
(g85
g71
NtRp858
(dp859
g74
(dp860
sg83
g834
sg76
(lp861
g69
(g90
g71
NtRp862
(dp863
g74
(dp864
g94
g95
ssg83
g858
sg76
(lp865
g304
asbag69
(g90
g71
NtRp866
(dp867
g74
(dp868
g101
g102
ssg83
g858
sg76
(lp869
S':'
asbag69
(g90
g71
NtRp870
(dp871
g74
(dp872
sg83
g858
sg76
(lp873
g69
(g70
g71
NtRp874
(dp875
g74
(dp876
g82
I3
ssg83
g870
sg76
(lp877
S''
asbasbasbag69
(g85
g71
NtRp878
(dp879
g74
(dp880
sg83
g834
sg76
(lp881
g69
(g90
g71
NtRp882
(dp883
g74
(dp884
g94
g95
ssg83
g878
sg76
(lp885
g325
asbag69
(g90
g71
NtRp886
(dp887
g74
(dp888
g101
g102
ssg83
g878
sg76
(lp889
S':'
asbag69
(g90
g71
NtRp890
(dp891
g74
(dp892
sg83
g878
sg76
(lp893
g69
(g70
g71
NtRp894
(dp895
g74
(dp896
g82
I3
ssg83
g890
sg76
(lp897
S''
asbasbasbag69
(g85
g71
NtRp898
(dp899
g74
(dp900
sg83
g834
sg76
(lp901
g69
(g90
g71
NtRp902
(dp903
g74
(dp904
g94
g95
ssg83
g898
sg76
(lp905
g346
asbag69
(g90
g71
NtRp906
(dp907
g74
(dp908
g101
g102
ssg83
g898
sg76
(lp909
S':'
asbag69
(g90
g71
NtRp910
(dp911
g74
(dp912
sg83
g898
sg76
(lp913
g69
(g70
g71
NtRp914
(dp915
g74
(dp916
g82
I3
ssg83
g910
sg76
(lp917
S''
asbasbasbag69
(g85
g71
NtRp918
(dp919
g74
(dp920
sg83
g834
sg76
(lp921
g69
(g90
g71
NtRp922
(dp923
g74
(dp924
g94
g95
ssg83
g918
sg76
(lp925
g367
asbag69
(g90
g71
NtRp926
(dp927
g74
(dp928
g101
g102
ssg83
g918
sg76
(lp929
S':'
asbag69
(g90
g71
NtRp930
(dp931
g74
(dp932
sg83
g918
sg76
(lp933
g69
(g70
g71
NtRp934
(dp935
g74
(dp936
g82
I3
ssg83
g930
sg76
(lp937
S''
asbasbasbag69
(g85
g71
NtRp938
(dp939
g74
(dp940
sg83
g834
sg76
(lp941
g69
(g90
g71
NtRp942
(dp943
g74
(dp944
g94
g95
ssg83
g938
sg76
(lp945
g388
asbag69
(g90
g71
NtRp946
(dp947
g74
(dp948
g101
g102
ssg83
g938
sg76
(lp949
S':'
asbag69
(g90
g71
NtRp950
(dp951
g74
(dp952
sg83
g938
sg76
(lp953
g69
(g70
g71
NtRp954
(dp955
g74
(dp956
g82
I3
ssg83
g950
sg76
(lp957
S''
asbasbasbag69
(g85
g71
NtRp958
(dp959
g74
(dp960
sg83
g834
sg76
(lp961
g69
(g90
g71
NtRp962
(dp963
g74
(dp964
g94
g95
ssg83
g958
sg76
(lp965
g409
asbag69
(g90
g71
NtRp966
(dp967
g74
(dp968
g101
g102
ssg83
g958
sg76
(lp969
S':'
asbag69
(g90
g71
NtRp970
(dp971
g74
(dp972
sg83
g958
sg76
(lp973
g69
(g70
g71
NtRp974
(dp975
g74
(dp976
g82
I3
ssg83
g970
sg76
(lp977
S''
asbasbasbag69
(g85
g71
NtRp978
(dp979
g74
(dp980
sg83
g834
sg76
(lp981
g69
(g90
g71
NtRp982
(dp983
g74
(dp984
g94
g95
ssg83
g978
sg76
(lp985
g430
asbag69
(g90
g71
NtRp986
(dp987
g74
(dp988
g101
g102
ssg83
g978
sg76
(lp989
S':'
asbag69
(g90
g71
NtRp990
(dp991
g74
(dp992
sg83
g978
sg76
(lp993
g69
(g70
g71
NtRp994
(dp995
g74
(dp996
g82
I3
ssg83
g990
sg76
(lp997
S''
asbasbasbasbasbasbasbasbasbasbasbag69
(g85
g71
NtRp998
(dp999
g74
(dp1000
sg83
g79
sg76
(lp1001
g69
(g90
g71
NtRp1002
(dp1003
g74
(dp1004
g94
g95
ssg83
g998
sg76
(lp1005
S'env'
p1006
asbag69
(g90
g71
NtRp1007
(dp1008
g74
(dp1009
g101
g102
ssg83
g998
sg76
(lp1010
S':'
asbag69
(g90
g71
NtRp1011
(dp1012
g74
(dp1013
sg83
g998
sg76
(lp1014
g69
(g70
g71
NtRp1015
(dp1016
g74
(dp1017
g82
I5
ssg83
g1011
sg76
(lp1018
g69
(g78
g71
NtRp1019
(dp1020
g74
(dp1021
g82
I4
ssg83
Nsg76
(lp1022
g69
(g85
g71
NtRp1023
(dp1024
g74
(dp1025
sg83
g1019
sg76
(lp1026
g69
(g90
g71
NtRp1027
(dp1028
g74
(dp1029
g94
g95
ssg83
g1023
sg76
(lp1030
S'app_folders'
p1031
asbag69
(g90
g71
NtRp1032
(dp1033
g74
(dp1034
g101
g102
ssg83
g1023
sg76
(lp1035
S':'
asbag69
(g90
g71
NtRp1036
(dp1037
g74
(dp1038
sg83
g1023
sg76
(lp1039
g69
(g70
g71
NtRp1040
(dp1041
g74
(dp1042
g82
I4
ssg83
g1036
sg76
(lp1043
S"set(['/home/ian/web/web2py/applications/welcome/', '/home/ian/web/web2py/applications/paideia/', '/home/ian/web/web2py/applications/admin/'])"
p1044
asbasbasbag69
(g85
g71
NtRp1045
(dp1046
g74
(dp1047
sg83
g1019
sg76
(lp1048
g69
(g90
g71
NtRp1049
(dp1050
g74
(dp1051
g94
g95
ssg83
g1045
sg76
(lp1052
S'applications_parent'
p1053
asbag69
(g90
g71
NtRp1054
(dp1055
g74
(dp1056
g101
g102
ssg83
g1045
sg76
(lp1057
S':'
asbag69
(g90
g71
NtRp1058
(dp1059
g74
(dp1060
sg83
g1045
sg76
(lp1061
g69
(g70
g71
NtRp1062
(dp1063
g74
(dp1064
g82
I4
ssg83
g1058
sg76
(lp1065
S'/home/ian/web/web2py'
p1066
asbasbasbag69
(g85
g71
NtRp1067
(dp1068
g74
(dp1069
sg83
g1019
sg76
(lp1070
g69
(g90
g71
NtRp1071
(dp1072
g74
(dp1073
g94
g95
ssg83
g1067
sg76
(lp1074
S'cmd_args'
p1075
asbag69
(g90
g71
NtRp1076
(dp1077
g74
(dp1078
g101
g102
ssg83
g1067
sg76
(lp1079
S':'
asbag69
(g90
g71
NtRp1080
(dp1081
g74
(dp1082
sg83
g1067
sg76
(lp1083
g69
(g70
g71
NtRp1084
(dp1085
g74
(dp1086
g82
I4
ssg83
g1080
sg76
(lp1087
g69
(g78
g71
NtRp1088
(dp1089
g74
(dp1090
g82
I3
ssg83
Nsg76
(lp1091
sbasbasbasbag69
(g85
g71
NtRp1092
(dp1093
g74
(dp1094
sg83
g1019
sg76
(lp1095
g69
(g90
g71
NtRp1096
(dp1097
g74
(dp1098
g94
g95
ssg83
g1092
sg76
(lp1099
S'cmd_options'
p1100
asbag69
(g90
g71
NtRp1101
(dp1102
g74
(dp1103
g101
g102
ssg83
g1092
sg76
(lp1104
S':'
asbag69
(g90
g71
NtRp1105
(dp1106
g74
(dp1107
sg83
g1092
sg76
(lp1108
g69
(g70
g71
NtRp1109
(dp1110
g74
(dp1111
g82
I4
ssg83
g1105
sg76
(lp1112
S"<Values at 0x1f46710: {'verbose': False, 'ip': '127.0.0.1', 'shutdown_timeout': 5, 'taskbar': False, 'nocron': False, 'pid_filename': 'httpserver.pid', 'maxthreads': None, 'softcron': False, 'server_name': 'Ariel-ubuntu', 'bpython': False, 'nogui': False, 'port': 8000, 'extcron': False, 'debuglevel': 30, 'test': None, 'folder': '/home/ian/web/web2py', 'config': '', 'import_models': False, 'winservice': '', 'shell': None, 'run': '', 'log_filename': 'httpserver.log', 'args': [''], 'socket_timeout': 1, 'ssl_ca_certificate': None, 'scheduler': None, 'profiler_filename': None, 'ssl_private_key': '', 'password': '<ask>', 'request_queue_size': 5, 'ssl_certificate': '', 'cronjob': False, 'numthreads': None, 'quiet': False, 'interfaces': None, 'minthreads': None, 'timeout': 10, 'plain': False, 'nobanner': False}>"
p1113
asbasbasbag69
(g85
g71
NtRp1114
(dp1115
g74
(dp1116
sg83
g1019
sg76
(lp1117
g69
(g90
g71
NtRp1118
(dp1119
g74
(dp1120
g94
g95
ssg83
g1114
sg76
(lp1121
S'db_sessions'
p1122
asbag69
(g90
g71
NtRp1123
(dp1124
g74
(dp1125
g101
g102
ssg83
g1114
sg76
(lp1126
S':'
asbag69
(g90
g71
NtRp1127
(dp1128
g74
(dp1129
sg83
g1114
sg76
(lp1130
g69
(g70
g71
NtRp1131
(dp1132
g74
(dp1133
g82
I4
ssg83
g1127
sg76
(lp1134
S'set([])'
p1135
asbasbasbag69
(g85
g71
NtRp1136
(dp1137
g74
(dp1138
sg83
g1019
sg76
(lp1139
g69
(g90
g71
NtRp1140
(dp1141
g74
(dp1142
g94
g95
ssg83
g1136
sg76
(lp1143
S'debugging'
p1144
asbag69
(g90
g71
NtRp1145
(dp1146
g74
(dp1147
g101
g102
ssg83
g1136
sg76
(lp1148
S':'
asbag69
(g90
g71
NtRp1149
(dp1150
g74
(dp1151
sg83
g1136
sg76
(lp1152
g69
(g70
g71
NtRp1153
(dp1154
g74
(dp1155
g82
I4
ssg83
g1149
sg76
(lp1156
g112
asbasbasbag69
(g85
g71
NtRp1157
(dp1158
g74
(dp1159
sg83
g1019
sg76
(lp1160
g69
(g90
g71
NtRp1161
(dp1162
g74
(dp1163
g94
g95
ssg83
g1157
sg76
(lp1164
S'gluon_parent'
p1165
asbag69
(g90
g71
NtRp1166
(dp1167
g74
(dp1168
g101
g102
ssg83
g1157
sg76
(lp1169
S':'
asbag69
(g90
g71
NtRp1170
(dp1171
g74
(dp1172
sg83
g1157
sg76
(lp1173
g69
(g70
g71
NtRp1174
(dp1175
g74
(dp1176
g82
I4
ssg83
g1170
sg76
(lp1177
S'/home/ian/web/web2py'
p1178
asbasbasbag69
(g85
g71
NtRp1179
(dp1180
g74
(dp1181
sg83
g1019
sg76
(lp1182
g69
(g90
g71
NtRp1183
(dp1184
g74
(dp1185
g94
g95
ssg83
g1179
sg76
(lp1186
S'http_accept'
p1187
asbag69
(g90
g71
NtRp1188
(dp1189
g74
(dp1190
g101
g102
ssg83
g1179
sg76
(lp1191
S':'
asbag69
(g90
g71
NtRp1192
(dp1193
g74
(dp1194
sg83
g1179
sg76
(lp1195
g69
(g70
g71
NtRp1196
(dp1197
g74
(dp1198
g82
I4
ssg83
g1192
sg76
(lp1199
S'text/html,application/xhtml+xml,application/xml;q=0.9,*/*;q=0.8'
p1200
asbasbasbag69
(g85
g71
NtRp1201
(dp1202
g74
(dp1203
sg83
g1019
sg76
(lp1204
g69
(g90
g71
NtRp1205
(dp1206
g74
(dp1207
g94
g95
ssg83
g1201
sg76
(lp1208
S'http_accept_encoding'
p1209
asbag69
(g90
g71
NtRp1210
(dp1211
g74
(dp1212
g101
g102
ssg83
g1201
sg76
(lp1213
S':'
asbag69
(g90
g71
NtRp1214
(dp1215
g74
(dp1216
sg83
g1201
sg76
(lp1217
g69
(g70
g71
NtRp1218
(dp1219
g74
(dp1220
g82
I4
ssg83
g1214
sg76
(lp1221
S'gzip, deflate'
p1222
asbasbasbag69
(g85
g71
NtRp1223
(dp1224
g74
(dp1225
sg83
g1019
sg76
(lp1226
g69
(g90
g71
NtRp1227
(dp1228
g74
(dp1229
g94
g95
ssg83
g1223
sg76
(lp1230
S'http_accept_language'
p1231
asbag69
(g90
g71
NtRp1232
(dp1233
g74
(dp1234
g101
g102
ssg83
g1223
sg76
(lp1235
S':'
asbag69
(g90
g71
NtRp1236
(dp1237
g74
(dp1238
sg83
g1223
sg76
(lp1239
g69
(g70
g71
NtRp1240
(dp1241
g74
(dp1242
g82
I4
ssg83
g1236
sg76
(lp1243
S'en-us,en;q=0.5'
p1244
asbasbasbag69
(g85
g71
NtRp1245
(dp1246
g74
(dp1247
sg83
g1019
sg76
(lp1248
g69
(g90
g71
NtRp1249
(dp1250
g74
(dp1251
g94
g95
ssg83
g1245
sg76
(lp1252
S'http_cache_control'
p1253
asbag69
(g90
g71
NtRp1254
(dp1255
g74
(dp1256
g101
g102
ssg83
g1245
sg76
(lp1257
S':'
asbag69
(g90
g71
NtRp1258
(dp1259
g74
(dp1260
sg83
g1245
sg76
(lp1261
g69
(g70
g71
NtRp1262
(dp1263
g74
(dp1264
g82
I4
ssg83
g1258
sg76
(lp1265
S'max-age=0'
p1266
asbasbasbag69
(g85
g71
NtRp1267
(dp1268
g74
(dp1269
sg83
g1019
sg76
(lp1270
g69
(g90
g71
NtRp1271
(dp1272
g74
(dp1273
g94
g95
ssg83
g1267
sg76
(lp1274
S'http_connection'
p1275
asbag69
(g90
g71
NtRp1276
(dp1277
g74
(dp1278
g101
g102
ssg83
g1267
sg76
(lp1279
S':'
asbag69
(g90
g71
NtRp1280
(dp1281
g74
(dp1282
sg83
g1267
sg76
(lp1283
g69
(g70
g71
NtRp1284
(dp1285
g74
(dp1286
g82
I4
ssg83
g1280
sg76
(lp1287
S'keep-alive'
p1288
asbasbasbag69
(g85
g71
NtRp1289
(dp1290
g74
(dp1291
sg83
g1019
sg76
(lp1292
g69
(g90
g71
NtRp1293
(dp1294
g74
(dp1295
g94
g95
ssg83
g1289
sg76
(lp1296
S'http_cookie'
p1297
asbag69
(g90
g71
NtRp1298
(dp1299
g74
(dp1300
g101
g102
ssg83
g1289
sg76
(lp1301
S':'
asbag69
(g90
g71
NtRp1302
(dp1303
g74
(dp1304
sg83
g1289
sg76
(lp1305
g69
(g70
g71
NtRp1306
(dp1307
g74
(dp1308
g82
I4
ssg83
g1302
sg76
(lp1309
S'__utma_a2a=9789918665.1351576430.1320019504.1320019504.1320019504.1; session_id_topoi=127.0.0.1-36a47132-9f63-403c-93e8-4b961484278b; session_id_welcome=127.0.0.1-b10489a8-ac7a-4740-b2bf-b6201e82b9d2; session_id_paideia=127.0.0.1-6908630b-309c-42d8-85d6-9ab15b9b0f57; session_id_admin=127.0.0.1-92485cf4-0aa8-4de8-aaee-a3f2fd129b23'
p1310
asbasbasbag69
(g85
g71
NtRp1311
(dp1312
g74
(dp1313
sg83
g1019
sg76
(lp1314
g69
(g90
g71
NtRp1315
(dp1316
g74
(dp1317
g94
g95
ssg83
g1311
sg76
(lp1318
S'http_host'
p1319
asbag69
(g90
g71
NtRp1320
(dp1321
g74
(dp1322
g101
g102
ssg83
g1311
sg76
(lp1323
S':'
asbag69
(g90
g71
NtRp1324
(dp1325
g74
(dp1326
sg83
g1311
sg76
(lp1327
g69
(g70
g71
NtRp1328
(dp1329
g74
(dp1330
g82
I4
ssg83
g1324
sg76
(lp1331
S'127.0.0.1:8000'
p1332
asbasbasbag69
(g85
g71
NtRp1333
(dp1334
g74
(dp1335
sg83
g1019
sg76
(lp1336
g69
(g90
g71
NtRp1337
(dp1338
g74
(dp1339
g94
g95
ssg83
g1333
sg76
(lp1340
S'http_user_agent'
p1341
asbag69
(g90
g71
NtRp1342
(dp1343
g74
(dp1344
g101
g102
ssg83
g1333
sg76
(lp1345
S':'
asbag69
(g90
g71
NtRp1346
(dp1347
g74
(dp1348
sg83
g1333
sg76
(lp1349
g69
(g70
g71
NtRp1350
(dp1351
g74
(dp1352
g82
I4
ssg83
g1346
sg76
(lp1353
S'Mozilla/5.0 (X11; Ubuntu; Linux x86_64; rv:11.0) Gecko/20100101 Firefox/11.0'
p1354
asbasbasbag69
(g85
g71
NtRp1355
(dp1356
g74
(dp1357
sg83
g1019
sg76
(lp1358
g69
(g90
g71
NtRp1359
(dp1360
g74
(dp1361
g94
g95
ssg83
g1355
sg76
(lp1362
S'is_jython'
p1363
asbag69
(g90
g71
NtRp1364
(dp1365
g74
(dp1366
g101
g102
ssg83
g1355
sg76
(lp1367
S':'
asbag69
(g90
g71
NtRp1368
(dp1369
g74
(dp1370
sg83
g1355
sg76
(lp1371
g69
(g70
g71
NtRp1372
(dp1373
g74
(dp1374
g82
I4
ssg83
g1368
sg76
(lp1375
g112
asbasbasbag69
(g85
g71
NtRp1376
(dp1377
g74
(dp1378
sg83
g1019
sg76
(lp1379
g69
(g90
g71
NtRp1380
(dp1381
g74
(dp1382
g94
g95
ssg83
g1376
sg76
(lp1383
S'is_pypy'
p1384
asbag69
(g90
g71
NtRp1385
(dp1386
g74
(dp1387
g101
g102
ssg83
g1376
sg76
(lp1388
S':'
asbag69
(g90
g71
NtRp1389
(dp1390
g74
(dp1391
sg83
g1376
sg76
(lp1392
g69
(g70
g71
NtRp1393
(dp1394
g74
(dp1395
g82
I4
ssg83
g1389
sg76
(lp1396
g112
asbasbasbag69
(g85
g71
NtRp1397
(dp1398
g74
(dp1399
sg83
g1019
sg76
(lp1400
g69
(g90
g71
NtRp1401
(dp1402
g74
(dp1403
g94
g95
ssg83
g1397
sg76
(lp1404
S'path_info'
p1405
asbag69
(g90
g71
NtRp1406
(dp1407
g74
(dp1408
g101
g102
ssg83
g1397
sg76
(lp1409
S':'
asbag69
(g90
g71
NtRp1410
(dp1411
g74
(dp1412
sg83
g1397
sg76
(lp1413
g69
(g70
g71
NtRp1414
(dp1415
g74
(dp1416
g82
I4
ssg83
g1410
sg76
(lp1417
S'/paideia/exploring/index.html'
p1418
asbasbasbag69
(g85
g71
NtRp1419
(dp1420
g74
(dp1421
sg83
g1019
sg76
(lp1422
g69
(g90
g71
NtRp1423
(dp1424
g74
(dp1425
g94
g95
ssg83
g1419
sg76
(lp1426
S'query_string'
p1427
asbag69
(g90
g71
NtRp1428
(dp1429
g74
(dp1430
g101
g102
ssg83
g1419
sg76
(lp1431
S':'
asbag69
(g90
g71
NtRp1432
(dp1433
g74
(dp1434
sg83
g1419
sg76
(lp1435
g69
(g70
g71
NtRp1436
(dp1437
g74
(dp1438
g82
I4
ssg83
g1432
sg76
(lp1439
S''
asbasbasbag69
(g85
g71
NtRp1440
(dp1441
g74
(dp1442
sg83
g1019
sg76
(lp1443
g69
(g90
g71
NtRp1444
(dp1445
g74
(dp1446
g94
g95
ssg83
g1440
sg76
(lp1447
S'remote_addr'
p1448
asbag69
(g90
g71
NtRp1449
(dp1450
g74
(dp1451
g101
g102
ssg83
g1440
sg76
(lp1452
S':'
asbag69
(g90
g71
NtRp1453
(dp1454
g74
(dp1455
sg83
g1440
sg76
(lp1456
g69
(g70
g71
NtRp1457
(dp1458
g74
(dp1459
g82
I4
ssg83
g1453
sg76
(lp1460
g202
asbasbasbag69
(g85
g71
NtRp1461
(dp1462
g74
(dp1463
sg83
g1019
sg76
(lp1464
g69
(g90
g71
NtRp1465
(dp1466
g74
(dp1467
g94
g95
ssg83
g1461
sg76
(lp1468
S'remote_port'
p1469
asbag69
(g90
g71
NtRp1470
(dp1471
g74
(dp1472
g101
g102
ssg83
g1461
sg76
(lp1473
S':'
asbag69
(g90
g71
NtRp1474
(dp1475
g74
(dp1476
sg83
g1461
sg76
(lp1477
g69
(g70
g71
NtRp1478
(dp1479
g74
(dp1480
g82
I4
ssg83
g1474
sg76
(lp1481
S'54443'
p1482
asbasbasbag69
(g85
g71
NtRp1483
(dp1484
g74
(dp1485
sg83
g1019
sg76
(lp1486
g69
(g90
g71
NtRp1487
(dp1488
g74
(dp1489
g94
g95
ssg83
g1483
sg76
(lp1490
S'request_method'
p1491
asbag69
(g90
g71
NtRp1492
(dp1493
g74
(dp1494
g101
g102
ssg83
g1483
sg76
(lp1495
S':'
asbag69
(g90
g71
NtRp1496
(dp1497
g74
(dp1498
sg83
g1483
sg76
(lp1499
g69
(g70
g71
NtRp1500
(dp1501
g74
(dp1502
g82
I4
ssg83
g1496
sg76
(lp1503
S'GET'
p1504
asbasbasbag69
(g85
g71
NtRp1505
(dp1506
g74
(dp1507
sg83
g1019
sg76
(lp1508
g69
(g90
g71
NtRp1509
(dp1510
g74
(dp1511
g94
g95
ssg83
g1505
sg76
(lp1512
S'script_name'
p1513
asbag69
(g90
g71
NtRp1514
(dp1515
g74
(dp1516
g101
g102
ssg83
g1505
sg76
(lp1517
S':'
asbag69
(g90
g71
NtRp1518
(dp1519
g74
(dp1520
sg83
g1505
sg76
(lp1521
g69
(g70
g71
NtRp1522
(dp1523
g74
(dp1524
g82
I4
ssg83
g1518
sg76
(lp1525
S''
asbasbasbag69
(g85
g71
NtRp1526
(dp1527
g74
(dp1528
sg83
g1019
sg76
(lp1529
g69
(g90
g71
NtRp1530
(dp1531
g74
(dp1532
g94
g95
ssg83
g1526
sg76
(lp1533
S'server_name'
p1534
asbag69
(g90
g71
NtRp1535
(dp1536
g74
(dp1537
g101
g102
ssg83
g1526
sg76
(lp1538
S':'
asbag69
(g90
g71
NtRp1539
(dp1540
g74
(dp1541
sg83
g1526
sg76
(lp1542
g69
(g70
g71
NtRp1543
(dp1544
g74
(dp1545
g82
I4
ssg83
g1539
sg76
(lp1546
S'Ariel-ubuntu'
p1547
asbasbasbag69
(g85
g71
NtRp1548
(dp1549
g74
(dp1550
sg83
g1019
sg76
(lp1551
g69
(g90
g71
NtRp1552
(dp1553
g74
(dp1554
g94
g95
ssg83
g1548
sg76
(lp1555
S'server_port'
p1556
asbag69
(g90
g71
NtRp1557
(dp1558
g74
(dp1559
g101
g102
ssg83
g1548
sg76
(lp1560
S':'
asbag69
(g90
g71
NtRp1561
(dp1562
g74
(dp1563
sg83
g1548
sg76
(lp1564
g69
(g70
g71
NtRp1565
(dp1566
g74
(dp1567
g82
I4
ssg83
g1561
sg76
(lp1568
S'8000'
p1569
asbasbasbag69
(g85
g71
NtRp1570
(dp1571
g74
(dp1572
sg83
g1019
sg76
(lp1573
g69
(g90
g71
NtRp1574
(dp1575
g74
(dp1576
g94
g95
ssg83
g1570
sg76
(lp1577
S'server_protocol'
p1578
asbag69
(g90
g71
NtRp1579
(dp1580
g74
(dp1581
g101
g102
ssg83
g1570
sg76
(lp1582
S':'
asbag69
(g90
g71
NtRp1583
(dp1584
g74
(dp1585
sg83
g1570
sg76
(lp1586
g69
(g70
g71
NtRp1587
(dp1588
g74
(dp1589
g82
I4
ssg83
g1583
sg76
(lp1590
S'HTTP/1.1'
p1591
asbasbasbag69
(g85
g71
NtRp1592
(dp1593
g74
(dp1594
sg83
g1019
sg76
(lp1595
g69
(g90
g71
NtRp1596
(dp1597
g74
(dp1598
g94
g95
ssg83
g1592
sg76
(lp1599
S'server_software'
p1600
asbag69
(g90
g71
NtRp1601
(dp1602
g74
(dp1603
g101
g102
ssg83
g1592
sg76
(lp1604
S':'
asbag69
(g90
g71
NtRp1605
(dp1606
g74
(dp1607
sg83
g1592
sg76
(lp1608
g69
(g70
g71
NtRp1609
(dp1610
g74
(dp1611
g82
I4
ssg83
g1605
sg76
(lp1612
S'Rocket 1.2.4'
p1613
asbasbasbag69
(g85
g71
NtRp1614
(dp1615
g74
(dp1616
sg83
g1019
sg76
(lp1617
g69
(g90
g71
NtRp1618
(dp1619
g74
(dp1620
g94
g95
ssg83
g1614
sg76
(lp1621
S'web2py_crontype'
p1622
asbag69
(g90
g71
NtRp1623
(dp1624
g74
(dp1625
g101
g102
ssg83
g1614
sg76
(lp1626
S':'
asbag69
(g90
g71
NtRp1627
(dp1628
g74
(dp1629
sg83
g1614
sg76
(lp1630
g69
(g70
g71
NtRp1631
(dp1632
g74
(dp1633
g82
I4
ssg83
g1627
sg76
(lp1634
S'hard'
p1635
asbasbasbag69
(g85
g71
NtRp1636
(dp1637
g74
(dp1638
sg83
g1019
sg76
(lp1639
g69
(g90
g71
NtRp1640
(dp1641
g74
(dp1642
g94
g95
ssg83
g1636
sg76
(lp1643
S'web2py_path'
p1644
asbag69
(g90
g71
NtRp1645
(dp1646
g74
(dp1647
g101
g102
ssg83
g1636
sg76
(lp1648
S':'
asbag69
(g90
g71
NtRp1649
(dp1650
g74
(dp1651
sg83
g1636
sg76
(lp1652
g69
(g70
g71
NtRp1653
(dp1654
g74
(dp1655
g82
I4
ssg83
g1649
sg76
(lp1656
g1066
asbasbasbag69
(g85
g71
NtRp1657
(dp1658
g74
(dp1659
sg83
g1019
sg76
(lp1660
g69
(g90
g71
NtRp1661
(dp1662
g74
(dp1663
g94
g95
ssg83
g1657
sg76
(lp1664
S'web2py_version'
p1665
asbag69
(g90
g71
NtRp1666
(dp1667
g74
(dp1668
g101
g102
ssg83
g1657
sg76
(lp1669
S':'
asbag69
(g90
g71
NtRp1670
(dp1671
g74
(dp1672
sg83
g1657
sg76
(lp1673
g69
(g70
g71
NtRp1674
(dp1675
g74
(dp1676
g82
I4
ssg83
g1670
sg76
(lp1677
g69
(g78
g71
NtRp1678
(dp1679
g74
(dp1680
g82
I3
ssg83
Nsg76
(lp1681
g69
(g85
g71
NtRp1682
(dp1683
g74
(dp1684
sg83
g1678
sg76
(lp1685
g69
(g90
g71
NtRp1686
(dp1687
g74
(dp1688
sg83
g1682
sg76
(lp1689
g69
(g70
g71
NtRp1690
(dp1691
g74
(dp1692
g82
I3
ssg83
g1686
sg76
(lp1693
S'1'
asbasbasbag69
(g85
g71
NtRp1694
(dp1695
g74
(dp1696
sg83
g1678
sg76
(lp1697
g69
(g90
g71
NtRp1698
(dp1699
g74
(dp1700
sg83
g1694
sg76
(lp1701
g69
(g70
g71
NtRp1702
(dp1703
g74
(dp1704
g82
I3
ssg83
g1698
sg76
(lp1705
S'99'
p1706
asbasbasbag69
(g85
g71
NtRp1707
(dp1708
g74
(dp1709
sg83
g1678
sg76
(lp1710
g69
(g90
g71
NtRp1711
(dp1712
g74
(dp1713
sg83
g1707
sg76
(lp1714
g69
(g70
g71
NtRp1715
(dp1716
g74
(dp1717
g82
I3
ssg83
g1711
sg76
(lp1718
S'4'
asbasbasbag69
(g85
g71
NtRp1719
(dp1720
g74
(dp1721
sg83
g1678
sg76
(lp1722
g69
(g90
g71
NtRp1723
(dp1724
g74
(dp1725
sg83
g1719
sg76
(lp1726
g69
(g70
g71
NtRp1727
(dp1728
g74
(dp1729
g82
I3
ssg83
g1723
sg76
(lp1730
S'datetime.datetime(2011, 12, 14, 14, 46, 14)'
p1731
asbasbasbag69
(g85
g71
NtRp1732
(dp1733
g74
(dp1734
sg83
g1678
sg76
(lp1735
g69
(g90
g71
NtRp1736
(dp1737
g74
(dp1738
sg83
g1732
sg76
(lp1739
g69
(g70
g71
NtRp1740
(dp1741
g74
(dp1742
g82
I3
ssg83
g1736
sg76
(lp1743
S'stable'
p1744
asbasbasbasbasbasbasbag69
(g85
g71
NtRp1745
(dp1746
g74
(dp1747
sg83
g1019
sg76
(lp1748
g69
(g90
g71
NtRp1749
(dp1750
g74
(dp1751
g94
g95
ssg83
g1745
sg76
(lp1752
S'wsgi_errors'
p1753
asbag69
(g90
g71
NtRp1754
(dp1755
g74
(dp1756
g101
g102
ssg83
g1745
sg76
(lp1757
S':'
asbag69
(g90
g71
NtRp1758
(dp1759
g74
(dp1760
sg83
g1745
sg76
(lp1761
g69
(g70
g71
NtRp1762
(dp1763
g74
(dp1764
g82
I4
ssg83
g1758
sg76
(lp1765
S"<open file '<stderr>', mode 'w' at 0x7f0f2505c270>"
p1766
asbasbasbag69
(g85
g71
NtRp1767
(dp1768
g74
(dp1769
sg83
g1019
sg76
(lp1770
g69
(g90
g71
NtRp1771
(dp1772
g74
(dp1773
g94
g95
ssg83
g1767
sg76
(lp1774
S'wsgi_file_wrapper'
p1775
asbag69
(g90
g71
NtRp1776
(dp1777
g74
(dp1778
g101
g102
ssg83
g1767
sg76
(lp1779
S':'
asbag69
(g90
g71
NtRp1780
(dp1781
g74
(dp1782
sg83
g1767
sg76
(lp1783
g69
(g70
g71
NtRp1784
(dp1785
g74
(dp1786
g82
I4
ssg83
g1780
sg76
(lp1787
S'<class wsgiref.util.FileWrapper at 0x1e12c80>'
p1788
asbasbasbag69
(g85
g71
NtRp1789
(dp1790
g74
(dp1791
sg83
g1019
sg76
(lp1792
g69
(g90
g71
NtRp1793
(dp1794
g74
(dp1795
g94
g95
ssg83
g1789
sg76
(lp1796
S'wsgi_input'
p1797
asbag69
(g90
g71
NtRp1798
(dp1799
g74
(dp1800
g101
g102
ssg83
g1789
sg76
(lp1801
S':'
asbag69
(g90
g71
NtRp1802
(dp1803
g74
(dp1804
sg83
g1789
sg76
(lp1805
g69
(g70
g71
NtRp1806
(dp1807
g74
(dp1808
g82
I4
ssg83
g1802
sg76
(lp1809
S'<socket._fileobject object at 0x7f0ee407a550>'
p1810
asbasbasbag69
(g85
g71
NtRp1811
(dp1812
g74
(dp1813
sg83
g1019
sg76
(lp1814
g69
(g90
g71
NtRp1815
(dp1816
g74
(dp1817
g94
g95
ssg83
g1811
sg76
(lp1818
S'wsgi_multiprocess'
p1819
asbag69
(g90
g71
NtRp1820
(dp1821
g74
(dp1822
g101
g102
ssg83
g1811
sg76
(lp1823
S':'
asbag69
(g90
g71
NtRp1824
(dp1825
g74
(dp1826
sg83
g1811
sg76
(lp1827
g69
(g70
g71
NtRp1828
(dp1829
g74
(dp1830
g82
I4
ssg83
g1824
sg76
(lp1831
g112
asbasbasbag69
(g85
g71
NtRp1832
(dp1833
g74
(dp1834
sg83
g1019
sg76
(lp1835
g69
(g90
g71
NtRp1836
(dp1837
g74
(dp1838
g94
g95
ssg83
g1832
sg76
(lp1839
S'wsgi_multithread'
p1840
asbag69
(g90
g71
NtRp1841
(dp1842
g74
(dp1843
g101
g102
ssg83
g1832
sg76
(lp1844
S':'
asbag69
(g90
g71
NtRp1845
(dp1846
g74
(dp1847
sg83
g1832
sg76
(lp1848
g69
(g70
g71
NtRp1849
(dp1850
g74
(dp1851
g82
I4
ssg83
g1845
sg76
(lp1852
S'True'
p1853
asbasbasbag69
(g85
g71
NtRp1854
(dp1855
g74
(dp1856
sg83
g1019
sg76
(lp1857
g69
(g90
g71
NtRp1858
(dp1859
g74
(dp1860
g94
g95
ssg83
g1854
sg76
(lp1861
S'wsgi_run_once'
p1862
asbag69
(g90
g71
NtRp1863
(dp1864
g74
(dp1865
g101
g102
ssg83
g1854
sg76
(lp1866
S':'
asbag69
(g90
g71
NtRp1867
(dp1868
g74
(dp1869
sg83
g1854
sg76
(lp1870
g69
(g70
g71
NtRp1871
(dp1872
g74
(dp1873
g82
I4
ssg83
g1867
sg76
(lp1874
g112
asbasbasbag69
(g85
g71
NtRp1875
(dp1876
g74
(dp1877
sg83
g1019
sg76
(lp1878
g69
(g90
g71
NtRp1879
(dp1880
g74
(dp1881
g94
g95
ssg83
g1875
sg76
(lp1882
S'wsgi_url_scheme'
p1883
asbag69
(g90
g71
NtRp1884
(dp1885
g74
(dp1886
g101
g102
ssg83
g1875
sg76
(lp1887
S':'
asbag69
(g90
g71
NtRp1888
(dp1889
g74
(dp1890
sg83
g1875
sg76
(lp1891
g69
(g70
g71
NtRp1892
(dp1893
g74
(dp1894
g82
I4
ssg83
g1888
sg76
(lp1895
S'http'
p1896
asbasbasbag69
(g85
g71
NtRp1897
(dp1898
g74
(dp1899
sg83
g1019
sg76
(lp1900
g69
(g90
g71
NtRp1901
(dp1902
g74
(dp1903
g94
g95
ssg83
g1897
sg76
(lp1904
S'wsgi_version'
p1905
asbag69
(g90
g71
NtRp1906
(dp1907
g74
(dp1908
g101
g102
ssg83
g1897
sg76
(lp1909
S':'
asbag69
(g90
g71
NtRp1910
(dp1911
g74
(dp1912
sg83
g1897
sg76
(lp1913
g69
(g70
g71
NtRp1914
(dp1915
g74
(dp1916
g82
I4
ssg83
g1910
sg76
(lp1917
g69
(g78
g71
NtRp1918
(dp1919
g74
(dp1920
g82
I3
ssg83
Nsg76
(lp1921
g69
(g85
g71
NtRp1922
(dp1923
g74
(dp1924
sg83
g1918
sg76
(lp1925
g69
(g90
g71
NtRp1926
(dp1927
g74
(dp1928
sg83
g1922
sg76
(lp1929
g69
(g70
g71
NtRp1930
(dp1931
g74
(dp1932
g82
I3
ssg83
g1926
sg76
(lp1933
S'1'
asbasbasbag69
(g85
g71
NtRp1934
(dp1935
g74
(dp1936
sg83
g1918
sg76
(lp1937
g69
(g90
g71
NtRp1938
(dp1939
g74
(dp1940
sg83
g1934
sg76
(lp1941
g69
(g70
g71
NtRp1942
(dp1943
g74
(dp1944
g82
I3
ssg83
g1938
sg76
(lp1945
S'0'
asbasbasbasbasbasbasbasbasbasbasbag69
(g85
g71
NtRp1946
(dp1947
g74
(dp1948
sg83
g79
sg76
(lp1949
g69
(g90
g71
NtRp1950
(dp1951
g74
(dp1952
g94
g95
ssg83
g1946
sg76
(lp1953
S'extension'
p1954
asbag69
(g90
g71
NtRp1955
(dp1956
g74
(dp1957
g101
g102
ssg83
g1946
sg76
(lp1958
S':'
asbag69
(g90
g71
NtRp1959
(dp1960
g74
(dp1961
sg83
g1946
sg76
(lp1962
g69
(g70
g71
NtRp1963
(dp1964
g74
(dp1965
g82
I5
ssg83
g1959
sg76
(lp1966
S'html'
p1967
asbasbasbag69
(g85
g71
NtRp1968
(dp1969
g74
(dp1970
sg83
g79
sg76
(lp1971
g69
(g90
g71
NtRp1972
(dp1973
g74
(dp1974
g94
g95
ssg83
g1968
sg76
(lp1975
S'folder'
p1976
asbag69
(g90
g71
NtRp1977
(dp1978
g74
(dp1979
g101
g102
ssg83
g1968
sg76
(lp1980
S':'
asbag69
(g90
g71
NtRp1981
(dp1982
g74
(dp1983
sg83
g1968
sg76
(lp1984
g69
(g70
g71
NtRp1985
(dp1986
g74
(dp1987
g82
I5
ssg83
g1981
sg76
(lp1988
S'/home/ian/web/web2py/applications/paideia/'
p1989
asbasbasbag69
(g85
g71
NtRp1990
(dp1991
g74
(dp1992
sg83
g79
sg76
(lp1993
g69
(g90
g71
NtRp1994
(dp1995
g74
(dp1996
g94
g95
ssg83
g1990
sg76
(lp1997
S'function'
p1998
asbag69
(g90
g71
NtRp1999
(dp2000
g74
(dp2001
g101
g102
ssg83
g1990
sg76
(lp2002
S':'
asbag69
(g90
g71
NtRp2003
(dp2004
g74
(dp2005
sg83
g1990
sg76
(lp2006
g69
(g70
g71
NtRp2007
(dp2008
g74
(dp2009
g82
I5
ssg83
g2003
sg76
(lp2010
S'index'
p2011
asbasbasbag69
(g85
g71
NtRp2012
(dp2013
g74
(dp2014
sg83
g79
sg76
(lp2015
g69
(g90
g71
NtRp2016
(dp2017
g74
(dp2018
g94
g95
ssg83
g2012
sg76
(lp2019
S'get_vars'
p2020
asbag69
(g90
g71
NtRp2021
(dp2022
g74
(dp2023
g101
g102
ssg83
g2012
sg76
(lp2024
S':'
asbag69
(g90
g71
NtRp2025
(dp2026
g74
(dp2027
sg83
g2012
sg76
(lp2028
g69
(g70
g71
NtRp2029
(dp2030
g74
(dp2031
g82
I5
ssg83
g2025
sg76
(lp2032
g69
(g78
g71
NtRp2033
(dp2034
g74
(dp2035
g82
I4
ssg83
Nsg76
(lp2036
sbasbasbasbag69
(g85
g71
NtRp2037
(dp2038
g74
(dp2039
sg83
g79
sg76
(lp2040
g69
(g90
g71
NtRp2041
(dp2042
g74
(dp2043
g94
g95
ssg83
g2037
sg76
(lp2044
S'global_settings'
p2045
asbag69
(g90
g71
NtRp2046
(dp2047
g74
(dp2048
g101
g102
ssg83
g2037
sg76
(lp2049
S':'
asbag69
(g90
g71
NtRp2050
(dp2051
g74
(dp2052
sg83
g2037
sg76
(lp2053
g69
(g70
g71
NtRp2054
(dp2055
g74
(dp2056
g82
I5
ssg83
g2050
sg76
(lp2057
g69
(g78
g71
NtRp2058
(dp2059
g74
(dp2060
g82
I4
ssg83
Nsg76
(lp2061
g69
(g85
g71
NtRp2062
(dp2063
g74
(dp2064
sg83
g2058
sg76
(lp2065
g69
(g90
g71
NtRp2066
(dp2067
g74
(dp2068
g94
g95
ssg83
g2062
sg76
(lp2069
g1031
asbag69
(g90
g71
NtRp2070
(dp2071
g74
(dp2072
g101
g102
ssg83
g2062
sg76
(lp2073
S':'
asbag69
(g90
g71
NtRp2074
(dp2075
g74
(dp2076
sg83
g2062
sg76
(lp2077
g69
(g70
g71
NtRp2078
(dp2079
g74
(dp2080
g82
I4
ssg83
g2074
sg76
(lp2081
S"set(['/home/ian/web/web2py/applications/welcome/', '/home/ian/web/web2py/applications/paideia/', '/home/ian/web/web2py/applications/admin/'])"
p2082
asbasbasbag69
(g85
g71
NtRp2083
(dp2084
g74
(dp2085
sg83
g2058
sg76
(lp2086
g69
(g90
g71
NtRp2087
(dp2088
g74
(dp2089
g94
g95
ssg83
g2083
sg76
(lp2090
g1053
asbag69
(g90
g71
NtRp2091
(dp2092
g74
(dp2093
g101
g102
ssg83
g2083
sg76
(lp2094
S':'
asbag69
(g90
g71
NtRp2095
(dp2096
g74
(dp2097
sg83
g2083
sg76
(lp2098
g69
(g70
g71
NtRp2099
(dp2100
g74
(dp2101
g82
I4
ssg83
g2095
sg76
(lp2102
g1066
asbasbasbag69
(g85
g71
NtRp2103
(dp2104
g74
(dp2105
sg83
g2058
sg76
(lp2106
g69
(g90
g71
NtRp2107
(dp2108
g74
(dp2109
g94
g95
ssg83
g2103
sg76
(lp2110
g1075
asbag69
(g90
g71
NtRp2111
(dp2112
g74
(dp2113
g101
g102
ssg83
g2103
sg76
(lp2114
S':'
asbag69
(g90
g71
NtRp2115
(dp2116
g74
(dp2117
sg83
g2103
sg76
(lp2118
g69
(g70
g71
NtRp2119
(dp2120
g74
(dp2121
g82
I4
ssg83
g2115
sg76
(lp2122
g69
(g78
g71
NtRp2123
(dp2124
g74
(dp2125
g82
I3
ssg83
Nsg76
(lp2126
sbasbasbasbag69
(g85
g71
NtRp2127
(dp2128
g74
(dp2129
sg83
g2058
sg76
(lp2130
g69
(g90
g71
NtRp2131
(dp2132
g74
(dp2133
g94
g95
ssg83
g2127
sg76
(lp2134
g1100
asbag69
(g90
g71
NtRp2135
(dp2136
g74
(dp2137
g101
g102
ssg83
g2127
sg76
(lp2138
S':'
asbag69
(g90
g71
NtRp2139
(dp2140
g74
(dp2141
sg83
g2127
sg76
(lp2142
g69
(g70
g71
NtRp2143
(dp2144
g74
(dp2145
g82
I4
ssg83
g2139
sg76
(lp2146
S"<Values at 0x1f46710: {'verbose': False, 'ip': '127.0.0.1', 'shutdown_timeout': 5, 'taskbar': False, 'nocron': False, 'pid_filename': 'httpserver.pid', 'maxthreads': None, 'softcron': False, 'server_name': 'Ariel-ubuntu', 'bpython': False, 'nogui': False, 'port': 8000, 'extcron': False, 'debuglevel': 30, 'test': None, 'folder': '/home/ian/web/web2py', 'config': '', 'import_models': False, 'winservice': '', 'shell': None, 'run': '', 'log_filename': 'httpserver.log', 'args': [''], 'socket_timeout': 1, 'ssl_ca_certificate': None, 'scheduler': None, 'profiler_filename': None, 'ssl_private_key': '', 'password': '<ask>', 'request_queue_size': 5, 'ssl_certificate': '', 'cronjob': False, 'numthreads': None, 'quiet': False, 'interfaces': None, 'minthreads': None, 'timeout': 10, 'plain': False, 'nobanner': False}>"
p2147
asbasbasbag69
(g85
g71
NtRp2148
(dp2149
g74
(dp2150
sg83
g2058
sg76
(lp2151
g69
(g90
g71
NtRp2152
(dp2153
g74
(dp2154
g94
g95
ssg83
g2148
sg76
(lp2155
g1122
asbag69
(g90
g71
NtRp2156
(dp2157
g74
(dp2158
g101
g102
ssg83
g2148
sg76
(lp2159
S':'
asbag69
(g90
g71
NtRp2160
(dp2161
g74
(dp2162
sg83
g2148
sg76
(lp2163
g69
(g70
g71
NtRp2164
(dp2165
g74
(dp2166
g82
I4
ssg83
g2160
sg76
(lp2167
S'set([])'
p2168
asbasbasbag69
(g85
g71
NtRp2169
(dp2170
g74
(dp2171
sg83
g2058
sg76
(lp2172
g69
(g90
g71
NtRp2173
(dp2174
g74
(dp2175
g94
g95
ssg83
g2169
sg76
(lp2176
g1144
asbag69
(g90
g71
NtRp2177
(dp2178
g74
(dp2179
g101
g102
ssg83
g2169
sg76
(lp2180
S':'
asbag69
(g90
g71
NtRp2181
(dp2182
g74
(dp2183
sg83
g2169
sg76
(lp2184
g69
(g70
g71
NtRp2185
(dp2186
g74
(dp2187
g82
I4
ssg83
g2181
sg76
(lp2188
g112
asbasbasbag69
(g85
g71
NtRp2189
(dp2190
g74
(dp2191
sg83
g2058
sg76
(lp2192
g69
(g90
g71
NtRp2193
(dp2194
g74
(dp2195
g94
g95
ssg83
g2189
sg76
(lp2196
g1165
asbag69
(g90
g71
NtRp2197
(dp2198
g74
(dp2199
g101
g102
ssg83
g2189
sg76
(lp2200
S':'
asbag69
(g90
g71
NtRp2201
(dp2202
g74
(dp2203
sg83
g2189
sg76
(lp2204
g69
(g70
g71
NtRp2205
(dp2206
g74
(dp2207
g82
I4
ssg83
g2201
sg76
(lp2208
g1178
asbasbasbag69
(g85
g71
NtRp2209
(dp2210
g74
(dp2211
sg83
g2058
sg76
(lp2212
g69
(g90
g71
NtRp2213
(dp2214
g74
(dp2215
g94
g95
ssg83
g2209
sg76
(lp2216
g1363
asbag69
(g90
g71
NtRp2217
(dp2218
g74
(dp2219
g101
g102
ssg83
g2209
sg76
(lp2220
S':'
asbag69
(g90
g71
NtRp2221
(dp2222
g74
(dp2223
sg83
g2209
sg76
(lp2224
g69
(g70
g71
NtRp2225
(dp2226
g74
(dp2227
g82
I4
ssg83
g2221
sg76
(lp2228
g112
asbasbasbag69
(g85
g71
NtRp2229
(dp2230
g74
(dp2231
sg83
g2058
sg76
(lp2232
g69
(g90
g71
NtRp2233
(dp2234
g74
(dp2235
g94
g95
ssg83
g2229
sg76
(lp2236
g1384
asbag69
(g90
g71
NtRp2237
(dp2238
g74
(dp2239
g101
g102
ssg83
g2229
sg76
(lp2240
S':'
asbag69
(g90
g71
NtRp2241
(dp2242
g74
(dp2243
sg83
g2229
sg76
(lp2244
g69
(g70
g71
NtRp2245
(dp2246
g74
(dp2247
g82
I4
ssg83
g2241
sg76
(lp2248
g112
asbasbasbag69
(g85
g71
NtRp2249
(dp2250
g74
(dp2251
sg83
g2058
sg76
(lp2252
g69
(g90
g71
NtRp2253
(dp2254
g74
(dp2255
g94
g95
ssg83
g2249
sg76
(lp2256
g1622
asbag69
(g90
g71
NtRp2257
(dp2258
g74
(dp2259
g101
g102
ssg83
g2249
sg76
(lp2260
S':'
asbag69
(g90
g71
NtRp2261
(dp2262
g74
(dp2263
sg83
g2249
sg76
(lp2264
g69
(g70
g71
NtRp2265
(dp2266
g74
(dp2267
g82
I4
ssg83
g2261
sg76
(lp2268
g1635
asbasbasbag69
(g85
g71
NtRp2269
(dp2270
g74
(dp2271
sg83
g2058
sg76
(lp2272
g69
(g90
g71
NtRp2273
(dp2274
g74
(dp2275
g94
g95
ssg83
g2269
sg76
(lp2276
g1665
asbag69
(g90
g71
NtRp2277
(dp2278
g74
(dp2279
g101
g102
ssg83
g2269
sg76
(lp2280
S':'
asbag69
(g90
g71
NtRp2281
(dp2282
g74
(dp2283
sg83
g2269
sg76
(lp2284
g69
(g70
g71
NtRp2285
(dp2286
g74
(dp2287
g82
I4
ssg83
g2281
sg76
(lp2288
g69
(g78
g71
NtRp2289
(dp2290
g74
(dp2291
g82
I3
ssg83
Nsg76
(lp2292
g69
(g85
g71
NtRp2293
(dp2294
g74
(dp2295
sg83
g2289
sg76
(lp2296
g69
(g90
g71
NtRp2297
(dp2298
g74
(dp2299
sg83
g2293
sg76
(lp2300
g69
(g70
g71
NtRp2301
(dp2302
g74
(dp2303
g82
I3
ssg83
g2297
sg76
(lp2304
S'1'
asbasbasbag69
(g85
g71
NtRp2305
(dp2306
g74
(dp2307
sg83
g2289
sg76
(lp2308
g69
(g90
g71
NtRp2309
(dp2310
g74
(dp2311
sg83
g2305
sg76
(lp2312
g69
(g70
g71
NtRp2313
(dp2314
g74
(dp2315
g82
I3
ssg83
g2309
sg76
(lp2316
S'99'
p2317
asbasbasbag69
(g85
g71
NtRp2318
(dp2319
g74
(dp2320
sg83
g2289
sg76
(lp2321
g69
(g90
g71
NtRp2322
(dp2323
g74
(dp2324
sg83
g2318
sg76
(lp2325
g69
(g70
g71
NtRp2326
(dp2327
g74
(dp2328
g82
I3
ssg83
g2322
sg76
(lp2329
S'4'
asbasbasbag69
(g85
g71
NtRp2330
(dp2331
g74
(dp2332
sg83
g2289
sg76
(lp2333
g69
(g90
g71
NtRp2334
(dp2335
g74
(dp2336
sg83
g2330
sg76
(lp2337
g69
(g70
g71
NtRp2338
(dp2339
g74
(dp2340
g82
I3
ssg83
g2334
sg76
(lp2341
S'datetime.datetime(2011, 12, 14, 14, 46, 14)'
p2342
asbasbasbag69
(g85
g71
NtRp2343
(dp2344
g74
(dp2345
sg83
g2289
sg76
(lp2346
g69
(g90
g71
NtRp2347
(dp2348
g74
(dp2349
sg83
g2343
sg76
(lp2350
g69
(g70
g71
NtRp2351
(dp2352
g74
(dp2353
g82
I3
ssg83
g2347
sg76
(lp2354
g1744
asbasbasbasbasbasbasbasbasbasbasbag69
(g85
g71
NtRp2355
(dp2356
g74
(dp2357
sg83
g79
sg76
(lp2358
g69
(g90
g71
NtRp2359
(dp2360
g74
(dp2361
g94
g95
ssg83
g2355
sg76
(lp2362
S'is_https'
p2363
asbag69
(g90
g71
NtRp2364
(dp2365
g74
(dp2366
g101
g102
ssg83
g2355
sg76
(lp2367
S':'
asbag69
(g90
g71
NtRp2368
(dp2369
g74
(dp2370
sg83
g2355
sg76
(lp2371
g69
(g70
g71
NtRp2372
(dp2373
g74
(dp2374
g82
I5
ssg83
g2368
sg76
(lp2375
g112
asbasbasbag69
(g85
g71
NtRp2376
(dp2377
g74
(dp2378
sg83
g79
sg76
(lp2379
g69
(g90
g71
NtRp2380
(dp2381
g74
(dp2382
g94
g95
ssg83
g2376
sg76
(lp2383
S'is_local'
p2384
asbag69
(g90
g71
NtRp2385
(dp2386
g74
(dp2387
g101
g102
ssg83
g2376
sg76
(lp2388
S':'
asbag69
(g90
g71
NtRp2389
(dp2390
g74
(dp2391
sg83
g2376
sg76
(lp2392
g69
(g70
g71
NtRp2393
(dp2394
g74
(dp2395
g82
I5
ssg83
g2389
sg76
(lp2396
g1853
asbasbasbag69
(g85
g71
NtRp2397
(dp2398
g74
(dp2399
sg83
g79
sg76
(lp2400
g69
(g90
g71
NtRp2401
(dp2402
g74
(dp2403
g94
g95
ssg83
g2397
sg76
(lp2404
S'is_restful'
p2405
asbag69
(g90
g71
NtRp2406
(dp2407
g74
(dp2408
g101
g102
ssg83
g2397
sg76
(lp2409
S':'
asbag69
(g90
g71
NtRp2410
(dp2411
g74
(dp2412
sg83
g2397
sg76
(lp2413
g69
(g70
g71
NtRp2414
(dp2415
g74
(dp2416
g82
I5
ssg83
g2410
sg76
(lp2417
g112
asbasbasbag69
(g85
g71
NtRp2418
(dp2419
g74
(dp2420
sg83
g79
sg76
(lp2421
g69
(g90
g71
NtRp2422
(dp2423
g74
(dp2424
g94
g95
ssg83
g2418
sg76
(lp2425
S'now'
p2426
asbag69
(g90
g71
NtRp2427
(dp2428
g74
(dp2429
g101
g102
ssg83
g2418
sg76
(lp2430
S':'
asbag69
(g90
g71
NtRp2431
(dp2432
g74
(dp2433
sg83
g2418
sg76
(lp2434
g69
(g70
g71
NtRp2435
(dp2436
g74
(dp2437
g82
I5
ssg83
g2431
sg76
(lp2438
S'datetime.datetime(2012, 2, 16, 21, 42, 1, 556726)'
p2439
asbasbasbag69
(g85
g71
NtRp2440
(dp2441
g74
(dp2442
sg83
g79
sg76
(lp2443
g69
(g90
g71
NtRp2444
(dp2445
g74
(dp2446
g94
g95
ssg83
g2440
sg76
(lp2447
S'post_vars'
p2448
asbag69
(g90
g71
NtRp2449
(dp2450
g74
(dp2451
g101
g102
ssg83
g2440
sg76
(lp2452
S':'
asbag69
(g90
g71
NtRp2453
(dp2454
g74
(dp2455
sg83
g2440
sg76
(lp2456
g69
(g70
g71
NtRp2457
(dp2458
g74
(dp2459
g82
I5
ssg83
g2453
sg76
(lp2460
g69
(g78
g71
NtRp2461
(dp2462
g74
(dp2463
g82
I4
ssg83
Nsg76
(lp2464
sbasbasbasbag69
(g85
g71
NtRp2465
(dp2466
g74
(dp2467
sg83
g79
sg76
(lp2468
g69
(g90
g71
NtRp2469
(dp2470
g74
(dp2471
g94
g95
ssg83
g2465
sg76
(lp2472
S'raw_extension'
p2473
asbag69
(g90
g71
NtRp2474
(dp2475
g74
(dp2476
g101
g102
ssg83
g2465
sg76
(lp2477
S':'
asbag69
(g90
g71
NtRp2478
(dp2479
g74
(dp2480
sg83
g2465
sg76
(lp2481
g69
(g70
g71
NtRp2482
(dp2483
g74
(dp2484
g82
I5
ssg83
g2478
sg76
(lp2485
g1967
asbasbasbag69
(g85
g71
NtRp2486
(dp2487
g74
(dp2488
sg83
g79
sg76
(lp2489
g69
(g90
g71
NtRp2490
(dp2491
g74
(dp2492
g94
g95
ssg83
g2486
sg76
(lp2493
S'url'
p2494
asbag69
(g90
g71
NtRp2495
(dp2496
g74
(dp2497
g101
g102
ssg83
g2486
sg76
(lp2498
S':'
asbag69
(g90
g71
NtRp2499
(dp2500
g74
(dp2501
sg83
g2486
sg76
(lp2502
g69
(g70
g71
NtRp2503
(dp2504
g74
(dp2505
g82
I5
ssg83
g2499
sg76
(lp2506
S'/paideia/exploring/index.html'
p2507
asbasbasbag69
(g85
g71
NtRp2508
(dp2509
g74
(dp2510
sg83
g79
sg76
(lp2511
g69
(g90
g71
NtRp2512
(dp2513
g74
(dp2514
g94
g95
ssg83
g2508
sg76
(lp2515
S'utcnow'
p2516
asbag69
(g90
g71
NtRp2517
(dp2518
g74
(dp2519
g101
g102
ssg83
g2508
sg76
(lp2520
S':'
asbag69
(g90
g71
NtRp2521
(dp2522
g74
(dp2523
sg83
g2508
sg76
(lp2524
g69
(g70
g71
NtRp2525
(dp2526
g74
(dp2527
g82
I5
ssg83
g2521
sg76
(lp2528
S'datetime.datetime(2012, 2, 17, 2, 42, 1, 556782)'
p2529
asbasbasbag69
(g85
g71
NtRp2530
(dp2531
g74
(dp2532
sg83
g79
sg76
(lp2533
g69
(g90
g71
NtRp2534
(dp2535
g74
(dp2536
g94
g95
ssg83
g2530
sg76
(lp2537
S'uuid'
p2538
asbag69
(g90
g71
NtRp2539
(dp2540
g74
(dp2541
g101
g102
ssg83
g2530
sg76
(lp2542
S':'
asbag69
(g90
g71
NtRp2543
(dp2544
g74
(dp2545
sg83
g2530
sg76
(lp2546
g69
(g70
g71
NtRp2547
(dp2548
g74
(dp2549
g82
I5
ssg83
g2543
sg76
(lp2550
S'paideia/127.0.0.1.2012-02-16.21-42-01.08ff7359-0984-44bd-90e8-c39e90cad04b'
p2551
asbasbasbag69
(g85
g71
NtRp2552
(dp2553
g74
(dp2554
sg83
g79
sg76
(lp2555
g69
(g90
g71
NtRp2556
(dp2557
g74
(dp2558
g94
g95
ssg83
g2552
sg76
(lp2559
S'vars'
p2560
asbag69
(g90
g71
NtRp2561
(dp2562
g74
(dp2563
g101
g102
ssg83
g2552
sg76
(lp2564
S':'
asbag69
(g90
g71
NtRp2565
(dp2566
g74
(dp2567
sg83
g2552
sg76
(lp2568
g69
(g70
g71
NtRp2569
(dp2570
g74
(dp2571
g82
I5
ssg83
g2565
sg76
(lp2572
g69
(g78
g71
NtRp2573
(dp2574
g74
(dp2575
g82
I4
ssg83
Nsg76
(lp2576
sbasbasbasbag69
(g85
g71
NtRp2577
(dp2578
g74
(dp2579
sg83
g79
sg76
(lp2580
g69
(g90
g71
NtRp2581
(dp2582
g74
(dp2583
g94
g95
ssg83
g2577
sg76
(lp2584
S'wsgi'
p2585
asbag69
(g90
g71
NtRp2586
(dp2587
g74
(dp2588
g101
g102
ssg83
g2577
sg76
(lp2589
S':'
asbag69
(g90
g71
NtRp2590
(dp2591
g74
(dp2592
sg83
g2577
sg76
(lp2593
g69
(g70
g71
NtRp2594
(dp2595
g74
(dp2596
g82
I5
ssg83
g2590
sg76
(lp2597
g69
(g78
g71
NtRp2598
(dp2599
g74
(dp2600
g82
I4
ssg83
Nsg76
(lp2601
g69
(g85
g71
NtRp2602
(dp2603
g74
(dp2604
sg83
g2598
sg76
(lp2605
g69
(g90
g71
NtRp2606
(dp2607
g74
(dp2608
g94
g95
ssg83
g2602
sg76
(lp2609
S'environ'
p2610
asbag69
(g90
g71
NtRp2611
(dp2612
g74
(dp2613
g101
g102
ssg83
g2602
sg76
(lp2614
S':'
asbag69
(g90
g71
NtRp2615
(dp2616
g74
(dp2617
sg83
g2602
sg76
(lp2618
g69
(g70
g71
NtRp2619
(dp2620
g74
(dp2621
g82
I4
ssg83
g2615
sg76
(lp2622
g69
(g78
g71
NtRp2623
(dp2624
g74
(dp2625
g82
I3
ssg83
Nsg76
(lp2626
g69
(g85
g71
NtRp2627
(dp2628
g74
(dp2629
sg83
g2623
sg76
(lp2630
g69
(g90
g71
NtRp2631
(dp2632
g74
(dp2633
g94
g95
ssg83
g2627
sg76
(lp2634
S'HTTP_ACCEPT'
p2635
asbag69
(g90
g71
NtRp2636
(dp2637
g74
(dp2638
g101
g102
ssg83
g2627
sg76
(lp2639
S':'
asbag69
(g90
g71
NtRp2640
(dp2641
g74
(dp2642
sg83
g2627
sg76
(lp2643
g69
(g70
g71
NtRp2644
(dp2645
g74
(dp2646
g82
I3
ssg83
g2640
sg76
(lp2647
g1200
asbasbasbag69
(g85
g71
NtRp2648
(dp2649
g74
(dp2650
sg83
g2623
sg76
(lp2651
g69
(g90
g71
NtRp2652
(dp2653
g74
(dp2654
g94
g95
ssg83
g2648
sg76
(lp2655
S'HTTP_ACCEPT_ENCODING'
p2656
asbag69
(g90
g71
NtRp2657
(dp2658
g74
(dp2659
g101
g102
ssg83
g2648
sg76
(lp2660
S':'
asbag69
(g90
g71
NtRp2661
(dp2662
g74
(dp2663
sg83
g2648
sg76
(lp2664
g69
(g70
g71
NtRp2665
(dp2666
g74
(dp2667
g82
I3
ssg83
g2661
sg76
(lp2668
g1222
asbasbasbag69
(g85
g71
NtRp2669
(dp2670
g74
(dp2671
sg83
g2623
sg76
(lp2672
g69
(g90
g71
NtRp2673
(dp2674
g74
(dp2675
g94
g95
ssg83
g2669
sg76
(lp2676
S'HTTP_ACCEPT_LANGUAGE'
p2677
asbag69
(g90
g71
NtRp2678
(dp2679
g74
(dp2680
g101
g102
ssg83
g2669
sg76
(lp2681
S':'
asbag69
(g90
g71
NtRp2682
(dp2683
g74
(dp2684
sg83
g2669
sg76
(lp2685
g69
(g70
g71
NtRp2686
(dp2687
g74
(dp2688
g82
I3
ssg83
g2682
sg76
(lp2689
g1244
asbasbasbag69
(g85
g71
NtRp2690
(dp2691
g74
(dp2692
sg83
g2623
sg76
(lp2693
g69
(g90
g71
NtRp2694
(dp2695
g74
(dp2696
g94
g95
ssg83
g2690
sg76
(lp2697
S'HTTP_CACHE_CONTROL'
p2698
asbag69
(g90
g71
NtRp2699
(dp2700
g74
(dp2701
g101
g102
ssg83
g2690
sg76
(lp2702
S':'
asbag69
(g90
g71
NtRp2703
(dp2704
g74
(dp2705
sg83
g2690
sg76
(lp2706
g69
(g70
g71
NtRp2707
(dp2708
g74
(dp2709
g82
I3
ssg83
g2703
sg76
(lp2710
g1266
asbasbasbag69
(g85
g71
NtRp2711
(dp2712
g74
(dp2713
sg83
g2623
sg76
(lp2714
g69
(g90
g71
NtRp2715
(dp2716
g74
(dp2717
g94
g95
ssg83
g2711
sg76
(lp2718
S'HTTP_CONNECTION'
p2719
asbag69
(g90
g71
NtRp2720
(dp2721
g74
(dp2722
g101
g102
ssg83
g2711
sg76
(lp2723
S':'
asbag69
(g90
g71
NtRp2724
(dp2725
g74
(dp2726
sg83
g2711
sg76
(lp2727
g69
(g70
g71
NtRp2728
(dp2729
g74
(dp2730
g82
I3
ssg83
g2724
sg76
(lp2731
g1288
asbasbasbag69
(g85
g71
NtRp2732
(dp2733
g74
(dp2734
sg83
g2623
sg76
(lp2735
g69
(g90
g71
NtRp2736
(dp2737
g74
(dp2738
g94
g95
ssg83
g2732
sg76
(lp2739
S'HTTP_COOKIE'
p2740
asbag69
(g90
g71
NtRp2741
(dp2742
g74
(dp2743
g101
g102
ssg83
g2732
sg76
(lp2744
S':'
asbag69
(g90
g71
NtRp2745
(dp2746
g74
(dp2747
sg83
g2732
sg76
(lp2748
g69
(g70
g71
NtRp2749
(dp2750
g74
(dp2751
g82
I3
ssg83
g2745
sg76
(lp2752
g1310
asbasbasbag69
(g85
g71
NtRp2753
(dp2754
g74
(dp2755
sg83
g2623
sg76
(lp2756
g69
(g90
g71
NtRp2757
(dp2758
g74
(dp2759
g94
g95
ssg83
g2753
sg76
(lp2760
S'HTTP_HOST'
p2761
asbag69
(g90
g71
NtRp2762
(dp2763
g74
(dp2764
g101
g102
ssg83
g2753
sg76
(lp2765
S':'
asbag69
(g90
g71
NtRp2766
(dp2767
g74
(dp2768
sg83
g2753
sg76
(lp2769
g69
(g70
g71
NtRp2770
(dp2771
g74
(dp2772
g82
I3
ssg83
g2766
sg76
(lp2773
g1332
asbasbasbag69
(g85
g71
NtRp2774
(dp2775
g74
(dp2776
sg83
g2623
sg76
(lp2777
g69
(g90
g71
NtRp2778
(dp2779
g74
(dp2780
g94
g95
ssg83
g2774
sg76
(lp2781
S'HTTP_USER_AGENT'
p2782
asbag69
(g90
g71
NtRp2783
(dp2784
g74
(dp2785
g101
g102
ssg83
g2774
sg76
(lp2786
S':'
asbag69
(g90
g71
NtRp2787
(dp2788
g74
(dp2789
sg83
g2774
sg76
(lp2790
g69
(g70
g71
NtRp2791
(dp2792
g74
(dp2793
g82
I3
ssg83
g2787
sg76
(lp2794
g1354
asbasbasbag69
(g85
g71
NtRp2795
(dp2796
g74
(dp2797
sg83
g2623
sg76
(lp2798
g69
(g90
g71
NtRp2799
(dp2800
g74
(dp2801
g94
g95
ssg83
g2795
sg76
(lp2802
S'PATH_INFO'
p2803
asbag69
(g90
g71
NtRp2804
(dp2805
g74
(dp2806
g101
g102
ssg83
g2795
sg76
(lp2807
S':'
asbag69
(g90
g71
NtRp2808
(dp2809
g74
(dp2810
sg83
g2795
sg76
(lp2811
g69
(g70
g71
NtRp2812
(dp2813
g74
(dp2814
g82
I3
ssg83
g2808
sg76
(lp2815
g1418
asbasbasbag69
(g85
g71
NtRp2816
(dp2817
g74
(dp2818
sg83
g2623
sg76
(lp2819
g69
(g90
g71
NtRp2820
(dp2821
g74
(dp2822
g94
g95
ssg83
g2816
sg76
(lp2823
S'QUERY_STRING'
p2824
asbag69
(g90
g71
NtRp2825
(dp2826
g74
(dp2827
g101
g102
ssg83
g2816
sg76
(lp2828
S':'
asbag69
(g90
g71
NtRp2829
(dp2830
g74
(dp2831
sg83
g2816
sg76
(lp2832
g69
(g70
g71
NtRp2833
(dp2834
g74
(dp2835
g82
I3
ssg83
g2829
sg76
(lp2836
S''
asbasbasbag69
(g85
g71
NtRp2837
(dp2838
g74
(dp2839
sg83
g2623
sg76
(lp2840
g69
(g90
g71
NtRp2841
(dp2842
g74
(dp2843
g94
g95
ssg83
g2837
sg76
(lp2844
S'REMOTE_ADDR'
p2845
asbag69
(g90
g71
NtRp2846
(dp2847
g74
(dp2848
g101
g102
ssg83
g2837
sg76
(lp2849
S':'
asbag69
(g90
g71
NtRp2850
(dp2851
g74
(dp2852
sg83
g2837
sg76
(lp2853
g69
(g70
g71
NtRp2854
(dp2855
g74
(dp2856
g82
I3
ssg83
g2850
sg76
(lp2857
g202
asbasbasbag69
(g85
g71
NtRp2858
(dp2859
g74
(dp2860
sg83
g2623
sg76
(lp2861
g69
(g90
g71
NtRp2862
(dp2863
g74
(dp2864
g94
g95
ssg83
g2858
sg76
(lp2865
S'REMOTE_PORT'
p2866
asbag69
(g90
g71
NtRp2867
(dp2868
g74
(dp2869
g101
g102
ssg83
g2858
sg76
(lp2870
S':'
asbag69
(g90
g71
NtRp2871
(dp2872
g74
(dp2873
sg83
g2858
sg76
(lp2874
g69
(g70
g71
NtRp2875
(dp2876
g74
(dp2877
g82
I3
ssg83
g2871
sg76
(lp2878
g1482
asbasbasbag69
(g85
g71
NtRp2879
(dp2880
g74
(dp2881
sg83
g2623
sg76
(lp2882
g69
(g90
g71
NtRp2883
(dp2884
g74
(dp2885
g94
g95
ssg83
g2879
sg76
(lp2886
S'REQUEST_METHOD'
p2887
asbag69
(g90
g71
NtRp2888
(dp2889
g74
(dp2890
g101
g102
ssg83
g2879
sg76
(lp2891
S':'
asbag69
(g90
g71
NtRp2892
(dp2893
g74
(dp2894
sg83
g2879
sg76
(lp2895
g69
(g70
g71
NtRp2896
(dp2897
g74
(dp2898
g82
I3
ssg83
g2892
sg76
(lp2899
g1504
asbasbasbag69
(g85
g71
NtRp2900
(dp2901
g74
(dp2902
sg83
g2623
sg76
(lp2903
g69
(g90
g71
NtRp2904
(dp2905
g74
(dp2906
g94
g95
ssg83
g2900
sg76
(lp2907
S'SCRIPT_NAME'
p2908
asbag69
(g90
g71
NtRp2909
(dp2910
g74
(dp2911
g101
g102
ssg83
g2900
sg76
(lp2912
S':'
asbag69
(g90
g71
NtRp2913
(dp2914
g74
(dp2915
sg83
g2900
sg76
(lp2916
g69
(g70
g71
NtRp2917
(dp2918
g74
(dp2919
g82
I3
ssg83
g2913
sg76
(lp2920
S''
asbasbasbag69
(g85
g71
NtRp2921
(dp2922
g74
(dp2923
sg83
g2623
sg76
(lp2924
g69
(g90
g71
NtRp2925
(dp2926
g74
(dp2927
g94
g95
ssg83
g2921
sg76
(lp2928
S'SERVER_NAME'
p2929
asbag69
(g90
g71
NtRp2930
(dp2931
g74
(dp2932
g101
g102
ssg83
g2921
sg76
(lp2933
S':'
asbag69
(g90
g71
NtRp2934
(dp2935
g74
(dp2936
sg83
g2921
sg76
(lp2937
g69
(g70
g71
NtRp2938
(dp2939
g74
(dp2940
g82
I3
ssg83
g2934
sg76
(lp2941
g1547
asbasbasbag69
(g85
g71
NtRp2942
(dp2943
g74
(dp2944
sg83
g2623
sg76
(lp2945
g69
(g90
g71
NtRp2946
(dp2947
g74
(dp2948
g94
g95
ssg83
g2942
sg76
(lp2949
S'SERVER_PORT'
p2950
asbag69
(g90
g71
NtRp2951
(dp2952
g74
(dp2953
g101
g102
ssg83
g2942
sg76
(lp2954
S':'
asbag69
(g90
g71
NtRp2955
(dp2956
g74
(dp2957
sg83
g2942
sg76
(lp2958
g69
(g70
g71
NtRp2959
(dp2960
g74
(dp2961
g82
I3
ssg83
g2955
sg76
(lp2962
g1569
asbasbasbag69
(g85
g71
NtRp2963
(dp2964
g74
(dp2965
sg83
g2623
sg76
(lp2966
g69
(g90
g71
NtRp2967
(dp2968
g74
(dp2969
g94
g95
ssg83
g2963
sg76
(lp2970
S'SERVER_PROTOCOL'
p2971
asbag69
(g90
g71
NtRp2972
(dp2973
g74
(dp2974
g101
g102
ssg83
g2963
sg76
(lp2975
S':'
asbag69
(g90
g71
NtRp2976
(dp2977
g74
(dp2978
sg83
g2963
sg76
(lp2979
g69
(g70
g71
NtRp2980
(dp2981
g74
(dp2982
g82
I3
ssg83
g2976
sg76
(lp2983
g1591
asbasbasbag69
(g85
g71
NtRp2984
(dp2985
g74
(dp2986
sg83
g2623
sg76
(lp2987
g69
(g90
g71
NtRp2988
(dp2989
g74
(dp2990
g94
g95
ssg83
g2984
sg76
(lp2991
S'SERVER_SOFTWARE'
p2992
asbag69
(g90
g71
NtRp2993
(dp2994
g74
(dp2995
g101
g102
ssg83
g2984
sg76
(lp2996
S':'
asbag69
(g90
g71
NtRp2997
(dp2998
g74
(dp2999
sg83
g2984
sg76
(lp3000
g69
(g70
g71
NtRp3001
(dp3002
g74
(dp3003
g82
I3
ssg83
g2997
sg76
(lp3004
g1613
asbasbasbag69
(g85
g71
NtRp3005
(dp3006
g74
(dp3007
sg83
g2623
sg76
(lp3008
g69
(g90
g71
NtRp3009
(dp3010
g74
(dp3011
g94
g95
ssg83
g3005
sg76
(lp3012
S'wsgi.errors'
p3013
asbag69
(g90
g71
NtRp3014
(dp3015
g74
(dp3016
g101
g102
ssg83
g3005
sg76
(lp3017
S':'
asbag69
(g90
g71
NtRp3018
(dp3019
g74
(dp3020
sg83
g3005
sg76
(lp3021
g69
(g70
g71
NtRp3022
(dp3023
g74
(dp3024
g82
I3
ssg83
g3018
sg76
(lp3025
S"<open file '<stderr>', mode 'w' at 0x7f0f2505c270>"
p3026
asbasbasbag69
(g85
g71
NtRp3027
(dp3028
g74
(dp3029
sg83
g2623
sg76
(lp3030
g69
(g90
g71
NtRp3031
(dp3032
g74
(dp3033
g94
g95
ssg83
g3027
sg76
(lp3034
S'wsgi.file_wrapper'
p3035
asbag69
(g90
g71
NtRp3036
(dp3037
g74
(dp3038
g101
g102
ssg83
g3027
sg76
(lp3039
S':'
asbag69
(g90
g71
NtRp3040
(dp3041
g74
(dp3042
sg83
g3027
sg76
(lp3043
g69
(g70
g71
NtRp3044
(dp3045
g74
(dp3046
g82
I3
ssg83
g3040
sg76
(lp3047
S'<class wsgiref.util.FileWrapper at 0x1e12c80>'
p3048
asbasbasbag69
(g85
g71
NtRp3049
(dp3050
g74
(dp3051
sg83
g2623
sg76
(lp3052
g69
(g90
g71
NtRp3053
(dp3054
g74
(dp3055
g94
g95
ssg83
g3049
sg76
(lp3056
S'wsgi.input'
p3057
asbag69
(g90
g71
NtRp3058
(dp3059
g74
(dp3060
g101
g102
ssg83
g3049
sg76
(lp3061
S':'
asbag69
(g90
g71
NtRp3062
(dp3063
g74
(dp3064
sg83
g3049
sg76
(lp3065
g69
(g70
g71
NtRp3066
(dp3067
g74
(dp3068
g82
I3
ssg83
g3062
sg76
(lp3069
S'<cStringIO.StringO object at 0x7f0ef44c23e8>'
p3070
asbasbasbag69
(g85
g71
NtRp3071
(dp3072
g74
(dp3073
sg83
g2623
sg76
(lp3074
g69
(g90
g71
NtRp3075
(dp3076
g74
(dp3077
g94
g95
ssg83
g3071
sg76
(lp3078
S'wsgi.multiprocess'
p3079
asbag69
(g90
g71
NtRp3080
(dp3081
g74
(dp3082
g101
g102
ssg83
g3071
sg76
(lp3083
S':'
asbag69
(g90
g71
NtRp3084
(dp3085
g74
(dp3086
sg83
g3071
sg76
(lp3087
g69
(g70
g71
NtRp3088
(dp3089
g74
(dp3090
g82
I3
ssg83
g3084
sg76
(lp3091
g112
asbasbasbag69
(g85
g71
NtRp3092
(dp3093
g74
(dp3094
sg83
g2623
sg76
(lp3095
g69
(g90
g71
NtRp3096
(dp3097
g74
(dp3098
g94
g95
ssg83
g3092
sg76
(lp3099
S'wsgi.multithread'
p3100
asbag69
(g90
g71
NtRp3101
(dp3102
g74
(dp3103
g101
g102
ssg83
g3092
sg76
(lp3104
S':'
asbag69
(g90
g71
NtRp3105
(dp3106
g74
(dp3107
sg83
g3092
sg76
(lp3108
g69
(g70
g71
NtRp3109
(dp3110
g74
(dp3111
g82
I3
ssg83
g3105
sg76
(lp3112
g1853
asbasbasbag69
(g85
g71
NtRp3113
(dp3114
g74
(dp3115
sg83
g2623
sg76
(lp3116
g69
(g90
g71
NtRp3117
(dp3118
g74
(dp3119
g94
g95
ssg83
g3113
sg76
(lp3120
S'wsgi.run_once'
p3121
asbag69
(g90
g71
NtRp3122
(dp3123
g74
(dp3124
g101
g102
ssg83
g3113
sg76
(lp3125
S':'
asbag69
(g90
g71
NtRp3126
(dp3127
g74
(dp3128
sg83
g3113
sg76
(lp3129
g69
(g70
g71
NtRp3130
(dp3131
g74
(dp3132
g82
I3
ssg83
g3126
sg76
(lp3133
g112
asbasbasbag69
(g85
g71
NtRp3134
(dp3135
g74
(dp3136
sg83
g2623
sg76
(lp3137
g69
(g90
g71
NtRp3138
(dp3139
g74
(dp3140
g94
g95
ssg83
g3134
sg76
(lp3141
S'wsgi.url_scheme'
p3142
asbag69
(g90
g71
NtRp3143
(dp3144
g74
(dp3145
g101
g102
ssg83
g3134
sg76
(lp3146
S':'
asbag69
(g90
g71
NtRp3147
(dp3148
g74
(dp3149
sg83
g3134
sg76
(lp3150
g69
(g70
g71
NtRp3151
(dp3152
g74
(dp3153
g82
I3
ssg83
g3147
sg76
(lp3154
g1896
asbasbasbag69
(g85
g71
NtRp3155
(dp3156
g74
(dp3157
sg83
g2623
sg76
(lp3158
g69
(g90
g71
NtRp3159
(dp3160
g74
(dp3161
g94
g95
ssg83
g3155
sg76
(lp3162
S'wsgi.version'
p3163
asbag69
(g90
g71
NtRp3164
(dp3165
g74
(dp3166
g101
g102
ssg83
g3155
sg76
(lp3167
S':'
asbag69
(g90
g71
NtRp3168
(dp3169
g74
(dp3170
sg83
g3155
sg76
(lp3171
g69
(g70
g71
NtRp3172
(dp3173
g74
(dp3174
g82
I3
ssg83
g3168
sg76
(lp3175
S'1'
asbasbasbasbasbasbasbasbasbasbasbasbasbsS'frames'
p3176
(lp3177
(dp3178
S'file'
p3179
S'/home/ian/web/web2py/gluon/restricted.py'
p3180
sS'dump'
p3181
(dp3182
S'code'
p3183
S'\'response.write(\\\'<!DOCTYPE html>\\\\n<html lang="\\\', ...n       -->\\\\n  </body>\\\\n</html>\\\\n\\\', escape=False)\''
p3184
sS'layer'
p3185
S"'/home/ian/web/web2py/applications/paideia/views/exploring/index.html'"
p3186
sS'global compile2'
p3187
S'<function compile2>'
p3188
sS'ccode'
p3189
S'undefined'
p3190
ssS'lnum'
p3191
I203
sS'lines'
p3192
(dp3193
I198
S"    environment['__file__'] = layer"
p3194
sI199
S'    try:'
p3195
sI200
S'        if type(code) == types.CodeType:'
p3196
sI201
S'            ccode = code'
p3197
sI202
S'        else:'
p3198
sI203
S'            ccode = compile2(code,layer)'
p3199
sI204
S'        exec ccode in environment'
p3200
sI205
S'    except HTTP:'
p3201
sI206
S'        raise'
p3202
sI207
S'    except RestrictedError:'
p3203
ssS'call'
p3204
S'(code=\'response.write(\\\'<!DOCTYPE html>\\\\n<html lang="\\\', ...n       -->\\\\n  </body>\\\\n</html>\\\\n\\\', escape=False)\', environment={\'A\': <class \'gluon.html.A\'>, \'AjaxSelect\': <class applications.paideia.modules.plugin_ajaxselect.AjaxSelect>, \'Auth\': <class \'gluon.tools.Auth\'>, \'B\': <class \'gluon.html.B\'>, \'BEAUTIFY\': <class \'gluon.html.BEAUTIFY\'>, \'BODY\': <class \'gluon.html.BODY\'>, \'BR\': <class \'gluon.html.BR\'>, \'BUTTON\': <class \'gluon.html.BUTTON\'>, \'CAT\': <class \'gluon.html.CAT\'>, \'CENTER\': <class \'gluon.html.CENTER\'>, ...}, layer=\'/home/ian/web/web2py/applications/paideia/views/exploring/index.html\')'
p3205
sS'func'
p3206
S'restricted'
p3207
sa(dp3208
g3179
S'/home/ian/web/web2py/gluon/restricted.py'
p3209
sg3181
(dp3210
S'builtincompile'
p3211
S'<built-in function compile>'
p3212
sS'code'
p3213
S'\'response.write(\\\'<!DOCTYPE html>\\\\n<html lang="\\\', ...n       -->\\\\n  </body>\\\\n</html>\\\\n\\\', escape=False)\''
p3214
sS'code.rstrip'
p3215
S'<built-in method rstrip of str object>'
p3216
sS').replace'
p3217
g3190
sS'layer'
p3218
S"'/home/ian/web/web2py/applications/paideia/views/exploring/index.html'"
p3219
ssg3191
I189
sg3192
(dp3220
I192
S'    """'
p3221
sI193
S'    runs code in environment and returns the output. if an exception occurs'
p3222
sI184
S''
sI185
S'def compile2(code,layer):'
p3223
sI186
S'    """'
p3224
sI187
S"    The +'\\n' is necessary else compile fails when code ends in a comment."
p3225
sI188
S'    """'
p3226
sI189
S"    return compile(code.rstrip().replace('\\r\\n','\\n')+'\\n', layer, 'exec')"
p3227
sI190
S''
sI191
S"def restricted(code, environment=None, layer='Unknown'):"
p3228
ssg3204
S'(code=\'response.write(\\\'<!DOCTYPE html>\\\\n<html lang="\\\', ...n       -->\\\\n  </body>\\\\n</html>\\\\n\\\', escape=False)\', layer=\'/home/ian/web/web2py/applications/paideia/views/exploring/index.html\')'
p3229
sg3206
S'compile2'
p3230
sasS'pyver'
p3231
S'Python 2.7.2+: /usr/bin/python2.7'
p3232
sS'session'
p3233
g69
(g70
g71
NtRp3234
(dp3235
g74
(dp3236
sg76
(lp3237
g69
(g78
g71
NtRp3238
(dp3239
g74
(dp3240
g82
I5
ssg83
Nsg76
(lp3241
g69
(g85
g71
NtRp3242
(dp3243
g74
(dp3244
sg83
g3238
sg76
(lp3245
g69
(g90
g71
NtRp3246
(dp3247
g74
(dp3248
g94
g95
ssg83
g3242
sg76
(lp3249
S'auth'
p3250
asbag69
(g90
g71
NtRp3251
(dp3252
g74
(dp3253
g101
g102
ssg83
g3242
sg76
(lp3254
S':'
asbag69
(g90
g71
NtRp3255
(dp3256
g74
(dp3257
sg83
g3242
sg76
(lp3258
g69
(g70
g71
NtRp3259
(dp3260
g74
(dp3261
g82
I5
ssg83
g3255
sg76
(lp3262
g69
(g78
g71
NtRp3263
(dp3264
g74
(dp3265
g82
I4
ssg83
Nsg76
(lp3266
g69
(g85
g71
NtRp3267
(dp3268
g74
(dp3269
sg83
g3263
sg76
(lp3270
g69
(g90
g71
NtRp3271
(dp3272
g74
(dp3273
g94
g95
ssg83
g3267
sg76
(lp3274
S'expiration'
p3275
asbag69
(g90
g71
NtRp3276
(dp3277
g74
(dp3278
g101
g102
ssg83
g3267
sg76
(lp3279
S':'
asbag69
(g90
g71
NtRp3280
(dp3281
g74
(dp3282
sg83
g3267
sg76
(lp3283
g69
(g70
g71
NtRp3284
(dp3285
g74
(dp3286
g82
I4
ssg83
g3280
sg76
(lp3287
S'2592000'
p3288
asbasbasbag69
(g85
g71
NtRp3289
(dp3290
g74
(dp3291
sg83
g3263
sg76
(lp3292
g69
(g90
g71
NtRp3293
(dp3294
g74
(dp3295
g94
g95
ssg83
g3289
sg76
(lp3296
S'hmac_key'
p3297
asbag69
(g90
g71
NtRp3298
(dp3299
g74
(dp3300
g101
g102
ssg83
g3289
sg76
(lp3301
S':'
asbag69
(g90
g71
NtRp3302
(dp3303
g74
(dp3304
sg83
g3289
sg76
(lp3305
g69
(g70
g71
NtRp3306
(dp3307
g74
(dp3308
g82
I4
ssg83
g3302
sg76
(lp3309
S'317e5c42-e8a1-458e-ad94-0802bb66f60b'
p3310
asbasbasbag69
(g85
g71
NtRp3311
(dp3312
g74
(dp3313
sg83
g3263
sg76
(lp3314
g69
(g90
g71
NtRp3315
(dp3316
g74
(dp3317
g94
g95
ssg83
g3311
sg76
(lp3318
S'last_visit'
p3319
asbag69
(g90
g71
NtRp3320
(dp3321
g74
(dp3322
g101
g102
ssg83
g3311
sg76
(lp3323
S':'
asbag69
(g90
g71
NtRp3324
(dp3325
g74
(dp3326
sg83
g3311
sg76
(lp3327
g69
(g70
g71
NtRp3328
(dp3329
g74
(dp3330
g82
I4
ssg83
g3324
sg76
(lp3331
S'datetime.datetime(2012, 2, 16, 21, 13, 31, 449671)'
p3332
asbasbasbag69
(g85
g71
NtRp3333
(dp3334
g74
(dp3335
sg83
g3263
sg76
(lp3336
g69
(g90
g71
NtRp3337
(dp3338
g74
(dp3339
g94
g95
ssg83
g3333
sg76
(lp3340
S'remember'
p3341
asbag69
(g90
g71
NtRp3342
(dp3343
g74
(dp3344
g101
g102
ssg83
g3333
sg76
(lp3345
S':'
asbag69
(g90
g71
NtRp3346
(dp3347
g74
(dp3348
sg83
g3333
sg76
(lp3349
g69
(g70
g71
NtRp3350
(dp3351
g74
(dp3352
g82
I4
ssg83
g3346
sg76
(lp3353
g1853
asbasbasbag69
(g85
g71
NtRp3354
(dp3355
g74
(dp3356
sg83
g3263
sg76
(lp3357
g69
(g90
g71
NtRp3358
(dp3359
g74
(dp3360
g94
g95
ssg83
g3354
sg76
(lp3361
S'user'
p3362
asbag69
(g90
g71
NtRp3363
(dp3364
g74
(dp3365
g101
g102
ssg83
g3354
sg76
(lp3366
S':'
asbag69
(g90
g71
NtRp3367
(dp3368
g74
(dp3369
sg83
g3354
sg76
(lp3370
g69
(g70
g71
NtRp3371
(dp3372
g74
(dp3373
g82
I4
ssg83
g3367
sg76
(lp3374
g69
(g78
g71
NtRp3375
(dp3376
g74
(dp3377
g82
I3
ssg83
Nsg76
(lp3378
g69
(g85
g71
NtRp3379
(dp3380
g74
(dp3381
sg83
g3375
sg76
(lp3382
g69
(g90
g71
NtRp3383
(dp3384
g74
(dp3385
g94
g95
ssg83
g3379
sg76
(lp3386
S'email'
p3387
asbag69
(g90
g71
NtRp3388
(dp3389
g74
(dp3390
g101
g102
ssg83
g3379
sg76
(lp3391
S':'
asbag69
(g90
g71
NtRp3392
(dp3393
g74
(dp3394
sg83
g3379
sg76
(lp3395
g69
(g70
g71
NtRp3396
(dp3397
g74
(dp3398
g82
I3
ssg83
g3392
sg76
(lp3399
S'scottianw@gmail.com'
p3400
asbasbasbag69
(g85
g71
NtRp3401
(dp3402
g74
(dp3403
sg83
g3375
sg76
(lp3404
g69
(g90
g71
NtRp3405
(dp3406
g74
(dp3407
g94
g95
ssg83
g3401
sg76
(lp3408
S'first_name'
p3409
asbag69
(g90
g71
NtRp3410
(dp3411
g74
(dp3412
g101
g102
ssg83
g3401
sg76
(lp3413
S':'
asbag69
(g90
g71
NtRp3414
(dp3415
g74
(dp3416
sg83
g3401
sg76
(lp3417
g69
(g70
g71
NtRp3418
(dp3419
g74
(dp3420
g82
I3
ssg83
g3414
sg76
(lp3421
S'Ian'
p3422
asbasbasbag69
(g85
g71
NtRp3423
(dp3424
g74
(dp3425
sg83
g3375
sg76
(lp3426
g69
(g90
g71
NtRp3427
(dp3428
g74
(dp3429
g94
g95
ssg83
g3423
sg76
(lp3430
S'id'
p3431
asbag69
(g90
g71
NtRp3432
(dp3433
g74
(dp3434
g101
g102
ssg83
g3423
sg76
(lp3435
S':'
asbag69
(g90
g71
NtRp3436
(dp3437
g74
(dp3438
sg83
g3423
sg76
(lp3439
g69
(g70
g71
NtRp3440
(dp3441
g74
(dp3442
g82
I3
ssg83
g3436
sg76
(lp3443
S'2'
asbasbasbag69
(g85
g71
NtRp3444
(dp3445
g74
(dp3446
sg83
g3375
sg76
(lp3447
g69
(g90
g71
NtRp3448
(dp3449
g74
(dp3450
g94
g95
ssg83
g3444
sg76
(lp3451
S'last_name'
p3452
asbag69
(g90
g71
NtRp3453
(dp3454
g74
(dp3455
g101
g102
ssg83
g3444
sg76
(lp3456
S':'
asbag69
(g90
g71
NtRp3457
(dp3458
g74
(dp3459
sg83
g3444
sg76
(lp3460
g69
(g70
g71
NtRp3461
(dp3462
g74
(dp3463
g82
I3
ssg83
g3457
sg76
(lp3464
S'Scott'
p3465
asbasbasbag69
(g85
g71
NtRp3466
(dp3467
g74
(dp3468
sg83
g3375
sg76
(lp3469
g69
(g90
g71
NtRp3470
(dp3471
g74
(dp3472
g94
g95
ssg83
g3466
sg76
(lp3473
S'password'
p3474
asbag69
(g90
g71
NtRp3475
(dp3476
g74
(dp3477
g101
g102
ssg83
g3466
sg76
(lp3478
S':'
asbag69
(g90
g71
NtRp3479
(dp3480
g74
(dp3481
sg83
g3466
sg76
(lp3482
g69
(g70
g71
NtRp3483
(dp3484
g74
(dp3485
g82
I3
ssg83
g3479
sg76
(lp3486
S'19738f1e9a2c8eaac81936a86bf608a1a6995e02f527fa31723cb88a2e513a1efae33471354a02805bf25ea2ea17a59c025a5fc8eca6b3bb2137bda74e538737'
p3487
asbasbasbag69
(g85
g71
NtRp3488
(dp3489
g74
(dp3490
sg83
g3375
sg76
(lp3491
g69
(g90
g71
NtRp3492
(dp3493
g74
(dp3494
g94
g95
ssg83
g3488
sg76
(lp3495
S'registration_id'
p3496
asbag69
(g90
g71
NtRp3497
(dp3498
g74
(dp3499
g101
g102
ssg83
g3488
sg76
(lp3500
S':'
asbag69
(g90
g71
NtRp3501
(dp3502
g74
(dp3503
sg83
g3488
sg76
(lp3504
g69
(g70
g71
NtRp3505
(dp3506
g74
(dp3507
g82
I3
ssg83
g3501
sg76
(lp3508
S'None'
p3509
asbasbasbag69
(g85
g71
NtRp3510
(dp3511
g74
(dp3512
sg83
g3375
sg76
(lp3513
g69
(g90
g71
NtRp3514
(dp3515
g74
(dp3516
g94
g95
ssg83
g3510
sg76
(lp3517
S'registration_key'
p3518
asbag69
(g90
g71
NtRp3519
(dp3520
g74
(dp3521
g101
g102
ssg83
g3510
sg76
(lp3522
S':'
asbag69
(g90
g71
NtRp3523
(dp3524
g74
(dp3525
sg83
g3510
sg76
(lp3526
g69
(g70
g71
NtRp3527
(dp3528
g74
(dp3529
g82
I3
ssg83
g3523
sg76
(lp3530
S''
asbasbasbag69
(g85
g71
NtRp3531
(dp3532
g74
(dp3533
sg83
g3375
sg76
(lp3534
g69
(g90
g71
NtRp3535
(dp3536
g74
(dp3537
g94
g95
ssg83
g3531
sg76
(lp3538
S'reset_password_key'
p3539
asbag69
(g90
g71
NtRp3540
(dp3541
g74
(dp3542
g101
g102
ssg83
g3531
sg76
(lp3543
S':'
asbag69
(g90
g71
NtRp3544
(dp3545
g74
(dp3546
sg83
g3531
sg76
(lp3547
g69
(g70
g71
NtRp3548
(dp3549
g74
(dp3550
g82
I3
ssg83
g3544
sg76
(lp3551
S'1327083713-2cc5b0bb-81c6-473e-adeb-2160a9624c63'
p3552
asbasbasbasbasbasbasbasbasbasbasbag69
(g85
g71
NtRp3553
(dp3554
g74
(dp3555
sg83
g3238
sg76
(lp3556
g69
(g90
g71
NtRp3557
(dp3558
g74
(dp3559
g94
g95
ssg83
g3553
sg76
(lp3560
S'debug'
p3561
asbag69
(g90
g71
NtRp3562
(dp3563
g74
(dp3564
g101
g102
ssg83
g3553
sg76
(lp3565
S':'
asbag69
(g90
g71
NtRp3566
(dp3567
g74
(dp3568
sg83
g3553
sg76
(lp3569
g69
(g70
g71
NtRp3570
(dp3571
g74
(dp3572
g82
I5
ssg83
g3566
sg76
(lp3573
g69
(g78
g71
NtRp3574
(dp3575
g74
(dp3576
g82
I4
ssg83
Nsg76
(lp3577
g69
(g85
g71
NtRp3578
(dp3579
g74
(dp3580
sg83
g3574
sg76
(lp3581
g69
(g90
g71
NtRp3582
(dp3583
g74
(dp3584
g94
g95
ssg83
g3578
sg76
(lp3585
S'2011-10-24'
p3586
asbag69
(g90
g71
NtRp3587
(dp3588
g74
(dp3589
g101
g102
ssg83
g3578
sg76
(lp3590
S':'
asbag69
(g90
g71
NtRp3591
(dp3592
g74
(dp3593
sg83
g3578
sg76
(lp3594
g69
(g70
g71
NtRp3595
(dp3596
g74
(dp3597
g82
I4
ssg83
g3591
sg76
(lp3598
S'8'
asbasbasbag69
(g85
g71
NtRp3599
(dp3600
g74
(dp3601
sg83
g3574
sg76
(lp3602
g69
(g90
g71
NtRp3603
(dp3604
g74
(dp3605
g94
g95
ssg83
g3599
sg76
(lp3606
S'2011-10-25'
p3607
asbag69
(g90
g71
NtRp3608
(dp3609
g74
(dp3610
g101
g102
ssg83
g3599
sg76
(lp3611
S':'
asbag69
(g90
g71
NtRp3612
(dp3613
g74
(dp3614
sg83
g3599
sg76
(lp3615
g69
(g70
g71
NtRp3616
(dp3617
g74
(dp3618
g82
I4
ssg83
g3612
sg76
(lp3619
S'2'
asbasbasbag69
(g85
g71
NtRp3620
(dp3621
g74
(dp3622
sg83
g3574
sg76
(lp3623
g69
(g90
g71
NtRp3624
(dp3625
g74
(dp3626
g94
g95
ssg83
g3620
sg76
(lp3627
S'2011-10-26'
p3628
asbag69
(g90
g71
NtRp3629
(dp3630
g74
(dp3631
g101
g102
ssg83
g3620
sg76
(lp3632
S':'
asbag69
(g90
g71
NtRp3633
(dp3634
g74
(dp3635
sg83
g3620
sg76
(lp3636
g69
(g70
g71
NtRp3637
(dp3638
g74
(dp3639
g82
I4
ssg83
g3633
sg76
(lp3640
S'11'
p3641
asbasbasbag69
(g85
g71
NtRp3642
(dp3643
g74
(dp3644
sg83
g3574
sg76
(lp3645
g69
(g90
g71
NtRp3646
(dp3647
g74
(dp3648
g94
g95
ssg83
g3642
sg76
(lp3649
S'2011-10-31'
p3650
asbag69
(g90
g71
NtRp3651
(dp3652
g74
(dp3653
g101
g102
ssg83
g3642
sg76
(lp3654
S':'
asbag69
(g90
g71
NtRp3655
(dp3656
g74
(dp3657
sg83
g3642
sg76
(lp3658
g69
(g70
g71
NtRp3659
(dp3660
g74
(dp3661
g82
I4
ssg83
g3655
sg76
(lp3662
S'29'
p3663
asbasbasbag69
(g85
g71
NtRp3664
(dp3665
g74
(dp3666
sg83
g3574
sg76
(lp3667
g69
(g90
g71
NtRp3668
(dp3669
g74
(dp3670
g94
g95
ssg83
g3664
sg76
(lp3671
S'2011-11-01'
p3672
asbag69
(g90
g71
NtRp3673
(dp3674
g74
(dp3675
g101
g102
ssg83
g3664
sg76
(lp3676
S':'
asbag69
(g90
g71
NtRp3677
(dp3678
g74
(dp3679
sg83
g3664
sg76
(lp3680
g69
(g70
g71
NtRp3681
(dp3682
g74
(dp3683
g82
I4
ssg83
g3677
sg76
(lp3684
S'11'
p3685
asbasbasbag69
(g85
g71
NtRp3686
(dp3687
g74
(dp3688
sg83
g3574
sg76
(lp3689
g69
(g90
g71
NtRp3690
(dp3691
g74
(dp3692
g94
g95
ssg83
g3686
sg76
(lp3693
S'2011-11-09'
p3694
asbag69
(g90
g71
NtRp3695
(dp3696
g74
(dp3697
g101
g102
ssg83
g3686
sg76
(lp3698
S':'
asbag69
(g90
g71
NtRp3699
(dp3700
g74
(dp3701
sg83
g3686
sg76
(lp3702
g69
(g70
g71
NtRp3703
(dp3704
g74
(dp3705
g82
I4
ssg83
g3699
sg76
(lp3706
S'2'
asbasbasbag69
(g85
g71
NtRp3707
(dp3708
g74
(dp3709
sg83
g3574
sg76
(lp3710
g69
(g90
g71
NtRp3711
(dp3712
g74
(dp3713
g94
g95
ssg83
g3707
sg76
(lp3714
S'2011-11-10'
p3715
asbag69
(g90
g71
NtRp3716
(dp3717
g74
(dp3718
g101
g102
ssg83
g3707
sg76
(lp3719
S':'
asbag69
(g90
g71
NtRp3720
(dp3721
g74
(dp3722
sg83
g3707
sg76
(lp3723
g69
(g70
g71
NtRp3724
(dp3725
g74
(dp3726
g82
I4
ssg83
g3720
sg76
(lp3727
S'14'
p3728
asbasbasbag69
(g85
g71
NtRp3729
(dp3730
g74
(dp3731
sg83
g3574
sg76
(lp3732
g69
(g90
g71
NtRp3733
(dp3734
g74
(dp3735
g94
g95
ssg83
g3729
sg76
(lp3736
S'2011-11-11'
p3737
asbag69
(g90
g71
NtRp3738
(dp3739
g74
(dp3740
g101
g102
ssg83
g3729
sg76
(lp3741
S':'
asbag69
(g90
g71
NtRp3742
(dp3743
g74
(dp3744
sg83
g3729
sg76
(lp3745
g69
(g70
g71
NtRp3746
(dp3747
g74
(dp3748
g82
I4
ssg83
g3742
sg76
(lp3749
S'56'
p3750
asbasbasbag69
(g85
g71
NtRp3751
(dp3752
g74
(dp3753
sg83
g3574
sg76
(lp3754
g69
(g90
g71
NtRp3755
(dp3756
g74
(dp3757
g94
g95
ssg83
g3751
sg76
(lp3758
S'2011-11-12'
p3759
asbag69
(g90
g71
NtRp3760
(dp3761
g74
(dp3762
g101
g102
ssg83
g3751
sg76
(lp3763
S':'
asbag69
(g90
g71
NtRp3764
(dp3765
g74
(dp3766
sg83
g3751
sg76
(lp3767
g69
(g70
g71
NtRp3768
(dp3769
g74
(dp3770
g82
I4
ssg83
g3764
sg76
(lp3771
S'23'
p3772
asbasbasbag69
(g85
g71
NtRp3773
(dp3774
g74
(dp3775
sg83
g3574
sg76
(lp3776
g69
(g90
g71
NtRp3777
(dp3778
g74
(dp3779
g94
g95
ssg83
g3773
sg76
(lp3780
S'2011-11-15'
p3781
asbag69
(g90
g71
NtRp3782
(dp3783
g74
(dp3784
g101
g102
ssg83
g3773
sg76
(lp3785
S':'
asbag69
(g90
g71
NtRp3786
(dp3787
g74
(dp3788
sg83
g3773
sg76
(lp3789
g69
(g70
g71
NtRp3790
(dp3791
g74
(dp3792
g82
I4
ssg83
g3786
sg76
(lp3793
S'10'
p3794
asbasbasbag69
(g85
g71
NtRp3795
(dp3796
g74
(dp3797
sg83
g3574
sg76
(lp3798
g69
(g90
g71
NtRp3799
(dp3800
g74
(dp3801
g94
g95
ssg83
g3795
sg76
(lp3802
S'2011-11-16'
p3803
asbag69
(g90
g71
NtRp3804
(dp3805
g74
(dp3806
g101
g102
ssg83
g3795
sg76
(lp3807
S':'
asbag69
(g90
g71
NtRp3808
(dp3809
g74
(dp3810
sg83
g3795
sg76
(lp3811
g69
(g70
g71
NtRp3812
(dp3813
g74
(dp3814
g82
I4
ssg83
g3808
sg76
(lp3815
S'21'
p3816
asbasbasbag69
(g85
g71
NtRp3817
(dp3818
g74
(dp3819
sg83
g3574
sg76
(lp3820
g69
(g90
g71
NtRp3821
(dp3822
g74
(dp3823
g94
g95
ssg83
g3817
sg76
(lp3824
S'2011-11-25'
p3825
asbag69
(g90
g71
NtRp3826
(dp3827
g74
(dp3828
g101
g102
ssg83
g3817
sg76
(lp3829
S':'
asbag69
(g90
g71
NtRp3830
(dp3831
g74
(dp3832
sg83
g3817
sg76
(lp3833
g69
(g70
g71
NtRp3834
(dp3835
g74
(dp3836
g82
I4
ssg83
g3830
sg76
(lp3837
S'5'
asbasbasbag69
(g85
g71
NtRp3838
(dp3839
g74
(dp3840
sg83
g3574
sg76
(lp3841
g69
(g90
g71
NtRp3842
(dp3843
g74
(dp3844
g94
g95
ssg83
g3838
sg76
(lp3845
S'2012-01-16'
p3846
asbag69
(g90
g71
NtRp3847
(dp3848
g74
(dp3849
g101
g102
ssg83
g3838
sg76
(lp3850
S':'
asbag69
(g90
g71
NtRp3851
(dp3852
g74
(dp3853
sg83
g3838
sg76
(lp3854
g69
(g70
g71
NtRp3855
(dp3856
g74
(dp3857
g82
I4
ssg83
g3851
sg76
(lp3858
S'1'
asbasbasbag69
(g85
g71
NtRp3859
(dp3860
g74
(dp3861
sg83
g3574
sg76
(lp3862
g69
(g90
g71
NtRp3863
(dp3864
g74
(dp3865
g94
g95
ssg83
g3859
sg76
(lp3866
S'2012-01-18'
p3867
asbag69
(g90
g71
NtRp3868
(dp3869
g74
(dp3870
g101
g102
ssg83
g3859
sg76
(lp3871
S':'
asbag69
(g90
g71
NtRp3872
(dp3873
g74
(dp3874
sg83
g3859
sg76
(lp3875
g69
(g70
g71
NtRp3876
(dp3877
g74
(dp3878
g82
I4
ssg83
g3872
sg76
(lp3879
S'2'
asbasbasbag69
(g85
g71
NtRp3880
(dp3881
g74
(dp3882
sg83
g3574
sg76
(lp3883
g69
(g90
g71
NtRp3884
(dp3885
g74
(dp3886
g94
g95
ssg83
g3880
sg76
(lp3887
S'2012-01-20'
p3888
asbag69
(g90
g71
NtRp3889
(dp3890
g74
(dp3891
g101
g102
ssg83
g3880
sg76
(lp3892
S':'
asbag69
(g90
g71
NtRp3893
(dp3894
g74
(dp3895
sg83
g3880
sg76
(lp3896
g69
(g70
g71
NtRp3897
(dp3898
g74
(dp3899
g82
I4
ssg83
g3893
sg76
(lp3900
S'20'
p3901
asbasbasbag69
(g85
g71
NtRp3902
(dp3903
g74
(dp3904
sg83
g3574
sg76
(lp3905
g69
(g90
g71
NtRp3906
(dp3907
g74
(dp3908
g94
g95
ssg83
g3902
sg76
(lp3909
S'2012-01-25'
p3910
asbag69
(g90
g71
NtRp3911
(dp3912
g74
(dp3913
g101
g102
ssg83
g3902
sg76
(lp3914
S':'
asbag69
(g90
g71
NtRp3915
(dp3916
g74
(dp3917
sg83
g3902
sg76
(lp3918
g69
(g70
g71
NtRp3919
(dp3920
g74
(dp3921
g82
I4
ssg83
g3915
sg76
(lp3922
S'7'
asbasbasbag69
(g85
g71
NtRp3923
(dp3924
g74
(dp3925
sg83
g3574
sg76
(lp3926
g69
(g90
g71
NtRp3927
(dp3928
g74
(dp3929
g94
g95
ssg83
g3923
sg76
(lp3930
S'2012-01-27'
p3931
asbag69
(g90
g71
NtRp3932
(dp3933
g74
(dp3934
g101
g102
ssg83
g3923
sg76
(lp3935
S':'
asbag69
(g90
g71
NtRp3936
(dp3937
g74
(dp3938
sg83
g3923
sg76
(lp3939
g69
(g70
g71
NtRp3940
(dp3941
g74
(dp3942
g82
I4
ssg83
g3936
sg76
(lp3943
S'24'
p3944
asbasbasbag69
(g85
g71
NtRp3945
(dp3946
g74
(dp3947
sg83
g3574
sg76
(lp3948
g69
(g90
g71
NtRp3949
(dp3950
g74
(dp3951
g94
g95
ssg83
g3945
sg76
(lp3952
S'2012-02-02'
p3953
asbag69
(g90
g71
NtRp3954
(dp3955
g74
(dp3956
g101
g102
ssg83
g3945
sg76
(lp3957
S':'
asbag69
(g90
g71
NtRp3958
(dp3959
g74
(dp3960
sg83
g3945
sg76
(lp3961
g69
(g70
g71
NtRp3962
(dp3963
g74
(dp3964
g82
I4
ssg83
g3958
sg76
(lp3965
S'22'
p3966
asbasbasbag69
(g85
g71
NtRp3967
(dp3968
g74
(dp3969
sg83
g3574
sg76
(lp3970
g69
(g90
g71
NtRp3971
(dp3972
g74
(dp3973
g94
g95
ssg83
g3967
sg76
(lp3974
S'2012-02-07'
p3975
asbag69
(g90
g71
NtRp3976
(dp3977
g74
(dp3978
g101
g102
ssg83
g3967
sg76
(lp3979
S':'
asbag69
(g90
g71
NtRp3980
(dp3981
g74
(dp3982
sg83
g3967
sg76
(lp3983
g69
(g70
g71
NtRp3984
(dp3985
g74
(dp3986
g82
I4
ssg83
g3980
sg76
(lp3987
S'3'
asbasbasbasbasbasbasbasbasbsS'etype'
p3988
S"<type 'exceptions.SyntaxError'>"
p3989
sS'date'
p3990
S'Thu Feb 16 21:42:01 2012'
p3991
sS'response'
p3992
g69
(g70
g71
NtRp3993
(dp3994
g74
(dp3995
sg76
(lp3996
g69
(g78
g71
NtRp3997
(dp3998
g74
(dp3999
g82
I5
ssg83
Nsg76
(lp4000
g69
(g85
g71
NtRp4001
(dp4002
g74
(dp4003
sg83
g3997
sg76
(lp4004
g69
(g90
g71
NtRp4005
(dp4006
g74
(dp4007
g94
g95
ssg83
g4001
sg76
(lp4008
g167
asbag69
(g90
g71
NtRp4009
(dp4010
g74
(dp4011
g101
g102
ssg83
g4001
sg76
(lp4012
S':'
asbag69
(g90
g71
NtRp4013
(dp4014
g74
(dp4015
sg83
g4001
sg76
(lp4016
g69
(g70
g71
NtRp4017
(dp4018
g74
(dp4019
g82
I5
ssg83
g4013
sg76
(lp4020
S'<cStringIO.StringO object at 0x7f0ef44c2260>'
p4021
asbasbasbag69
(g85
g71
NtRp4022
(dp4023
g74
(dp4024
sg83
g3997
sg76
(lp4025
g69
(g90
g71
NtRp4026
(dp4027
g74
(dp4028
g94
g95
ssg83
g4022
sg76
(lp4029
g233
asbag69
(g90
g71
NtRp4030
(dp4031
g74
(dp4032
g101
g102
ssg83
g4022
sg76
(lp4033
S':'
asbag69
(g90
g71
NtRp4034
(dp4035
g74
(dp4036
sg83
g4022
sg76
(lp4037
g69
(g70
g71
NtRp4038
(dp4039
g74
(dp4040
g82
I5
ssg83
g4034
sg76
(lp4041
g69
(g78
g71
NtRp4042
(dp4043
g74
(dp4044
g82
I4
ssg83
Nsg76
(lp4045
g69
(g85
g71
NtRp4046
(dp4047
g74
(dp4048
sg83
g4042
sg76
(lp4049
g69
(g90
g71
NtRp4050
(dp4051
g74
(dp4052
g94
g95
ssg83
g4046
sg76
(lp4053
S'session_id_paideia'
p4054
asbag69
(g90
g71
NtRp4055
(dp4056
g74
(dp4057
g101
g102
ssg83
g4046
sg76
(lp4058
S':'
asbag69
(g90
g71
NtRp4059
(dp4060
g74
(dp4061
sg83
g4046
sg76
(lp4062
g69
(g70
g71
NtRp4063
(dp4064
g74
(dp4065
g82
I4
ssg83
g4059
sg76
(lp4066
g69
(g78
g71
NtRp4067
(dp4068
g74
(dp4069
g82
I3
ssg83
Nsg76
(lp4070
g69
(g85
g71
NtRp4071
(dp4072
g74
(dp4073
sg83
g4067
sg76
(lp4074
g69
(g90
g71
NtRp4075
(dp4076
g74
(dp4077
g94
g95
ssg83
g4071
sg76
(lp4078
g283
asbag69
(g90
g71
NtRp4079
(dp4080
g74
(dp4081
g101
g102
ssg83
g4071
sg76
(lp4082
S':'
asbag69
(g90
g71
NtRp4083
(dp4084
g74
(dp4085
sg83
g4071
sg76
(lp4086
g69
(g70
g71
NtRp4087
(dp4088
g74
(dp4089
g82
I3
ssg83
g4083
sg76
(lp4090
S''
asbasbasbag69
(g85
g71
NtRp4091
(dp4092
g74
(dp4093
sg83
g4067
sg76
(lp4094
g69
(g90
g71
NtRp4095
(dp4096
g74
(dp4097
g94
g95
ssg83
g4091
sg76
(lp4098
g304
asbag69
(g90
g71
NtRp4099
(dp4100
g74
(dp4101
g101
g102
ssg83
g4091
sg76
(lp4102
S':'
asbag69
(g90
g71
NtRp4103
(dp4104
g74
(dp4105
sg83
g4091
sg76
(lp4106
g69
(g70
g71
NtRp4107
(dp4108
g74
(dp4109
g82
I3
ssg83
g4103
sg76
(lp4110
S''
asbasbasbag69
(g85
g71
NtRp4111
(dp4112
g74
(dp4113
sg83
g4067
sg76
(lp4114
g69
(g90
g71
NtRp4115
(dp4116
g74
(dp4117
g94
g95
ssg83
g4111
sg76
(lp4118
g325
asbag69
(g90
g71
NtRp4119
(dp4120
g74
(dp4121
g101
g102
ssg83
g4111
sg76
(lp4122
S':'
asbag69
(g90
g71
NtRp4123
(dp4124
g74
(dp4125
sg83
g4111
sg76
(lp4126
g69
(g70
g71
NtRp4127
(dp4128
g74
(dp4129
g82
I3
ssg83
g4123
sg76
(lp4130
S'2592000'
p4131
asbasbasbag69
(g85
g71
NtRp4132
(dp4133
g74
(dp4134
sg83
g4067
sg76
(lp4135
g69
(g90
g71
NtRp4136
(dp4137
g74
(dp4138
g94
g95
ssg83
g4132
sg76
(lp4139
g346
asbag69
(g90
g71
NtRp4140
(dp4141
g74
(dp4142
g101
g102
ssg83
g4132
sg76
(lp4143
S':'
asbag69
(g90
g71
NtRp4144
(dp4145
g74
(dp4146
sg83
g4132
sg76
(lp4147
g69
(g70
g71
NtRp4148
(dp4149
g74
(dp4150
g82
I3
ssg83
g4144
sg76
(lp4151
S''
asbasbasbag69
(g85
g71
NtRp4152
(dp4153
g74
(dp4154
sg83
g4067
sg76
(lp4155
g69
(g90
g71
NtRp4156
(dp4157
g74
(dp4158
g94
g95
ssg83
g4152
sg76
(lp4159
g367
asbag69
(g90
g71
NtRp4160
(dp4161
g74
(dp4162
g101
g102
ssg83
g4152
sg76
(lp4163
S':'
asbag69
(g90
g71
NtRp4164
(dp4165
g74
(dp4166
sg83
g4152
sg76
(lp4167
g69
(g70
g71
NtRp4168
(dp4169
g74
(dp4170
g82
I3
ssg83
g4164
sg76
(lp4171
S''
asbasbasbag69
(g85
g71
NtRp4172
(dp4173
g74
(dp4174
sg83
g4067
sg76
(lp4175
g69
(g90
g71
NtRp4176
(dp4177
g74
(dp4178
g94
g95
ssg83
g4172
sg76
(lp4179
g388
asbag69
(g90
g71
NtRp4180
(dp4181
g74
(dp4182
g101
g102
ssg83
g4172
sg76
(lp4183
S':'
asbag69
(g90
g71
NtRp4184
(dp4185
g74
(dp4186
sg83
g4172
sg76
(lp4187
g69
(g70
g71
NtRp4188
(dp4189
g74
(dp4190
g82
I3
ssg83
g4184
sg76
(lp4191
S'/'
asbasbasbag69
(g85
g71
NtRp4192
(dp4193
g74
(dp4194
sg83
g4067
sg76
(lp4195
g69
(g90
g71
NtRp4196
(dp4197
g74
(dp4198
g94
g95
ssg83
g4192
sg76
(lp4199
g409
asbag69
(g90
g71
NtRp4200
(dp4201
g74
(dp4202
g101
g102
ssg83
g4192
sg76
(lp4203
S':'
asbag69
(g90
g71
NtRp4204
(dp4205
g74
(dp4206
sg83
g4192
sg76
(lp4207
g69
(g70
g71
NtRp4208
(dp4209
g74
(dp4210
g82
I3
ssg83
g4204
sg76
(lp4211
S''
asbasbasbag69
(g85
g71
NtRp4212
(dp4213
g74
(dp4214
sg83
g4067
sg76
(lp4215
g69
(g90
g71
NtRp4216
(dp4217
g74
(dp4218
g94
g95
ssg83
g4212
sg76
(lp4219
g430
asbag69
(g90
g71
NtRp4220
(dp4221
g74
(dp4222
g101
g102
ssg83
g4212
sg76
(lp4223
S':'
asbag69
(g90
g71
NtRp4224
(dp4225
g74
(dp4226
sg83
g4212
sg76
(lp4227
g69
(g70
g71
NtRp4228
(dp4229
g74
(dp4230
g82
I3
ssg83
g4224
sg76
(lp4231
S''
asbasbasbasbasbasbasbasbasbasbasbag69
(g85
g71
NtRp4232
(dp4233
g74
(dp4234
sg83
g3997
sg76
(lp4235
g69
(g90
g71
NtRp4236
(dp4237
g74
(dp4238
g94
g95
ssg83
g4232
sg76
(lp4239
S'files'
p4240
asbag69
(g90
g71
NtRp4241
(dp4242
g74
(dp4243
g101
g102
ssg83
g4232
sg76
(lp4244
S':'
asbag69
(g90
g71
NtRp4245
(dp4246
g74
(dp4247
sg83
g4232
sg76
(lp4248
g69
(g70
g71
NtRp4249
(dp4250
g74
(dp4251
g82
I5
ssg83
g4245
sg76
(lp4252
g69
(g78
g71
NtRp4253
(dp4254
g74
(dp4255
g82
I4
ssg83
Nsg76
(lp4256
sbasbasbasbag69
(g85
g71
NtRp4257
(dp4258
g74
(dp4259
sg83
g3997
sg76
(lp4260
g69
(g90
g71
NtRp4261
(dp4262
g74
(dp4263
g94
g95
ssg83
g4257
sg76
(lp4264
S'flash'
p4265
asbag69
(g90
g71
NtRp4266
(dp4267
g74
(dp4268
g101
g102
ssg83
g4257
sg76
(lp4269
S':'
asbag69
(g90
g71
NtRp4270
(dp4271
g74
(dp4272
sg83
g4257
sg76
(lp4273
g69
(g70
g71
NtRp4274
(dp4275
g74
(dp4276
g82
I5
ssg83
g4270
sg76
(lp4277
S''
asbasbasbag69
(g85
g71
NtRp4278
(dp4279
g74
(dp4280
sg83
g3997
sg76
(lp4281
g69
(g90
g71
NtRp4282
(dp4283
g74
(dp4284
g94
g95
ssg83
g4278
sg76
(lp4285
S'generic_patterns'
p4286
asbag69
(g90
g71
NtRp4287
(dp4288
g74
(dp4289
g101
g102
ssg83
g4278
sg76
(lp4290
S':'
asbag69
(g90
g71
NtRp4291
(dp4292
g74
(dp4293
sg83
g4278
sg76
(lp4294
g69
(g70
g71
NtRp4295
(dp4296
g74
(dp4297
g82
I5
ssg83
g4291
sg76
(lp4298
g69
(g78
g71
NtRp4299
(dp4300
g74
(dp4301
g82
I4
ssg83
Nsg76
(lp4302
g69
(g85
g71
NtRp4303
(dp4304
g74
(dp4305
sg83
g4299
sg76
(lp4306
g69
(g90
g71
NtRp4307
(dp4308
g74
(dp4309
sg83
g4303
sg76
(lp4310
g69
(g70
g71
NtRp4311
(dp4312
g74
(dp4313
g82
I4
ssg83
g4307
sg76
(lp4314
S'*'
asbasbasbasbasbasbasbag69
(g85
g71
NtRp4315
(dp4316
g74
(dp4317
sg83
g3997
sg76
(lp4318
g69
(g90
g71
NtRp4319
(dp4320
g74
(dp4321
g94
g95
ssg83
g4315
sg76
(lp4322
S'headers'
p4323
asbag69
(g90
g71
NtRp4324
(dp4325
g74
(dp4326
g101
g102
ssg83
g4315
sg76
(lp4327
S':'
asbag69
(g90
g71
NtRp4328
(dp4329
g74
(dp4330
sg83
g4315
sg76
(lp4331
g69
(g70
g71
NtRp4332
(dp4333
g74
(dp4334
g82
I5
ssg83
g4328
sg76
(lp4335
g69
(g78
g71
NtRp4336
(dp4337
g74
(dp4338
g82
I4
ssg83
Nsg76
(lp4339
g69
(g85
g71
NtRp4340
(dp4341
g74
(dp4342
sg83
g4336
sg76
(lp4343
g69
(g90
g71
NtRp4344
(dp4345
g74
(dp4346
g94
g95
ssg83
g4340
sg76
(lp4347
S'Cache-Control'
p4348
asbag69
(g90
g71
NtRp4349
(dp4350
g74
(dp4351
g101
g102
ssg83
g4340
sg76
(lp4352
S':'
asbag69
(g90
g71
NtRp4353
(dp4354
g74
(dp4355
sg83
g4340
sg76
(lp4356
g69
(g70
g71
NtRp4357
(dp4358
g74
(dp4359
g82
I4
ssg83
g4353
sg76
(lp4360
S'no-store, no-cache, must-revalidate, post-check=0, pre-check=0'
p4361
asbasbasbag69
(g85
g71
NtRp4362
(dp4363
g74
(dp4364
sg83
g4336
sg76
(lp4365
g69
(g90
g71
NtRp4366
(dp4367
g74
(dp4368
g94
g95
ssg83
g4362
sg76
(lp4369
S'Content-Type'
p4370
asbag69
(g90
g71
NtRp4371
(dp4372
g74
(dp4373
g101
g102
ssg83
g4362
sg76
(lp4374
S':'
asbag69
(g90
g71
NtRp4375
(dp4376
g74
(dp4377
sg83
g4362
sg76
(lp4378
g69
(g70
g71
NtRp4379
(dp4380
g74
(dp4381
g82
I4
ssg83
g4375
sg76
(lp4382
S'text/html; charset=utf-8'
p4383
asbasbasbag69
(g85
g71
NtRp4384
(dp4385
g74
(dp4386
sg83
g4336
sg76
(lp4387
g69
(g90
g71
NtRp4388
(dp4389
g74
(dp4390
g94
g95
ssg83
g4384
sg76
(lp4391
S'Expires'
p4392
asbag69
(g90
g71
NtRp4393
(dp4394
g74
(dp4395
g101
g102
ssg83
g4384
sg76
(lp4396
S':'
asbag69
(g90
g71
NtRp4397
(dp4398
g74
(dp4399
sg83
g4384
sg76
(lp4400
g69
(g70
g71
NtRp4401
(dp4402
g74
(dp4403
g82
I4
ssg83
g4397
sg76
(lp4404
S'Fri, 17 Feb 2012 02:42:01 GMT'
p4405
asbasbasbag69
(g85
g71
NtRp4406
(dp4407
g74
(dp4408
sg83
g4336
sg76
(lp4409
g69
(g90
g71
NtRp4410
(dp4411
g74
(dp4412
g94
g95
ssg83
g4406
sg76
(lp4413
S'Pragma'
p4414
asbag69
(g90
g71
NtRp4415
(dp4416
g74
(dp4417
g101
g102
ssg83
g4406
sg76
(lp4418
S':'
asbag69
(g90
g71
NtRp4419
(dp4420
g74
(dp4421
sg83
g4406
sg76
(lp4422
g69
(g70
g71
NtRp4423
(dp4424
g74
(dp4425
g82
I4
ssg83
g4419
sg76
(lp4426
S'no-cache'
p4427
asbasbasbag69
(g85
g71
NtRp4428
(dp4429
g74
(dp4430
sg83
g4336
sg76
(lp4431
g69
(g90
g71
NtRp4432
(dp4433
g74
(dp4434
g94
g95
ssg83
g4428
sg76
(lp4435
S'X-Powered-By'
p4436
asbag69
(g90
g71
NtRp4437
(dp4438
g74
(dp4439
g101
g102
ssg83
g4428
sg76
(lp4440
S':'
asbag69
(g90
g71
NtRp4441
(dp4442
g74
(dp4443
sg83
g4428
sg76
(lp4444
g69
(g70
g71
NtRp4445
(dp4446
g74
(dp4447
g82
I4
ssg83
g4441
sg76
(lp4448
S'web2py'
p4449
asbasbasbasbasbasbasbag69
(g85
g71
NtRp4450
(dp4451
g74
(dp4452
sg83
g3997
sg76
(lp4453
g69
(g90
g71
NtRp4454
(dp4455
g74
(dp4456
g94
g95
ssg83
g4450
sg76
(lp4457
S'menu'
p4458
asbag69
(g90
g71
NtRp4459
(dp4460
g74
(dp4461
g101
g102
ssg83
g4450
sg76
(lp4462
S':'
asbag69
(g90
g71
NtRp4463
(dp4464
g74
(dp4465
sg83
g4450
sg76
(lp4466
g69
(g70
g71
NtRp4467
(dp4468
g74
(dp4469
g82
I5
ssg83
g4463
sg76
(lp4470
g69
(g78
g71
NtRp4471
(dp4472
g74
(dp4473
g82
I4
ssg83
Nsg76
(lp4474
g69
(g85
g71
NtRp4475
(dp4476
g74
(dp4477
sg83
g4471
sg76
(lp4478
g69
(g90
g71
NtRp4479
(dp4480
g74
(dp4481
sg83
g4475
sg76
(lp4482
g69
(g70
g71
NtRp4483
(dp4484
g74
(dp4485
g82
I4
ssg83
g4479
sg76
(lp4486
g69
(g78
g71
NtRp4487
(dp4488
g74
(dp4489
g82
I3
ssg83
Nsg76
(lp4490
g69
(g85
g71
NtRp4491
(dp4492
g74
(dp4493
sg83
g4487
sg76
(lp4494
g69
(g90
g71
NtRp4495
(dp4496
g74
(dp4497
sg83
g4491
sg76
(lp4498
g69
(g70
g71
NtRp4499
(dp4500
g74
(dp4501
g82
I3
ssg83
g4495
sg76
(lp4502
cgluon.languages
lazyT_unpickle
p4503
(S't\x04\x00\x00\x00Home'
tRp4504
asbasbasbag69
(g85
g71
NtRp4505
(dp4506
g74
(dp4507
sg83
g4487
sg76
(lp4508
g69
(g90
g71
NtRp4509
(dp4510
g74
(dp4511
sg83
g4505
sg76
(lp4512
g69
(g70
g71
NtRp4513
(dp4514
g74
(dp4515
g82
I3
ssg83
g4509
sg76
(lp4516
g112
asbasbasbag69
(g85
g71
NtRp4517
(dp4518
g74
(dp4519
sg83
g4487
sg76
(lp4520
g69
(g90
g71
NtRp4521
(dp4522
g74
(dp4523
sg83
g4517
sg76
(lp4524
g69
(g70
g71
NtRp4525
(dp4526
g74
(dp4527
g82
I3
ssg83
g4521
sg76
(lp4528
S'/paideia/default/index'
p4529
asbasbasbag69
(g85
g71
NtRp4530
(dp4531
g74
(dp4532
sg83
g4487
sg76
(lp4533
g69
(g90
g71
NtRp4534
(dp4535
g74
(dp4536
sg83
g4530
sg76
(lp4537
g69
(g70
g71
NtRp4538
(dp4539
g74
(dp4540
g82
I3
ssg83
g4534
sg76
(lp4541
g69
(g78
g71
NtRp4542
(dp4543
g74
(dp4544
g82
I2
ssg83
Nsg76
(lp4545
sbasbasbasbasbasbasbasbag69
(g85
g71
NtRp4546
(dp4547
g74
(dp4548
sg83
g4471
sg76
(lp4549
g69
(g90
g71
NtRp4550
(dp4551
g74
(dp4552
sg83
g4546
sg76
(lp4553
g69
(g70
g71
NtRp4554
(dp4555
g74
(dp4556
g82
I4
ssg83
g4550
sg76
(lp4557
g69
(g78
g71
NtRp4558
(dp4559
g74
(dp4560
g82
I3
ssg83
Nsg76
(lp4561
g69
(g85
g71
NtRp4562
(dp4563
g74
(dp4564
sg83
g4558
sg76
(lp4565
g69
(g90
g71
NtRp4566
(dp4567
g74
(dp4568
sg83
g4562
sg76
(lp4569
g69
(g70
g71
NtRp4570
(dp4571
g74
(dp4572
g82
I3
ssg83
g4566
sg76
(lp4573
g4503
(S't\x05\x00\x00\x00Admin'
tRp4574
asbasbasbag69
(g85
g71
NtRp4575
(dp4576
g74
(dp4577
sg83
g4558
sg76
(lp4578
g69
(g90
g71
NtRp4579
(dp4580
g74
(dp4581
sg83
g4575
sg76
(lp4582
g69
(g70
g71
NtRp4583
(dp4584
g74
(dp4585
g82
I3
ssg83
g4579
sg76
(lp4586
g112
asbasbasbag69
(g85
g71
NtRp4587
(dp4588
g74
(dp4589
sg83
g4558
sg76
(lp4590
g69
(g90
g71
NtRp4591
(dp4592
g74
(dp4593
sg83
g4587
sg76
(lp4594
g69
(g70
g71
NtRp4595
(dp4596
g74
(dp4597
g82
I3
ssg83
g4591
sg76
(lp4598
S'None'
p4599
asbasbasbag69
(g85
g71
NtRp4600
(dp4601
g74
(dp4602
sg83
g4558
sg76
(lp4603
g69
(g90
g71
NtRp4604
(dp4605
g74
(dp4606
sg83
g4600
sg76
(lp4607
g69
(g70
g71
NtRp4608
(dp4609
g74
(dp4610
g82
I3
ssg83
g4604
sg76
(lp4611
g69
(g78
g71
NtRp4612
(dp4613
g74
(dp4614
g82
I2
ssg83
Nsg76
(lp4615
g69
(g85
g71
NtRp4616
(dp4617
g74
(dp4618
sg83
g4612
sg76
(lp4619
g69
(g90
g71
NtRp4620
(dp4621
g74
(dp4622
sg83
g4616
sg76
(lp4623
g69
(g70
g71
NtRp4624
(dp4625
g74
(dp4626
g82
I2
ssg83
g4620
sg76
(lp4627
g69
(g78
g71
NtRp4628
(dp4629
g74
(dp4630
g82
I1
ssg83
Nsg76
(lp4631
g69
(g85
g71
NtRp4632
(dp4633
g74
(dp4634
sg83
g4628
sg76
(lp4635
g69
(g90
g71
NtRp4636
(dp4637
g74
(dp4638
sg83
g4632
sg76
(lp4639
g69
(g70
g71
NtRp4640
(dp4641
g74
(dp4642
g82
I1
ssg83
g4636
sg76
(lp4643
g4503
(S's\x07\x00\x00\x00Web IDE'
tRp4644
asbasbasbag69
(g85
g71
NtRp4645
(dp4646
g74
(dp4647
sg83
g4628
sg76
(lp4648
g69
(g90
g71
NtRp4649
(dp4650
g74
(dp4651
sg83
g4645
sg76
(lp4652
g69
(g70
g71
NtRp4653
(dp4654
g74
(dp4655
g82
I1
ssg83
g4649
sg76
(lp4656
I00
asbasbasbag69
(g85
g71
NtRp4657
(dp4658
g74
(dp4659
sg83
g4628
sg76
(lp4660
g69
(g90
g71
NtRp4661
(dp4662
g74
(dp4663
sg83
g4657
sg76
(lp4664
g69
(g70
g71
NtRp4665
(dp4666
g74
(dp4667
g82
I1
ssg83
g4661
sg76
(lp4668
S'/admin/default/index'
p4669
asbasbasbasbasbasbasbag69
(g85
g71
NtRp4670
(dp4671
g74
(dp4672
sg83
g4612
sg76
(lp4673
g69
(g90
g71
NtRp4674
(dp4675
g74
(dp4676
sg83
g4670
sg76
(lp4677
g69
(g70
g71
NtRp4678
(dp4679
g74
(dp4680
g82
I2
ssg83
g4674
sg76
(lp4681
g69
(g78
g71
NtRp4682
(dp4683
g74
(dp4684
g82
I1
ssg83
Nsg76
(lp4685
g69
(g85
g71
NtRp4686
(dp4687
g74
(dp4688
sg83
g4682
sg76
(lp4689
g69
(g90
g71
NtRp4690
(dp4691
g74
(dp4692
sg83
g4686
sg76
(lp4693
g69
(g70
g71
NtRp4694
(dp4695
g74
(dp4696
g82
I1
ssg83
g4690
sg76
(lp4697
g4503
(S't\x08\x00\x00\x00Database'
tRp4698
asbasbasbag69
(g85
g71
NtRp4699
(dp4700
g74
(dp4701
sg83
g4682
sg76
(lp4702
g69
(g90
g71
NtRp4703
(dp4704
g74
(dp4705
sg83
g4699
sg76
(lp4706
g69
(g70
g71
NtRp4707
(dp4708
g74
(dp4709
g82
I1
ssg83
g4703
sg76
(lp4710
I00
asbasbasbag69
(g85
g71
NtRp4711
(dp4712
g74
(dp4713
sg83
g4682
sg76
(lp4714
g69
(g90
g71
NtRp4715
(dp4716
g74
(dp4717
sg83
g4711
sg76
(lp4718
g69
(g70
g71
NtRp4719
(dp4720
g74
(dp4721
g82
I1
ssg83
g4715
sg76
(lp4722
S'/paideia/appadmin/index'
p4723
asbasbasbasbasbasbasbag69
(g85
g71
NtRp4724
(dp4725
g74
(dp4726
sg83
g4612
sg76
(lp4727
g69
(g90
g71
NtRp4728
(dp4729
g74
(dp4730
sg83
g4724
sg76
(lp4731
g69
(g70
g71
NtRp4732
(dp4733
g74
(dp4734
g82
I2
ssg83
g4728
sg76
(lp4735
g69
(g78
g71
NtRp4736
(dp4737
g74
(dp4738
g82
I1
ssg83
Nsg76
(lp4739
g69
(g85
g71
NtRp4740
(dp4741
g74
(dp4742
sg83
g4736
sg76
(lp4743
g69
(g90
g71
NtRp4744
(dp4745
g74
(dp4746
sg83
g4740
sg76
(lp4747
g69
(g70
g71
NtRp4748
(dp4749
g74
(dp4750
g82
I1
ssg83
g4744
sg76
(lp4751
g4503
(S't\x05\x00\x00\x00Users'
tRp4752
asbasbasbag69
(g85
g71
NtRp4753
(dp4754
g74
(dp4755
sg83
g4736
sg76
(lp4756
g69
(g90
g71
NtRp4757
(dp4758
g74
(dp4759
sg83
g4753
sg76
(lp4760
g69
(g70
g71
NtRp4761
(dp4762
g74
(dp4763
g82
I1
ssg83
g4757
sg76
(lp4764
I00
asbasbasbag69
(g85
g71
NtRp4765
(dp4766
g74
(dp4767
sg83
g4736
sg76
(lp4768
g69
(g90
g71
NtRp4769
(dp4770
g74
(dp4771
sg83
g4765
sg76
(lp4772
g69
(g70
g71
NtRp4773
(dp4774
g74
(dp4775
g82
I1
ssg83
g4769
sg76
(lp4776
S'/paideia/listing/user'
p4777
asbasbasbasbasbasbasbag69
(g85
g71
NtRp4778
(dp4779
g74
(dp4780
sg83
g4612
sg76
(lp4781
g69
(g90
g71
NtRp4782
(dp4783
g74
(dp4784
sg83
g4778
sg76
(lp4785
g69
(g70
g71
NtRp4786
(dp4787
g74
(dp4788
g82
I2
ssg83
g4782
sg76
(lp4789
g69
(g78
g71
NtRp4790
(dp4791
g74
(dp4792
g82
I1
ssg83
Nsg76
(lp4793
g69
(g85
g71
NtRp4794
(dp4795
g74
(dp4796
sg83
g4790
sg76
(lp4797
g69
(g90
g71
NtRp4798
(dp4799
g74
(dp4800
sg83
g4794
sg76
(lp4801
g69
(g70
g71
NtRp4802
(dp4803
g74
(dp4804
g82
I1
ssg83
g4798
sg76
(lp4805
g4503
(S't\t\x00\x00\x00Questions'
tRp4806
asbasbasbag69
(g85
g71
NtRp4807
(dp4808
g74
(dp4809
sg83
g4790
sg76
(lp4810
g69
(g90
g71
NtRp4811
(dp4812
g74
(dp4813
sg83
g4807
sg76
(lp4814
g69
(g70
g71
NtRp4815
(dp4816
g74
(dp4817
g82
I1
ssg83
g4811
sg76
(lp4818
I00
asbasbasbag69
(g85
g71
NtRp4819
(dp4820
g74
(dp4821
sg83
g4790
sg76
(lp4822
g69
(g90
g71
NtRp4823
(dp4824
g74
(dp4825
sg83
g4819
sg76
(lp4826
g69
(g70
g71
NtRp4827
(dp4828
g74
(dp4829
g82
I1
ssg83
g4823
sg76
(lp4830
S'/paideia/plugin_listandedit/listing.html/questions'
p4831
asbasbasbasbasbasbasbag69
(g85
g71
NtRp4832
(dp4833
g74
(dp4834
sg83
g4612
sg76
(lp4835
g69
(g90
g71
NtRp4836
(dp4837
g74
(dp4838
sg83
g4832
sg76
(lp4839
g69
(g70
g71
NtRp4840
(dp4841
g74
(dp4842
g82
I2
ssg83
g4836
sg76
(lp4843
g69
(g78
g71
NtRp4844
(dp4845
g74
(dp4846
g82
I1
ssg83
Nsg76
(lp4847
g69
(g85
g71
NtRp4848
(dp4849
g74
(dp4850
sg83
g4844
sg76
(lp4851
g69
(g90
g71
NtRp4852
(dp4853
g74
(dp4854
sg83
g4848
sg76
(lp4855
g69
(g70
g71
NtRp4856
(dp4857
g74
(dp4858
g82
I1
ssg83
g4852
sg76
(lp4859
g4503
(S't\x07\x00\x00\x00Quizzes'
tRp4860
asbasbasbag69
(g85
g71
NtRp4861
(dp4862
g74
(dp4863
sg83
g4844
sg76
(lp4864
g69
(g90
g71
NtRp4865
(dp4866
g74
(dp4867
sg83
g4861
sg76
(lp4868
g69
(g70
g71
NtRp4869
(dp4870
g74
(dp4871
g82
I1
ssg83
g4865
sg76
(lp4872
I00
asbasbasbag69
(g85
g71
NtRp4873
(dp4874
g74
(dp4875
sg83
g4844
sg76
(lp4876
g69
(g90
g71
NtRp4877
(dp4878
g74
(dp4879
sg83
g4873
sg76
(lp4880
g69
(g70
g71
NtRp4881
(dp4882
g74
(dp4883
g82
I1
ssg83
g4877
sg76
(lp4884
S'/paideia/plugin_listandedit/listing.html/quizzes'
p4885
asbasbasbasbasbasbasbag69
(g85
g71
NtRp4886
(dp4887
g74
(dp4888
sg83
g4612
sg76
(lp4889
g69
(g90
g71
NtRp4890
(dp4891
g74
(dp4892
sg83
g4886
sg76
(lp4893
g69
(g70
g71
NtRp4894
(dp4895
g74
(dp4896
g82
I2
ssg83
g4890
sg76
(lp4897
g69
(g78
g71
NtRp4898
(dp4899
g74
(dp4900
g82
I1
ssg83
Nsg76
(lp4901
g69
(g85
g71
NtRp4902
(dp4903
g74
(dp4904
sg83
g4898
sg76
(lp4905
g69
(g90
g71
NtRp4906
(dp4907
g74
(dp4908
sg83
g4902
sg76
(lp4909
g69
(g70
g71
NtRp4910
(dp4911
g74
(dp4912
g82
I1
ssg83
g4906
sg76
(lp4913
g4503
(S't\x04\x00\x00\x00Tags'
tRp4914
asbasbasbag69
(g85
g71
NtRp4915
(dp4916
g74
(dp4917
sg83
g4898
sg76
(lp4918
g69
(g90
g71
NtRp4919
(dp4920
g74
(dp4921
sg83
g4915
sg76
(lp4922
g69
(g70
g71
NtRp4923
(dp4924
g74
(dp4925
g82
I1
ssg83
g4919
sg76
(lp4926
I00
asbasbasbag69
(g85
g71
NtRp4927
(dp4928
g74
(dp4929
sg83
g4898
sg76
(lp4930
g69
(g90
g71
NtRp4931
(dp4932
g74
(dp4933
sg83
g4927
sg76
(lp4934
g69
(g70
g71
NtRp4935
(dp4936
g74
(dp4937
g82
I1
ssg83
g4931
sg76
(lp4938
S'/paideia/plugin_listandedit/listing.html/tags'
p4939
asbasbasbasbasbasbasbag69
(g85
g71
NtRp4940
(dp4941
g74
(dp4942
sg83
g4612
sg76
(lp4943
g69
(g90
g71
NtRp4944
(dp4945
g74
(dp4946
sg83
g4940
sg76
(lp4947
g69
(g70
g71
NtRp4948
(dp4949
g74
(dp4950
g82
I2
ssg83
g4944
sg76
(lp4951
g69
(g78
g71
NtRp4952
(dp4953
g74
(dp4954
g82
I1
ssg83
Nsg76
(lp4955
g69
(g85
g71
NtRp4956
(dp4957
g74
(dp4958
sg83
g4952
sg76
(lp4959
g69
(g90
g71
NtRp4960
(dp4961
g74
(dp4962
sg83
g4956
sg76
(lp4963
g69
(g70
g71
NtRp4964
(dp4965
g74
(dp4966
g82
I1
ssg83
g4960
sg76
(lp4967
g4503
(S't\x04\x00\x00\x00NPCs'
tRp4968
asbasbasbag69
(g85
g71
NtRp4969
(dp4970
g74
(dp4971
sg83
g4952
sg76
(lp4972
g69
(g90
g71
NtRp4973
(dp4974
g74
(dp4975
sg83
g4969
sg76
(lp4976
g69
(g70
g71
NtRp4977
(dp4978
g74
(dp4979
g82
I1
ssg83
g4973
sg76
(lp4980
I00
asbasbasbag69
(g85
g71
NtRp4981
(dp4982
g74
(dp4983
sg83
g4952
sg76
(lp4984
g69
(g90
g71
NtRp4985
(dp4986
g74
(dp4987
sg83
g4981
sg76
(lp4988
g69
(g70
g71
NtRp4989
(dp4990
g74
(dp4991
g82
I1
ssg83
g4985
sg76
(lp4992
S'/paideia/plugin_listandedit/listing.html/npcs'
p4993
asbasbasbasbasbasbasbag69
(g85
g71
NtRp4994
(dp4995
g74
(dp4996
sg83
g4612
sg76
(lp4997
g69
(g90
g71
NtRp4998
(dp4999
g74
(dp5000
sg83
g4994
sg76
(lp5001
g69
(g70
g71
NtRp5002
(dp5003
g74
(dp5004
g82
I2
ssg83
g4998
sg76
(lp5005
g69
(g78
g71
NtRp5006
(dp5007
g74
(dp5008
g82
I1
ssg83
Nsg76
(lp5009
g69
(g85
g71
NtRp5010
(dp5011
g74
(dp5012
sg83
g5006
sg76
(lp5013
g69
(g90
g71
NtRp5014
(dp5015
g74
(dp5016
sg83
g5010
sg76
(lp5017
g69
(g70
g71
NtRp5018
(dp5019
g74
(dp5020
g82
I1
ssg83
g5014
sg76
(lp5021
g4503
(S't\t\x00\x00\x00locations'
tRp5022
asbasbasbag69
(g85
g71
NtRp5023
(dp5024
g74
(dp5025
sg83
g5006
sg76
(lp5026
g69
(g90
g71
NtRp5027
(dp5028
g74
(dp5029
sg83
g5023
sg76
(lp5030
g69
(g70
g71
NtRp5031
(dp5032
g74
(dp5033
g82
I1
ssg83
g5027
sg76
(lp5034
I00
asbasbasbag69
(g85
g71
NtRp5035
(dp5036
g74
(dp5037
sg83
g5006
sg76
(lp5038
g69
(g90
g71
NtRp5039
(dp5040
g74
(dp5041
sg83
g5035
sg76
(lp5042
g69
(g70
g71
NtRp5043
(dp5044
g74
(dp5045
g82
I1
ssg83
g5039
sg76
(lp5046
S'/paideia/plugin_listandedit/listing.html/locations'
p5047
asbasbasbasbasbasbasbasbasbasbasbasbasbasbasbasbasbasbasbag69
(g85
g71
NtRp5048
(dp5049
g74
(dp5050
sg83
g3997
sg76
(lp5051
g69
(g90
g71
NtRp5052
(dp5053
g74
(dp5054
g94
g95
ssg83
g5048
sg76
(lp5055
S'meta'
p5056
asbag69
(g90
g71
NtRp5057
(dp5058
g74
(dp5059
g101
g102
ssg83
g5048
sg76
(lp5060
S':'
asbag69
(g90
g71
NtRp5061
(dp5062
g74
(dp5063
sg83
g5048
sg76
(lp5064
g69
(g70
g71
NtRp5065
(dp5066
g74
(dp5067
g82
I5
ssg83
g5061
sg76
(lp5068
g69
(g78
g71
NtRp5069
(dp5070
g74
(dp5071
g82
I4
ssg83
Nsg76
(lp5072
g69
(g85
g71
NtRp5073
(dp5074
g74
(dp5075
sg83
g5069
sg76
(lp5076
g69
(g90
g71
NtRp5077
(dp5078
g74
(dp5079
g94
g95
ssg83
g5073
sg76
(lp5080
S'author'
p5081
asbag69
(g90
g71
NtRp5082
(dp5083
g74
(dp5084
g101
g102
ssg83
g5073
sg76
(lp5085
S':'
asbag69
(g90
g71
NtRp5086
(dp5087
g74
(dp5088
sg83
g5073
sg76
(lp5089
g69
(g70
g71
NtRp5090
(dp5091
g74
(dp5092
g82
I4
ssg83
g5086
sg76
(lp5093
S'Ian W. Scott'
p5094
asbasbasbag69
(g85
g71
NtRp5095
(dp5096
g74
(dp5097
sg83
g5069
sg76
(lp5098
g69
(g90
g71
NtRp5099
(dp5100
g74
(dp5101
g94
g95
ssg83
g5095
sg76
(lp5102
S'copyright'
p5103
asbag69
(g90
g71
NtRp5104
(dp5105
g74
(dp5106
g101
g102
ssg83
g5095
sg76
(lp5107
S':'
asbag69
(g90
g71
NtRp5108
(dp5109
g74
(dp5110
sg83
g5095
sg76
(lp5111
g69
(g70
g71
NtRp5112
(dp5113
g74
(dp5114
g82
I4
ssg83
g5108
sg76
(lp5115
S'Copyright 2011'
p5116
asbasbasbag69
(g85
g71
NtRp5117
(dp5118
g74
(dp5119
sg83
g5069
sg76
(lp5120
g69
(g90
g71
NtRp5121
(dp5122
g74
(dp5123
g94
g95
ssg83
g5117
sg76
(lp5124
S'description'
p5125
asbag69
(g90
g71
NtRp5126
(dp5127
g74
(dp5128
g101
g102
ssg83
g5117
sg76
(lp5129
S':'
asbag69
(g90
g71
NtRp5130
(dp5131
g74
(dp5132
sg83
g5117
sg76
(lp5133
g69
(g70
g71
NtRp5134
(dp5135
g74
(dp5136
g82
I4
ssg83
g5130
sg76
(lp5137
S'An online space for learning New Testament Greek'
p5138
asbasbasbag69
(g85
g71
NtRp5139
(dp5140
g74
(dp5141
sg83
g5069
sg76
(lp5142
g69
(g90
g71
NtRp5143
(dp5144
g74
(dp5145
g94
g95
ssg83
g5139
sg76
(lp5146
S'generator'
p5147
asbag69
(g90
g71
NtRp5148
(dp5149
g74
(dp5150
g101
g102
ssg83
g5139
sg76
(lp5151
S':'
asbag69
(g90
g71
NtRp5152
(dp5153
g74
(dp5154
sg83
g5139
sg76
(lp5155
g69
(g70
g71
NtRp5156
(dp5157
g74
(dp5158
g82
I4
ssg83
g5152
sg76
(lp5159
S'Web2py Enterprise Framework'
p5160
asbasbasbag69
(g85
g71
NtRp5161
(dp5162
g74
(dp5163
sg83
g5069
sg76
(lp5164
g69
(g90
g71
NtRp5165
(dp5166
g74
(dp5167
g94
g95
ssg83
g5161
sg76
(lp5168
S'keywords'
p5169
asbag69
(g90
g71
NtRp5170
(dp5171
g74
(dp5172
g101
g102
ssg83
g5161
sg76
(lp5173
S':'
asbag69
(g90
g71
NtRp5174
(dp5175
g74
(dp5176
sg83
g5161
sg76
(lp5177
g69
(g70
g71
NtRp5178
(dp5179
g74
(dp5180
g82
I4
ssg83
g5174
sg76
(lp5181
S'Greek, koine, New Testament, language, education, learning'
p5182
asbasbasbasbasbasbasbag69
(g85
g71
NtRp5183
(dp5184
g74
(dp5185
sg83
g3997
sg76
(lp5186
g69
(g90
g71
NtRp5187
(dp5188
g74
(dp5189
g94
g95
ssg83
g5183
sg76
(lp5190
S'postprocessing'
p5191
asbag69
(g90
g71
NtRp5192
(dp5193
g74
(dp5194
g101
g102
ssg83
g5183
sg76
(lp5195
S':'
asbag69
(g90
g71
NtRp5196
(dp5197
g74
(dp5198
sg83
g5183
sg76
(lp5199
g69
(g70
g71
NtRp5200
(dp5201
g74
(dp5202
g82
I5
ssg83
g5196
sg76
(lp5203
g69
(g78
g71
NtRp5204
(dp5205
g74
(dp5206
g82
I4
ssg83
Nsg76
(lp5207
sbasbasbasbag69
(g85
g71
NtRp5208
(dp5209
g74
(dp5210
sg83
g3997
sg76
(lp5211
g69
(g90
g71
NtRp5212
(dp5213
g74
(dp5214
g94
g95
ssg83
g5208
sg76
(lp5215
S'session_file'
p5216
asbag69
(g90
g71
NtRp5217
(dp5218
g74
(dp5219
g101
g102
ssg83
g5208
sg76
(lp5220
S':'
asbag69
(g90
g71
NtRp5221
(dp5222
g74
(dp5223
sg83
g5208
sg76
(lp5224
g69
(g70
g71
NtRp5225
(dp5226
g74
(dp5227
g82
I5
ssg83
g5221
sg76
(lp5228
S"<open file '/home/ian/web/web2py/applications/paideia/sessions/127.0.0.1-6908630b-309c-42d8-85d6-9ab15b9b0f57', mode 'rb+' at 0x7f0ef8087660>"
p5229
asbasbasbag69
(g85
g71
NtRp5230
(dp5231
g74
(dp5232
sg83
g3997
sg76
(lp5233
g69
(g90
g71
NtRp5234
(dp5235
g74
(dp5236
g94
g95
ssg83
g5230
sg76
(lp5237
S'session_filename'
p5238
asbag69
(g90
g71
NtRp5239
(dp5240
g74
(dp5241
g101
g102
ssg83
g5230
sg76
(lp5242
S':'
asbag69
(g90
g71
NtRp5243
(dp5244
g74
(dp5245
sg83
g5230
sg76
(lp5246
g69
(g70
g71
NtRp5247
(dp5248
g74
(dp5249
g82
I5
ssg83
g5243
sg76
(lp5250
S'/home/ian/web/web2py/applications/paideia/sessions/127.0.0.1-6908630b-309c-42d8-85d6-9ab15b9b0f57'
p5251
asbasbasbag69
(g85
g71
NtRp5252
(dp5253
g74
(dp5254
sg83
g3997
sg76
(lp5255
g69
(g90
g71
NtRp5256
(dp5257
g74
(dp5258
g94
g95
ssg83
g5252
sg76
(lp5259
S'session_id'
p5260
asbag69
(g90
g71
NtRp5261
(dp5262
g74
(dp5263
g101
g102
ssg83
g5252
sg76
(lp5264
S':'
asbag69
(g90
g71
NtRp5265
(dp5266
g74
(dp5267
sg83
g5252
sg76
(lp5268
g69
(g70
g71
NtRp5269
(dp5270
g74
(dp5271
g82
I5
ssg83
g5265
sg76
(lp5272
S'127.0.0.1-6908630b-309c-42d8-85d6-9ab15b9b0f57'
p5273
asbasbasbag69
(g85
g71
NtRp5274
(dp5275
g74
(dp5276
sg83
g3997
sg76
(lp5277
g69
(g90
g71
NtRp5278
(dp5279
g74
(dp5280
g94
g95
ssg83
g5274
sg76
(lp5281
S'session_id_name'
p5282
asbag69
(g90
g71
NtRp5283
(dp5284
g74
(dp5285
g101
g102
ssg83
g5274
sg76
(lp5286
S':'
asbag69
(g90
g71
NtRp5287
(dp5288
g74
(dp5289
sg83
g5274
sg76
(lp5290
g69
(g70
g71
NtRp5291
(dp5292
g74
(dp5293
g82
I5
ssg83
g5287
sg76
(lp5294
g4054
asbasbasbag69
(g85
g71
NtRp5295
(dp5296
g74
(dp5297
sg83
g3997
sg76
(lp5298
g69
(g90
g71
NtRp5299
(dp5300
g74
(dp5301
g94
g95
ssg83
g5295
sg76
(lp5302
S'session_locked'
p5303
asbag69
(g90
g71
NtRp5304
(dp5305
g74
(dp5306
g101
g102
ssg83
g5295
sg76
(lp5307
S':'
asbag69
(g90
g71
NtRp5308
(dp5309
g74
(dp5310
sg83
g5295
sg76
(lp5311
g69
(g70
g71
NtRp5312
(dp5313
g74
(dp5314
g82
I5
ssg83
g5308
sg76
(lp5315
g1853
asbasbasbag69
(g85
g71
NtRp5316
(dp5317
g74
(dp5318
sg83
g3997
sg76
(lp5319
g69
(g90
g71
NtRp5320
(dp5321
g74
(dp5322
g94
g95
ssg83
g5316
sg76
(lp5323
S'session_new'
p5324
asbag69
(g90
g71
NtRp5325
(dp5326
g74
(dp5327
g101
g102
ssg83
g5316
sg76
(lp5328
S':'
asbag69
(g90
g71
NtRp5329
(dp5330
g74
(dp5331
sg83
g5316
sg76
(lp5332
g69
(g70
g71
NtRp5333
(dp5334
g74
(dp5335
g82
I5
ssg83
g5329
sg76
(lp5336
g112
asbasbasbag69
(g85
g71
NtRp5337
(dp5338
g74
(dp5339
sg83
g3997
sg76
(lp5340
g69
(g90
g71
NtRp5341
(dp5342
g74
(dp5343
g94
g95
ssg83
g5337
sg76
(lp5344
S'status'
p5345
asbag69
(g90
g71
NtRp5346
(dp5347
g74
(dp5348
g101
g102
ssg83
g5337
sg76
(lp5349
S':'
asbag69
(g90
g71
NtRp5350
(dp5351
g74
(dp5352
sg83
g5337
sg76
(lp5353
g69
(g70
g71
NtRp5354
(dp5355
g74
(dp5356
g82
I5
ssg83
g5350
sg76
(lp5357
S'200'
p5358
asbasbasbag69
(g85
g71
NtRp5359
(dp5360
g74
(dp5361
sg83
g3997
sg76
(lp5362
g69
(g90
g71
NtRp5363
(dp5364
g74
(dp5365
g94
g95
ssg83
g5359
sg76
(lp5366
S'subtitle'
p5367
asbag69
(g90
g71
NtRp5368
(dp5369
g74
(dp5370
g101
g102
ssg83
g5359
sg76
(lp5371
S':'
asbag69
(g90
g71
NtRp5372
(dp5373
g74
(dp5374
sg83
g5359
sg76
(lp5375
g69
(g70
g71
NtRp5376
(dp5377
g74
(dp5378
g82
I5
ssg83
g5372
sg76
(lp5379
g4503
(S's0\x00\x00\x00An online space for learning New Testament Greek'
tRp5380
asbasbasbag69
(g85
g71
NtRp5381
(dp5382
g74
(dp5383
sg83
g3997
sg76
(lp5384
g69
(g90
g71
NtRp5385
(dp5386
g74
(dp5387
g94
g95
ssg83
g5381
sg76
(lp5388
S'title'
p5389
asbag69
(g90
g71
NtRp5390
(dp5391
g74
(dp5392
g101
g102
ssg83
g5381
sg76
(lp5393
S':'
asbag69
(g90
g71
NtRp5394
(dp5395
g74
(dp5396
sg83
g5381
sg76
(lp5397
g69
(g70
g71
NtRp5398
(dp5399
g74
(dp5400
g82
I5
ssg83
g5394
sg76
(lp5401
g134
asbasbasbag69
(g85
g71
NtRp5402
(dp5403
g74
(dp5404
sg83
g3997
sg76
(lp5405
g69
(g90
g71
NtRp5406
(dp5407
g74
(dp5408
g94
g95
ssg83
g5402
sg76
(lp5409
g2538
asbag69
(g90
g71
NtRp5410
(dp5411
g74
(dp5412
g101
g102
ssg83
g5402
sg76
(lp5413
S':'
asbag69
(g90
g71
NtRp5414
(dp5415
g74
(dp5416
sg83
g5402
sg76
(lp5417
g69
(g70
g71
NtRp5418
(dp5419
g74
(dp5420
g82
I5
ssg83
g5414
sg76
(lp5421
g2551
asbasbasbag69
(g85
g71
NtRp5422
(dp5423
g74
(dp5424
sg83
g3997
sg76
(lp5425
g69
(g90
g71
NtRp5426
(dp5427
g74
(dp5428
g94
g95
ssg83
g5422
sg76
(lp5429
S'view'
p5430
asbag69
(g90
g71
NtRp5431
(dp5432
g74
(dp5433
g101
g102
ssg83
g5422
sg76
(lp5434
S':'
asbag69
(g90
g71
NtRp5435
(dp5436
g74
(dp5437
sg83
g5422
sg76
(lp5438
g69
(g70
g71
NtRp5439
(dp5440
g74
(dp5441
g82
I5
ssg83
g5435
sg76
(lp5442
S'exploring/index.html'
p5443
asbasbasbasbasbsS'locals'
p5444
(dp5445
g4
S"'/home/ian/web/web2py/applications/paideia/views/exploring/index.html'"
p5446
sg6
S'\'response.write(\\\'<!DOCTYPE html>\\\\n<html lang="\\\', ...n       -->\\\\n  </body>\\\\n</html>\\\\n\\\', escape=False)\''
p5447
sssS'traceback'
p5448
S'Traceback (most recent call last):\n  File "/home/ian/web/web2py/gluon/restricted.py", line 203, in restricted\n    ccode = compile2(code,layer)\n  File "/home/ian/web/web2py/gluon/restricted.py", line 189, in compile2\n    return compile(code.rstrip().replace(\'\\r\\n\',\'\\n\')+\'\\n\', layer, \'exec\')\n  File "/home/ian/web/web2py/applications/paideia/views/exploring/index.html", line 134\n    if request.args\n                  ^\nSyntaxError: invalid syntax\n'
p5449
s.