(dp1
S'output'
p2
S"<type 'exceptions.SyntaxError'> invalid syntax (exploring.py, line 40)"
p3
sS'layer'
p4
S'/home/ian/web/web2py/applications/paideia/controllers/exploring.py'
p5
sS'code'
p6
S'# coding: utf8\nfrom paideia_exploring import paideia_path, paideia_tag, counter, map\nfrom paideia_questions import question\nimport pprint\n\ndef session_init():\n    print \'calling session_init\'\n    #categorize paths for today\n    tags = paideia_tag()\n    session.tagset = tags.categorize_tags()\n    print \'returned categorized tags\'\n    print \'session.tagset: \', pprint.pprint(session.tagset)\n    #add paths that weren\'t finished during last session\n    path = paideia_path()\n    session.active_paths = path.find_unfinished()\n    print \'returned unfinished paths\'\n    print \'session active_paths: \', session.active_paths\n\ndef step_init():\n    print \'\\n calling step_init()\'\n    #find out what location has been entered\n    curr_loc = db(db.locations.alias == request.vars[\'loc\']).select().first()\n    print \'current location: \', curr_loc.alias, curr_loc.id\n\n    #check to see whether any constraints are in place \n    if \'blocks\' in session:\n        print \'active block conditions: \', session.blocks\n        #TODO: Add logic here to handle blocking conditions\n    else:\n        print \'no blocking conditions\'\n    \n    #find out what paths (if any) are currently active\n    a_paths = [1,2,3] #session.active_path or None\n    print \'active paths: \', a_paths\n    \n    #if an active path has a step here, initiate that step\n    if a_paths:\n        pathsteps = db((db.paths.steps.contains(a_paths)).select()\n                        #& (db.paths.locations.contains(curr_loc.id)))\n        p = pathsteps.first()\n\n    if \'pathsteps\' in locals():\n        print \'continuing active path \', p\n    else:\n        print \'no active paths here\'\n    \n    #find paths with tags open to student\n    #look for tags with high priority\n    #if none look for tags with medium priority\n    #if none,  \n        return dict()\n\ndef stepask():\n    #check to see whether a path is active and determines the next step\n    if session.active_path:\n        pass\n    \n    #if not, initiate new path \n    if not request.vars.response:\n        set_path = paideia_path()\n        set_counter = counter()\n        the_question = question()\n        the_question.selectq()\n\n    form = SQLFORM.factory(\n        Field(\'response\', \'string\', requires=IS_NOT_EMPTY())\n    )\n    if form.accepts(request.vars,session):\n        session.response = request.vars.response\n        redirect(URL(\'index\', args=[\'reply\']))\n\n    return dict(question=session.question_text, form=form)\n\ndef stepreply():\n    #see whether answer matches any of the three answer fields\n    q = question()\n    the_eval = q.evalq()\n\n    #build response to user\n    if session.eval == \'correct\':\n        the_reply = "Right. \xce\x9a\xce\xac\xce\xbb\xce\xb7."\n    elif session.eval == \'partial\':\n        the_reply = "\xce\x9f\xe1\xbd\x90 \xce\xba\xce\xac\xce\xba\xce\xbf\xcf\x82. You\'re close."\n    else:\n        the_reply = "Incorrect. Try again!"\n\n    #add a record for this attempt in db.attempt_log\n    db.attempt_log.insert(question=session.q_ID, score=q.score, quiz=session.path_id)\n\n    return dict(reply=the_reply, answer=session.readable_answer, raw_answer=session.answer, score=session.score)\n\n\ndef patherror():\n    if request.args(1) == \'unknown\':\n        db.q_bugs.insert(question=session.qID, a_submitted=request.vars.answer)\n        #TODO: fix problem with changing column name for status\n        #db(db.questions.id==session.qID).update(qqq_status=1);\n    if request.args(1) == \'regex\':\n        db.q_bugs.insert(question=session.qID, a_submitted=request.vars.answer)\n        #db(db.questions.id==session.qID).update(qqq_status=1);\n    message = "Oops! Something about that question confused me, and I\'m not sure whether your answer was right. Let\'s try another one."\n    button = A(\'continue\', _href=URL(\'index\', args=[\'ask\']), _class=\'button-green-grad next_q\', cid=request.cid)\n    #don\'t include this question in counting the number attempted\n    session.q_counter -= 1\n    return dict(message = message, button = button)\n\n@auth.requires_login()\ndef index():\n    #check to see whether this user session has been initialized\n    if not session.tagset:\n        session_init()\n\n    #when user begins exploring (also default) present map\n    if (request.args(0) == \'start\') or (not request.args):\n        the_map = map()\n        for i in [\'blocks\', \'active_paths\', \'completed_paths\']:\n            if not session[i]:\n                print i\n                session[i] = None\n             \n        return dict(locs = the_map.locs, map_image = the_map.image)\n\n    #after user selects quiz (or \'next question\')\n    elif request.args(0) == \'ask\':\n        return step_init()\n\n    #after submitting answer\n    elif request.args(0) == \'reply\':\n        return stepreply()\n    \n    elif request.args(0) == \'error\':\n        return patherror()\n        \n    \nresponse._vars=response._caller(index)\n'
p7
sS'snapshot'
p8
(dp9
S'exception'
p10
(dp11
S'__getslice__'
p12
S"<method-wrapper '__getslice__' of exceptions.SyntaxError object>"
p13
sS'text'
p14
S"'        p = pathsteps.first()\\n'"
p15
sS'__str__'
p16
S"<method-wrapper '__str__' of exceptions.SyntaxError object>"
p17
sS'__reduce__'
p18
S'<built-in method __reduce__ of exceptions.SyntaxError object>'
p19
sS'__dict__'
p20
S'{}'
p21
sS'__sizeof__'
p22
S'<built-in method __sizeof__ of exceptions.SyntaxError object>'
p23
sS'__init__'
p24
S"<method-wrapper '__init__' of exceptions.SyntaxError object>"
p25
sS'__setattr__'
p26
S"<method-wrapper '__setattr__' of exceptions.SyntaxError object>"
p27
sS'__reduce_ex__'
p28
S'<built-in method __reduce_ex__ of exceptions.SyntaxError object>'
p29
sS'__new__'
p30
S'<built-in method __new__ of type object>'
p31
sS'__format__'
p32
S'<built-in method __format__ of exceptions.SyntaxError object>'
p33
sS'__class__'
p34
S"<type 'exceptions.SyntaxError'>"
p35
sS'filename'
p36
S"'/home/ian/web/web2py/applications/paideia/controllers/exploring.py'"
p37
sS'lineno'
p38
S'40'
p39
sS'msg'
p40
S"'invalid syntax'"
p41
sS'__doc__'
p42
S"'Invalid syntax.'"
p43
sS'__getitem__'
p44
S"<method-wrapper '__getitem__' of exceptions.SyntaxError object>"
p45
sS'__setstate__'
p46
S'<built-in method __setstate__ of exceptions.SyntaxError object>'
p47
sS'__getattribute__'
p48
S"<method-wrapper '__getattribute__' of exceptions.SyntaxError object>"
p49
sS'print_file_and_line'
p50
S'None'
p51
sS'args'
p52
S"('invalid syntax', ('/home/ian/web/web2py/applications/paideia/controllers/exploring.py', 40, 9, '        p = pathsteps.first()\\n'))"
p53
sS'__subclasshook__'
p54
S'<built-in method __subclasshook__ of type object>'
p55
sS'offset'
p56
S'9'
sS'__unicode__'
p57
S'<built-in method __unicode__ of exceptions.SyntaxError object>'
p58
sS'__delattr__'
p59
S"<method-wrapper '__delattr__' of exceptions.SyntaxError object>"
p60
sS'__repr__'
p61
S"<method-wrapper '__repr__' of exceptions.SyntaxError object>"
p62
sS'__hash__'
p63
S"<method-wrapper '__hash__' of exceptions.SyntaxError object>"
p64
ssS'evalue'
p65
S'invalid syntax (exploring.py, line 40)'
p66
sS'request'
p67
ccopy_reg
_reconstructor
p68
(cgluon.html
BEAUTIFY
p69
c__builtin__
object
p70
NtRp71
(dp72
S'attributes'
p73
(dp74
sS'components'
p75
(lp76
g68
(cgluon.html
TABLE
p77
g70
NtRp78
(dp79
g73
(dp80
S'level'
p81
I5
ssS'parent'
p82
Nsg75
(lp83
g68
(cgluon.html
TR
p84
g70
NtRp85
(dp86
g73
(dp87
sg82
g78
sg75
(lp88
g68
(cgluon.html
TD
p89
g70
NtRp90
(dp91
g73
(dp92
S'_style'
p93
S'font-weight:bold;vertical-align:top'
p94
ssg82
g85
sg75
(lp95
S'ajax'
p96
asbag68
(g89
g70
NtRp97
(dp98
g73
(dp99
S'_valign'
p100
S'top'
p101
ssg82
g85
sg75
(lp102
S':'
asbag68
(g89
g70
NtRp103
(dp104
g73
(dp105
sg82
g85
sg75
(lp106
g68
(g69
g70
NtRp107
(dp108
g73
(dp109
g81
I5
ssg82
g103
sg75
(lp110
S'False'
p111
asbasbasbag68
(g84
g70
NtRp112
(dp113
g73
(dp114
sg82
g78
sg75
(lp115
g68
(g89
g70
NtRp116
(dp117
g73
(dp118
g93
g94
ssg82
g112
sg75
(lp119
S'application'
p120
asbag68
(g89
g70
NtRp121
(dp122
g73
(dp123
g100
g101
ssg82
g112
sg75
(lp124
S':'
asbag68
(g89
g70
NtRp125
(dp126
g73
(dp127
sg82
g112
sg75
(lp128
g68
(g69
g70
NtRp129
(dp130
g73
(dp131
g81
I5
ssg82
g125
sg75
(lp132
S'paideia'
p133
asbasbasbag68
(g84
g70
NtRp134
(dp135
g73
(dp136
sg82
g78
sg75
(lp137
g68
(g89
g70
NtRp138
(dp139
g73
(dp140
g93
g94
ssg82
g134
sg75
(lp141
g52
asbag68
(g89
g70
NtRp142
(dp143
g73
(dp144
g100
g101
ssg82
g134
sg75
(lp145
S':'
asbag68
(g89
g70
NtRp146
(dp147
g73
(dp148
sg82
g134
sg75
(lp149
g68
(g69
g70
NtRp150
(dp151
g73
(dp152
g81
I5
ssg82
g146
sg75
(lp153
g68
(g77
g70
NtRp154
(dp155
g73
(dp156
g81
I4
ssg82
Nsg75
(lp157
sbasbasbasbag68
(g84
g70
NtRp158
(dp159
g73
(dp160
sg82
g78
sg75
(lp161
g68
(g89
g70
NtRp162
(dp163
g73
(dp164
g93
g94
ssg82
g158
sg75
(lp165
S'body'
p166
asbag68
(g89
g70
NtRp167
(dp168
g73
(dp169
g100
g101
ssg82
g158
sg75
(lp170
S':'
asbag68
(g89
g70
NtRp171
(dp172
g73
(dp173
sg82
g158
sg75
(lp174
g68
(g69
g70
NtRp175
(dp176
g73
(dp177
g81
I5
ssg82
g171
sg75
(lp178
S'<cStringIO.StringO object at 0x7fc16c7a76f8>'
p179
asbasbasbag68
(g84
g70
NtRp180
(dp181
g73
(dp182
sg82
g78
sg75
(lp183
g68
(g89
g70
NtRp184
(dp185
g73
(dp186
g93
g94
ssg82
g180
sg75
(lp187
S'client'
p188
asbag68
(g89
g70
NtRp189
(dp190
g73
(dp191
g100
g101
ssg82
g180
sg75
(lp192
S':'
asbag68
(g89
g70
NtRp193
(dp194
g73
(dp195
sg82
g180
sg75
(lp196
g68
(g69
g70
NtRp197
(dp198
g73
(dp199
g81
I5
ssg82
g193
sg75
(lp200
S'127.0.0.1'
p201
asbasbasbag68
(g84
g70
NtRp202
(dp203
g73
(dp204
sg82
g78
sg75
(lp205
g68
(g89
g70
NtRp206
(dp207
g73
(dp208
g93
g94
ssg82
g202
sg75
(lp209
S'controller'
p210
asbag68
(g89
g70
NtRp211
(dp212
g73
(dp213
g100
g101
ssg82
g202
sg75
(lp214
S':'
asbag68
(g89
g70
NtRp215
(dp216
g73
(dp217
sg82
g202
sg75
(lp218
g68
(g69
g70
NtRp219
(dp220
g73
(dp221
g81
I5
ssg82
g215
sg75
(lp222
S'exploring'
p223
asbasbasbag68
(g84
g70
NtRp224
(dp225
g73
(dp226
sg82
g78
sg75
(lp227
g68
(g89
g70
NtRp228
(dp229
g73
(dp230
g93
g94
ssg82
g224
sg75
(lp231
S'cookies'
p232
asbag68
(g89
g70
NtRp233
(dp234
g73
(dp235
g100
g101
ssg82
g224
sg75
(lp236
S':'
asbag68
(g89
g70
NtRp237
(dp238
g73
(dp239
sg82
g224
sg75
(lp240
g68
(g69
g70
NtRp241
(dp242
g73
(dp243
g81
I5
ssg82
g237
sg75
(lp244
g68
(g77
g70
NtRp245
(dp246
g73
(dp247
g81
I4
ssg82
Nsg75
(lp248
g68
(g84
g70
NtRp249
(dp250
g73
(dp251
sg82
g245
sg75
(lp252
g68
(g89
g70
NtRp253
(dp254
g73
(dp255
g93
g94
ssg82
g249
sg75
(lp256
S'session_id_admin'
p257
asbag68
(g89
g70
NtRp258
(dp259
g73
(dp260
g100
g101
ssg82
g249
sg75
(lp261
S':'
asbag68
(g89
g70
NtRp262
(dp263
g73
(dp264
sg82
g249
sg75
(lp265
g68
(g69
g70
NtRp266
(dp267
g73
(dp268
g81
I4
ssg82
g262
sg75
(lp269
g68
(g77
g70
NtRp270
(dp271
g73
(dp272
g81
I3
ssg82
Nsg75
(lp273
g68
(g84
g70
NtRp274
(dp275
g73
(dp276
sg82
g270
sg75
(lp277
g68
(g89
g70
NtRp278
(dp279
g73
(dp280
g93
g94
ssg82
g274
sg75
(lp281
S'comment'
p282
asbag68
(g89
g70
NtRp283
(dp284
g73
(dp285
g100
g101
ssg82
g274
sg75
(lp286
S':'
asbag68
(g89
g70
NtRp287
(dp288
g73
(dp289
sg82
g274
sg75
(lp290
g68
(g69
g70
NtRp291
(dp292
g73
(dp293
g81
I3
ssg82
g287
sg75
(lp294
S''
asbasbasbag68
(g84
g70
NtRp295
(dp296
g73
(dp297
sg82
g270
sg75
(lp298
g68
(g89
g70
NtRp299
(dp300
g73
(dp301
g93
g94
ssg82
g295
sg75
(lp302
S'domain'
p303
asbag68
(g89
g70
NtRp304
(dp305
g73
(dp306
g100
g101
ssg82
g295
sg75
(lp307
S':'
asbag68
(g89
g70
NtRp308
(dp309
g73
(dp310
sg82
g295
sg75
(lp311
g68
(g69
g70
NtRp312
(dp313
g73
(dp314
g81
I3
ssg82
g308
sg75
(lp315
S''
asbasbasbag68
(g84
g70
NtRp316
(dp317
g73
(dp318
sg82
g270
sg75
(lp319
g68
(g89
g70
NtRp320
(dp321
g73
(dp322
g93
g94
ssg82
g316
sg75
(lp323
S'expires'
p324
asbag68
(g89
g70
NtRp325
(dp326
g73
(dp327
g100
g101
ssg82
g316
sg75
(lp328
S':'
asbag68
(g89
g70
NtRp329
(dp330
g73
(dp331
sg82
g316
sg75
(lp332
g68
(g69
g70
NtRp333
(dp334
g73
(dp335
g81
I3
ssg82
g329
sg75
(lp336
S''
asbasbasbag68
(g84
g70
NtRp337
(dp338
g73
(dp339
sg82
g270
sg75
(lp340
g68
(g89
g70
NtRp341
(dp342
g73
(dp343
g93
g94
ssg82
g337
sg75
(lp344
S'httponly'
p345
asbag68
(g89
g70
NtRp346
(dp347
g73
(dp348
g100
g101
ssg82
g337
sg75
(lp349
S':'
asbag68
(g89
g70
NtRp350
(dp351
g73
(dp352
sg82
g337
sg75
(lp353
g68
(g69
g70
NtRp354
(dp355
g73
(dp356
g81
I3
ssg82
g350
sg75
(lp357
S''
asbasbasbag68
(g84
g70
NtRp358
(dp359
g73
(dp360
sg82
g270
sg75
(lp361
g68
(g89
g70
NtRp362
(dp363
g73
(dp364
g93
g94
ssg82
g358
sg75
(lp365
S'max-age'
p366
asbag68
(g89
g70
NtRp367
(dp368
g73
(dp369
g100
g101
ssg82
g358
sg75
(lp370
S':'
asbag68
(g89
g70
NtRp371
(dp372
g73
(dp373
sg82
g358
sg75
(lp374
g68
(g69
g70
NtRp375
(dp376
g73
(dp377
g81
I3
ssg82
g371
sg75
(lp378
S''
asbasbasbag68
(g84
g70
NtRp379
(dp380
g73
(dp381
sg82
g270
sg75
(lp382
g68
(g89
g70
NtRp383
(dp384
g73
(dp385
g93
g94
ssg82
g379
sg75
(lp386
S'path'
p387
asbag68
(g89
g70
NtRp388
(dp389
g73
(dp390
g100
g101
ssg82
g379
sg75
(lp391
S':'
asbag68
(g89
g70
NtRp392
(dp393
g73
(dp394
sg82
g379
sg75
(lp395
g68
(g69
g70
NtRp396
(dp397
g73
(dp398
g81
I3
ssg82
g392
sg75
(lp399
S''
asbasbasbag68
(g84
g70
NtRp400
(dp401
g73
(dp402
sg82
g270
sg75
(lp403
g68
(g89
g70
NtRp404
(dp405
g73
(dp406
g93
g94
ssg82
g400
sg75
(lp407
S'secure'
p408
asbag68
(g89
g70
NtRp409
(dp410
g73
(dp411
g100
g101
ssg82
g400
sg75
(lp412
S':'
asbag68
(g89
g70
NtRp413
(dp414
g73
(dp415
sg82
g400
sg75
(lp416
g68
(g69
g70
NtRp417
(dp418
g73
(dp419
g81
I3
ssg82
g413
sg75
(lp420
S''
asbasbasbag68
(g84
g70
NtRp421
(dp422
g73
(dp423
sg82
g270
sg75
(lp424
g68
(g89
g70
NtRp425
(dp426
g73
(dp427
g93
g94
ssg82
g421
sg75
(lp428
S'version'
p429
asbag68
(g89
g70
NtRp430
(dp431
g73
(dp432
g100
g101
ssg82
g421
sg75
(lp433
S':'
asbag68
(g89
g70
NtRp434
(dp435
g73
(dp436
sg82
g421
sg75
(lp437
g68
(g69
g70
NtRp438
(dp439
g73
(dp440
g81
I3
ssg82
g434
sg75
(lp441
S''
asbasbasbasbasbasbasbag68
(g84
g70
NtRp442
(dp443
g73
(dp444
sg82
g245
sg75
(lp445
g68
(g89
g70
NtRp446
(dp447
g73
(dp448
g93
g94
ssg82
g442
sg75
(lp449
S'session_id_grammateus3'
p450
asbag68
(g89
g70
NtRp451
(dp452
g73
(dp453
g100
g101
ssg82
g442
sg75
(lp454
S':'
asbag68
(g89
g70
NtRp455
(dp456
g73
(dp457
sg82
g442
sg75
(lp458
g68
(g69
g70
NtRp459
(dp460
g73
(dp461
g81
I4
ssg82
g455
sg75
(lp462
g68
(g77
g70
NtRp463
(dp464
g73
(dp465
g81
I3
ssg82
Nsg75
(lp466
g68
(g84
g70
NtRp467
(dp468
g73
(dp469
sg82
g463
sg75
(lp470
g68
(g89
g70
NtRp471
(dp472
g73
(dp473
g93
g94
ssg82
g467
sg75
(lp474
g282
asbag68
(g89
g70
NtRp475
(dp476
g73
(dp477
g100
g101
ssg82
g467
sg75
(lp478
S':'
asbag68
(g89
g70
NtRp479
(dp480
g73
(dp481
sg82
g467
sg75
(lp482
g68
(g69
g70
NtRp483
(dp484
g73
(dp485
g81
I3
ssg82
g479
sg75
(lp486
S''
asbasbasbag68
(g84
g70
NtRp487
(dp488
g73
(dp489
sg82
g463
sg75
(lp490
g68
(g89
g70
NtRp491
(dp492
g73
(dp493
g93
g94
ssg82
g487
sg75
(lp494
g303
asbag68
(g89
g70
NtRp495
(dp496
g73
(dp497
g100
g101
ssg82
g487
sg75
(lp498
S':'
asbag68
(g89
g70
NtRp499
(dp500
g73
(dp501
sg82
g487
sg75
(lp502
g68
(g69
g70
NtRp503
(dp504
g73
(dp505
g81
I3
ssg82
g499
sg75
(lp506
S''
asbasbasbag68
(g84
g70
NtRp507
(dp508
g73
(dp509
sg82
g463
sg75
(lp510
g68
(g89
g70
NtRp511
(dp512
g73
(dp513
g93
g94
ssg82
g507
sg75
(lp514
g324
asbag68
(g89
g70
NtRp515
(dp516
g73
(dp517
g100
g101
ssg82
g507
sg75
(lp518
S':'
asbag68
(g89
g70
NtRp519
(dp520
g73
(dp521
sg82
g507
sg75
(lp522
g68
(g69
g70
NtRp523
(dp524
g73
(dp525
g81
I3
ssg82
g519
sg75
(lp526
S''
asbasbasbag68
(g84
g70
NtRp527
(dp528
g73
(dp529
sg82
g463
sg75
(lp530
g68
(g89
g70
NtRp531
(dp532
g73
(dp533
g93
g94
ssg82
g527
sg75
(lp534
g345
asbag68
(g89
g70
NtRp535
(dp536
g73
(dp537
g100
g101
ssg82
g527
sg75
(lp538
S':'
asbag68
(g89
g70
NtRp539
(dp540
g73
(dp541
sg82
g527
sg75
(lp542
g68
(g69
g70
NtRp543
(dp544
g73
(dp545
g81
I3
ssg82
g539
sg75
(lp546
S''
asbasbasbag68
(g84
g70
NtRp547
(dp548
g73
(dp549
sg82
g463
sg75
(lp550
g68
(g89
g70
NtRp551
(dp552
g73
(dp553
g93
g94
ssg82
g547
sg75
(lp554
g366
asbag68
(g89
g70
NtRp555
(dp556
g73
(dp557
g100
g101
ssg82
g547
sg75
(lp558
S':'
asbag68
(g89
g70
NtRp559
(dp560
g73
(dp561
sg82
g547
sg75
(lp562
g68
(g69
g70
NtRp563
(dp564
g73
(dp565
g81
I3
ssg82
g559
sg75
(lp566
S''
asbasbasbag68
(g84
g70
NtRp567
(dp568
g73
(dp569
sg82
g463
sg75
(lp570
g68
(g89
g70
NtRp571
(dp572
g73
(dp573
g93
g94
ssg82
g567
sg75
(lp574
g387
asbag68
(g89
g70
NtRp575
(dp576
g73
(dp577
g100
g101
ssg82
g567
sg75
(lp578
S':'
asbag68
(g89
g70
NtRp579
(dp580
g73
(dp581
sg82
g567
sg75
(lp582
g68
(g69
g70
NtRp583
(dp584
g73
(dp585
g81
I3
ssg82
g579
sg75
(lp586
S''
asbasbasbag68
(g84
g70
NtRp587
(dp588
g73
(dp589
sg82
g463
sg75
(lp590
g68
(g89
g70
NtRp591
(dp592
g73
(dp593
g93
g94
ssg82
g587
sg75
(lp594
g408
asbag68
(g89
g70
NtRp595
(dp596
g73
(dp597
g100
g101
ssg82
g587
sg75
(lp598
S':'
asbag68
(g89
g70
NtRp599
(dp600
g73
(dp601
sg82
g587
sg75
(lp602
g68
(g69
g70
NtRp603
(dp604
g73
(dp605
g81
I3
ssg82
g599
sg75
(lp606
S''
asbasbasbag68
(g84
g70
NtRp607
(dp608
g73
(dp609
sg82
g463
sg75
(lp610
g68
(g89
g70
NtRp611
(dp612
g73
(dp613
g93
g94
ssg82
g607
sg75
(lp614
g429
asbag68
(g89
g70
NtRp615
(dp616
g73
(dp617
g100
g101
ssg82
g607
sg75
(lp618
S':'
asbag68
(g89
g70
NtRp619
(dp620
g73
(dp621
sg82
g607
sg75
(lp622
g68
(g69
g70
NtRp623
(dp624
g73
(dp625
g81
I3
ssg82
g619
sg75
(lp626
S''
asbasbasbasbasbasbasbag68
(g84
g70
NtRp627
(dp628
g73
(dp629
sg82
g245
sg75
(lp630
g68
(g89
g70
NtRp631
(dp632
g73
(dp633
g93
g94
ssg82
g627
sg75
(lp634
S'session_id_paideia'
p635
asbag68
(g89
g70
NtRp636
(dp637
g73
(dp638
g100
g101
ssg82
g627
sg75
(lp639
S':'
asbag68
(g89
g70
NtRp640
(dp641
g73
(dp642
sg82
g627
sg75
(lp643
g68
(g69
g70
NtRp644
(dp645
g73
(dp646
g81
I4
ssg82
g640
sg75
(lp647
g68
(g77
g70
NtRp648
(dp649
g73
(dp650
g81
I3
ssg82
Nsg75
(lp651
g68
(g84
g70
NtRp652
(dp653
g73
(dp654
sg82
g648
sg75
(lp655
g68
(g89
g70
NtRp656
(dp657
g73
(dp658
g93
g94
ssg82
g652
sg75
(lp659
g282
asbag68
(g89
g70
NtRp660
(dp661
g73
(dp662
g100
g101
ssg82
g652
sg75
(lp663
S':'
asbag68
(g89
g70
NtRp664
(dp665
g73
(dp666
sg82
g652
sg75
(lp667
g68
(g69
g70
NtRp668
(dp669
g73
(dp670
g81
I3
ssg82
g664
sg75
(lp671
S''
asbasbasbag68
(g84
g70
NtRp672
(dp673
g73
(dp674
sg82
g648
sg75
(lp675
g68
(g89
g70
NtRp676
(dp677
g73
(dp678
g93
g94
ssg82
g672
sg75
(lp679
g303
asbag68
(g89
g70
NtRp680
(dp681
g73
(dp682
g100
g101
ssg82
g672
sg75
(lp683
S':'
asbag68
(g89
g70
NtRp684
(dp685
g73
(dp686
sg82
g672
sg75
(lp687
g68
(g69
g70
NtRp688
(dp689
g73
(dp690
g81
I3
ssg82
g684
sg75
(lp691
S''
asbasbasbag68
(g84
g70
NtRp692
(dp693
g73
(dp694
sg82
g648
sg75
(lp695
g68
(g89
g70
NtRp696
(dp697
g73
(dp698
g93
g94
ssg82
g692
sg75
(lp699
g324
asbag68
(g89
g70
NtRp700
(dp701
g73
(dp702
g100
g101
ssg82
g692
sg75
(lp703
S':'
asbag68
(g89
g70
NtRp704
(dp705
g73
(dp706
sg82
g692
sg75
(lp707
g68
(g69
g70
NtRp708
(dp709
g73
(dp710
g81
I3
ssg82
g704
sg75
(lp711
S''
asbasbasbag68
(g84
g70
NtRp712
(dp713
g73
(dp714
sg82
g648
sg75
(lp715
g68
(g89
g70
NtRp716
(dp717
g73
(dp718
g93
g94
ssg82
g712
sg75
(lp719
g345
asbag68
(g89
g70
NtRp720
(dp721
g73
(dp722
g100
g101
ssg82
g712
sg75
(lp723
S':'
asbag68
(g89
g70
NtRp724
(dp725
g73
(dp726
sg82
g712
sg75
(lp727
g68
(g69
g70
NtRp728
(dp729
g73
(dp730
g81
I3
ssg82
g724
sg75
(lp731
S''
asbasbasbag68
(g84
g70
NtRp732
(dp733
g73
(dp734
sg82
g648
sg75
(lp735
g68
(g89
g70
NtRp736
(dp737
g73
(dp738
g93
g94
ssg82
g732
sg75
(lp739
g366
asbag68
(g89
g70
NtRp740
(dp741
g73
(dp742
g100
g101
ssg82
g732
sg75
(lp743
S':'
asbag68
(g89
g70
NtRp744
(dp745
g73
(dp746
sg82
g732
sg75
(lp747
g68
(g69
g70
NtRp748
(dp749
g73
(dp750
g81
I3
ssg82
g744
sg75
(lp751
S''
asbasbasbag68
(g84
g70
NtRp752
(dp753
g73
(dp754
sg82
g648
sg75
(lp755
g68
(g89
g70
NtRp756
(dp757
g73
(dp758
g93
g94
ssg82
g752
sg75
(lp759
g387
asbag68
(g89
g70
NtRp760
(dp761
g73
(dp762
g100
g101
ssg82
g752
sg75
(lp763
S':'
asbag68
(g89
g70
NtRp764
(dp765
g73
(dp766
sg82
g752
sg75
(lp767
g68
(g69
g70
NtRp768
(dp769
g73
(dp770
g81
I3
ssg82
g764
sg75
(lp771
S''
asbasbasbag68
(g84
g70
NtRp772
(dp773
g73
(dp774
sg82
g648
sg75
(lp775
g68
(g89
g70
NtRp776
(dp777
g73
(dp778
g93
g94
ssg82
g772
sg75
(lp779
g408
asbag68
(g89
g70
NtRp780
(dp781
g73
(dp782
g100
g101
ssg82
g772
sg75
(lp783
S':'
asbag68
(g89
g70
NtRp784
(dp785
g73
(dp786
sg82
g772
sg75
(lp787
g68
(g69
g70
NtRp788
(dp789
g73
(dp790
g81
I3
ssg82
g784
sg75
(lp791
S''
asbasbasbag68
(g84
g70
NtRp792
(dp793
g73
(dp794
sg82
g648
sg75
(lp795
g68
(g89
g70
NtRp796
(dp797
g73
(dp798
g93
g94
ssg82
g792
sg75
(lp799
g429
asbag68
(g89
g70
NtRp800
(dp801
g73
(dp802
g100
g101
ssg82
g792
sg75
(lp803
S':'
asbag68
(g89
g70
NtRp804
(dp805
g73
(dp806
sg82
g792
sg75
(lp807
g68
(g69
g70
NtRp808
(dp809
g73
(dp810
g81
I3
ssg82
g804
sg75
(lp811
S''
asbasbasbasbasbasbasbag68
(g84
g70
NtRp812
(dp813
g73
(dp814
sg82
g245
sg75
(lp815
g68
(g89
g70
NtRp816
(dp817
g73
(dp818
g93
g94
ssg82
g812
sg75
(lp819
S'session_id_welcome'
p820
asbag68
(g89
g70
NtRp821
(dp822
g73
(dp823
g100
g101
ssg82
g812
sg75
(lp824
S':'
asbag68
(g89
g70
NtRp825
(dp826
g73
(dp827
sg82
g812
sg75
(lp828
g68
(g69
g70
NtRp829
(dp830
g73
(dp831
g81
I4
ssg82
g825
sg75
(lp832
g68
(g77
g70
NtRp833
(dp834
g73
(dp835
g81
I3
ssg82
Nsg75
(lp836
g68
(g84
g70
NtRp837
(dp838
g73
(dp839
sg82
g833
sg75
(lp840
g68
(g89
g70
NtRp841
(dp842
g73
(dp843
g93
g94
ssg82
g837
sg75
(lp844
g282
asbag68
(g89
g70
NtRp845
(dp846
g73
(dp847
g100
g101
ssg82
g837
sg75
(lp848
S':'
asbag68
(g89
g70
NtRp849
(dp850
g73
(dp851
sg82
g837
sg75
(lp852
g68
(g69
g70
NtRp853
(dp854
g73
(dp855
g81
I3
ssg82
g849
sg75
(lp856
S''
asbasbasbag68
(g84
g70
NtRp857
(dp858
g73
(dp859
sg82
g833
sg75
(lp860
g68
(g89
g70
NtRp861
(dp862
g73
(dp863
g93
g94
ssg82
g857
sg75
(lp864
g303
asbag68
(g89
g70
NtRp865
(dp866
g73
(dp867
g100
g101
ssg82
g857
sg75
(lp868
S':'
asbag68
(g89
g70
NtRp869
(dp870
g73
(dp871
sg82
g857
sg75
(lp872
g68
(g69
g70
NtRp873
(dp874
g73
(dp875
g81
I3
ssg82
g869
sg75
(lp876
S''
asbasbasbag68
(g84
g70
NtRp877
(dp878
g73
(dp879
sg82
g833
sg75
(lp880
g68
(g89
g70
NtRp881
(dp882
g73
(dp883
g93
g94
ssg82
g877
sg75
(lp884
g324
asbag68
(g89
g70
NtRp885
(dp886
g73
(dp887
g100
g101
ssg82
g877
sg75
(lp888
S':'
asbag68
(g89
g70
NtRp889
(dp890
g73
(dp891
sg82
g877
sg75
(lp892
g68
(g69
g70
NtRp893
(dp894
g73
(dp895
g81
I3
ssg82
g889
sg75
(lp896
S''
asbasbasbag68
(g84
g70
NtRp897
(dp898
g73
(dp899
sg82
g833
sg75
(lp900
g68
(g89
g70
NtRp901
(dp902
g73
(dp903
g93
g94
ssg82
g897
sg75
(lp904
g345
asbag68
(g89
g70
NtRp905
(dp906
g73
(dp907
g100
g101
ssg82
g897
sg75
(lp908
S':'
asbag68
(g89
g70
NtRp909
(dp910
g73
(dp911
sg82
g897
sg75
(lp912
g68
(g69
g70
NtRp913
(dp914
g73
(dp915
g81
I3
ssg82
g909
sg75
(lp916
S''
asbasbasbag68
(g84
g70
NtRp917
(dp918
g73
(dp919
sg82
g833
sg75
(lp920
g68
(g89
g70
NtRp921
(dp922
g73
(dp923
g93
g94
ssg82
g917
sg75
(lp924
g366
asbag68
(g89
g70
NtRp925
(dp926
g73
(dp927
g100
g101
ssg82
g917
sg75
(lp928
S':'
asbag68
(g89
g70
NtRp929
(dp930
g73
(dp931
sg82
g917
sg75
(lp932
g68
(g69
g70
NtRp933
(dp934
g73
(dp935
g81
I3
ssg82
g929
sg75
(lp936
S''
asbasbasbag68
(g84
g70
NtRp937
(dp938
g73
(dp939
sg82
g833
sg75
(lp940
g68
(g89
g70
NtRp941
(dp942
g73
(dp943
g93
g94
ssg82
g937
sg75
(lp944
g387
asbag68
(g89
g70
NtRp945
(dp946
g73
(dp947
g100
g101
ssg82
g937
sg75
(lp948
S':'
asbag68
(g89
g70
NtRp949
(dp950
g73
(dp951
sg82
g937
sg75
(lp952
g68
(g69
g70
NtRp953
(dp954
g73
(dp955
g81
I3
ssg82
g949
sg75
(lp956
S''
asbasbasbag68
(g84
g70
NtRp957
(dp958
g73
(dp959
sg82
g833
sg75
(lp960
g68
(g89
g70
NtRp961
(dp962
g73
(dp963
g93
g94
ssg82
g957
sg75
(lp964
g408
asbag68
(g89
g70
NtRp965
(dp966
g73
(dp967
g100
g101
ssg82
g957
sg75
(lp968
S':'
asbag68
(g89
g70
NtRp969
(dp970
g73
(dp971
sg82
g957
sg75
(lp972
g68
(g69
g70
NtRp973
(dp974
g73
(dp975
g81
I3
ssg82
g969
sg75
(lp976
S''
asbasbasbag68
(g84
g70
NtRp977
(dp978
g73
(dp979
sg82
g833
sg75
(lp980
g68
(g89
g70
NtRp981
(dp982
g73
(dp983
g93
g94
ssg82
g977
sg75
(lp984
g429
asbag68
(g89
g70
NtRp985
(dp986
g73
(dp987
g100
g101
ssg82
g977
sg75
(lp988
S':'
asbag68
(g89
g70
NtRp989
(dp990
g73
(dp991
sg82
g977
sg75
(lp992
g68
(g69
g70
NtRp993
(dp994
g73
(dp995
g81
I3
ssg82
g989
sg75
(lp996
S''
asbasbasbasbasbasbasbasbasbasbasbag68
(g84
g70
NtRp997
(dp998
g73
(dp999
sg82
g78
sg75
(lp1000
g68
(g89
g70
NtRp1001
(dp1002
g73
(dp1003
g93
g94
ssg82
g997
sg75
(lp1004
S'env'
p1005
asbag68
(g89
g70
NtRp1006
(dp1007
g73
(dp1008
g100
g101
ssg82
g997
sg75
(lp1009
S':'
asbag68
(g89
g70
NtRp1010
(dp1011
g73
(dp1012
sg82
g997
sg75
(lp1013
g68
(g69
g70
NtRp1014
(dp1015
g73
(dp1016
g81
I5
ssg82
g1010
sg75
(lp1017
g68
(g77
g70
NtRp1018
(dp1019
g73
(dp1020
g81
I4
ssg82
Nsg75
(lp1021
g68
(g84
g70
NtRp1022
(dp1023
g73
(dp1024
sg82
g1018
sg75
(lp1025
g68
(g89
g70
NtRp1026
(dp1027
g73
(dp1028
g93
g94
ssg82
g1022
sg75
(lp1029
S'app_folders'
p1030
asbag68
(g89
g70
NtRp1031
(dp1032
g73
(dp1033
g100
g101
ssg82
g1022
sg75
(lp1034
S':'
asbag68
(g89
g70
NtRp1035
(dp1036
g73
(dp1037
sg82
g1022
sg75
(lp1038
g68
(g69
g70
NtRp1039
(dp1040
g73
(dp1041
g81
I4
ssg82
g1035
sg75
(lp1042
S"set(['/home/ian/web/web2py/applications/welcome/', '/home/ian/web/web2py/applications/paideia/', '/home/ian/web/web2py/applications/admin/'])"
p1043
asbasbasbag68
(g84
g70
NtRp1044
(dp1045
g73
(dp1046
sg82
g1018
sg75
(lp1047
g68
(g89
g70
NtRp1048
(dp1049
g73
(dp1050
g93
g94
ssg82
g1044
sg75
(lp1051
S'applications_parent'
p1052
asbag68
(g89
g70
NtRp1053
(dp1054
g73
(dp1055
g100
g101
ssg82
g1044
sg75
(lp1056
S':'
asbag68
(g89
g70
NtRp1057
(dp1058
g73
(dp1059
sg82
g1044
sg75
(lp1060
g68
(g69
g70
NtRp1061
(dp1062
g73
(dp1063
g81
I4
ssg82
g1057
sg75
(lp1064
S'/home/ian/web/web2py'
p1065
asbasbasbag68
(g84
g70
NtRp1066
(dp1067
g73
(dp1068
sg82
g1018
sg75
(lp1069
g68
(g89
g70
NtRp1070
(dp1071
g73
(dp1072
g93
g94
ssg82
g1066
sg75
(lp1073
S'cmd_args'
p1074
asbag68
(g89
g70
NtRp1075
(dp1076
g73
(dp1077
g100
g101
ssg82
g1066
sg75
(lp1078
S':'
asbag68
(g89
g70
NtRp1079
(dp1080
g73
(dp1081
sg82
g1066
sg75
(lp1082
g68
(g69
g70
NtRp1083
(dp1084
g73
(dp1085
g81
I4
ssg82
g1079
sg75
(lp1086
g68
(g77
g70
NtRp1087
(dp1088
g73
(dp1089
g81
I3
ssg82
Nsg75
(lp1090
sbasbasbasbag68
(g84
g70
NtRp1091
(dp1092
g73
(dp1093
sg82
g1018
sg75
(lp1094
g68
(g89
g70
NtRp1095
(dp1096
g73
(dp1097
g93
g94
ssg82
g1091
sg75
(lp1098
S'cmd_options'
p1099
asbag68
(g89
g70
NtRp1100
(dp1101
g73
(dp1102
g100
g101
ssg82
g1091
sg75
(lp1103
S':'
asbag68
(g89
g70
NtRp1104
(dp1105
g73
(dp1106
sg82
g1091
sg75
(lp1107
g68
(g69
g70
NtRp1108
(dp1109
g73
(dp1110
g81
I4
ssg82
g1104
sg75
(lp1111
S"<Values at 0x305d758: {'verbose': False, 'ip': '127.0.0.1', 'shutdown_timeout': 5, 'taskbar': False, 'nocron': False, 'pid_filename': 'httpserver.pid', 'maxthreads': None, 'softcron': False, 'server_name': 'uriel', 'bpython': False, 'nogui': False, 'port': 8000, 'extcron': False, 'debuglevel': 30, 'test': None, 'folder': '/home/ian/web/web2py', 'config': '', 'import_models': False, 'winservice': '', 'shell': None, 'run': '', 'log_filename': 'httpserver.log', 'args': [''], 'socket_timeout': 1, 'ssl_ca_certificate': None, 'scheduler': None, 'profiler_filename': None, 'ssl_private_key': '', 'password': '<ask>', 'request_queue_size': 5, 'ssl_certificate': '', 'cronjob': False, 'numthreads': None, 'quiet': False, 'interfaces': None, 'minthreads': None, 'timeout': 10, 'plain': False, 'nobanner': False}>"
p1112
asbasbasbag68
(g84
g70
NtRp1113
(dp1114
g73
(dp1115
sg82
g1018
sg75
(lp1116
g68
(g89
g70
NtRp1117
(dp1118
g73
(dp1119
g93
g94
ssg82
g1113
sg75
(lp1120
S'db_sessions'
p1121
asbag68
(g89
g70
NtRp1122
(dp1123
g73
(dp1124
g100
g101
ssg82
g1113
sg75
(lp1125
S':'
asbag68
(g89
g70
NtRp1126
(dp1127
g73
(dp1128
sg82
g1113
sg75
(lp1129
g68
(g69
g70
NtRp1130
(dp1131
g73
(dp1132
g81
I4
ssg82
g1126
sg75
(lp1133
S'set([])'
p1134
asbasbasbag68
(g84
g70
NtRp1135
(dp1136
g73
(dp1137
sg82
g1018
sg75
(lp1138
g68
(g89
g70
NtRp1139
(dp1140
g73
(dp1141
g93
g94
ssg82
g1135
sg75
(lp1142
S'debugging'
p1143
asbag68
(g89
g70
NtRp1144
(dp1145
g73
(dp1146
g100
g101
ssg82
g1135
sg75
(lp1147
S':'
asbag68
(g89
g70
NtRp1148
(dp1149
g73
(dp1150
sg82
g1135
sg75
(lp1151
g68
(g69
g70
NtRp1152
(dp1153
g73
(dp1154
g81
I4
ssg82
g1148
sg75
(lp1155
g111
asbasbasbag68
(g84
g70
NtRp1156
(dp1157
g73
(dp1158
sg82
g1018
sg75
(lp1159
g68
(g89
g70
NtRp1160
(dp1161
g73
(dp1162
g93
g94
ssg82
g1156
sg75
(lp1163
S'gluon_parent'
p1164
asbag68
(g89
g70
NtRp1165
(dp1166
g73
(dp1167
g100
g101
ssg82
g1156
sg75
(lp1168
S':'
asbag68
(g89
g70
NtRp1169
(dp1170
g73
(dp1171
sg82
g1156
sg75
(lp1172
g68
(g69
g70
NtRp1173
(dp1174
g73
(dp1175
g81
I4
ssg82
g1169
sg75
(lp1176
S'/home/ian/web/web2py'
p1177
asbasbasbag68
(g84
g70
NtRp1178
(dp1179
g73
(dp1180
sg82
g1018
sg75
(lp1181
g68
(g89
g70
NtRp1182
(dp1183
g73
(dp1184
g93
g94
ssg82
g1178
sg75
(lp1185
S'http_accept'
p1186
asbag68
(g89
g70
NtRp1187
(dp1188
g73
(dp1189
g100
g101
ssg82
g1178
sg75
(lp1190
S':'
asbag68
(g89
g70
NtRp1191
(dp1192
g73
(dp1193
sg82
g1178
sg75
(lp1194
g68
(g69
g70
NtRp1195
(dp1196
g73
(dp1197
g81
I4
ssg82
g1191
sg75
(lp1198
S'text/html,application/xhtml+xml,application/xml;q=0.9,*/*;q=0.8'
p1199
asbasbasbag68
(g84
g70
NtRp1200
(dp1201
g73
(dp1202
sg82
g1018
sg75
(lp1203
g68
(g89
g70
NtRp1204
(dp1205
g73
(dp1206
g93
g94
ssg82
g1200
sg75
(lp1207
S'http_accept_encoding'
p1208
asbag68
(g89
g70
NtRp1209
(dp1210
g73
(dp1211
g100
g101
ssg82
g1200
sg75
(lp1212
S':'
asbag68
(g89
g70
NtRp1213
(dp1214
g73
(dp1215
sg82
g1200
sg75
(lp1216
g68
(g69
g70
NtRp1217
(dp1218
g73
(dp1219
g81
I4
ssg82
g1213
sg75
(lp1220
S'gzip, deflate'
p1221
asbasbasbag68
(g84
g70
NtRp1222
(dp1223
g73
(dp1224
sg82
g1018
sg75
(lp1225
g68
(g89
g70
NtRp1226
(dp1227
g73
(dp1228
g93
g94
ssg82
g1222
sg75
(lp1229
S'http_accept_language'
p1230
asbag68
(g89
g70
NtRp1231
(dp1232
g73
(dp1233
g100
g101
ssg82
g1222
sg75
(lp1234
S':'
asbag68
(g89
g70
NtRp1235
(dp1236
g73
(dp1237
sg82
g1222
sg75
(lp1238
g68
(g69
g70
NtRp1239
(dp1240
g73
(dp1241
g81
I4
ssg82
g1235
sg75
(lp1242
S'en-us,en;q=0.5'
p1243
asbasbasbag68
(g84
g70
NtRp1244
(dp1245
g73
(dp1246
sg82
g1018
sg75
(lp1247
g68
(g89
g70
NtRp1248
(dp1249
g73
(dp1250
g93
g94
ssg82
g1244
sg75
(lp1251
S'http_cache_control'
p1252
asbag68
(g89
g70
NtRp1253
(dp1254
g73
(dp1255
g100
g101
ssg82
g1244
sg75
(lp1256
S':'
asbag68
(g89
g70
NtRp1257
(dp1258
g73
(dp1259
sg82
g1244
sg75
(lp1260
g68
(g69
g70
NtRp1261
(dp1262
g73
(dp1263
g81
I4
ssg82
g1257
sg75
(lp1264
S'max-age=0'
p1265
asbasbasbag68
(g84
g70
NtRp1266
(dp1267
g73
(dp1268
sg82
g1018
sg75
(lp1269
g68
(g89
g70
NtRp1270
(dp1271
g73
(dp1272
g93
g94
ssg82
g1266
sg75
(lp1273
S'http_connection'
p1274
asbag68
(g89
g70
NtRp1275
(dp1276
g73
(dp1277
g100
g101
ssg82
g1266
sg75
(lp1278
S':'
asbag68
(g89
g70
NtRp1279
(dp1280
g73
(dp1281
sg82
g1266
sg75
(lp1282
g68
(g69
g70
NtRp1283
(dp1284
g73
(dp1285
g81
I4
ssg82
g1279
sg75
(lp1286
S'keep-alive'
p1287
asbasbasbag68
(g84
g70
NtRp1288
(dp1289
g73
(dp1290
sg82
g1018
sg75
(lp1291
g68
(g89
g70
NtRp1292
(dp1293
g73
(dp1294
g93
g94
ssg82
g1288
sg75
(lp1295
S'http_cookie'
p1296
asbag68
(g89
g70
NtRp1297
(dp1298
g73
(dp1299
g100
g101
ssg82
g1288
sg75
(lp1300
S':'
asbag68
(g89
g70
NtRp1301
(dp1302
g73
(dp1303
sg82
g1288
sg75
(lp1304
g68
(g69
g70
NtRp1305
(dp1306
g73
(dp1307
g81
I4
ssg82
g1301
sg75
(lp1308
S'session_id_paideia=127.0.0.1-d6bcece8-2742-4dcd-9d50-e8b957d71ddc; session_id_grammateus3=127.0.0.1-ae131346-de62-453a-b308-33d5b317e3e5; session_id_welcome=127.0.0.1-2d7c426d-8b25-4e09-8198-5df3cafff407; session_id_admin=127.0.0.1-629e8be1-afe5-45fc-bfd2-0df6ba96261e'
p1309
asbasbasbag68
(g84
g70
NtRp1310
(dp1311
g73
(dp1312
sg82
g1018
sg75
(lp1313
g68
(g89
g70
NtRp1314
(dp1315
g73
(dp1316
g93
g94
ssg82
g1310
sg75
(lp1317
S'http_host'
p1318
asbag68
(g89
g70
NtRp1319
(dp1320
g73
(dp1321
g100
g101
ssg82
g1310
sg75
(lp1322
S':'
asbag68
(g89
g70
NtRp1323
(dp1324
g73
(dp1325
sg82
g1310
sg75
(lp1326
g68
(g69
g70
NtRp1327
(dp1328
g73
(dp1329
g81
I4
ssg82
g1323
sg75
(lp1330
S'127.0.0.1:8000'
p1331
asbasbasbag68
(g84
g70
NtRp1332
(dp1333
g73
(dp1334
sg82
g1018
sg75
(lp1335
g68
(g89
g70
NtRp1336
(dp1337
g73
(dp1338
g93
g94
ssg82
g1332
sg75
(lp1339
S'http_referer'
p1340
asbag68
(g89
g70
NtRp1341
(dp1342
g73
(dp1343
g100
g101
ssg82
g1332
sg75
(lp1344
S':'
asbag68
(g89
g70
NtRp1345
(dp1346
g73
(dp1347
sg82
g1332
sg75
(lp1348
g68
(g69
g70
NtRp1349
(dp1350
g73
(dp1351
g81
I4
ssg82
g1345
sg75
(lp1352
S'http://127.0.0.1:8000/paideia'
p1353
asbasbasbag68
(g84
g70
NtRp1354
(dp1355
g73
(dp1356
sg82
g1018
sg75
(lp1357
g68
(g89
g70
NtRp1358
(dp1359
g73
(dp1360
g93
g94
ssg82
g1354
sg75
(lp1361
S'http_user_agent'
p1362
asbag68
(g89
g70
NtRp1363
(dp1364
g73
(dp1365
g100
g101
ssg82
g1354
sg75
(lp1366
S':'
asbag68
(g89
g70
NtRp1367
(dp1368
g73
(dp1369
sg82
g1354
sg75
(lp1370
g68
(g69
g70
NtRp1371
(dp1372
g73
(dp1373
g81
I4
ssg82
g1367
sg75
(lp1374
S'Mozilla/5.0 (X11; Ubuntu; Linux x86_64; rv:11.0) Gecko/20100101 Firefox/11.0 openid'
p1375
asbasbasbag68
(g84
g70
NtRp1376
(dp1377
g73
(dp1378
sg82
g1018
sg75
(lp1379
g68
(g89
g70
NtRp1380
(dp1381
g73
(dp1382
g93
g94
ssg82
g1376
sg75
(lp1383
S'is_jython'
p1384
asbag68
(g89
g70
NtRp1385
(dp1386
g73
(dp1387
g100
g101
ssg82
g1376
sg75
(lp1388
S':'
asbag68
(g89
g70
NtRp1389
(dp1390
g73
(dp1391
sg82
g1376
sg75
(lp1392
g68
(g69
g70
NtRp1393
(dp1394
g73
(dp1395
g81
I4
ssg82
g1389
sg75
(lp1396
g111
asbasbasbag68
(g84
g70
NtRp1397
(dp1398
g73
(dp1399
sg82
g1018
sg75
(lp1400
g68
(g89
g70
NtRp1401
(dp1402
g73
(dp1403
g93
g94
ssg82
g1397
sg75
(lp1404
S'is_pypy'
p1405
asbag68
(g89
g70
NtRp1406
(dp1407
g73
(dp1408
g100
g101
ssg82
g1397
sg75
(lp1409
S':'
asbag68
(g89
g70
NtRp1410
(dp1411
g73
(dp1412
sg82
g1397
sg75
(lp1413
g68
(g69
g70
NtRp1414
(dp1415
g73
(dp1416
g81
I4
ssg82
g1410
sg75
(lp1417
g111
asbasbasbag68
(g84
g70
NtRp1418
(dp1419
g73
(dp1420
sg82
g1018
sg75
(lp1421
g68
(g89
g70
NtRp1422
(dp1423
g73
(dp1424
g93
g94
ssg82
g1418
sg75
(lp1425
S'path_info'
p1426
asbag68
(g89
g70
NtRp1427
(dp1428
g73
(dp1429
g100
g101
ssg82
g1418
sg75
(lp1430
S':'
asbag68
(g89
g70
NtRp1431
(dp1432
g73
(dp1433
sg82
g1418
sg75
(lp1434
g68
(g69
g70
NtRp1435
(dp1436
g73
(dp1437
g81
I4
ssg82
g1431
sg75
(lp1438
S'/paideia/exploring/index'
p1439
asbasbasbag68
(g84
g70
NtRp1440
(dp1441
g73
(dp1442
sg82
g1018
sg75
(lp1443
g68
(g89
g70
NtRp1444
(dp1445
g73
(dp1446
g93
g94
ssg82
g1440
sg75
(lp1447
S'query_string'
p1448
asbag68
(g89
g70
NtRp1449
(dp1450
g73
(dp1451
g100
g101
ssg82
g1440
sg75
(lp1452
S':'
asbag68
(g89
g70
NtRp1453
(dp1454
g73
(dp1455
sg82
g1440
sg75
(lp1456
g68
(g69
g70
NtRp1457
(dp1458
g73
(dp1459
g81
I4
ssg82
g1453
sg75
(lp1460
S''
asbasbasbag68
(g84
g70
NtRp1461
(dp1462
g73
(dp1463
sg82
g1018
sg75
(lp1464
g68
(g89
g70
NtRp1465
(dp1466
g73
(dp1467
g93
g94
ssg82
g1461
sg75
(lp1468
S'remote_addr'
p1469
asbag68
(g89
g70
NtRp1470
(dp1471
g73
(dp1472
g100
g101
ssg82
g1461
sg75
(lp1473
S':'
asbag68
(g89
g70
NtRp1474
(dp1475
g73
(dp1476
sg82
g1461
sg75
(lp1477
g68
(g69
g70
NtRp1478
(dp1479
g73
(dp1480
g81
I4
ssg82
g1474
sg75
(lp1481
g201
asbasbasbag68
(g84
g70
NtRp1482
(dp1483
g73
(dp1484
sg82
g1018
sg75
(lp1485
g68
(g89
g70
NtRp1486
(dp1487
g73
(dp1488
g93
g94
ssg82
g1482
sg75
(lp1489
S'remote_port'
p1490
asbag68
(g89
g70
NtRp1491
(dp1492
g73
(dp1493
g100
g101
ssg82
g1482
sg75
(lp1494
S':'
asbag68
(g89
g70
NtRp1495
(dp1496
g73
(dp1497
sg82
g1482
sg75
(lp1498
g68
(g69
g70
NtRp1499
(dp1500
g73
(dp1501
g81
I4
ssg82
g1495
sg75
(lp1502
S'42486'
p1503
asbasbasbag68
(g84
g70
NtRp1504
(dp1505
g73
(dp1506
sg82
g1018
sg75
(lp1507
g68
(g89
g70
NtRp1508
(dp1509
g73
(dp1510
g93
g94
ssg82
g1504
sg75
(lp1511
S'request_method'
p1512
asbag68
(g89
g70
NtRp1513
(dp1514
g73
(dp1515
g100
g101
ssg82
g1504
sg75
(lp1516
S':'
asbag68
(g89
g70
NtRp1517
(dp1518
g73
(dp1519
sg82
g1504
sg75
(lp1520
g68
(g69
g70
NtRp1521
(dp1522
g73
(dp1523
g81
I4
ssg82
g1517
sg75
(lp1524
S'GET'
p1525
asbasbasbag68
(g84
g70
NtRp1526
(dp1527
g73
(dp1528
sg82
g1018
sg75
(lp1529
g68
(g89
g70
NtRp1530
(dp1531
g73
(dp1532
g93
g94
ssg82
g1526
sg75
(lp1533
S'script_name'
p1534
asbag68
(g89
g70
NtRp1535
(dp1536
g73
(dp1537
g100
g101
ssg82
g1526
sg75
(lp1538
S':'
asbag68
(g89
g70
NtRp1539
(dp1540
g73
(dp1541
sg82
g1526
sg75
(lp1542
g68
(g69
g70
NtRp1543
(dp1544
g73
(dp1545
g81
I4
ssg82
g1539
sg75
(lp1546
S''
asbasbasbag68
(g84
g70
NtRp1547
(dp1548
g73
(dp1549
sg82
g1018
sg75
(lp1550
g68
(g89
g70
NtRp1551
(dp1552
g73
(dp1553
g93
g94
ssg82
g1547
sg75
(lp1554
S'server_name'
p1555
asbag68
(g89
g70
NtRp1556
(dp1557
g73
(dp1558
g100
g101
ssg82
g1547
sg75
(lp1559
S':'
asbag68
(g89
g70
NtRp1560
(dp1561
g73
(dp1562
sg82
g1547
sg75
(lp1563
g68
(g69
g70
NtRp1564
(dp1565
g73
(dp1566
g81
I4
ssg82
g1560
sg75
(lp1567
S'uriel'
p1568
asbasbasbag68
(g84
g70
NtRp1569
(dp1570
g73
(dp1571
sg82
g1018
sg75
(lp1572
g68
(g89
g70
NtRp1573
(dp1574
g73
(dp1575
g93
g94
ssg82
g1569
sg75
(lp1576
S'server_port'
p1577
asbag68
(g89
g70
NtRp1578
(dp1579
g73
(dp1580
g100
g101
ssg82
g1569
sg75
(lp1581
S':'
asbag68
(g89
g70
NtRp1582
(dp1583
g73
(dp1584
sg82
g1569
sg75
(lp1585
g68
(g69
g70
NtRp1586
(dp1587
g73
(dp1588
g81
I4
ssg82
g1582
sg75
(lp1589
S'8000'
p1590
asbasbasbag68
(g84
g70
NtRp1591
(dp1592
g73
(dp1593
sg82
g1018
sg75
(lp1594
g68
(g89
g70
NtRp1595
(dp1596
g73
(dp1597
g93
g94
ssg82
g1591
sg75
(lp1598
S'server_protocol'
p1599
asbag68
(g89
g70
NtRp1600
(dp1601
g73
(dp1602
g100
g101
ssg82
g1591
sg75
(lp1603
S':'
asbag68
(g89
g70
NtRp1604
(dp1605
g73
(dp1606
sg82
g1591
sg75
(lp1607
g68
(g69
g70
NtRp1608
(dp1609
g73
(dp1610
g81
I4
ssg82
g1604
sg75
(lp1611
S'HTTP/1.1'
p1612
asbasbasbag68
(g84
g70
NtRp1613
(dp1614
g73
(dp1615
sg82
g1018
sg75
(lp1616
g68
(g89
g70
NtRp1617
(dp1618
g73
(dp1619
g93
g94
ssg82
g1613
sg75
(lp1620
S'server_software'
p1621
asbag68
(g89
g70
NtRp1622
(dp1623
g73
(dp1624
g100
g101
ssg82
g1613
sg75
(lp1625
S':'
asbag68
(g89
g70
NtRp1626
(dp1627
g73
(dp1628
sg82
g1613
sg75
(lp1629
g68
(g69
g70
NtRp1630
(dp1631
g73
(dp1632
g81
I4
ssg82
g1626
sg75
(lp1633
S'Rocket 1.2.4'
p1634
asbasbasbag68
(g84
g70
NtRp1635
(dp1636
g73
(dp1637
sg82
g1018
sg75
(lp1638
g68
(g89
g70
NtRp1639
(dp1640
g73
(dp1641
g93
g94
ssg82
g1635
sg75
(lp1642
S'web2py_crontype'
p1643
asbag68
(g89
g70
NtRp1644
(dp1645
g73
(dp1646
g100
g101
ssg82
g1635
sg75
(lp1647
S':'
asbag68
(g89
g70
NtRp1648
(dp1649
g73
(dp1650
sg82
g1635
sg75
(lp1651
g68
(g69
g70
NtRp1652
(dp1653
g73
(dp1654
g81
I4
ssg82
g1648
sg75
(lp1655
S'hard'
p1656
asbasbasbag68
(g84
g70
NtRp1657
(dp1658
g73
(dp1659
sg82
g1018
sg75
(lp1660
g68
(g89
g70
NtRp1661
(dp1662
g73
(dp1663
g93
g94
ssg82
g1657
sg75
(lp1664
S'web2py_path'
p1665
asbag68
(g89
g70
NtRp1666
(dp1667
g73
(dp1668
g100
g101
ssg82
g1657
sg75
(lp1669
S':'
asbag68
(g89
g70
NtRp1670
(dp1671
g73
(dp1672
sg82
g1657
sg75
(lp1673
g68
(g69
g70
NtRp1674
(dp1675
g73
(dp1676
g81
I4
ssg82
g1670
sg75
(lp1677
g1065
asbasbasbag68
(g84
g70
NtRp1678
(dp1679
g73
(dp1680
sg82
g1018
sg75
(lp1681
g68
(g89
g70
NtRp1682
(dp1683
g73
(dp1684
g93
g94
ssg82
g1678
sg75
(lp1685
S'web2py_version'
p1686
asbag68
(g89
g70
NtRp1687
(dp1688
g73
(dp1689
g100
g101
ssg82
g1678
sg75
(lp1690
S':'
asbag68
(g89
g70
NtRp1691
(dp1692
g73
(dp1693
sg82
g1678
sg75
(lp1694
g68
(g69
g70
NtRp1695
(dp1696
g73
(dp1697
g81
I4
ssg82
g1691
sg75
(lp1698
g68
(g77
g70
NtRp1699
(dp1700
g73
(dp1701
g81
I3
ssg82
Nsg75
(lp1702
g68
(g84
g70
NtRp1703
(dp1704
g73
(dp1705
sg82
g1699
sg75
(lp1706
g68
(g89
g70
NtRp1707
(dp1708
g73
(dp1709
sg82
g1703
sg75
(lp1710
g68
(g69
g70
NtRp1711
(dp1712
g73
(dp1713
g81
I3
ssg82
g1707
sg75
(lp1714
S'1'
asbasbasbag68
(g84
g70
NtRp1715
(dp1716
g73
(dp1717
sg82
g1699
sg75
(lp1718
g68
(g89
g70
NtRp1719
(dp1720
g73
(dp1721
sg82
g1715
sg75
(lp1722
g68
(g69
g70
NtRp1723
(dp1724
g73
(dp1725
g81
I3
ssg82
g1719
sg75
(lp1726
S'99'
p1727
asbasbasbag68
(g84
g70
NtRp1728
(dp1729
g73
(dp1730
sg82
g1699
sg75
(lp1731
g68
(g89
g70
NtRp1732
(dp1733
g73
(dp1734
sg82
g1728
sg75
(lp1735
g68
(g69
g70
NtRp1736
(dp1737
g73
(dp1738
g81
I3
ssg82
g1732
sg75
(lp1739
S'4'
asbasbasbag68
(g84
g70
NtRp1740
(dp1741
g73
(dp1742
sg82
g1699
sg75
(lp1743
g68
(g89
g70
NtRp1744
(dp1745
g73
(dp1746
sg82
g1740
sg75
(lp1747
g68
(g69
g70
NtRp1748
(dp1749
g73
(dp1750
g81
I3
ssg82
g1744
sg75
(lp1751
S'datetime.datetime(2011, 12, 14, 14, 46, 14)'
p1752
asbasbasbag68
(g84
g70
NtRp1753
(dp1754
g73
(dp1755
sg82
g1699
sg75
(lp1756
g68
(g89
g70
NtRp1757
(dp1758
g73
(dp1759
sg82
g1753
sg75
(lp1760
g68
(g69
g70
NtRp1761
(dp1762
g73
(dp1763
g81
I3
ssg82
g1757
sg75
(lp1764
S'stable'
p1765
asbasbasbasbasbasbasbag68
(g84
g70
NtRp1766
(dp1767
g73
(dp1768
sg82
g1018
sg75
(lp1769
g68
(g89
g70
NtRp1770
(dp1771
g73
(dp1772
g93
g94
ssg82
g1766
sg75
(lp1773
S'wsgi_errors'
p1774
asbag68
(g89
g70
NtRp1775
(dp1776
g73
(dp1777
g100
g101
ssg82
g1766
sg75
(lp1778
S':'
asbag68
(g89
g70
NtRp1779
(dp1780
g73
(dp1781
sg82
g1766
sg75
(lp1782
g68
(g69
g70
NtRp1783
(dp1784
g73
(dp1785
g81
I4
ssg82
g1779
sg75
(lp1786
S"<open file '<stderr>', mode 'w' at 0x7fc18ce14270>"
p1787
asbasbasbag68
(g84
g70
NtRp1788
(dp1789
g73
(dp1790
sg82
g1018
sg75
(lp1791
g68
(g89
g70
NtRp1792
(dp1793
g73
(dp1794
g93
g94
ssg82
g1788
sg75
(lp1795
S'wsgi_file_wrapper'
p1796
asbag68
(g89
g70
NtRp1797
(dp1798
g73
(dp1799
g100
g101
ssg82
g1788
sg75
(lp1800
S':'
asbag68
(g89
g70
NtRp1801
(dp1802
g73
(dp1803
sg82
g1788
sg75
(lp1804
g68
(g69
g70
NtRp1805
(dp1806
g73
(dp1807
g81
I4
ssg82
g1801
sg75
(lp1808
S'<class wsgiref.util.FileWrapper at 0x2f26d50>'
p1809
asbasbasbag68
(g84
g70
NtRp1810
(dp1811
g73
(dp1812
sg82
g1018
sg75
(lp1813
g68
(g89
g70
NtRp1814
(dp1815
g73
(dp1816
g93
g94
ssg82
g1810
sg75
(lp1817
S'wsgi_input'
p1818
asbag68
(g89
g70
NtRp1819
(dp1820
g73
(dp1821
g100
g101
ssg82
g1810
sg75
(lp1822
S':'
asbag68
(g89
g70
NtRp1823
(dp1824
g73
(dp1825
sg82
g1810
sg75
(lp1826
g68
(g69
g70
NtRp1827
(dp1828
g73
(dp1829
g81
I4
ssg82
g1823
sg75
(lp1830
S'<socket._fileobject object at 0x7fc1580919d0>'
p1831
asbasbasbag68
(g84
g70
NtRp1832
(dp1833
g73
(dp1834
sg82
g1018
sg75
(lp1835
g68
(g89
g70
NtRp1836
(dp1837
g73
(dp1838
g93
g94
ssg82
g1832
sg75
(lp1839
S'wsgi_multiprocess'
p1840
asbag68
(g89
g70
NtRp1841
(dp1842
g73
(dp1843
g100
g101
ssg82
g1832
sg75
(lp1844
S':'
asbag68
(g89
g70
NtRp1845
(dp1846
g73
(dp1847
sg82
g1832
sg75
(lp1848
g68
(g69
g70
NtRp1849
(dp1850
g73
(dp1851
g81
I4
ssg82
g1845
sg75
(lp1852
g111
asbasbasbag68
(g84
g70
NtRp1853
(dp1854
g73
(dp1855
sg82
g1018
sg75
(lp1856
g68
(g89
g70
NtRp1857
(dp1858
g73
(dp1859
g93
g94
ssg82
g1853
sg75
(lp1860
S'wsgi_multithread'
p1861
asbag68
(g89
g70
NtRp1862
(dp1863
g73
(dp1864
g100
g101
ssg82
g1853
sg75
(lp1865
S':'
asbag68
(g89
g70
NtRp1866
(dp1867
g73
(dp1868
sg82
g1853
sg75
(lp1869
g68
(g69
g70
NtRp1870
(dp1871
g73
(dp1872
g81
I4
ssg82
g1866
sg75
(lp1873
S'True'
p1874
asbasbasbag68
(g84
g70
NtRp1875
(dp1876
g73
(dp1877
sg82
g1018
sg75
(lp1878
g68
(g89
g70
NtRp1879
(dp1880
g73
(dp1881
g93
g94
ssg82
g1875
sg75
(lp1882
S'wsgi_run_once'
p1883
asbag68
(g89
g70
NtRp1884
(dp1885
g73
(dp1886
g100
g101
ssg82
g1875
sg75
(lp1887
S':'
asbag68
(g89
g70
NtRp1888
(dp1889
g73
(dp1890
sg82
g1875
sg75
(lp1891
g68
(g69
g70
NtRp1892
(dp1893
g73
(dp1894
g81
I4
ssg82
g1888
sg75
(lp1895
g111
asbasbasbag68
(g84
g70
NtRp1896
(dp1897
g73
(dp1898
sg82
g1018
sg75
(lp1899
g68
(g89
g70
NtRp1900
(dp1901
g73
(dp1902
g93
g94
ssg82
g1896
sg75
(lp1903
S'wsgi_url_scheme'
p1904
asbag68
(g89
g70
NtRp1905
(dp1906
g73
(dp1907
g100
g101
ssg82
g1896
sg75
(lp1908
S':'
asbag68
(g89
g70
NtRp1909
(dp1910
g73
(dp1911
sg82
g1896
sg75
(lp1912
g68
(g69
g70
NtRp1913
(dp1914
g73
(dp1915
g81
I4
ssg82
g1909
sg75
(lp1916
S'http'
p1917
asbasbasbag68
(g84
g70
NtRp1918
(dp1919
g73
(dp1920
sg82
g1018
sg75
(lp1921
g68
(g89
g70
NtRp1922
(dp1923
g73
(dp1924
g93
g94
ssg82
g1918
sg75
(lp1925
S'wsgi_version'
p1926
asbag68
(g89
g70
NtRp1927
(dp1928
g73
(dp1929
g100
g101
ssg82
g1918
sg75
(lp1930
S':'
asbag68
(g89
g70
NtRp1931
(dp1932
g73
(dp1933
sg82
g1918
sg75
(lp1934
g68
(g69
g70
NtRp1935
(dp1936
g73
(dp1937
g81
I4
ssg82
g1931
sg75
(lp1938
g68
(g77
g70
NtRp1939
(dp1940
g73
(dp1941
g81
I3
ssg82
Nsg75
(lp1942
g68
(g84
g70
NtRp1943
(dp1944
g73
(dp1945
sg82
g1939
sg75
(lp1946
g68
(g89
g70
NtRp1947
(dp1948
g73
(dp1949
sg82
g1943
sg75
(lp1950
g68
(g69
g70
NtRp1951
(dp1952
g73
(dp1953
g81
I3
ssg82
g1947
sg75
(lp1954
S'1'
asbasbasbag68
(g84
g70
NtRp1955
(dp1956
g73
(dp1957
sg82
g1939
sg75
(lp1958
g68
(g89
g70
NtRp1959
(dp1960
g73
(dp1961
sg82
g1955
sg75
(lp1962
g68
(g69
g70
NtRp1963
(dp1964
g73
(dp1965
g81
I3
ssg82
g1959
sg75
(lp1966
S'0'
asbasbasbasbasbasbasbasbasbasbasbag68
(g84
g70
NtRp1967
(dp1968
g73
(dp1969
sg82
g78
sg75
(lp1970
g68
(g89
g70
NtRp1971
(dp1972
g73
(dp1973
g93
g94
ssg82
g1967
sg75
(lp1974
S'extension'
p1975
asbag68
(g89
g70
NtRp1976
(dp1977
g73
(dp1978
g100
g101
ssg82
g1967
sg75
(lp1979
S':'
asbag68
(g89
g70
NtRp1980
(dp1981
g73
(dp1982
sg82
g1967
sg75
(lp1983
g68
(g69
g70
NtRp1984
(dp1985
g73
(dp1986
g81
I5
ssg82
g1980
sg75
(lp1987
S'html'
p1988
asbasbasbag68
(g84
g70
NtRp1989
(dp1990
g73
(dp1991
sg82
g78
sg75
(lp1992
g68
(g89
g70
NtRp1993
(dp1994
g73
(dp1995
g93
g94
ssg82
g1989
sg75
(lp1996
S'folder'
p1997
asbag68
(g89
g70
NtRp1998
(dp1999
g73
(dp2000
g100
g101
ssg82
g1989
sg75
(lp2001
S':'
asbag68
(g89
g70
NtRp2002
(dp2003
g73
(dp2004
sg82
g1989
sg75
(lp2005
g68
(g69
g70
NtRp2006
(dp2007
g73
(dp2008
g81
I5
ssg82
g2002
sg75
(lp2009
S'/home/ian/web/web2py/applications/paideia/'
p2010
asbasbasbag68
(g84
g70
NtRp2011
(dp2012
g73
(dp2013
sg82
g78
sg75
(lp2014
g68
(g89
g70
NtRp2015
(dp2016
g73
(dp2017
g93
g94
ssg82
g2011
sg75
(lp2018
S'function'
p2019
asbag68
(g89
g70
NtRp2020
(dp2021
g73
(dp2022
g100
g101
ssg82
g2011
sg75
(lp2023
S':'
asbag68
(g89
g70
NtRp2024
(dp2025
g73
(dp2026
sg82
g2011
sg75
(lp2027
g68
(g69
g70
NtRp2028
(dp2029
g73
(dp2030
g81
I5
ssg82
g2024
sg75
(lp2031
S'index'
p2032
asbasbasbag68
(g84
g70
NtRp2033
(dp2034
g73
(dp2035
sg82
g78
sg75
(lp2036
g68
(g89
g70
NtRp2037
(dp2038
g73
(dp2039
g93
g94
ssg82
g2033
sg75
(lp2040
S'get_vars'
p2041
asbag68
(g89
g70
NtRp2042
(dp2043
g73
(dp2044
g100
g101
ssg82
g2033
sg75
(lp2045
S':'
asbag68
(g89
g70
NtRp2046
(dp2047
g73
(dp2048
sg82
g2033
sg75
(lp2049
g68
(g69
g70
NtRp2050
(dp2051
g73
(dp2052
g81
I5
ssg82
g2046
sg75
(lp2053
g68
(g77
g70
NtRp2054
(dp2055
g73
(dp2056
g81
I4
ssg82
Nsg75
(lp2057
sbasbasbasbag68
(g84
g70
NtRp2058
(dp2059
g73
(dp2060
sg82
g78
sg75
(lp2061
g68
(g89
g70
NtRp2062
(dp2063
g73
(dp2064
g93
g94
ssg82
g2058
sg75
(lp2065
S'global_settings'
p2066
asbag68
(g89
g70
NtRp2067
(dp2068
g73
(dp2069
g100
g101
ssg82
g2058
sg75
(lp2070
S':'
asbag68
(g89
g70
NtRp2071
(dp2072
g73
(dp2073
sg82
g2058
sg75
(lp2074
g68
(g69
g70
NtRp2075
(dp2076
g73
(dp2077
g81
I5
ssg82
g2071
sg75
(lp2078
g68
(g77
g70
NtRp2079
(dp2080
g73
(dp2081
g81
I4
ssg82
Nsg75
(lp2082
g68
(g84
g70
NtRp2083
(dp2084
g73
(dp2085
sg82
g2079
sg75
(lp2086
g68
(g89
g70
NtRp2087
(dp2088
g73
(dp2089
g93
g94
ssg82
g2083
sg75
(lp2090
g1030
asbag68
(g89
g70
NtRp2091
(dp2092
g73
(dp2093
g100
g101
ssg82
g2083
sg75
(lp2094
S':'
asbag68
(g89
g70
NtRp2095
(dp2096
g73
(dp2097
sg82
g2083
sg75
(lp2098
g68
(g69
g70
NtRp2099
(dp2100
g73
(dp2101
g81
I4
ssg82
g2095
sg75
(lp2102
S"set(['/home/ian/web/web2py/applications/welcome/', '/home/ian/web/web2py/applications/paideia/', '/home/ian/web/web2py/applications/admin/'])"
p2103
asbasbasbag68
(g84
g70
NtRp2104
(dp2105
g73
(dp2106
sg82
g2079
sg75
(lp2107
g68
(g89
g70
NtRp2108
(dp2109
g73
(dp2110
g93
g94
ssg82
g2104
sg75
(lp2111
g1052
asbag68
(g89
g70
NtRp2112
(dp2113
g73
(dp2114
g100
g101
ssg82
g2104
sg75
(lp2115
S':'
asbag68
(g89
g70
NtRp2116
(dp2117
g73
(dp2118
sg82
g2104
sg75
(lp2119
g68
(g69
g70
NtRp2120
(dp2121
g73
(dp2122
g81
I4
ssg82
g2116
sg75
(lp2123
g1065
asbasbasbag68
(g84
g70
NtRp2124
(dp2125
g73
(dp2126
sg82
g2079
sg75
(lp2127
g68
(g89
g70
NtRp2128
(dp2129
g73
(dp2130
g93
g94
ssg82
g2124
sg75
(lp2131
g1074
asbag68
(g89
g70
NtRp2132
(dp2133
g73
(dp2134
g100
g101
ssg82
g2124
sg75
(lp2135
S':'
asbag68
(g89
g70
NtRp2136
(dp2137
g73
(dp2138
sg82
g2124
sg75
(lp2139
g68
(g69
g70
NtRp2140
(dp2141
g73
(dp2142
g81
I4
ssg82
g2136
sg75
(lp2143
g68
(g77
g70
NtRp2144
(dp2145
g73
(dp2146
g81
I3
ssg82
Nsg75
(lp2147
sbasbasbasbag68
(g84
g70
NtRp2148
(dp2149
g73
(dp2150
sg82
g2079
sg75
(lp2151
g68
(g89
g70
NtRp2152
(dp2153
g73
(dp2154
g93
g94
ssg82
g2148
sg75
(lp2155
g1099
asbag68
(g89
g70
NtRp2156
(dp2157
g73
(dp2158
g100
g101
ssg82
g2148
sg75
(lp2159
S':'
asbag68
(g89
g70
NtRp2160
(dp2161
g73
(dp2162
sg82
g2148
sg75
(lp2163
g68
(g69
g70
NtRp2164
(dp2165
g73
(dp2166
g81
I4
ssg82
g2160
sg75
(lp2167
S"<Values at 0x305d758: {'verbose': False, 'ip': '127.0.0.1', 'shutdown_timeout': 5, 'taskbar': False, 'nocron': False, 'pid_filename': 'httpserver.pid', 'maxthreads': None, 'softcron': False, 'server_name': 'uriel', 'bpython': False, 'nogui': False, 'port': 8000, 'extcron': False, 'debuglevel': 30, 'test': None, 'folder': '/home/ian/web/web2py', 'config': '', 'import_models': False, 'winservice': '', 'shell': None, 'run': '', 'log_filename': 'httpserver.log', 'args': [''], 'socket_timeout': 1, 'ssl_ca_certificate': None, 'scheduler': None, 'profiler_filename': None, 'ssl_private_key': '', 'password': '<ask>', 'request_queue_size': 5, 'ssl_certificate': '', 'cronjob': False, 'numthreads': None, 'quiet': False, 'interfaces': None, 'minthreads': None, 'timeout': 10, 'plain': False, 'nobanner': False}>"
p2168
asbasbasbag68
(g84
g70
NtRp2169
(dp2170
g73
(dp2171
sg82
g2079
sg75
(lp2172
g68
(g89
g70
NtRp2173
(dp2174
g73
(dp2175
g93
g94
ssg82
g2169
sg75
(lp2176
g1121
asbag68
(g89
g70
NtRp2177
(dp2178
g73
(dp2179
g100
g101
ssg82
g2169
sg75
(lp2180
S':'
asbag68
(g89
g70
NtRp2181
(dp2182
g73
(dp2183
sg82
g2169
sg75
(lp2184
g68
(g69
g70
NtRp2185
(dp2186
g73
(dp2187
g81
I4
ssg82
g2181
sg75
(lp2188
S'set([])'
p2189
asbasbasbag68
(g84
g70
NtRp2190
(dp2191
g73
(dp2192
sg82
g2079
sg75
(lp2193
g68
(g89
g70
NtRp2194
(dp2195
g73
(dp2196
g93
g94
ssg82
g2190
sg75
(lp2197
g1143
asbag68
(g89
g70
NtRp2198
(dp2199
g73
(dp2200
g100
g101
ssg82
g2190
sg75
(lp2201
S':'
asbag68
(g89
g70
NtRp2202
(dp2203
g73
(dp2204
sg82
g2190
sg75
(lp2205
g68
(g69
g70
NtRp2206
(dp2207
g73
(dp2208
g81
I4
ssg82
g2202
sg75
(lp2209
g111
asbasbasbag68
(g84
g70
NtRp2210
(dp2211
g73
(dp2212
sg82
g2079
sg75
(lp2213
g68
(g89
g70
NtRp2214
(dp2215
g73
(dp2216
g93
g94
ssg82
g2210
sg75
(lp2217
g1164
asbag68
(g89
g70
NtRp2218
(dp2219
g73
(dp2220
g100
g101
ssg82
g2210
sg75
(lp2221
S':'
asbag68
(g89
g70
NtRp2222
(dp2223
g73
(dp2224
sg82
g2210
sg75
(lp2225
g68
(g69
g70
NtRp2226
(dp2227
g73
(dp2228
g81
I4
ssg82
g2222
sg75
(lp2229
g1177
asbasbasbag68
(g84
g70
NtRp2230
(dp2231
g73
(dp2232
sg82
g2079
sg75
(lp2233
g68
(g89
g70
NtRp2234
(dp2235
g73
(dp2236
g93
g94
ssg82
g2230
sg75
(lp2237
g1384
asbag68
(g89
g70
NtRp2238
(dp2239
g73
(dp2240
g100
g101
ssg82
g2230
sg75
(lp2241
S':'
asbag68
(g89
g70
NtRp2242
(dp2243
g73
(dp2244
sg82
g2230
sg75
(lp2245
g68
(g69
g70
NtRp2246
(dp2247
g73
(dp2248
g81
I4
ssg82
g2242
sg75
(lp2249
g111
asbasbasbag68
(g84
g70
NtRp2250
(dp2251
g73
(dp2252
sg82
g2079
sg75
(lp2253
g68
(g89
g70
NtRp2254
(dp2255
g73
(dp2256
g93
g94
ssg82
g2250
sg75
(lp2257
g1405
asbag68
(g89
g70
NtRp2258
(dp2259
g73
(dp2260
g100
g101
ssg82
g2250
sg75
(lp2261
S':'
asbag68
(g89
g70
NtRp2262
(dp2263
g73
(dp2264
sg82
g2250
sg75
(lp2265
g68
(g69
g70
NtRp2266
(dp2267
g73
(dp2268
g81
I4
ssg82
g2262
sg75
(lp2269
g111
asbasbasbag68
(g84
g70
NtRp2270
(dp2271
g73
(dp2272
sg82
g2079
sg75
(lp2273
g68
(g89
g70
NtRp2274
(dp2275
g73
(dp2276
g93
g94
ssg82
g2270
sg75
(lp2277
g1643
asbag68
(g89
g70
NtRp2278
(dp2279
g73
(dp2280
g100
g101
ssg82
g2270
sg75
(lp2281
S':'
asbag68
(g89
g70
NtRp2282
(dp2283
g73
(dp2284
sg82
g2270
sg75
(lp2285
g68
(g69
g70
NtRp2286
(dp2287
g73
(dp2288
g81
I4
ssg82
g2282
sg75
(lp2289
g1656
asbasbasbag68
(g84
g70
NtRp2290
(dp2291
g73
(dp2292
sg82
g2079
sg75
(lp2293
g68
(g89
g70
NtRp2294
(dp2295
g73
(dp2296
g93
g94
ssg82
g2290
sg75
(lp2297
g1686
asbag68
(g89
g70
NtRp2298
(dp2299
g73
(dp2300
g100
g101
ssg82
g2290
sg75
(lp2301
S':'
asbag68
(g89
g70
NtRp2302
(dp2303
g73
(dp2304
sg82
g2290
sg75
(lp2305
g68
(g69
g70
NtRp2306
(dp2307
g73
(dp2308
g81
I4
ssg82
g2302
sg75
(lp2309
g68
(g77
g70
NtRp2310
(dp2311
g73
(dp2312
g81
I3
ssg82
Nsg75
(lp2313
g68
(g84
g70
NtRp2314
(dp2315
g73
(dp2316
sg82
g2310
sg75
(lp2317
g68
(g89
g70
NtRp2318
(dp2319
g73
(dp2320
sg82
g2314
sg75
(lp2321
g68
(g69
g70
NtRp2322
(dp2323
g73
(dp2324
g81
I3
ssg82
g2318
sg75
(lp2325
S'1'
asbasbasbag68
(g84
g70
NtRp2326
(dp2327
g73
(dp2328
sg82
g2310
sg75
(lp2329
g68
(g89
g70
NtRp2330
(dp2331
g73
(dp2332
sg82
g2326
sg75
(lp2333
g68
(g69
g70
NtRp2334
(dp2335
g73
(dp2336
g81
I3
ssg82
g2330
sg75
(lp2337
S'99'
p2338
asbasbasbag68
(g84
g70
NtRp2339
(dp2340
g73
(dp2341
sg82
g2310
sg75
(lp2342
g68
(g89
g70
NtRp2343
(dp2344
g73
(dp2345
sg82
g2339
sg75
(lp2346
g68
(g69
g70
NtRp2347
(dp2348
g73
(dp2349
g81
I3
ssg82
g2343
sg75
(lp2350
S'4'
asbasbasbag68
(g84
g70
NtRp2351
(dp2352
g73
(dp2353
sg82
g2310
sg75
(lp2354
g68
(g89
g70
NtRp2355
(dp2356
g73
(dp2357
sg82
g2351
sg75
(lp2358
g68
(g69
g70
NtRp2359
(dp2360
g73
(dp2361
g81
I3
ssg82
g2355
sg75
(lp2362
S'datetime.datetime(2011, 12, 14, 14, 46, 14)'
p2363
asbasbasbag68
(g84
g70
NtRp2364
(dp2365
g73
(dp2366
sg82
g2310
sg75
(lp2367
g68
(g89
g70
NtRp2368
(dp2369
g73
(dp2370
sg82
g2364
sg75
(lp2371
g68
(g69
g70
NtRp2372
(dp2373
g73
(dp2374
g81
I3
ssg82
g2368
sg75
(lp2375
g1765
asbasbasbasbasbasbasbasbasbasbasbag68
(g84
g70
NtRp2376
(dp2377
g73
(dp2378
sg82
g78
sg75
(lp2379
g68
(g89
g70
NtRp2380
(dp2381
g73
(dp2382
g93
g94
ssg82
g2376
sg75
(lp2383
S'is_https'
p2384
asbag68
(g89
g70
NtRp2385
(dp2386
g73
(dp2387
g100
g101
ssg82
g2376
sg75
(lp2388
S':'
asbag68
(g89
g70
NtRp2389
(dp2390
g73
(dp2391
sg82
g2376
sg75
(lp2392
g68
(g69
g70
NtRp2393
(dp2394
g73
(dp2395
g81
I5
ssg82
g2389
sg75
(lp2396
g111
asbasbasbag68
(g84
g70
NtRp2397
(dp2398
g73
(dp2399
sg82
g78
sg75
(lp2400
g68
(g89
g70
NtRp2401
(dp2402
g73
(dp2403
g93
g94
ssg82
g2397
sg75
(lp2404
S'is_local'
p2405
asbag68
(g89
g70
NtRp2406
(dp2407
g73
(dp2408
g100
g101
ssg82
g2397
sg75
(lp2409
S':'
asbag68
(g89
g70
NtRp2410
(dp2411
g73
(dp2412
sg82
g2397
sg75
(lp2413
g68
(g69
g70
NtRp2414
(dp2415
g73
(dp2416
g81
I5
ssg82
g2410
sg75
(lp2417
g1874
asbasbasbag68
(g84
g70
NtRp2418
(dp2419
g73
(dp2420
sg82
g78
sg75
(lp2421
g68
(g89
g70
NtRp2422
(dp2423
g73
(dp2424
g93
g94
ssg82
g2418
sg75
(lp2425
S'is_restful'
p2426
asbag68
(g89
g70
NtRp2427
(dp2428
g73
(dp2429
g100
g101
ssg82
g2418
sg75
(lp2430
S':'
asbag68
(g89
g70
NtRp2431
(dp2432
g73
(dp2433
sg82
g2418
sg75
(lp2434
g68
(g69
g70
NtRp2435
(dp2436
g73
(dp2437
g81
I5
ssg82
g2431
sg75
(lp2438
g111
asbasbasbag68
(g84
g70
NtRp2439
(dp2440
g73
(dp2441
sg82
g78
sg75
(lp2442
g68
(g89
g70
NtRp2443
(dp2444
g73
(dp2445
g93
g94
ssg82
g2439
sg75
(lp2446
S'now'
p2447
asbag68
(g89
g70
NtRp2448
(dp2449
g73
(dp2450
g100
g101
ssg82
g2439
sg75
(lp2451
S':'
asbag68
(g89
g70
NtRp2452
(dp2453
g73
(dp2454
sg82
g2439
sg75
(lp2455
g68
(g69
g70
NtRp2456
(dp2457
g73
(dp2458
g81
I5
ssg82
g2452
sg75
(lp2459
S'datetime.datetime(2012, 3, 14, 16, 24, 25, 239322)'
p2460
asbasbasbag68
(g84
g70
NtRp2461
(dp2462
g73
(dp2463
sg82
g78
sg75
(lp2464
g68
(g89
g70
NtRp2465
(dp2466
g73
(dp2467
g93
g94
ssg82
g2461
sg75
(lp2468
S'post_vars'
p2469
asbag68
(g89
g70
NtRp2470
(dp2471
g73
(dp2472
g100
g101
ssg82
g2461
sg75
(lp2473
S':'
asbag68
(g89
g70
NtRp2474
(dp2475
g73
(dp2476
sg82
g2461
sg75
(lp2477
g68
(g69
g70
NtRp2478
(dp2479
g73
(dp2480
g81
I5
ssg82
g2474
sg75
(lp2481
g68
(g77
g70
NtRp2482
(dp2483
g73
(dp2484
g81
I4
ssg82
Nsg75
(lp2485
sbasbasbasbag68
(g84
g70
NtRp2486
(dp2487
g73
(dp2488
sg82
g78
sg75
(lp2489
g68
(g89
g70
NtRp2490
(dp2491
g73
(dp2492
g93
g94
ssg82
g2486
sg75
(lp2493
S'url'
p2494
asbag68
(g89
g70
NtRp2495
(dp2496
g73
(dp2497
g100
g101
ssg82
g2486
sg75
(lp2498
S':'
asbag68
(g89
g70
NtRp2499
(dp2500
g73
(dp2501
sg82
g2486
sg75
(lp2502
g68
(g69
g70
NtRp2503
(dp2504
g73
(dp2505
g81
I5
ssg82
g2499
sg75
(lp2506
S'/paideia/exploring/index'
p2507
asbasbasbag68
(g84
g70
NtRp2508
(dp2509
g73
(dp2510
sg82
g78
sg75
(lp2511
g68
(g89
g70
NtRp2512
(dp2513
g73
(dp2514
g93
g94
ssg82
g2508
sg75
(lp2515
S'utcnow'
p2516
asbag68
(g89
g70
NtRp2517
(dp2518
g73
(dp2519
g100
g101
ssg82
g2508
sg75
(lp2520
S':'
asbag68
(g89
g70
NtRp2521
(dp2522
g73
(dp2523
sg82
g2508
sg75
(lp2524
g68
(g69
g70
NtRp2525
(dp2526
g73
(dp2527
g81
I5
ssg82
g2521
sg75
(lp2528
S'datetime.datetime(2012, 3, 14, 20, 24, 25, 239367)'
p2529
asbasbasbag68
(g84
g70
NtRp2530
(dp2531
g73
(dp2532
sg82
g78
sg75
(lp2533
g68
(g89
g70
NtRp2534
(dp2535
g73
(dp2536
g93
g94
ssg82
g2530
sg75
(lp2537
S'uuid'
p2538
asbag68
(g89
g70
NtRp2539
(dp2540
g73
(dp2541
g100
g101
ssg82
g2530
sg75
(lp2542
S':'
asbag68
(g89
g70
NtRp2543
(dp2544
g73
(dp2545
sg82
g2530
sg75
(lp2546
g68
(g69
g70
NtRp2547
(dp2548
g73
(dp2549
g81
I5
ssg82
g2543
sg75
(lp2550
S'paideia/127.0.0.1.2012-03-14.16-24-25.c79e635b-98c2-4f3c-be5b-ea095da3a6fc'
p2551
asbasbasbag68
(g84
g70
NtRp2552
(dp2553
g73
(dp2554
sg82
g78
sg75
(lp2555
g68
(g89
g70
NtRp2556
(dp2557
g73
(dp2558
g93
g94
ssg82
g2552
sg75
(lp2559
S'vars'
p2560
asbag68
(g89
g70
NtRp2561
(dp2562
g73
(dp2563
g100
g101
ssg82
g2552
sg75
(lp2564
S':'
asbag68
(g89
g70
NtRp2565
(dp2566
g73
(dp2567
sg82
g2552
sg75
(lp2568
g68
(g69
g70
NtRp2569
(dp2570
g73
(dp2571
g81
I5
ssg82
g2565
sg75
(lp2572
g68
(g77
g70
NtRp2573
(dp2574
g73
(dp2575
g81
I4
ssg82
Nsg75
(lp2576
sbasbasbasbag68
(g84
g70
NtRp2577
(dp2578
g73
(dp2579
sg82
g78
sg75
(lp2580
g68
(g89
g70
NtRp2581
(dp2582
g73
(dp2583
g93
g94
ssg82
g2577
sg75
(lp2584
S'wsgi'
p2585
asbag68
(g89
g70
NtRp2586
(dp2587
g73
(dp2588
g100
g101
ssg82
g2577
sg75
(lp2589
S':'
asbag68
(g89
g70
NtRp2590
(dp2591
g73
(dp2592
sg82
g2577
sg75
(lp2593
g68
(g69
g70
NtRp2594
(dp2595
g73
(dp2596
g81
I5
ssg82
g2590
sg75
(lp2597
g68
(g77
g70
NtRp2598
(dp2599
g73
(dp2600
g81
I4
ssg82
Nsg75
(lp2601
g68
(g84
g70
NtRp2602
(dp2603
g73
(dp2604
sg82
g2598
sg75
(lp2605
g68
(g89
g70
NtRp2606
(dp2607
g73
(dp2608
g93
g94
ssg82
g2602
sg75
(lp2609
S'environ'
p2610
asbag68
(g89
g70
NtRp2611
(dp2612
g73
(dp2613
g100
g101
ssg82
g2602
sg75
(lp2614
S':'
asbag68
(g89
g70
NtRp2615
(dp2616
g73
(dp2617
sg82
g2602
sg75
(lp2618
g68
(g69
g70
NtRp2619
(dp2620
g73
(dp2621
g81
I4
ssg82
g2615
sg75
(lp2622
g68
(g77
g70
NtRp2623
(dp2624
g73
(dp2625
g81
I3
ssg82
Nsg75
(lp2626
g68
(g84
g70
NtRp2627
(dp2628
g73
(dp2629
sg82
g2623
sg75
(lp2630
g68
(g89
g70
NtRp2631
(dp2632
g73
(dp2633
g93
g94
ssg82
g2627
sg75
(lp2634
S'HTTP_ACCEPT'
p2635
asbag68
(g89
g70
NtRp2636
(dp2637
g73
(dp2638
g100
g101
ssg82
g2627
sg75
(lp2639
S':'
asbag68
(g89
g70
NtRp2640
(dp2641
g73
(dp2642
sg82
g2627
sg75
(lp2643
g68
(g69
g70
NtRp2644
(dp2645
g73
(dp2646
g81
I3
ssg82
g2640
sg75
(lp2647
g1199
asbasbasbag68
(g84
g70
NtRp2648
(dp2649
g73
(dp2650
sg82
g2623
sg75
(lp2651
g68
(g89
g70
NtRp2652
(dp2653
g73
(dp2654
g93
g94
ssg82
g2648
sg75
(lp2655
S'HTTP_ACCEPT_ENCODING'
p2656
asbag68
(g89
g70
NtRp2657
(dp2658
g73
(dp2659
g100
g101
ssg82
g2648
sg75
(lp2660
S':'
asbag68
(g89
g70
NtRp2661
(dp2662
g73
(dp2663
sg82
g2648
sg75
(lp2664
g68
(g69
g70
NtRp2665
(dp2666
g73
(dp2667
g81
I3
ssg82
g2661
sg75
(lp2668
g1221
asbasbasbag68
(g84
g70
NtRp2669
(dp2670
g73
(dp2671
sg82
g2623
sg75
(lp2672
g68
(g89
g70
NtRp2673
(dp2674
g73
(dp2675
g93
g94
ssg82
g2669
sg75
(lp2676
S'HTTP_ACCEPT_LANGUAGE'
p2677
asbag68
(g89
g70
NtRp2678
(dp2679
g73
(dp2680
g100
g101
ssg82
g2669
sg75
(lp2681
S':'
asbag68
(g89
g70
NtRp2682
(dp2683
g73
(dp2684
sg82
g2669
sg75
(lp2685
g68
(g69
g70
NtRp2686
(dp2687
g73
(dp2688
g81
I3
ssg82
g2682
sg75
(lp2689
g1243
asbasbasbag68
(g84
g70
NtRp2690
(dp2691
g73
(dp2692
sg82
g2623
sg75
(lp2693
g68
(g89
g70
NtRp2694
(dp2695
g73
(dp2696
g93
g94
ssg82
g2690
sg75
(lp2697
S'HTTP_CACHE_CONTROL'
p2698
asbag68
(g89
g70
NtRp2699
(dp2700
g73
(dp2701
g100
g101
ssg82
g2690
sg75
(lp2702
S':'
asbag68
(g89
g70
NtRp2703
(dp2704
g73
(dp2705
sg82
g2690
sg75
(lp2706
g68
(g69
g70
NtRp2707
(dp2708
g73
(dp2709
g81
I3
ssg82
g2703
sg75
(lp2710
g1265
asbasbasbag68
(g84
g70
NtRp2711
(dp2712
g73
(dp2713
sg82
g2623
sg75
(lp2714
g68
(g89
g70
NtRp2715
(dp2716
g73
(dp2717
g93
g94
ssg82
g2711
sg75
(lp2718
S'HTTP_CONNECTION'
p2719
asbag68
(g89
g70
NtRp2720
(dp2721
g73
(dp2722
g100
g101
ssg82
g2711
sg75
(lp2723
S':'
asbag68
(g89
g70
NtRp2724
(dp2725
g73
(dp2726
sg82
g2711
sg75
(lp2727
g68
(g69
g70
NtRp2728
(dp2729
g73
(dp2730
g81
I3
ssg82
g2724
sg75
(lp2731
g1287
asbasbasbag68
(g84
g70
NtRp2732
(dp2733
g73
(dp2734
sg82
g2623
sg75
(lp2735
g68
(g89
g70
NtRp2736
(dp2737
g73
(dp2738
g93
g94
ssg82
g2732
sg75
(lp2739
S'HTTP_COOKIE'
p2740
asbag68
(g89
g70
NtRp2741
(dp2742
g73
(dp2743
g100
g101
ssg82
g2732
sg75
(lp2744
S':'
asbag68
(g89
g70
NtRp2745
(dp2746
g73
(dp2747
sg82
g2732
sg75
(lp2748
g68
(g69
g70
NtRp2749
(dp2750
g73
(dp2751
g81
I3
ssg82
g2745
sg75
(lp2752
g1309
asbasbasbag68
(g84
g70
NtRp2753
(dp2754
g73
(dp2755
sg82
g2623
sg75
(lp2756
g68
(g89
g70
NtRp2757
(dp2758
g73
(dp2759
g93
g94
ssg82
g2753
sg75
(lp2760
S'HTTP_HOST'
p2761
asbag68
(g89
g70
NtRp2762
(dp2763
g73
(dp2764
g100
g101
ssg82
g2753
sg75
(lp2765
S':'
asbag68
(g89
g70
NtRp2766
(dp2767
g73
(dp2768
sg82
g2753
sg75
(lp2769
g68
(g69
g70
NtRp2770
(dp2771
g73
(dp2772
g81
I3
ssg82
g2766
sg75
(lp2773
g1331
asbasbasbag68
(g84
g70
NtRp2774
(dp2775
g73
(dp2776
sg82
g2623
sg75
(lp2777
g68
(g89
g70
NtRp2778
(dp2779
g73
(dp2780
g93
g94
ssg82
g2774
sg75
(lp2781
S'HTTP_REFERER'
p2782
asbag68
(g89
g70
NtRp2783
(dp2784
g73
(dp2785
g100
g101
ssg82
g2774
sg75
(lp2786
S':'
asbag68
(g89
g70
NtRp2787
(dp2788
g73
(dp2789
sg82
g2774
sg75
(lp2790
g68
(g69
g70
NtRp2791
(dp2792
g73
(dp2793
g81
I3
ssg82
g2787
sg75
(lp2794
g1353
asbasbasbag68
(g84
g70
NtRp2795
(dp2796
g73
(dp2797
sg82
g2623
sg75
(lp2798
g68
(g89
g70
NtRp2799
(dp2800
g73
(dp2801
g93
g94
ssg82
g2795
sg75
(lp2802
S'HTTP_USER_AGENT'
p2803
asbag68
(g89
g70
NtRp2804
(dp2805
g73
(dp2806
g100
g101
ssg82
g2795
sg75
(lp2807
S':'
asbag68
(g89
g70
NtRp2808
(dp2809
g73
(dp2810
sg82
g2795
sg75
(lp2811
g68
(g69
g70
NtRp2812
(dp2813
g73
(dp2814
g81
I3
ssg82
g2808
sg75
(lp2815
g1375
asbasbasbag68
(g84
g70
NtRp2816
(dp2817
g73
(dp2818
sg82
g2623
sg75
(lp2819
g68
(g89
g70
NtRp2820
(dp2821
g73
(dp2822
g93
g94
ssg82
g2816
sg75
(lp2823
S'PATH_INFO'
p2824
asbag68
(g89
g70
NtRp2825
(dp2826
g73
(dp2827
g100
g101
ssg82
g2816
sg75
(lp2828
S':'
asbag68
(g89
g70
NtRp2829
(dp2830
g73
(dp2831
sg82
g2816
sg75
(lp2832
g68
(g69
g70
NtRp2833
(dp2834
g73
(dp2835
g81
I3
ssg82
g2829
sg75
(lp2836
g1439
asbasbasbag68
(g84
g70
NtRp2837
(dp2838
g73
(dp2839
sg82
g2623
sg75
(lp2840
g68
(g89
g70
NtRp2841
(dp2842
g73
(dp2843
g93
g94
ssg82
g2837
sg75
(lp2844
S'QUERY_STRING'
p2845
asbag68
(g89
g70
NtRp2846
(dp2847
g73
(dp2848
g100
g101
ssg82
g2837
sg75
(lp2849
S':'
asbag68
(g89
g70
NtRp2850
(dp2851
g73
(dp2852
sg82
g2837
sg75
(lp2853
g68
(g69
g70
NtRp2854
(dp2855
g73
(dp2856
g81
I3
ssg82
g2850
sg75
(lp2857
S''
asbasbasbag68
(g84
g70
NtRp2858
(dp2859
g73
(dp2860
sg82
g2623
sg75
(lp2861
g68
(g89
g70
NtRp2862
(dp2863
g73
(dp2864
g93
g94
ssg82
g2858
sg75
(lp2865
S'REMOTE_ADDR'
p2866
asbag68
(g89
g70
NtRp2867
(dp2868
g73
(dp2869
g100
g101
ssg82
g2858
sg75
(lp2870
S':'
asbag68
(g89
g70
NtRp2871
(dp2872
g73
(dp2873
sg82
g2858
sg75
(lp2874
g68
(g69
g70
NtRp2875
(dp2876
g73
(dp2877
g81
I3
ssg82
g2871
sg75
(lp2878
g201
asbasbasbag68
(g84
g70
NtRp2879
(dp2880
g73
(dp2881
sg82
g2623
sg75
(lp2882
g68
(g89
g70
NtRp2883
(dp2884
g73
(dp2885
g93
g94
ssg82
g2879
sg75
(lp2886
S'REMOTE_PORT'
p2887
asbag68
(g89
g70
NtRp2888
(dp2889
g73
(dp2890
g100
g101
ssg82
g2879
sg75
(lp2891
S':'
asbag68
(g89
g70
NtRp2892
(dp2893
g73
(dp2894
sg82
g2879
sg75
(lp2895
g68
(g69
g70
NtRp2896
(dp2897
g73
(dp2898
g81
I3
ssg82
g2892
sg75
(lp2899
g1503
asbasbasbag68
(g84
g70
NtRp2900
(dp2901
g73
(dp2902
sg82
g2623
sg75
(lp2903
g68
(g89
g70
NtRp2904
(dp2905
g73
(dp2906
g93
g94
ssg82
g2900
sg75
(lp2907
S'REQUEST_METHOD'
p2908
asbag68
(g89
g70
NtRp2909
(dp2910
g73
(dp2911
g100
g101
ssg82
g2900
sg75
(lp2912
S':'
asbag68
(g89
g70
NtRp2913
(dp2914
g73
(dp2915
sg82
g2900
sg75
(lp2916
g68
(g69
g70
NtRp2917
(dp2918
g73
(dp2919
g81
I3
ssg82
g2913
sg75
(lp2920
g1525
asbasbasbag68
(g84
g70
NtRp2921
(dp2922
g73
(dp2923
sg82
g2623
sg75
(lp2924
g68
(g89
g70
NtRp2925
(dp2926
g73
(dp2927
g93
g94
ssg82
g2921
sg75
(lp2928
S'SCRIPT_NAME'
p2929
asbag68
(g89
g70
NtRp2930
(dp2931
g73
(dp2932
g100
g101
ssg82
g2921
sg75
(lp2933
S':'
asbag68
(g89
g70
NtRp2934
(dp2935
g73
(dp2936
sg82
g2921
sg75
(lp2937
g68
(g69
g70
NtRp2938
(dp2939
g73
(dp2940
g81
I3
ssg82
g2934
sg75
(lp2941
S''
asbasbasbag68
(g84
g70
NtRp2942
(dp2943
g73
(dp2944
sg82
g2623
sg75
(lp2945
g68
(g89
g70
NtRp2946
(dp2947
g73
(dp2948
g93
g94
ssg82
g2942
sg75
(lp2949
S'SERVER_NAME'
p2950
asbag68
(g89
g70
NtRp2951
(dp2952
g73
(dp2953
g100
g101
ssg82
g2942
sg75
(lp2954
S':'
asbag68
(g89
g70
NtRp2955
(dp2956
g73
(dp2957
sg82
g2942
sg75
(lp2958
g68
(g69
g70
NtRp2959
(dp2960
g73
(dp2961
g81
I3
ssg82
g2955
sg75
(lp2962
g1568
asbasbasbag68
(g84
g70
NtRp2963
(dp2964
g73
(dp2965
sg82
g2623
sg75
(lp2966
g68
(g89
g70
NtRp2967
(dp2968
g73
(dp2969
g93
g94
ssg82
g2963
sg75
(lp2970
S'SERVER_PORT'
p2971
asbag68
(g89
g70
NtRp2972
(dp2973
g73
(dp2974
g100
g101
ssg82
g2963
sg75
(lp2975
S':'
asbag68
(g89
g70
NtRp2976
(dp2977
g73
(dp2978
sg82
g2963
sg75
(lp2979
g68
(g69
g70
NtRp2980
(dp2981
g73
(dp2982
g81
I3
ssg82
g2976
sg75
(lp2983
g1590
asbasbasbag68
(g84
g70
NtRp2984
(dp2985
g73
(dp2986
sg82
g2623
sg75
(lp2987
g68
(g89
g70
NtRp2988
(dp2989
g73
(dp2990
g93
g94
ssg82
g2984
sg75
(lp2991
S'SERVER_PROTOCOL'
p2992
asbag68
(g89
g70
NtRp2993
(dp2994
g73
(dp2995
g100
g101
ssg82
g2984
sg75
(lp2996
S':'
asbag68
(g89
g70
NtRp2997
(dp2998
g73
(dp2999
sg82
g2984
sg75
(lp3000
g68
(g69
g70
NtRp3001
(dp3002
g73
(dp3003
g81
I3
ssg82
g2997
sg75
(lp3004
g1612
asbasbasbag68
(g84
g70
NtRp3005
(dp3006
g73
(dp3007
sg82
g2623
sg75
(lp3008
g68
(g89
g70
NtRp3009
(dp3010
g73
(dp3011
g93
g94
ssg82
g3005
sg75
(lp3012
S'SERVER_SOFTWARE'
p3013
asbag68
(g89
g70
NtRp3014
(dp3015
g73
(dp3016
g100
g101
ssg82
g3005
sg75
(lp3017
S':'
asbag68
(g89
g70
NtRp3018
(dp3019
g73
(dp3020
sg82
g3005
sg75
(lp3021
g68
(g69
g70
NtRp3022
(dp3023
g73
(dp3024
g81
I3
ssg82
g3018
sg75
(lp3025
g1634
asbasbasbag68
(g84
g70
NtRp3026
(dp3027
g73
(dp3028
sg82
g2623
sg75
(lp3029
g68
(g89
g70
NtRp3030
(dp3031
g73
(dp3032
g93
g94
ssg82
g3026
sg75
(lp3033
S'wsgi.errors'
p3034
asbag68
(g89
g70
NtRp3035
(dp3036
g73
(dp3037
g100
g101
ssg82
g3026
sg75
(lp3038
S':'
asbag68
(g89
g70
NtRp3039
(dp3040
g73
(dp3041
sg82
g3026
sg75
(lp3042
g68
(g69
g70
NtRp3043
(dp3044
g73
(dp3045
g81
I3
ssg82
g3039
sg75
(lp3046
S"<open file '<stderr>', mode 'w' at 0x7fc18ce14270>"
p3047
asbasbasbag68
(g84
g70
NtRp3048
(dp3049
g73
(dp3050
sg82
g2623
sg75
(lp3051
g68
(g89
g70
NtRp3052
(dp3053
g73
(dp3054
g93
g94
ssg82
g3048
sg75
(lp3055
S'wsgi.file_wrapper'
p3056
asbag68
(g89
g70
NtRp3057
(dp3058
g73
(dp3059
g100
g101
ssg82
g3048
sg75
(lp3060
S':'
asbag68
(g89
g70
NtRp3061
(dp3062
g73
(dp3063
sg82
g3048
sg75
(lp3064
g68
(g69
g70
NtRp3065
(dp3066
g73
(dp3067
g81
I3
ssg82
g3061
sg75
(lp3068
S'<class wsgiref.util.FileWrapper at 0x2f26d50>'
p3069
asbasbasbag68
(g84
g70
NtRp3070
(dp3071
g73
(dp3072
sg82
g2623
sg75
(lp3073
g68
(g89
g70
NtRp3074
(dp3075
g73
(dp3076
g93
g94
ssg82
g3070
sg75
(lp3077
S'wsgi.input'
p3078
asbag68
(g89
g70
NtRp3079
(dp3080
g73
(dp3081
g100
g101
ssg82
g3070
sg75
(lp3082
S':'
asbag68
(g89
g70
NtRp3083
(dp3084
g73
(dp3085
sg82
g3070
sg75
(lp3086
g68
(g69
g70
NtRp3087
(dp3088
g73
(dp3089
g81
I3
ssg82
g3083
sg75
(lp3090
S'<cStringIO.StringO object at 0x7fc16c7a76f8>'
p3091
asbasbasbag68
(g84
g70
NtRp3092
(dp3093
g73
(dp3094
sg82
g2623
sg75
(lp3095
g68
(g89
g70
NtRp3096
(dp3097
g73
(dp3098
g93
g94
ssg82
g3092
sg75
(lp3099
S'wsgi.multiprocess'
p3100
asbag68
(g89
g70
NtRp3101
(dp3102
g73
(dp3103
g100
g101
ssg82
g3092
sg75
(lp3104
S':'
asbag68
(g89
g70
NtRp3105
(dp3106
g73
(dp3107
sg82
g3092
sg75
(lp3108
g68
(g69
g70
NtRp3109
(dp3110
g73
(dp3111
g81
I3
ssg82
g3105
sg75
(lp3112
g111
asbasbasbag68
(g84
g70
NtRp3113
(dp3114
g73
(dp3115
sg82
g2623
sg75
(lp3116
g68
(g89
g70
NtRp3117
(dp3118
g73
(dp3119
g93
g94
ssg82
g3113
sg75
(lp3120
S'wsgi.multithread'
p3121
asbag68
(g89
g70
NtRp3122
(dp3123
g73
(dp3124
g100
g101
ssg82
g3113
sg75
(lp3125
S':'
asbag68
(g89
g70
NtRp3126
(dp3127
g73
(dp3128
sg82
g3113
sg75
(lp3129
g68
(g69
g70
NtRp3130
(dp3131
g73
(dp3132
g81
I3
ssg82
g3126
sg75
(lp3133
g1874
asbasbasbag68
(g84
g70
NtRp3134
(dp3135
g73
(dp3136
sg82
g2623
sg75
(lp3137
g68
(g89
g70
NtRp3138
(dp3139
g73
(dp3140
g93
g94
ssg82
g3134
sg75
(lp3141
S'wsgi.run_once'
p3142
asbag68
(g89
g70
NtRp3143
(dp3144
g73
(dp3145
g100
g101
ssg82
g3134
sg75
(lp3146
S':'
asbag68
(g89
g70
NtRp3147
(dp3148
g73
(dp3149
sg82
g3134
sg75
(lp3150
g68
(g69
g70
NtRp3151
(dp3152
g73
(dp3153
g81
I3
ssg82
g3147
sg75
(lp3154
g111
asbasbasbag68
(g84
g70
NtRp3155
(dp3156
g73
(dp3157
sg82
g2623
sg75
(lp3158
g68
(g89
g70
NtRp3159
(dp3160
g73
(dp3161
g93
g94
ssg82
g3155
sg75
(lp3162
S'wsgi.url_scheme'
p3163
asbag68
(g89
g70
NtRp3164
(dp3165
g73
(dp3166
g100
g101
ssg82
g3155
sg75
(lp3167
S':'
asbag68
(g89
g70
NtRp3168
(dp3169
g73
(dp3170
sg82
g3155
sg75
(lp3171
g68
(g69
g70
NtRp3172
(dp3173
g73
(dp3174
g81
I3
ssg82
g3168
sg75
(lp3175
g1917
asbasbasbag68
(g84
g70
NtRp3176
(dp3177
g73
(dp3178
sg82
g2623
sg75
(lp3179
g68
(g89
g70
NtRp3180
(dp3181
g73
(dp3182
g93
g94
ssg82
g3176
sg75
(lp3183
S'wsgi.version'
p3184
asbag68
(g89
g70
NtRp3185
(dp3186
g73
(dp3187
g100
g101
ssg82
g3176
sg75
(lp3188
S':'
asbag68
(g89
g70
NtRp3189
(dp3190
g73
(dp3191
sg82
g3176
sg75
(lp3192
g68
(g69
g70
NtRp3193
(dp3194
g73
(dp3195
g81
I3
ssg82
g3189
sg75
(lp3196
S'1'
asbasbasbasbasbasbasbasbasbasbasbasbasbsS'frames'
p3197
(lp3198
(dp3199
S'file'
p3200
S'/home/ian/web/web2py/gluon/restricted.py'
p3201
sS'dump'
p3202
(dp3203
S'code'
p3204
S"'# coding: utf8\\nfrom paideia_exploring import pai...    \\n    \\nresponse._vars=response._caller(index)\\n'"
p3205
sS'layer'
p3206
S"'/home/ian/web/web2py/applications/paideia/controllers/exploring.py'"
p3207
sS'global compile2'
p3208
S'<function compile2>'
p3209
sS'ccode'
p3210
S'undefined'
p3211
ssS'lnum'
p3212
I203
sS'lines'
p3213
(dp3214
I198
S"    environment['__file__'] = layer"
p3215
sI199
S'    try:'
p3216
sI200
S'        if type(code) == types.CodeType:'
p3217
sI201
S'            ccode = code'
p3218
sI202
S'        else:'
p3219
sI203
S'            ccode = compile2(code,layer)'
p3220
sI204
S'        exec ccode in environment'
p3221
sI205
S'    except HTTP:'
p3222
sI206
S'        raise'
p3223
sI207
S'    except RestrictedError:'
p3224
ssS'call'
p3225
S"(code='# coding: utf8\\nfrom paideia_exploring import pai...    \\n    \\nresponse._vars=response._caller(index)\\n', environment={'A': <class 'gluon.html.A'>, 'AjaxSelect': <class applications.paideia.modules.plugin_ajaxselect.AjaxSelect>, 'Auth': <class 'gluon.tools.Auth'>, 'B': <class 'gluon.html.B'>, 'BEAUTIFY': <class 'gluon.html.BEAUTIFY'>, 'BODY': <class 'gluon.html.BODY'>, 'BR': <class 'gluon.html.BR'>, 'BUTTON': <class 'gluon.html.BUTTON'>, 'CAT': <class 'gluon.html.CAT'>, 'CENTER': <class 'gluon.html.CENTER'>, ...}, layer='/home/ian/web/web2py/applications/paideia/controllers/exploring.py')"
p3226
sS'func'
p3227
S'restricted'
p3228
sa(dp3229
g3200
S'/home/ian/web/web2py/gluon/restricted.py'
p3230
sg3202
(dp3231
S'builtincompile'
p3232
S'<built-in function compile>'
p3233
sS'code'
p3234
S"'# coding: utf8\\nfrom paideia_exploring import pai...    \\n    \\nresponse._vars=response._caller(index)\\n'"
p3235
sS'code.rstrip'
p3236
S'<built-in method rstrip of str object>'
p3237
sS').replace'
p3238
g3211
sS'layer'
p3239
S"'/home/ian/web/web2py/applications/paideia/controllers/exploring.py'"
p3240
ssg3212
I189
sg3213
(dp3241
I192
S'    """'
p3242
sI193
S'    runs code in environment and returns the output. if an exception occurs'
p3243
sI184
S''
sI185
S'def compile2(code,layer):'
p3244
sI186
S'    """'
p3245
sI187
S"    The +'\\n' is necessary else compile fails when code ends in a comment."
p3246
sI188
S'    """'
p3247
sI189
S"    return compile(code.rstrip().replace('\\r\\n','\\n')+'\\n', layer, 'exec')"
p3248
sI190
S''
sI191
S"def restricted(code, environment=None, layer='Unknown'):"
p3249
ssg3225
S"(code='# coding: utf8\\nfrom paideia_exploring import pai...    \\n    \\nresponse._vars=response._caller(index)\\n', layer='/home/ian/web/web2py/applications/paideia/controllers/exploring.py')"
p3250
sg3227
S'compile2'
p3251
sasS'pyver'
p3252
S'Python 2.7.3rc1: /usr/bin/python2.7'
p3253
sS'session'
p3254
g68
(g69
g70
NtRp3255
(dp3256
g73
(dp3257
sg75
(lp3258
g68
(g77
g70
NtRp3259
(dp3260
g73
(dp3261
g81
I5
ssg82
Nsg75
(lp3262
g68
(g84
g70
NtRp3263
(dp3264
g73
(dp3265
sg82
g3259
sg75
(lp3266
g68
(g89
g70
NtRp3267
(dp3268
g73
(dp3269
g93
g94
ssg82
g3263
sg75
(lp3270
S'active_paths'
p3271
asbag68
(g89
g70
NtRp3272
(dp3273
g73
(dp3274
g100
g101
ssg82
g3263
sg75
(lp3275
S':'
asbag68
(g89
g70
NtRp3276
(dp3277
g73
(dp3278
sg82
g3263
sg75
(lp3279
g68
(g69
g70
NtRp3280
(dp3281
g73
(dp3282
g81
I5
ssg82
g3276
sg75
(lp3283
S'None'
p3284
asbasbasbag68
(g84
g70
NtRp3285
(dp3286
g73
(dp3287
sg82
g3259
sg75
(lp3288
g68
(g89
g70
NtRp3289
(dp3290
g73
(dp3291
g93
g94
ssg82
g3285
sg75
(lp3292
S'auth'
p3293
asbag68
(g89
g70
NtRp3294
(dp3295
g73
(dp3296
g100
g101
ssg82
g3285
sg75
(lp3297
S':'
asbag68
(g89
g70
NtRp3298
(dp3299
g73
(dp3300
sg82
g3285
sg75
(lp3301
g68
(g69
g70
NtRp3302
(dp3303
g73
(dp3304
g81
I5
ssg82
g3298
sg75
(lp3305
g68
(g77
g70
NtRp3306
(dp3307
g73
(dp3308
g81
I4
ssg82
Nsg75
(lp3309
g68
(g84
g70
NtRp3310
(dp3311
g73
(dp3312
sg82
g3306
sg75
(lp3313
g68
(g89
g70
NtRp3314
(dp3315
g73
(dp3316
g93
g94
ssg82
g3310
sg75
(lp3317
S'expiration'
p3318
asbag68
(g89
g70
NtRp3319
(dp3320
g73
(dp3321
g100
g101
ssg82
g3310
sg75
(lp3322
S':'
asbag68
(g89
g70
NtRp3323
(dp3324
g73
(dp3325
sg82
g3310
sg75
(lp3326
g68
(g69
g70
NtRp3327
(dp3328
g73
(dp3329
g81
I4
ssg82
g3323
sg75
(lp3330
S'2592000'
p3331
asbasbasbag68
(g84
g70
NtRp3332
(dp3333
g73
(dp3334
sg82
g3306
sg75
(lp3335
g68
(g89
g70
NtRp3336
(dp3337
g73
(dp3338
g93
g94
ssg82
g3332
sg75
(lp3339
S'hmac_key'
p3340
asbag68
(g89
g70
NtRp3341
(dp3342
g73
(dp3343
g100
g101
ssg82
g3332
sg75
(lp3344
S':'
asbag68
(g89
g70
NtRp3345
(dp3346
g73
(dp3347
sg82
g3332
sg75
(lp3348
g68
(g69
g70
NtRp3349
(dp3350
g73
(dp3351
g81
I4
ssg82
g3345
sg75
(lp3352
S'cf0843bd-b632-44be-979e-cdc3b6f8efb2'
p3353
asbasbasbag68
(g84
g70
NtRp3354
(dp3355
g73
(dp3356
sg82
g3306
sg75
(lp3357
g68
(g89
g70
NtRp3358
(dp3359
g73
(dp3360
g93
g94
ssg82
g3354
sg75
(lp3361
S'last_visit'
p3362
asbag68
(g89
g70
NtRp3363
(dp3364
g73
(dp3365
g100
g101
ssg82
g3354
sg75
(lp3366
S':'
asbag68
(g89
g70
NtRp3367
(dp3368
g73
(dp3369
sg82
g3354
sg75
(lp3370
g68
(g69
g70
NtRp3371
(dp3372
g73
(dp3373
g81
I4
ssg82
g3367
sg75
(lp3374
S'datetime.datetime(2012, 3, 14, 12, 38, 56, 266988)'
p3375
asbasbasbag68
(g84
g70
NtRp3376
(dp3377
g73
(dp3378
sg82
g3306
sg75
(lp3379
g68
(g89
g70
NtRp3380
(dp3381
g73
(dp3382
g93
g94
ssg82
g3376
sg75
(lp3383
S'remember'
p3384
asbag68
(g89
g70
NtRp3385
(dp3386
g73
(dp3387
g100
g101
ssg82
g3376
sg75
(lp3388
S':'
asbag68
(g89
g70
NtRp3389
(dp3390
g73
(dp3391
sg82
g3376
sg75
(lp3392
g68
(g69
g70
NtRp3393
(dp3394
g73
(dp3395
g81
I4
ssg82
g3389
sg75
(lp3396
g1874
asbasbasbag68
(g84
g70
NtRp3397
(dp3398
g73
(dp3399
sg82
g3306
sg75
(lp3400
g68
(g89
g70
NtRp3401
(dp3402
g73
(dp3403
g93
g94
ssg82
g3397
sg75
(lp3404
S'user'
p3405
asbag68
(g89
g70
NtRp3406
(dp3407
g73
(dp3408
g100
g101
ssg82
g3397
sg75
(lp3409
S':'
asbag68
(g89
g70
NtRp3410
(dp3411
g73
(dp3412
sg82
g3397
sg75
(lp3413
g68
(g69
g70
NtRp3414
(dp3415
g73
(dp3416
g81
I4
ssg82
g3410
sg75
(lp3417
g68
(g77
g70
NtRp3418
(dp3419
g73
(dp3420
g81
I3
ssg82
Nsg75
(lp3421
g68
(g84
g70
NtRp3422
(dp3423
g73
(dp3424
sg82
g3418
sg75
(lp3425
g68
(g89
g70
NtRp3426
(dp3427
g73
(dp3428
g93
g94
ssg82
g3422
sg75
(lp3429
S'email'
p3430
asbag68
(g89
g70
NtRp3431
(dp3432
g73
(dp3433
g100
g101
ssg82
g3422
sg75
(lp3434
S':'
asbag68
(g89
g70
NtRp3435
(dp3436
g73
(dp3437
sg82
g3422
sg75
(lp3438
g68
(g69
g70
NtRp3439
(dp3440
g73
(dp3441
g81
I3
ssg82
g3435
sg75
(lp3442
S'scottianw@gmail.com'
p3443
asbasbasbag68
(g84
g70
NtRp3444
(dp3445
g73
(dp3446
sg82
g3418
sg75
(lp3447
g68
(g89
g70
NtRp3448
(dp3449
g73
(dp3450
g93
g94
ssg82
g3444
sg75
(lp3451
S'first_name'
p3452
asbag68
(g89
g70
NtRp3453
(dp3454
g73
(dp3455
g100
g101
ssg82
g3444
sg75
(lp3456
S':'
asbag68
(g89
g70
NtRp3457
(dp3458
g73
(dp3459
sg82
g3444
sg75
(lp3460
g68
(g69
g70
NtRp3461
(dp3462
g73
(dp3463
g81
I3
ssg82
g3457
sg75
(lp3464
S'Ian'
p3465
asbasbasbag68
(g84
g70
NtRp3466
(dp3467
g73
(dp3468
sg82
g3418
sg75
(lp3469
g68
(g89
g70
NtRp3470
(dp3471
g73
(dp3472
g93
g94
ssg82
g3466
sg75
(lp3473
S'id'
p3474
asbag68
(g89
g70
NtRp3475
(dp3476
g73
(dp3477
g100
g101
ssg82
g3466
sg75
(lp3478
S':'
asbag68
(g89
g70
NtRp3479
(dp3480
g73
(dp3481
sg82
g3466
sg75
(lp3482
g68
(g69
g70
NtRp3483
(dp3484
g73
(dp3485
g81
I3
ssg82
g3479
sg75
(lp3486
S'2'
asbasbasbag68
(g84
g70
NtRp3487
(dp3488
g73
(dp3489
sg82
g3418
sg75
(lp3490
g68
(g89
g70
NtRp3491
(dp3492
g73
(dp3493
g93
g94
ssg82
g3487
sg75
(lp3494
S'last_name'
p3495
asbag68
(g89
g70
NtRp3496
(dp3497
g73
(dp3498
g100
g101
ssg82
g3487
sg75
(lp3499
S':'
asbag68
(g89
g70
NtRp3500
(dp3501
g73
(dp3502
sg82
g3487
sg75
(lp3503
g68
(g69
g70
NtRp3504
(dp3505
g73
(dp3506
g81
I3
ssg82
g3500
sg75
(lp3507
S'Scott'
p3508
asbasbasbag68
(g84
g70
NtRp3509
(dp3510
g73
(dp3511
sg82
g3418
sg75
(lp3512
g68
(g89
g70
NtRp3513
(dp3514
g73
(dp3515
g93
g94
ssg82
g3509
sg75
(lp3516
S'password'
p3517
asbag68
(g89
g70
NtRp3518
(dp3519
g73
(dp3520
g100
g101
ssg82
g3509
sg75
(lp3521
S':'
asbag68
(g89
g70
NtRp3522
(dp3523
g73
(dp3524
sg82
g3509
sg75
(lp3525
g68
(g69
g70
NtRp3526
(dp3527
g73
(dp3528
g81
I3
ssg82
g3522
sg75
(lp3529
S'19738f1e9a2c8eaac81936a86bf608a1a6995e02f527fa31723cb88a2e513a1efae33471354a02805bf25ea2ea17a59c025a5fc8eca6b3bb2137bda74e538737'
p3530
asbasbasbag68
(g84
g70
NtRp3531
(dp3532
g73
(dp3533
sg82
g3418
sg75
(lp3534
g68
(g89
g70
NtRp3535
(dp3536
g73
(dp3537
g93
g94
ssg82
g3531
sg75
(lp3538
S'registration_id'
p3539
asbag68
(g89
g70
NtRp3540
(dp3541
g73
(dp3542
g100
g101
ssg82
g3531
sg75
(lp3543
S':'
asbag68
(g89
g70
NtRp3544
(dp3545
g73
(dp3546
sg82
g3531
sg75
(lp3547
g68
(g69
g70
NtRp3548
(dp3549
g73
(dp3550
g81
I3
ssg82
g3544
sg75
(lp3551
S'None'
p3552
asbasbasbag68
(g84
g70
NtRp3553
(dp3554
g73
(dp3555
sg82
g3418
sg75
(lp3556
g68
(g89
g70
NtRp3557
(dp3558
g73
(dp3559
g93
g94
ssg82
g3553
sg75
(lp3560
S'registration_key'
p3561
asbag68
(g89
g70
NtRp3562
(dp3563
g73
(dp3564
g100
g101
ssg82
g3553
sg75
(lp3565
S':'
asbag68
(g89
g70
NtRp3566
(dp3567
g73
(dp3568
sg82
g3553
sg75
(lp3569
g68
(g69
g70
NtRp3570
(dp3571
g73
(dp3572
g81
I3
ssg82
g3566
sg75
(lp3573
S''
asbasbasbag68
(g84
g70
NtRp3574
(dp3575
g73
(dp3576
sg82
g3418
sg75
(lp3577
g68
(g89
g70
NtRp3578
(dp3579
g73
(dp3580
g93
g94
ssg82
g3574
sg75
(lp3581
S'reset_password_key'
p3582
asbag68
(g89
g70
NtRp3583
(dp3584
g73
(dp3585
g100
g101
ssg82
g3574
sg75
(lp3586
S':'
asbag68
(g89
g70
NtRp3587
(dp3588
g73
(dp3589
sg82
g3574
sg75
(lp3590
g68
(g69
g70
NtRp3591
(dp3592
g73
(dp3593
g81
I3
ssg82
g3587
sg75
(lp3594
S'1327083713-2cc5b0bb-81c6-473e-adeb-2160a9624c63'
p3595
asbasbasbasbasbasbasbasbasbasbasbag68
(g84
g70
NtRp3596
(dp3597
g73
(dp3598
sg82
g3259
sg75
(lp3599
g68
(g89
g70
NtRp3600
(dp3601
g73
(dp3602
g93
g94
ssg82
g3596
sg75
(lp3603
S'blocks'
p3604
asbag68
(g89
g70
NtRp3605
(dp3606
g73
(dp3607
g100
g101
ssg82
g3596
sg75
(lp3608
S':'
asbag68
(g89
g70
NtRp3609
(dp3610
g73
(dp3611
sg82
g3596
sg75
(lp3612
g68
(g69
g70
NtRp3613
(dp3614
g73
(dp3615
g81
I5
ssg82
g3609
sg75
(lp3616
S'None'
p3617
asbasbasbag68
(g84
g70
NtRp3618
(dp3619
g73
(dp3620
sg82
g3259
sg75
(lp3621
g68
(g89
g70
NtRp3622
(dp3623
g73
(dp3624
g93
g94
ssg82
g3618
sg75
(lp3625
S'completed_paths'
p3626
asbag68
(g89
g70
NtRp3627
(dp3628
g73
(dp3629
g100
g101
ssg82
g3618
sg75
(lp3630
S':'
asbag68
(g89
g70
NtRp3631
(dp3632
g73
(dp3633
sg82
g3618
sg75
(lp3634
g68
(g69
g70
NtRp3635
(dp3636
g73
(dp3637
g81
I5
ssg82
g3631
sg75
(lp3638
S'None'
p3639
asbasbasbag68
(g84
g70
NtRp3640
(dp3641
g73
(dp3642
sg82
g3259
sg75
(lp3643
g68
(g89
g70
NtRp3644
(dp3645
g73
(dp3646
g93
g94
ssg82
g3640
sg75
(lp3647
S'debug'
p3648
asbag68
(g89
g70
NtRp3649
(dp3650
g73
(dp3651
g100
g101
ssg82
g3640
sg75
(lp3652
S':'
asbag68
(g89
g70
NtRp3653
(dp3654
g73
(dp3655
sg82
g3640
sg75
(lp3656
g68
(g69
g70
NtRp3657
(dp3658
g73
(dp3659
g81
I5
ssg82
g3653
sg75
(lp3660
g68
(g77
g70
NtRp3661
(dp3662
g73
(dp3663
g81
I4
ssg82
Nsg75
(lp3664
g68
(g84
g70
NtRp3665
(dp3666
g73
(dp3667
sg82
g3661
sg75
(lp3668
g68
(g89
g70
NtRp3669
(dp3670
g73
(dp3671
g93
g94
ssg82
g3665
sg75
(lp3672
S'2011-10-24'
p3673
asbag68
(g89
g70
NtRp3674
(dp3675
g73
(dp3676
g100
g101
ssg82
g3665
sg75
(lp3677
S':'
asbag68
(g89
g70
NtRp3678
(dp3679
g73
(dp3680
sg82
g3665
sg75
(lp3681
g68
(g69
g70
NtRp3682
(dp3683
g73
(dp3684
g81
I4
ssg82
g3678
sg75
(lp3685
S'8'
asbasbasbag68
(g84
g70
NtRp3686
(dp3687
g73
(dp3688
sg82
g3661
sg75
(lp3689
g68
(g89
g70
NtRp3690
(dp3691
g73
(dp3692
g93
g94
ssg82
g3686
sg75
(lp3693
S'2011-10-25'
p3694
asbag68
(g89
g70
NtRp3695
(dp3696
g73
(dp3697
g100
g101
ssg82
g3686
sg75
(lp3698
S':'
asbag68
(g89
g70
NtRp3699
(dp3700
g73
(dp3701
sg82
g3686
sg75
(lp3702
g68
(g69
g70
NtRp3703
(dp3704
g73
(dp3705
g81
I4
ssg82
g3699
sg75
(lp3706
S'2'
asbasbasbag68
(g84
g70
NtRp3707
(dp3708
g73
(dp3709
sg82
g3661
sg75
(lp3710
g68
(g89
g70
NtRp3711
(dp3712
g73
(dp3713
g93
g94
ssg82
g3707
sg75
(lp3714
S'2011-10-26'
p3715
asbag68
(g89
g70
NtRp3716
(dp3717
g73
(dp3718
g100
g101
ssg82
g3707
sg75
(lp3719
S':'
asbag68
(g89
g70
NtRp3720
(dp3721
g73
(dp3722
sg82
g3707
sg75
(lp3723
g68
(g69
g70
NtRp3724
(dp3725
g73
(dp3726
g81
I4
ssg82
g3720
sg75
(lp3727
S'11'
p3728
asbasbasbag68
(g84
g70
NtRp3729
(dp3730
g73
(dp3731
sg82
g3661
sg75
(lp3732
g68
(g89
g70
NtRp3733
(dp3734
g73
(dp3735
g93
g94
ssg82
g3729
sg75
(lp3736
S'2011-10-31'
p3737
asbag68
(g89
g70
NtRp3738
(dp3739
g73
(dp3740
g100
g101
ssg82
g3729
sg75
(lp3741
S':'
asbag68
(g89
g70
NtRp3742
(dp3743
g73
(dp3744
sg82
g3729
sg75
(lp3745
g68
(g69
g70
NtRp3746
(dp3747
g73
(dp3748
g81
I4
ssg82
g3742
sg75
(lp3749
S'29'
p3750
asbasbasbag68
(g84
g70
NtRp3751
(dp3752
g73
(dp3753
sg82
g3661
sg75
(lp3754
g68
(g89
g70
NtRp3755
(dp3756
g73
(dp3757
g93
g94
ssg82
g3751
sg75
(lp3758
S'2011-11-01'
p3759
asbag68
(g89
g70
NtRp3760
(dp3761
g73
(dp3762
g100
g101
ssg82
g3751
sg75
(lp3763
S':'
asbag68
(g89
g70
NtRp3764
(dp3765
g73
(dp3766
sg82
g3751
sg75
(lp3767
g68
(g69
g70
NtRp3768
(dp3769
g73
(dp3770
g81
I4
ssg82
g3764
sg75
(lp3771
S'11'
p3772
asbasbasbag68
(g84
g70
NtRp3773
(dp3774
g73
(dp3775
sg82
g3661
sg75
(lp3776
g68
(g89
g70
NtRp3777
(dp3778
g73
(dp3779
g93
g94
ssg82
g3773
sg75
(lp3780
S'2011-11-09'
p3781
asbag68
(g89
g70
NtRp3782
(dp3783
g73
(dp3784
g100
g101
ssg82
g3773
sg75
(lp3785
S':'
asbag68
(g89
g70
NtRp3786
(dp3787
g73
(dp3788
sg82
g3773
sg75
(lp3789
g68
(g69
g70
NtRp3790
(dp3791
g73
(dp3792
g81
I4
ssg82
g3786
sg75
(lp3793
S'2'
asbasbasbag68
(g84
g70
NtRp3794
(dp3795
g73
(dp3796
sg82
g3661
sg75
(lp3797
g68
(g89
g70
NtRp3798
(dp3799
g73
(dp3800
g93
g94
ssg82
g3794
sg75
(lp3801
S'2011-11-10'
p3802
asbag68
(g89
g70
NtRp3803
(dp3804
g73
(dp3805
g100
g101
ssg82
g3794
sg75
(lp3806
S':'
asbag68
(g89
g70
NtRp3807
(dp3808
g73
(dp3809
sg82
g3794
sg75
(lp3810
g68
(g69
g70
NtRp3811
(dp3812
g73
(dp3813
g81
I4
ssg82
g3807
sg75
(lp3814
S'14'
p3815
asbasbasbag68
(g84
g70
NtRp3816
(dp3817
g73
(dp3818
sg82
g3661
sg75
(lp3819
g68
(g89
g70
NtRp3820
(dp3821
g73
(dp3822
g93
g94
ssg82
g3816
sg75
(lp3823
S'2011-11-11'
p3824
asbag68
(g89
g70
NtRp3825
(dp3826
g73
(dp3827
g100
g101
ssg82
g3816
sg75
(lp3828
S':'
asbag68
(g89
g70
NtRp3829
(dp3830
g73
(dp3831
sg82
g3816
sg75
(lp3832
g68
(g69
g70
NtRp3833
(dp3834
g73
(dp3835
g81
I4
ssg82
g3829
sg75
(lp3836
S'56'
p3837
asbasbasbag68
(g84
g70
NtRp3838
(dp3839
g73
(dp3840
sg82
g3661
sg75
(lp3841
g68
(g89
g70
NtRp3842
(dp3843
g73
(dp3844
g93
g94
ssg82
g3838
sg75
(lp3845
S'2011-11-12'
p3846
asbag68
(g89
g70
NtRp3847
(dp3848
g73
(dp3849
g100
g101
ssg82
g3838
sg75
(lp3850
S':'
asbag68
(g89
g70
NtRp3851
(dp3852
g73
(dp3853
sg82
g3838
sg75
(lp3854
g68
(g69
g70
NtRp3855
(dp3856
g73
(dp3857
g81
I4
ssg82
g3851
sg75
(lp3858
S'23'
p3859
asbasbasbag68
(g84
g70
NtRp3860
(dp3861
g73
(dp3862
sg82
g3661
sg75
(lp3863
g68
(g89
g70
NtRp3864
(dp3865
g73
(dp3866
g93
g94
ssg82
g3860
sg75
(lp3867
S'2011-11-15'
p3868
asbag68
(g89
g70
NtRp3869
(dp3870
g73
(dp3871
g100
g101
ssg82
g3860
sg75
(lp3872
S':'
asbag68
(g89
g70
NtRp3873
(dp3874
g73
(dp3875
sg82
g3860
sg75
(lp3876
g68
(g69
g70
NtRp3877
(dp3878
g73
(dp3879
g81
I4
ssg82
g3873
sg75
(lp3880
S'10'
p3881
asbasbasbag68
(g84
g70
NtRp3882
(dp3883
g73
(dp3884
sg82
g3661
sg75
(lp3885
g68
(g89
g70
NtRp3886
(dp3887
g73
(dp3888
g93
g94
ssg82
g3882
sg75
(lp3889
S'2011-11-16'
p3890
asbag68
(g89
g70
NtRp3891
(dp3892
g73
(dp3893
g100
g101
ssg82
g3882
sg75
(lp3894
S':'
asbag68
(g89
g70
NtRp3895
(dp3896
g73
(dp3897
sg82
g3882
sg75
(lp3898
g68
(g69
g70
NtRp3899
(dp3900
g73
(dp3901
g81
I4
ssg82
g3895
sg75
(lp3902
S'21'
p3903
asbasbasbag68
(g84
g70
NtRp3904
(dp3905
g73
(dp3906
sg82
g3661
sg75
(lp3907
g68
(g89
g70
NtRp3908
(dp3909
g73
(dp3910
g93
g94
ssg82
g3904
sg75
(lp3911
S'2011-11-25'
p3912
asbag68
(g89
g70
NtRp3913
(dp3914
g73
(dp3915
g100
g101
ssg82
g3904
sg75
(lp3916
S':'
asbag68
(g89
g70
NtRp3917
(dp3918
g73
(dp3919
sg82
g3904
sg75
(lp3920
g68
(g69
g70
NtRp3921
(dp3922
g73
(dp3923
g81
I4
ssg82
g3917
sg75
(lp3924
S'5'
asbasbasbag68
(g84
g70
NtRp3925
(dp3926
g73
(dp3927
sg82
g3661
sg75
(lp3928
g68
(g89
g70
NtRp3929
(dp3930
g73
(dp3931
g93
g94
ssg82
g3925
sg75
(lp3932
S'2012-01-16'
p3933
asbag68
(g89
g70
NtRp3934
(dp3935
g73
(dp3936
g100
g101
ssg82
g3925
sg75
(lp3937
S':'
asbag68
(g89
g70
NtRp3938
(dp3939
g73
(dp3940
sg82
g3925
sg75
(lp3941
g68
(g69
g70
NtRp3942
(dp3943
g73
(dp3944
g81
I4
ssg82
g3938
sg75
(lp3945
S'1'
asbasbasbag68
(g84
g70
NtRp3946
(dp3947
g73
(dp3948
sg82
g3661
sg75
(lp3949
g68
(g89
g70
NtRp3950
(dp3951
g73
(dp3952
g93
g94
ssg82
g3946
sg75
(lp3953
S'2012-01-18'
p3954
asbag68
(g89
g70
NtRp3955
(dp3956
g73
(dp3957
g100
g101
ssg82
g3946
sg75
(lp3958
S':'
asbag68
(g89
g70
NtRp3959
(dp3960
g73
(dp3961
sg82
g3946
sg75
(lp3962
g68
(g69
g70
NtRp3963
(dp3964
g73
(dp3965
g81
I4
ssg82
g3959
sg75
(lp3966
S'2'
asbasbasbag68
(g84
g70
NtRp3967
(dp3968
g73
(dp3969
sg82
g3661
sg75
(lp3970
g68
(g89
g70
NtRp3971
(dp3972
g73
(dp3973
g93
g94
ssg82
g3967
sg75
(lp3974
S'2012-01-20'
p3975
asbag68
(g89
g70
NtRp3976
(dp3977
g73
(dp3978
g100
g101
ssg82
g3967
sg75
(lp3979
S':'
asbag68
(g89
g70
NtRp3980
(dp3981
g73
(dp3982
sg82
g3967
sg75
(lp3983
g68
(g69
g70
NtRp3984
(dp3985
g73
(dp3986
g81
I4
ssg82
g3980
sg75
(lp3987
S'20'
p3988
asbasbasbag68
(g84
g70
NtRp3989
(dp3990
g73
(dp3991
sg82
g3661
sg75
(lp3992
g68
(g89
g70
NtRp3993
(dp3994
g73
(dp3995
g93
g94
ssg82
g3989
sg75
(lp3996
S'2012-01-25'
p3997
asbag68
(g89
g70
NtRp3998
(dp3999
g73
(dp4000
g100
g101
ssg82
g3989
sg75
(lp4001
S':'
asbag68
(g89
g70
NtRp4002
(dp4003
g73
(dp4004
sg82
g3989
sg75
(lp4005
g68
(g69
g70
NtRp4006
(dp4007
g73
(dp4008
g81
I4
ssg82
g4002
sg75
(lp4009
S'7'
asbasbasbag68
(g84
g70
NtRp4010
(dp4011
g73
(dp4012
sg82
g3661
sg75
(lp4013
g68
(g89
g70
NtRp4014
(dp4015
g73
(dp4016
g93
g94
ssg82
g4010
sg75
(lp4017
S'2012-01-27'
p4018
asbag68
(g89
g70
NtRp4019
(dp4020
g73
(dp4021
g100
g101
ssg82
g4010
sg75
(lp4022
S':'
asbag68
(g89
g70
NtRp4023
(dp4024
g73
(dp4025
sg82
g4010
sg75
(lp4026
g68
(g69
g70
NtRp4027
(dp4028
g73
(dp4029
g81
I4
ssg82
g4023
sg75
(lp4030
S'24'
p4031
asbasbasbag68
(g84
g70
NtRp4032
(dp4033
g73
(dp4034
sg82
g3661
sg75
(lp4035
g68
(g89
g70
NtRp4036
(dp4037
g73
(dp4038
g93
g94
ssg82
g4032
sg75
(lp4039
S'2012-02-02'
p4040
asbag68
(g89
g70
NtRp4041
(dp4042
g73
(dp4043
g100
g101
ssg82
g4032
sg75
(lp4044
S':'
asbag68
(g89
g70
NtRp4045
(dp4046
g73
(dp4047
sg82
g4032
sg75
(lp4048
g68
(g69
g70
NtRp4049
(dp4050
g73
(dp4051
g81
I4
ssg82
g4045
sg75
(lp4052
S'22'
p4053
asbasbasbag68
(g84
g70
NtRp4054
(dp4055
g73
(dp4056
sg82
g3661
sg75
(lp4057
g68
(g89
g70
NtRp4058
(dp4059
g73
(dp4060
g93
g94
ssg82
g4054
sg75
(lp4061
S'2012-02-07'
p4062
asbag68
(g89
g70
NtRp4063
(dp4064
g73
(dp4065
g100
g101
ssg82
g4054
sg75
(lp4066
S':'
asbag68
(g89
g70
NtRp4067
(dp4068
g73
(dp4069
sg82
g4054
sg75
(lp4070
g68
(g69
g70
NtRp4071
(dp4072
g73
(dp4073
g81
I4
ssg82
g4067
sg75
(lp4074
S'3'
asbasbasbasbasbasbasbag68
(g84
g70
NtRp4075
(dp4076
g73
(dp4077
sg82
g3259
sg75
(lp4078
g68
(g89
g70
NtRp4079
(dp4080
g73
(dp4081
g93
g94
ssg82
g4075
sg75
(lp4082
S'last_query'
p4083
asbag68
(g89
g70
NtRp4084
(dp4085
g73
(dp4086
g100
g101
ssg82
g4075
sg75
(lp4087
S':'
asbag68
(g89
g70
NtRp4088
(dp4089
g73
(dp4090
sg82
g4075
sg75
(lp4091
g68
(g69
g70
NtRp4092
(dp4093
g73
(dp4094
g81
I5
ssg82
g4088
sg75
(lp4095
S'db.locations.id>0'
p4096
asbasbasbag68
(g84
g70
NtRp4097
(dp4098
g73
(dp4099
sg82
g3259
sg75
(lp4100
g68
(g89
g70
NtRp4101
(dp4102
g73
(dp4103
g93
g94
ssg82
g4097
sg75
(lp4104
S'paths_npcs_loader'
p4105
asbag68
(g89
g70
NtRp4106
(dp4107
g73
(dp4108
g100
g101
ssg82
g4097
sg75
(lp4109
S':'
asbag68
(g89
g70
NtRp4110
(dp4111
g73
(dp4112
sg82
g4097
sg75
(lp4113
g68
(g69
g70
NtRp4114
(dp4115
g73
(dp4116
g81
I5
ssg82
g4110
sg75
(lp4117
S'None'
p4118
asbasbasbag68
(g84
g70
NtRp4119
(dp4120
g73
(dp4121
sg82
g3259
sg75
(lp4122
g68
(g89
g70
NtRp4123
(dp4124
g73
(dp4125
g93
g94
ssg82
g4119
sg75
(lp4126
S'paths_steps_loader'
p4127
asbag68
(g89
g70
NtRp4128
(dp4129
g73
(dp4130
g100
g101
ssg82
g4119
sg75
(lp4131
S':'
asbag68
(g89
g70
NtRp4132
(dp4133
g73
(dp4134
sg82
g4119
sg75
(lp4135
g68
(g69
g70
NtRp4136
(dp4137
g73
(dp4138
g81
I5
ssg82
g4132
sg75
(lp4139
S'None'
p4140
asbasbasbag68
(g84
g70
NtRp4141
(dp4142
g73
(dp4143
sg82
g3259
sg75
(lp4144
g68
(g89
g70
NtRp4145
(dp4146
g73
(dp4147
g93
g94
ssg82
g4141
sg75
(lp4148
S'tagset'
p4149
asbag68
(g89
g70
NtRp4150
(dp4151
g73
(dp4152
g100
g101
ssg82
g4141
sg75
(lp4153
S':'
asbag68
(g89
g70
NtRp4154
(dp4155
g73
(dp4156
sg82
g4141
sg75
(lp4157
g68
(g69
g70
NtRp4158
(dp4159
g73
(dp4160
g81
I5
ssg82
g4154
sg75
(lp4161
g68
(g77
g70
NtRp4162
(dp4163
g73
(dp4164
g81
I4
ssg82
Nsg75
(lp4165
g68
(g84
g70
NtRp4166
(dp4167
g73
(dp4168
sg82
g4162
sg75
(lp4169
g68
(g89
g70
NtRp4170
(dp4171
g73
(dp4172
g93
g94
ssg82
g4166
sg75
(lp4173
S'1'
asbag68
(g89
g70
NtRp4174
(dp4175
g73
(dp4176
g100
g101
ssg82
g4166
sg75
(lp4177
S':'
asbag68
(g89
g70
NtRp4178
(dp4179
g73
(dp4180
sg82
g4166
sg75
(lp4181
g68
(g69
g70
NtRp4182
(dp4183
g73
(dp4184
g81
I4
ssg82
g4178
sg75
(lp4185
S'1'
asbasbasbag68
(g84
g70
NtRp4186
(dp4187
g73
(dp4188
sg82
g4162
sg75
(lp4189
g68
(g89
g70
NtRp4190
(dp4191
g73
(dp4192
g93
g94
ssg82
g4186
sg75
(lp4193
S'2'
asbag68
(g89
g70
NtRp4194
(dp4195
g73
(dp4196
g100
g101
ssg82
g4186
sg75
(lp4197
S':'
asbag68
(g89
g70
NtRp4198
(dp4199
g73
(dp4200
sg82
g4186
sg75
(lp4201
g68
(g69
g70
NtRp4202
(dp4203
g73
(dp4204
g81
I4
ssg82
g4198
sg75
(lp4205
S'1'
asbasbasbag68
(g84
g70
NtRp4206
(dp4207
g73
(dp4208
sg82
g4162
sg75
(lp4209
g68
(g89
g70
NtRp4210
(dp4211
g73
(dp4212
g93
g94
ssg82
g4206
sg75
(lp4213
S'3'
asbag68
(g89
g70
NtRp4214
(dp4215
g73
(dp4216
g100
g101
ssg82
g4206
sg75
(lp4217
S':'
asbag68
(g89
g70
NtRp4218
(dp4219
g73
(dp4220
sg82
g4206
sg75
(lp4221
g68
(g69
g70
NtRp4222
(dp4223
g73
(dp4224
g81
I4
ssg82
g4218
sg75
(lp4225
S'1'
asbasbasbag68
(g84
g70
NtRp4226
(dp4227
g73
(dp4228
sg82
g4162
sg75
(lp4229
g68
(g89
g70
NtRp4230
(dp4231
g73
(dp4232
g93
g94
ssg82
g4226
sg75
(lp4233
S'4'
asbag68
(g89
g70
NtRp4234
(dp4235
g73
(dp4236
g100
g101
ssg82
g4226
sg75
(lp4237
S':'
asbag68
(g89
g70
NtRp4238
(dp4239
g73
(dp4240
sg82
g4226
sg75
(lp4241
g68
(g69
g70
NtRp4242
(dp4243
g73
(dp4244
g81
I4
ssg82
g4238
sg75
(lp4245
S'1'
asbasbasbag68
(g84
g70
NtRp4246
(dp4247
g73
(dp4248
sg82
g4162
sg75
(lp4249
g68
(g89
g70
NtRp4250
(dp4251
g73
(dp4252
g93
g94
ssg82
g4246
sg75
(lp4253
S'5'
asbag68
(g89
g70
NtRp4254
(dp4255
g73
(dp4256
g100
g101
ssg82
g4246
sg75
(lp4257
S':'
asbag68
(g89
g70
NtRp4258
(dp4259
g73
(dp4260
sg82
g4246
sg75
(lp4261
g68
(g69
g70
NtRp4262
(dp4263
g73
(dp4264
g81
I4
ssg82
g4258
sg75
(lp4265
S'1'
asbasbasbag68
(g84
g70
NtRp4266
(dp4267
g73
(dp4268
sg82
g4162
sg75
(lp4269
g68
(g89
g70
NtRp4270
(dp4271
g73
(dp4272
g93
g94
ssg82
g4266
sg75
(lp4273
S'6'
asbag68
(g89
g70
NtRp4274
(dp4275
g73
(dp4276
g100
g101
ssg82
g4266
sg75
(lp4277
S':'
asbag68
(g89
g70
NtRp4278
(dp4279
g73
(dp4280
sg82
g4266
sg75
(lp4281
g68
(g69
g70
NtRp4282
(dp4283
g73
(dp4284
g81
I4
ssg82
g4278
sg75
(lp4285
S'1'
asbasbasbag68
(g84
g70
NtRp4286
(dp4287
g73
(dp4288
sg82
g4162
sg75
(lp4289
g68
(g89
g70
NtRp4290
(dp4291
g73
(dp4292
g93
g94
ssg82
g4286
sg75
(lp4293
S'7'
asbag68
(g89
g70
NtRp4294
(dp4295
g73
(dp4296
g100
g101
ssg82
g4286
sg75
(lp4297
S':'
asbag68
(g89
g70
NtRp4298
(dp4299
g73
(dp4300
sg82
g4286
sg75
(lp4301
g68
(g69
g70
NtRp4302
(dp4303
g73
(dp4304
g81
I4
ssg82
g4298
sg75
(lp4305
S'1'
asbasbasbag68
(g84
g70
NtRp4306
(dp4307
g73
(dp4308
sg82
g4162
sg75
(lp4309
g68
(g89
g70
NtRp4310
(dp4311
g73
(dp4312
g93
g94
ssg82
g4306
sg75
(lp4313
S'8'
asbag68
(g89
g70
NtRp4314
(dp4315
g73
(dp4316
g100
g101
ssg82
g4306
sg75
(lp4317
S':'
asbag68
(g89
g70
NtRp4318
(dp4319
g73
(dp4320
sg82
g4306
sg75
(lp4321
g68
(g69
g70
NtRp4322
(dp4323
g73
(dp4324
g81
I4
ssg82
g4318
sg75
(lp4325
S'1'
asbasbasbag68
(g84
g70
NtRp4326
(dp4327
g73
(dp4328
sg82
g4162
sg75
(lp4329
g68
(g89
g70
NtRp4330
(dp4331
g73
(dp4332
g93
g94
ssg82
g4326
sg75
(lp4333
S'9'
asbag68
(g89
g70
NtRp4334
(dp4335
g73
(dp4336
g100
g101
ssg82
g4326
sg75
(lp4337
S':'
asbag68
(g89
g70
NtRp4338
(dp4339
g73
(dp4340
sg82
g4326
sg75
(lp4341
g68
(g69
g70
NtRp4342
(dp4343
g73
(dp4344
g81
I4
ssg82
g4338
sg75
(lp4345
S'1'
asbasbasbag68
(g84
g70
NtRp4346
(dp4347
g73
(dp4348
sg82
g4162
sg75
(lp4349
g68
(g89
g70
NtRp4350
(dp4351
g73
(dp4352
g93
g94
ssg82
g4346
sg75
(lp4353
S'10'
p4354
asbag68
(g89
g70
NtRp4355
(dp4356
g73
(dp4357
g100
g101
ssg82
g4346
sg75
(lp4358
S':'
asbag68
(g89
g70
NtRp4359
(dp4360
g73
(dp4361
sg82
g4346
sg75
(lp4362
g68
(g69
g70
NtRp4363
(dp4364
g73
(dp4365
g81
I4
ssg82
g4359
sg75
(lp4366
S'1'
asbasbasbag68
(g84
g70
NtRp4367
(dp4368
g73
(dp4369
sg82
g4162
sg75
(lp4370
g68
(g89
g70
NtRp4371
(dp4372
g73
(dp4373
g93
g94
ssg82
g4367
sg75
(lp4374
S'12'
p4375
asbag68
(g89
g70
NtRp4376
(dp4377
g73
(dp4378
g100
g101
ssg82
g4367
sg75
(lp4379
S':'
asbag68
(g89
g70
NtRp4380
(dp4381
g73
(dp4382
sg82
g4367
sg75
(lp4383
g68
(g69
g70
NtRp4384
(dp4385
g73
(dp4386
g81
I4
ssg82
g4380
sg75
(lp4387
S'1'
asbasbasbag68
(g84
g70
NtRp4388
(dp4389
g73
(dp4390
sg82
g4162
sg75
(lp4391
g68
(g89
g70
NtRp4392
(dp4393
g73
(dp4394
g93
g94
ssg82
g4388
sg75
(lp4395
S'14'
p4396
asbag68
(g89
g70
NtRp4397
(dp4398
g73
(dp4399
g100
g101
ssg82
g4388
sg75
(lp4400
S':'
asbag68
(g89
g70
NtRp4401
(dp4402
g73
(dp4403
sg82
g4388
sg75
(lp4404
g68
(g69
g70
NtRp4405
(dp4406
g73
(dp4407
g81
I4
ssg82
g4401
sg75
(lp4408
S'1'
asbasbasbag68
(g84
g70
NtRp4409
(dp4410
g73
(dp4411
sg82
g4162
sg75
(lp4412
g68
(g89
g70
NtRp4413
(dp4414
g73
(dp4415
g93
g94
ssg82
g4409
sg75
(lp4416
S'15'
p4417
asbag68
(g89
g70
NtRp4418
(dp4419
g73
(dp4420
g100
g101
ssg82
g4409
sg75
(lp4421
S':'
asbag68
(g89
g70
NtRp4422
(dp4423
g73
(dp4424
sg82
g4409
sg75
(lp4425
g68
(g69
g70
NtRp4426
(dp4427
g73
(dp4428
g81
I4
ssg82
g4422
sg75
(lp4429
S'1'
asbasbasbag68
(g84
g70
NtRp4430
(dp4431
g73
(dp4432
sg82
g4162
sg75
(lp4433
g68
(g89
g70
NtRp4434
(dp4435
g73
(dp4436
g93
g94
ssg82
g4430
sg75
(lp4437
S'16'
p4438
asbag68
(g89
g70
NtRp4439
(dp4440
g73
(dp4441
g100
g101
ssg82
g4430
sg75
(lp4442
S':'
asbag68
(g89
g70
NtRp4443
(dp4444
g73
(dp4445
sg82
g4430
sg75
(lp4446
g68
(g69
g70
NtRp4447
(dp4448
g73
(dp4449
g81
I4
ssg82
g4443
sg75
(lp4450
S'1'
asbasbasbag68
(g84
g70
NtRp4451
(dp4452
g73
(dp4453
sg82
g4162
sg75
(lp4454
g68
(g89
g70
NtRp4455
(dp4456
g73
(dp4457
g93
g94
ssg82
g4451
sg75
(lp4458
S'17'
p4459
asbag68
(g89
g70
NtRp4460
(dp4461
g73
(dp4462
g100
g101
ssg82
g4451
sg75
(lp4463
S':'
asbag68
(g89
g70
NtRp4464
(dp4465
g73
(dp4466
sg82
g4451
sg75
(lp4467
g68
(g69
g70
NtRp4468
(dp4469
g73
(dp4470
g81
I4
ssg82
g4464
sg75
(lp4471
S'1'
asbasbasbag68
(g84
g70
NtRp4472
(dp4473
g73
(dp4474
sg82
g4162
sg75
(lp4475
g68
(g89
g70
NtRp4476
(dp4477
g73
(dp4478
g93
g94
ssg82
g4472
sg75
(lp4479
S'18'
p4480
asbag68
(g89
g70
NtRp4481
(dp4482
g73
(dp4483
g100
g101
ssg82
g4472
sg75
(lp4484
S':'
asbag68
(g89
g70
NtRp4485
(dp4486
g73
(dp4487
sg82
g4472
sg75
(lp4488
g68
(g69
g70
NtRp4489
(dp4490
g73
(dp4491
g81
I4
ssg82
g4485
sg75
(lp4492
S'1'
asbasbasbag68
(g84
g70
NtRp4493
(dp4494
g73
(dp4495
sg82
g4162
sg75
(lp4496
g68
(g89
g70
NtRp4497
(dp4498
g73
(dp4499
g93
g94
ssg82
g4493
sg75
(lp4500
S'22'
p4501
asbag68
(g89
g70
NtRp4502
(dp4503
g73
(dp4504
g100
g101
ssg82
g4493
sg75
(lp4505
S':'
asbag68
(g89
g70
NtRp4506
(dp4507
g73
(dp4508
sg82
g4493
sg75
(lp4509
g68
(g69
g70
NtRp4510
(dp4511
g73
(dp4512
g81
I4
ssg82
g4506
sg75
(lp4513
S'1'
asbasbasbag68
(g84
g70
NtRp4514
(dp4515
g73
(dp4516
sg82
g4162
sg75
(lp4517
g68
(g89
g70
NtRp4518
(dp4519
g73
(dp4520
g93
g94
ssg82
g4514
sg75
(lp4521
S'24'
p4522
asbag68
(g89
g70
NtRp4523
(dp4524
g73
(dp4525
g100
g101
ssg82
g4514
sg75
(lp4526
S':'
asbag68
(g89
g70
NtRp4527
(dp4528
g73
(dp4529
sg82
g4514
sg75
(lp4530
g68
(g69
g70
NtRp4531
(dp4532
g73
(dp4533
g81
I4
ssg82
g4527
sg75
(lp4534
S'1'
asbasbasbag68
(g84
g70
NtRp4535
(dp4536
g73
(dp4537
sg82
g4162
sg75
(lp4538
g68
(g89
g70
NtRp4539
(dp4540
g73
(dp4541
g93
g94
ssg82
g4535
sg75
(lp4542
S'25'
p4543
asbag68
(g89
g70
NtRp4544
(dp4545
g73
(dp4546
g100
g101
ssg82
g4535
sg75
(lp4547
S':'
asbag68
(g89
g70
NtRp4548
(dp4549
g73
(dp4550
sg82
g4535
sg75
(lp4551
g68
(g69
g70
NtRp4552
(dp4553
g73
(dp4554
g81
I4
ssg82
g4548
sg75
(lp4555
S'1'
asbasbasbag68
(g84
g70
NtRp4556
(dp4557
g73
(dp4558
sg82
g4162
sg75
(lp4559
g68
(g89
g70
NtRp4560
(dp4561
g73
(dp4562
g93
g94
ssg82
g4556
sg75
(lp4563
S'29'
p4564
asbag68
(g89
g70
NtRp4565
(dp4566
g73
(dp4567
g100
g101
ssg82
g4556
sg75
(lp4568
S':'
asbag68
(g89
g70
NtRp4569
(dp4570
g73
(dp4571
sg82
g4556
sg75
(lp4572
g68
(g69
g70
NtRp4573
(dp4574
g73
(dp4575
g81
I4
ssg82
g4569
sg75
(lp4576
S'1'
asbasbasbag68
(g84
g70
NtRp4577
(dp4578
g73
(dp4579
sg82
g4162
sg75
(lp4580
g68
(g89
g70
NtRp4581
(dp4582
g73
(dp4583
g93
g94
ssg82
g4577
sg75
(lp4584
S'30'
p4585
asbag68
(g89
g70
NtRp4586
(dp4587
g73
(dp4588
g100
g101
ssg82
g4577
sg75
(lp4589
S':'
asbag68
(g89
g70
NtRp4590
(dp4591
g73
(dp4592
sg82
g4577
sg75
(lp4593
g68
(g69
g70
NtRp4594
(dp4595
g73
(dp4596
g81
I4
ssg82
g4590
sg75
(lp4597
S'1'
asbasbasbag68
(g84
g70
NtRp4598
(dp4599
g73
(dp4600
sg82
g4162
sg75
(lp4601
g68
(g89
g70
NtRp4602
(dp4603
g73
(dp4604
g93
g94
ssg82
g4598
sg75
(lp4605
S'31'
p4606
asbag68
(g89
g70
NtRp4607
(dp4608
g73
(dp4609
g100
g101
ssg82
g4598
sg75
(lp4610
S':'
asbag68
(g89
g70
NtRp4611
(dp4612
g73
(dp4613
sg82
g4598
sg75
(lp4614
g68
(g69
g70
NtRp4615
(dp4616
g73
(dp4617
g81
I4
ssg82
g4611
sg75
(lp4618
S'1'
asbasbasbag68
(g84
g70
NtRp4619
(dp4620
g73
(dp4621
sg82
g4162
sg75
(lp4622
g68
(g89
g70
NtRp4623
(dp4624
g73
(dp4625
g93
g94
ssg82
g4619
sg75
(lp4626
S'32'
p4627
asbag68
(g89
g70
NtRp4628
(dp4629
g73
(dp4630
g100
g101
ssg82
g4619
sg75
(lp4631
S':'
asbag68
(g89
g70
NtRp4632
(dp4633
g73
(dp4634
sg82
g4619
sg75
(lp4635
g68
(g69
g70
NtRp4636
(dp4637
g73
(dp4638
g81
I4
ssg82
g4632
sg75
(lp4639
S'1'
asbasbasbag68
(g84
g70
NtRp4640
(dp4641
g73
(dp4642
sg82
g4162
sg75
(lp4643
g68
(g89
g70
NtRp4644
(dp4645
g73
(dp4646
g93
g94
ssg82
g4640
sg75
(lp4647
S'33'
p4648
asbag68
(g89
g70
NtRp4649
(dp4650
g73
(dp4651
g100
g101
ssg82
g4640
sg75
(lp4652
S':'
asbag68
(g89
g70
NtRp4653
(dp4654
g73
(dp4655
sg82
g4640
sg75
(lp4656
g68
(g69
g70
NtRp4657
(dp4658
g73
(dp4659
g81
I4
ssg82
g4653
sg75
(lp4660
S'1'
asbasbasbag68
(g84
g70
NtRp4661
(dp4662
g73
(dp4663
sg82
g4162
sg75
(lp4664
g68
(g89
g70
NtRp4665
(dp4666
g73
(dp4667
g93
g94
ssg82
g4661
sg75
(lp4668
S'35'
p4669
asbag68
(g89
g70
NtRp4670
(dp4671
g73
(dp4672
g100
g101
ssg82
g4661
sg75
(lp4673
S':'
asbag68
(g89
g70
NtRp4674
(dp4675
g73
(dp4676
sg82
g4661
sg75
(lp4677
g68
(g69
g70
NtRp4678
(dp4679
g73
(dp4680
g81
I4
ssg82
g4674
sg75
(lp4681
S'1'
asbasbasbag68
(g84
g70
NtRp4682
(dp4683
g73
(dp4684
sg82
g4162
sg75
(lp4685
g68
(g89
g70
NtRp4686
(dp4687
g73
(dp4688
g93
g94
ssg82
g4682
sg75
(lp4689
S'36'
p4690
asbag68
(g89
g70
NtRp4691
(dp4692
g73
(dp4693
g100
g101
ssg82
g4682
sg75
(lp4694
S':'
asbag68
(g89
g70
NtRp4695
(dp4696
g73
(dp4697
sg82
g4682
sg75
(lp4698
g68
(g69
g70
NtRp4699
(dp4700
g73
(dp4701
g81
I4
ssg82
g4695
sg75
(lp4702
S'1'
asbasbasbag68
(g84
g70
NtRp4703
(dp4704
g73
(dp4705
sg82
g4162
sg75
(lp4706
g68
(g89
g70
NtRp4707
(dp4708
g73
(dp4709
g93
g94
ssg82
g4703
sg75
(lp4710
S'37'
p4711
asbag68
(g89
g70
NtRp4712
(dp4713
g73
(dp4714
g100
g101
ssg82
g4703
sg75
(lp4715
S':'
asbag68
(g89
g70
NtRp4716
(dp4717
g73
(dp4718
sg82
g4703
sg75
(lp4719
g68
(g69
g70
NtRp4720
(dp4721
g73
(dp4722
g81
I4
ssg82
g4716
sg75
(lp4723
S'1'
asbasbasbag68
(g84
g70
NtRp4724
(dp4725
g73
(dp4726
sg82
g4162
sg75
(lp4727
g68
(g89
g70
NtRp4728
(dp4729
g73
(dp4730
g93
g94
ssg82
g4724
sg75
(lp4731
S'39'
p4732
asbag68
(g89
g70
NtRp4733
(dp4734
g73
(dp4735
g100
g101
ssg82
g4724
sg75
(lp4736
S':'
asbag68
(g89
g70
NtRp4737
(dp4738
g73
(dp4739
sg82
g4724
sg75
(lp4740
g68
(g69
g70
NtRp4741
(dp4742
g73
(dp4743
g81
I4
ssg82
g4737
sg75
(lp4744
S'1'
asbasbasbag68
(g84
g70
NtRp4745
(dp4746
g73
(dp4747
sg82
g4162
sg75
(lp4748
g68
(g89
g70
NtRp4749
(dp4750
g73
(dp4751
g93
g94
ssg82
g4745
sg75
(lp4752
S'40'
p4753
asbag68
(g89
g70
NtRp4754
(dp4755
g73
(dp4756
g100
g101
ssg82
g4745
sg75
(lp4757
S':'
asbag68
(g89
g70
NtRp4758
(dp4759
g73
(dp4760
sg82
g4745
sg75
(lp4761
g68
(g69
g70
NtRp4762
(dp4763
g73
(dp4764
g81
I4
ssg82
g4758
sg75
(lp4765
S'1'
asbasbasbag68
(g84
g70
NtRp4766
(dp4767
g73
(dp4768
sg82
g4162
sg75
(lp4769
g68
(g89
g70
NtRp4770
(dp4771
g73
(dp4772
g93
g94
ssg82
g4766
sg75
(lp4773
S'43'
p4774
asbag68
(g89
g70
NtRp4775
(dp4776
g73
(dp4777
g100
g101
ssg82
g4766
sg75
(lp4778
S':'
asbag68
(g89
g70
NtRp4779
(dp4780
g73
(dp4781
sg82
g4766
sg75
(lp4782
g68
(g69
g70
NtRp4783
(dp4784
g73
(dp4785
g81
I4
ssg82
g4779
sg75
(lp4786
S'1'
asbasbasbag68
(g84
g70
NtRp4787
(dp4788
g73
(dp4789
sg82
g4162
sg75
(lp4790
g68
(g89
g70
NtRp4791
(dp4792
g73
(dp4793
g93
g94
ssg82
g4787
sg75
(lp4794
S'44'
p4795
asbag68
(g89
g70
NtRp4796
(dp4797
g73
(dp4798
g100
g101
ssg82
g4787
sg75
(lp4799
S':'
asbag68
(g89
g70
NtRp4800
(dp4801
g73
(dp4802
sg82
g4787
sg75
(lp4803
g68
(g69
g70
NtRp4804
(dp4805
g73
(dp4806
g81
I4
ssg82
g4800
sg75
(lp4807
S'1'
asbasbasbag68
(g84
g70
NtRp4808
(dp4809
g73
(dp4810
sg82
g4162
sg75
(lp4811
g68
(g89
g70
NtRp4812
(dp4813
g73
(dp4814
g93
g94
ssg82
g4808
sg75
(lp4815
S'48'
p4816
asbag68
(g89
g70
NtRp4817
(dp4818
g73
(dp4819
g100
g101
ssg82
g4808
sg75
(lp4820
S':'
asbag68
(g89
g70
NtRp4821
(dp4822
g73
(dp4823
sg82
g4808
sg75
(lp4824
g68
(g69
g70
NtRp4825
(dp4826
g73
(dp4827
g81
I4
ssg82
g4821
sg75
(lp4828
S'1'
asbasbasbasbasbasbasbasbasbsS'etype'
p4829
S"<type 'exceptions.SyntaxError'>"
p4830
sS'date'
p4831
S'Wed Mar 14 16:24:25 2012'
p4832
sS'response'
p4833
g68
(g69
g70
NtRp4834
(dp4835
g73
(dp4836
sg75
(lp4837
g68
(g77
g70
NtRp4838
(dp4839
g73
(dp4840
g81
I5
ssg82
Nsg75
(lp4841
g68
(g84
g70
NtRp4842
(dp4843
g73
(dp4844
sg82
g4838
sg75
(lp4845
g68
(g89
g70
NtRp4846
(dp4847
g73
(dp4848
g93
g94
ssg82
g4842
sg75
(lp4849
g166
asbag68
(g89
g70
NtRp4850
(dp4851
g73
(dp4852
g100
g101
ssg82
g4842
sg75
(lp4853
S':'
asbag68
(g89
g70
NtRp4854
(dp4855
g73
(dp4856
sg82
g4842
sg75
(lp4857
g68
(g69
g70
NtRp4858
(dp4859
g73
(dp4860
g81
I5
ssg82
g4854
sg75
(lp4861
S'<cStringIO.StringO object at 0x7fc16c7a7458>'
p4862
asbasbasbag68
(g84
g70
NtRp4863
(dp4864
g73
(dp4865
sg82
g4838
sg75
(lp4866
g68
(g89
g70
NtRp4867
(dp4868
g73
(dp4869
g93
g94
ssg82
g4863
sg75
(lp4870
g232
asbag68
(g89
g70
NtRp4871
(dp4872
g73
(dp4873
g100
g101
ssg82
g4863
sg75
(lp4874
S':'
asbag68
(g89
g70
NtRp4875
(dp4876
g73
(dp4877
sg82
g4863
sg75
(lp4878
g68
(g69
g70
NtRp4879
(dp4880
g73
(dp4881
g81
I5
ssg82
g4875
sg75
(lp4882
g68
(g77
g70
NtRp4883
(dp4884
g73
(dp4885
g81
I4
ssg82
Nsg75
(lp4886
g68
(g84
g70
NtRp4887
(dp4888
g73
(dp4889
sg82
g4883
sg75
(lp4890
g68
(g89
g70
NtRp4891
(dp4892
g73
(dp4893
g93
g94
ssg82
g4887
sg75
(lp4894
S'session_id_paideia'
p4895
asbag68
(g89
g70
NtRp4896
(dp4897
g73
(dp4898
g100
g101
ssg82
g4887
sg75
(lp4899
S':'
asbag68
(g89
g70
NtRp4900
(dp4901
g73
(dp4902
sg82
g4887
sg75
(lp4903
g68
(g69
g70
NtRp4904
(dp4905
g73
(dp4906
g81
I4
ssg82
g4900
sg75
(lp4907
g68
(g77
g70
NtRp4908
(dp4909
g73
(dp4910
g81
I3
ssg82
Nsg75
(lp4911
g68
(g84
g70
NtRp4912
(dp4913
g73
(dp4914
sg82
g4908
sg75
(lp4915
g68
(g89
g70
NtRp4916
(dp4917
g73
(dp4918
g93
g94
ssg82
g4912
sg75
(lp4919
g282
asbag68
(g89
g70
NtRp4920
(dp4921
g73
(dp4922
g100
g101
ssg82
g4912
sg75
(lp4923
S':'
asbag68
(g89
g70
NtRp4924
(dp4925
g73
(dp4926
sg82
g4912
sg75
(lp4927
g68
(g69
g70
NtRp4928
(dp4929
g73
(dp4930
g81
I3
ssg82
g4924
sg75
(lp4931
S''
asbasbasbag68
(g84
g70
NtRp4932
(dp4933
g73
(dp4934
sg82
g4908
sg75
(lp4935
g68
(g89
g70
NtRp4936
(dp4937
g73
(dp4938
g93
g94
ssg82
g4932
sg75
(lp4939
g303
asbag68
(g89
g70
NtRp4940
(dp4941
g73
(dp4942
g100
g101
ssg82
g4932
sg75
(lp4943
S':'
asbag68
(g89
g70
NtRp4944
(dp4945
g73
(dp4946
sg82
g4932
sg75
(lp4947
g68
(g69
g70
NtRp4948
(dp4949
g73
(dp4950
g81
I3
ssg82
g4944
sg75
(lp4951
S''
asbasbasbag68
(g84
g70
NtRp4952
(dp4953
g73
(dp4954
sg82
g4908
sg75
(lp4955
g68
(g89
g70
NtRp4956
(dp4957
g73
(dp4958
g93
g94
ssg82
g4952
sg75
(lp4959
g324
asbag68
(g89
g70
NtRp4960
(dp4961
g73
(dp4962
g100
g101
ssg82
g4952
sg75
(lp4963
S':'
asbag68
(g89
g70
NtRp4964
(dp4965
g73
(dp4966
sg82
g4952
sg75
(lp4967
g68
(g69
g70
NtRp4968
(dp4969
g73
(dp4970
g81
I3
ssg82
g4964
sg75
(lp4971
S'2592000'
p4972
asbasbasbag68
(g84
g70
NtRp4973
(dp4974
g73
(dp4975
sg82
g4908
sg75
(lp4976
g68
(g89
g70
NtRp4977
(dp4978
g73
(dp4979
g93
g94
ssg82
g4973
sg75
(lp4980
g345
asbag68
(g89
g70
NtRp4981
(dp4982
g73
(dp4983
g100
g101
ssg82
g4973
sg75
(lp4984
S':'
asbag68
(g89
g70
NtRp4985
(dp4986
g73
(dp4987
sg82
g4973
sg75
(lp4988
g68
(g69
g70
NtRp4989
(dp4990
g73
(dp4991
g81
I3
ssg82
g4985
sg75
(lp4992
S''
asbasbasbag68
(g84
g70
NtRp4993
(dp4994
g73
(dp4995
sg82
g4908
sg75
(lp4996
g68
(g89
g70
NtRp4997
(dp4998
g73
(dp4999
g93
g94
ssg82
g4993
sg75
(lp5000
g366
asbag68
(g89
g70
NtRp5001
(dp5002
g73
(dp5003
g100
g101
ssg82
g4993
sg75
(lp5004
S':'
asbag68
(g89
g70
NtRp5005
(dp5006
g73
(dp5007
sg82
g4993
sg75
(lp5008
g68
(g69
g70
NtRp5009
(dp5010
g73
(dp5011
g81
I3
ssg82
g5005
sg75
(lp5012
S''
asbasbasbag68
(g84
g70
NtRp5013
(dp5014
g73
(dp5015
sg82
g4908
sg75
(lp5016
g68
(g89
g70
NtRp5017
(dp5018
g73
(dp5019
g93
g94
ssg82
g5013
sg75
(lp5020
g387
asbag68
(g89
g70
NtRp5021
(dp5022
g73
(dp5023
g100
g101
ssg82
g5013
sg75
(lp5024
S':'
asbag68
(g89
g70
NtRp5025
(dp5026
g73
(dp5027
sg82
g5013
sg75
(lp5028
g68
(g69
g70
NtRp5029
(dp5030
g73
(dp5031
g81
I3
ssg82
g5025
sg75
(lp5032
S'/'
asbasbasbag68
(g84
g70
NtRp5033
(dp5034
g73
(dp5035
sg82
g4908
sg75
(lp5036
g68
(g89
g70
NtRp5037
(dp5038
g73
(dp5039
g93
g94
ssg82
g5033
sg75
(lp5040
g408
asbag68
(g89
g70
NtRp5041
(dp5042
g73
(dp5043
g100
g101
ssg82
g5033
sg75
(lp5044
S':'
asbag68
(g89
g70
NtRp5045
(dp5046
g73
(dp5047
sg82
g5033
sg75
(lp5048
g68
(g69
g70
NtRp5049
(dp5050
g73
(dp5051
g81
I3
ssg82
g5045
sg75
(lp5052
S''
asbasbasbag68
(g84
g70
NtRp5053
(dp5054
g73
(dp5055
sg82
g4908
sg75
(lp5056
g68
(g89
g70
NtRp5057
(dp5058
g73
(dp5059
g93
g94
ssg82
g5053
sg75
(lp5060
g429
asbag68
(g89
g70
NtRp5061
(dp5062
g73
(dp5063
g100
g101
ssg82
g5053
sg75
(lp5064
S':'
asbag68
(g89
g70
NtRp5065
(dp5066
g73
(dp5067
sg82
g5053
sg75
(lp5068
g68
(g69
g70
NtRp5069
(dp5070
g73
(dp5071
g81
I3
ssg82
g5065
sg75
(lp5072
S''
asbasbasbasbasbasbasbasbasbasbasbag68
(g84
g70
NtRp5073
(dp5074
g73
(dp5075
sg82
g4838
sg75
(lp5076
g68
(g89
g70
NtRp5077
(dp5078
g73
(dp5079
g93
g94
ssg82
g5073
sg75
(lp5080
S'files'
p5081
asbag68
(g89
g70
NtRp5082
(dp5083
g73
(dp5084
g100
g101
ssg82
g5073
sg75
(lp5085
S':'
asbag68
(g89
g70
NtRp5086
(dp5087
g73
(dp5088
sg82
g5073
sg75
(lp5089
g68
(g69
g70
NtRp5090
(dp5091
g73
(dp5092
g81
I5
ssg82
g5086
sg75
(lp5093
g68
(g77
g70
NtRp5094
(dp5095
g73
(dp5096
g81
I4
ssg82
Nsg75
(lp5097
g68
(g84
g70
NtRp5098
(dp5099
g73
(dp5100
sg82
g5094
sg75
(lp5101
g68
(g89
g70
NtRp5102
(dp5103
g73
(dp5104
sg82
g5098
sg75
(lp5105
g68
(g69
g70
NtRp5106
(dp5107
g73
(dp5108
g81
I4
ssg82
g5102
sg75
(lp5109
S'/paideia/static/plugin_ajaxselect/plugin_ajaxselect.js'
p5110
asbasbasbasbasbasbasbag68
(g84
g70
NtRp5111
(dp5112
g73
(dp5113
sg82
g4838
sg75
(lp5114
g68
(g89
g70
NtRp5115
(dp5116
g73
(dp5117
g93
g94
ssg82
g5111
sg75
(lp5118
S'flash'
p5119
asbag68
(g89
g70
NtRp5120
(dp5121
g73
(dp5122
g100
g101
ssg82
g5111
sg75
(lp5123
S':'
asbag68
(g89
g70
NtRp5124
(dp5125
g73
(dp5126
sg82
g5111
sg75
(lp5127
g68
(g69
g70
NtRp5128
(dp5129
g73
(dp5130
g81
I5
ssg82
g5124
sg75
(lp5131
S''
asbasbasbag68
(g84
g70
NtRp5132
(dp5133
g73
(dp5134
sg82
g4838
sg75
(lp5135
g68
(g89
g70
NtRp5136
(dp5137
g73
(dp5138
g93
g94
ssg82
g5132
sg75
(lp5139
S'generic_patterns'
p5140
asbag68
(g89
g70
NtRp5141
(dp5142
g73
(dp5143
g100
g101
ssg82
g5132
sg75
(lp5144
S':'
asbag68
(g89
g70
NtRp5145
(dp5146
g73
(dp5147
sg82
g5132
sg75
(lp5148
g68
(g69
g70
NtRp5149
(dp5150
g73
(dp5151
g81
I5
ssg82
g5145
sg75
(lp5152
g68
(g77
g70
NtRp5153
(dp5154
g73
(dp5155
g81
I4
ssg82
Nsg75
(lp5156
g68
(g84
g70
NtRp5157
(dp5158
g73
(dp5159
sg82
g5153
sg75
(lp5160
g68
(g89
g70
NtRp5161
(dp5162
g73
(dp5163
sg82
g5157
sg75
(lp5164
g68
(g69
g70
NtRp5165
(dp5166
g73
(dp5167
g81
I4
ssg82
g5161
sg75
(lp5168
S'*'
asbasbasbasbasbasbasbag68
(g84
g70
NtRp5169
(dp5170
g73
(dp5171
sg82
g4838
sg75
(lp5172
g68
(g89
g70
NtRp5173
(dp5174
g73
(dp5175
g93
g94
ssg82
g5169
sg75
(lp5176
S'headers'
p5177
asbag68
(g89
g70
NtRp5178
(dp5179
g73
(dp5180
g100
g101
ssg82
g5169
sg75
(lp5181
S':'
asbag68
(g89
g70
NtRp5182
(dp5183
g73
(dp5184
sg82
g5169
sg75
(lp5185
g68
(g69
g70
NtRp5186
(dp5187
g73
(dp5188
g81
I5
ssg82
g5182
sg75
(lp5189
g68
(g77
g70
NtRp5190
(dp5191
g73
(dp5192
g81
I4
ssg82
Nsg75
(lp5193
g68
(g84
g70
NtRp5194
(dp5195
g73
(dp5196
sg82
g5190
sg75
(lp5197
g68
(g89
g70
NtRp5198
(dp5199
g73
(dp5200
g93
g94
ssg82
g5194
sg75
(lp5201
S'Cache-Control'
p5202
asbag68
(g89
g70
NtRp5203
(dp5204
g73
(dp5205
g100
g101
ssg82
g5194
sg75
(lp5206
S':'
asbag68
(g89
g70
NtRp5207
(dp5208
g73
(dp5209
sg82
g5194
sg75
(lp5210
g68
(g69
g70
NtRp5211
(dp5212
g73
(dp5213
g81
I4
ssg82
g5207
sg75
(lp5214
S'no-store, no-cache, must-revalidate, post-check=0, pre-check=0'
p5215
asbasbasbag68
(g84
g70
NtRp5216
(dp5217
g73
(dp5218
sg82
g5190
sg75
(lp5219
g68
(g89
g70
NtRp5220
(dp5221
g73
(dp5222
g93
g94
ssg82
g5216
sg75
(lp5223
S'Content-Type'
p5224
asbag68
(g89
g70
NtRp5225
(dp5226
g73
(dp5227
g100
g101
ssg82
g5216
sg75
(lp5228
S':'
asbag68
(g89
g70
NtRp5229
(dp5230
g73
(dp5231
sg82
g5216
sg75
(lp5232
g68
(g69
g70
NtRp5233
(dp5234
g73
(dp5235
g81
I4
ssg82
g5229
sg75
(lp5236
S'text/html; charset=utf-8'
p5237
asbasbasbag68
(g84
g70
NtRp5238
(dp5239
g73
(dp5240
sg82
g5190
sg75
(lp5241
g68
(g89
g70
NtRp5242
(dp5243
g73
(dp5244
g93
g94
ssg82
g5238
sg75
(lp5245
S'Expires'
p5246
asbag68
(g89
g70
NtRp5247
(dp5248
g73
(dp5249
g100
g101
ssg82
g5238
sg75
(lp5250
S':'
asbag68
(g89
g70
NtRp5251
(dp5252
g73
(dp5253
sg82
g5238
sg75
(lp5254
g68
(g69
g70
NtRp5255
(dp5256
g73
(dp5257
g81
I4
ssg82
g5251
sg75
(lp5258
S'Wed, 14 Mar 2012 20:24:25 GMT'
p5259
asbasbasbag68
(g84
g70
NtRp5260
(dp5261
g73
(dp5262
sg82
g5190
sg75
(lp5263
g68
(g89
g70
NtRp5264
(dp5265
g73
(dp5266
g93
g94
ssg82
g5260
sg75
(lp5267
S'Pragma'
p5268
asbag68
(g89
g70
NtRp5269
(dp5270
g73
(dp5271
g100
g101
ssg82
g5260
sg75
(lp5272
S':'
asbag68
(g89
g70
NtRp5273
(dp5274
g73
(dp5275
sg82
g5260
sg75
(lp5276
g68
(g69
g70
NtRp5277
(dp5278
g73
(dp5279
g81
I4
ssg82
g5273
sg75
(lp5280
S'no-cache'
p5281
asbasbasbag68
(g84
g70
NtRp5282
(dp5283
g73
(dp5284
sg82
g5190
sg75
(lp5285
g68
(g89
g70
NtRp5286
(dp5287
g73
(dp5288
g93
g94
ssg82
g5282
sg75
(lp5289
S'X-Powered-By'
p5290
asbag68
(g89
g70
NtRp5291
(dp5292
g73
(dp5293
g100
g101
ssg82
g5282
sg75
(lp5294
S':'
asbag68
(g89
g70
NtRp5295
(dp5296
g73
(dp5297
sg82
g5282
sg75
(lp5298
g68
(g69
g70
NtRp5299
(dp5300
g73
(dp5301
g81
I4
ssg82
g5295
sg75
(lp5302
S'web2py'
p5303
asbasbasbasbasbasbasbag68
(g84
g70
NtRp5304
(dp5305
g73
(dp5306
sg82
g4838
sg75
(lp5307
g68
(g89
g70
NtRp5308
(dp5309
g73
(dp5310
g93
g94
ssg82
g5304
sg75
(lp5311
S'menu'
p5312
asbag68
(g89
g70
NtRp5313
(dp5314
g73
(dp5315
g100
g101
ssg82
g5304
sg75
(lp5316
S':'
asbag68
(g89
g70
NtRp5317
(dp5318
g73
(dp5319
sg82
g5304
sg75
(lp5320
g68
(g69
g70
NtRp5321
(dp5322
g73
(dp5323
g81
I5
ssg82
g5317
sg75
(lp5324
g68
(g77
g70
NtRp5325
(dp5326
g73
(dp5327
g81
I4
ssg82
Nsg75
(lp5328
g68
(g84
g70
NtRp5329
(dp5330
g73
(dp5331
sg82
g5325
sg75
(lp5332
g68
(g89
g70
NtRp5333
(dp5334
g73
(dp5335
sg82
g5329
sg75
(lp5336
g68
(g69
g70
NtRp5337
(dp5338
g73
(dp5339
g81
I4
ssg82
g5333
sg75
(lp5340
g68
(g77
g70
NtRp5341
(dp5342
g73
(dp5343
g81
I3
ssg82
Nsg75
(lp5344
g68
(g84
g70
NtRp5345
(dp5346
g73
(dp5347
sg82
g5341
sg75
(lp5348
g68
(g89
g70
NtRp5349
(dp5350
g73
(dp5351
sg82
g5345
sg75
(lp5352
g68
(g69
g70
NtRp5353
(dp5354
g73
(dp5355
g81
I3
ssg82
g5349
sg75
(lp5356
cgluon.languages
lazyT_unpickle
p5357
(S't\x04\x00\x00\x00Home'
tRp5358
asbasbasbag68
(g84
g70
NtRp5359
(dp5360
g73
(dp5361
sg82
g5341
sg75
(lp5362
g68
(g89
g70
NtRp5363
(dp5364
g73
(dp5365
sg82
g5359
sg75
(lp5366
g68
(g69
g70
NtRp5367
(dp5368
g73
(dp5369
g81
I3
ssg82
g5363
sg75
(lp5370
g111
asbasbasbag68
(g84
g70
NtRp5371
(dp5372
g73
(dp5373
sg82
g5341
sg75
(lp5374
g68
(g89
g70
NtRp5375
(dp5376
g73
(dp5377
sg82
g5371
sg75
(lp5378
g68
(g69
g70
NtRp5379
(dp5380
g73
(dp5381
g81
I3
ssg82
g5375
sg75
(lp5382
S'/paideia/default/index'
p5383
asbasbasbag68
(g84
g70
NtRp5384
(dp5385
g73
(dp5386
sg82
g5341
sg75
(lp5387
g68
(g89
g70
NtRp5388
(dp5389
g73
(dp5390
sg82
g5384
sg75
(lp5391
g68
(g69
g70
NtRp5392
(dp5393
g73
(dp5394
g81
I3
ssg82
g5388
sg75
(lp5395
g68
(g77
g70
NtRp5396
(dp5397
g73
(dp5398
g81
I2
ssg82
Nsg75
(lp5399
sbasbasbasbasbasbasbasbag68
(g84
g70
NtRp5400
(dp5401
g73
(dp5402
sg82
g5325
sg75
(lp5403
g68
(g89
g70
NtRp5404
(dp5405
g73
(dp5406
sg82
g5400
sg75
(lp5407
g68
(g69
g70
NtRp5408
(dp5409
g73
(dp5410
g81
I4
ssg82
g5404
sg75
(lp5411
g68
(g77
g70
NtRp5412
(dp5413
g73
(dp5414
g81
I3
ssg82
Nsg75
(lp5415
g68
(g84
g70
NtRp5416
(dp5417
g73
(dp5418
sg82
g5412
sg75
(lp5419
g68
(g89
g70
NtRp5420
(dp5421
g73
(dp5422
sg82
g5416
sg75
(lp5423
g68
(g69
g70
NtRp5424
(dp5425
g73
(dp5426
g81
I3
ssg82
g5420
sg75
(lp5427
g5357
(S't\x05\x00\x00\x00Admin'
tRp5428
asbasbasbag68
(g84
g70
NtRp5429
(dp5430
g73
(dp5431
sg82
g5412
sg75
(lp5432
g68
(g89
g70
NtRp5433
(dp5434
g73
(dp5435
sg82
g5429
sg75
(lp5436
g68
(g69
g70
NtRp5437
(dp5438
g73
(dp5439
g81
I3
ssg82
g5433
sg75
(lp5440
g111
asbasbasbag68
(g84
g70
NtRp5441
(dp5442
g73
(dp5443
sg82
g5412
sg75
(lp5444
g68
(g89
g70
NtRp5445
(dp5446
g73
(dp5447
sg82
g5441
sg75
(lp5448
g68
(g69
g70
NtRp5449
(dp5450
g73
(dp5451
g81
I3
ssg82
g5445
sg75
(lp5452
S'None'
p5453
asbasbasbag68
(g84
g70
NtRp5454
(dp5455
g73
(dp5456
sg82
g5412
sg75
(lp5457
g68
(g89
g70
NtRp5458
(dp5459
g73
(dp5460
sg82
g5454
sg75
(lp5461
g68
(g69
g70
NtRp5462
(dp5463
g73
(dp5464
g81
I3
ssg82
g5458
sg75
(lp5465
g68
(g77
g70
NtRp5466
(dp5467
g73
(dp5468
g81
I2
ssg82
Nsg75
(lp5469
g68
(g84
g70
NtRp5470
(dp5471
g73
(dp5472
sg82
g5466
sg75
(lp5473
g68
(g89
g70
NtRp5474
(dp5475
g73
(dp5476
sg82
g5470
sg75
(lp5477
g68
(g69
g70
NtRp5478
(dp5479
g73
(dp5480
g81
I2
ssg82
g5474
sg75
(lp5481
g68
(g77
g70
NtRp5482
(dp5483
g73
(dp5484
g81
I1
ssg82
Nsg75
(lp5485
g68
(g84
g70
NtRp5486
(dp5487
g73
(dp5488
sg82
g5482
sg75
(lp5489
g68
(g89
g70
NtRp5490
(dp5491
g73
(dp5492
sg82
g5486
sg75
(lp5493
g68
(g69
g70
NtRp5494
(dp5495
g73
(dp5496
g81
I1
ssg82
g5490
sg75
(lp5497
g5357
(S's\x07\x00\x00\x00Web IDE'
tRp5498
asbasbasbag68
(g84
g70
NtRp5499
(dp5500
g73
(dp5501
sg82
g5482
sg75
(lp5502
g68
(g89
g70
NtRp5503
(dp5504
g73
(dp5505
sg82
g5499
sg75
(lp5506
g68
(g69
g70
NtRp5507
(dp5508
g73
(dp5509
g81
I1
ssg82
g5503
sg75
(lp5510
I00
asbasbasbag68
(g84
g70
NtRp5511
(dp5512
g73
(dp5513
sg82
g5482
sg75
(lp5514
g68
(g89
g70
NtRp5515
(dp5516
g73
(dp5517
sg82
g5511
sg75
(lp5518
g68
(g69
g70
NtRp5519
(dp5520
g73
(dp5521
g81
I1
ssg82
g5515
sg75
(lp5522
S'/admin/default/index'
p5523
asbasbasbasbasbasbasbag68
(g84
g70
NtRp5524
(dp5525
g73
(dp5526
sg82
g5466
sg75
(lp5527
g68
(g89
g70
NtRp5528
(dp5529
g73
(dp5530
sg82
g5524
sg75
(lp5531
g68
(g69
g70
NtRp5532
(dp5533
g73
(dp5534
g81
I2
ssg82
g5528
sg75
(lp5535
g68
(g77
g70
NtRp5536
(dp5537
g73
(dp5538
g81
I1
ssg82
Nsg75
(lp5539
g68
(g84
g70
NtRp5540
(dp5541
g73
(dp5542
sg82
g5536
sg75
(lp5543
g68
(g89
g70
NtRp5544
(dp5545
g73
(dp5546
sg82
g5540
sg75
(lp5547
g68
(g69
g70
NtRp5548
(dp5549
g73
(dp5550
g81
I1
ssg82
g5544
sg75
(lp5551
g5357
(S't\x08\x00\x00\x00Database'
tRp5552
asbasbasbag68
(g84
g70
NtRp5553
(dp5554
g73
(dp5555
sg82
g5536
sg75
(lp5556
g68
(g89
g70
NtRp5557
(dp5558
g73
(dp5559
sg82
g5553
sg75
(lp5560
g68
(g69
g70
NtRp5561
(dp5562
g73
(dp5563
g81
I1
ssg82
g5557
sg75
(lp5564
I00
asbasbasbag68
(g84
g70
NtRp5565
(dp5566
g73
(dp5567
sg82
g5536
sg75
(lp5568
g68
(g89
g70
NtRp5569
(dp5570
g73
(dp5571
sg82
g5565
sg75
(lp5572
g68
(g69
g70
NtRp5573
(dp5574
g73
(dp5575
g81
I1
ssg82
g5569
sg75
(lp5576
S'/paideia/appadmin/index'
p5577
asbasbasbasbasbasbasbag68
(g84
g70
NtRp5578
(dp5579
g73
(dp5580
sg82
g5466
sg75
(lp5581
g68
(g89
g70
NtRp5582
(dp5583
g73
(dp5584
sg82
g5578
sg75
(lp5585
g68
(g69
g70
NtRp5586
(dp5587
g73
(dp5588
g81
I2
ssg82
g5582
sg75
(lp5589
g68
(g77
g70
NtRp5590
(dp5591
g73
(dp5592
g81
I1
ssg82
Nsg75
(lp5593
g68
(g84
g70
NtRp5594
(dp5595
g73
(dp5596
sg82
g5590
sg75
(lp5597
g68
(g89
g70
NtRp5598
(dp5599
g73
(dp5600
sg82
g5594
sg75
(lp5601
g68
(g69
g70
NtRp5602
(dp5603
g73
(dp5604
g81
I1
ssg82
g5598
sg75
(lp5605
g5357
(S't\x05\x00\x00\x00Users'
tRp5606
asbasbasbag68
(g84
g70
NtRp5607
(dp5608
g73
(dp5609
sg82
g5590
sg75
(lp5610
g68
(g89
g70
NtRp5611
(dp5612
g73
(dp5613
sg82
g5607
sg75
(lp5614
g68
(g69
g70
NtRp5615
(dp5616
g73
(dp5617
g81
I1
ssg82
g5611
sg75
(lp5618
I00
asbasbasbag68
(g84
g70
NtRp5619
(dp5620
g73
(dp5621
sg82
g5590
sg75
(lp5622
g68
(g89
g70
NtRp5623
(dp5624
g73
(dp5625
sg82
g5619
sg75
(lp5626
g68
(g69
g70
NtRp5627
(dp5628
g73
(dp5629
g81
I1
ssg82
g5623
sg75
(lp5630
S'/paideia/listing/user'
p5631
asbasbasbasbasbasbasbag68
(g84
g70
NtRp5632
(dp5633
g73
(dp5634
sg82
g5466
sg75
(lp5635
g68
(g89
g70
NtRp5636
(dp5637
g73
(dp5638
sg82
g5632
sg75
(lp5639
g68
(g69
g70
NtRp5640
(dp5641
g73
(dp5642
g81
I2
ssg82
g5636
sg75
(lp5643
g68
(g77
g70
NtRp5644
(dp5645
g73
(dp5646
g81
I1
ssg82
Nsg75
(lp5647
g68
(g84
g70
NtRp5648
(dp5649
g73
(dp5650
sg82
g5644
sg75
(lp5651
g68
(g89
g70
NtRp5652
(dp5653
g73
(dp5654
sg82
g5648
sg75
(lp5655
g68
(g69
g70
NtRp5656
(dp5657
g73
(dp5658
g81
I1
ssg82
g5652
sg75
(lp5659
g5357
(S't\x05\x00\x00\x00Paths'
tRp5660
asbasbasbag68
(g84
g70
NtRp5661
(dp5662
g73
(dp5663
sg82
g5644
sg75
(lp5664
g68
(g89
g70
NtRp5665
(dp5666
g73
(dp5667
sg82
g5661
sg75
(lp5668
g68
(g69
g70
NtRp5669
(dp5670
g73
(dp5671
g81
I1
ssg82
g5665
sg75
(lp5672
I00
asbasbasbag68
(g84
g70
NtRp5673
(dp5674
g73
(dp5675
sg82
g5644
sg75
(lp5676
g68
(g89
g70
NtRp5677
(dp5678
g73
(dp5679
sg82
g5673
sg75
(lp5680
g68
(g69
g70
NtRp5681
(dp5682
g73
(dp5683
g81
I1
ssg82
g5677
sg75
(lp5684
S'/paideia/plugin_listandedit/listing.html/paths'
p5685
asbasbasbasbasbasbasbag68
(g84
g70
NtRp5686
(dp5687
g73
(dp5688
sg82
g5466
sg75
(lp5689
g68
(g89
g70
NtRp5690
(dp5691
g73
(dp5692
sg82
g5686
sg75
(lp5693
g68
(g69
g70
NtRp5694
(dp5695
g73
(dp5696
g81
I2
ssg82
g5690
sg75
(lp5697
g68
(g77
g70
NtRp5698
(dp5699
g73
(dp5700
g81
I1
ssg82
Nsg75
(lp5701
g68
(g84
g70
NtRp5702
(dp5703
g73
(dp5704
sg82
g5698
sg75
(lp5705
g68
(g89
g70
NtRp5706
(dp5707
g73
(dp5708
sg82
g5702
sg75
(lp5709
g68
(g69
g70
NtRp5710
(dp5711
g73
(dp5712
g81
I1
ssg82
g5706
sg75
(lp5713
g5357
(S't\x05\x00\x00\x00Steps'
tRp5714
asbasbasbag68
(g84
g70
NtRp5715
(dp5716
g73
(dp5717
sg82
g5698
sg75
(lp5718
g68
(g89
g70
NtRp5719
(dp5720
g73
(dp5721
sg82
g5715
sg75
(lp5722
g68
(g69
g70
NtRp5723
(dp5724
g73
(dp5725
g81
I1
ssg82
g5719
sg75
(lp5726
I00
asbasbasbag68
(g84
g70
NtRp5727
(dp5728
g73
(dp5729
sg82
g5698
sg75
(lp5730
g68
(g89
g70
NtRp5731
(dp5732
g73
(dp5733
sg82
g5727
sg75
(lp5734
g68
(g69
g70
NtRp5735
(dp5736
g73
(dp5737
g81
I1
ssg82
g5731
sg75
(lp5738
S'/paideia/plugin_listandedit/listing.html/steps'
p5739
asbasbasbasbasbasbasbag68
(g84
g70
NtRp5740
(dp5741
g73
(dp5742
sg82
g5466
sg75
(lp5743
g68
(g89
g70
NtRp5744
(dp5745
g73
(dp5746
sg82
g5740
sg75
(lp5747
g68
(g69
g70
NtRp5748
(dp5749
g73
(dp5750
g81
I2
ssg82
g5744
sg75
(lp5751
g68
(g77
g70
NtRp5752
(dp5753
g73
(dp5754
g81
I1
ssg82
Nsg75
(lp5755
g68
(g84
g70
NtRp5756
(dp5757
g73
(dp5758
sg82
g5752
sg75
(lp5759
g68
(g89
g70
NtRp5760
(dp5761
g73
(dp5762
sg82
g5756
sg75
(lp5763
g68
(g69
g70
NtRp5764
(dp5765
g73
(dp5766
g81
I1
ssg82
g5760
sg75
(lp5767
g5357
(S't\t\x00\x00\x00Questions'
tRp5768
asbasbasbag68
(g84
g70
NtRp5769
(dp5770
g73
(dp5771
sg82
g5752
sg75
(lp5772
g68
(g89
g70
NtRp5773
(dp5774
g73
(dp5775
sg82
g5769
sg75
(lp5776
g68
(g69
g70
NtRp5777
(dp5778
g73
(dp5779
g81
I1
ssg82
g5773
sg75
(lp5780
I00
asbasbasbag68
(g84
g70
NtRp5781
(dp5782
g73
(dp5783
sg82
g5752
sg75
(lp5784
g68
(g89
g70
NtRp5785
(dp5786
g73
(dp5787
sg82
g5781
sg75
(lp5788
g68
(g69
g70
NtRp5789
(dp5790
g73
(dp5791
g81
I1
ssg82
g5785
sg75
(lp5792
S'/paideia/plugin_listandedit/listing.html/questions'
p5793
asbasbasbasbasbasbasbag68
(g84
g70
NtRp5794
(dp5795
g73
(dp5796
sg82
g5466
sg75
(lp5797
g68
(g89
g70
NtRp5798
(dp5799
g73
(dp5800
sg82
g5794
sg75
(lp5801
g68
(g69
g70
NtRp5802
(dp5803
g73
(dp5804
g81
I2
ssg82
g5798
sg75
(lp5805
g68
(g77
g70
NtRp5806
(dp5807
g73
(dp5808
g81
I1
ssg82
Nsg75
(lp5809
g68
(g84
g70
NtRp5810
(dp5811
g73
(dp5812
sg82
g5806
sg75
(lp5813
g68
(g89
g70
NtRp5814
(dp5815
g73
(dp5816
sg82
g5810
sg75
(lp5817
g68
(g69
g70
NtRp5818
(dp5819
g73
(dp5820
g81
I1
ssg82
g5814
sg75
(lp5821
g5357
(S't\x07\x00\x00\x00Quizzes'
tRp5822
asbasbasbag68
(g84
g70
NtRp5823
(dp5824
g73
(dp5825
sg82
g5806
sg75
(lp5826
g68
(g89
g70
NtRp5827
(dp5828
g73
(dp5829
sg82
g5823
sg75
(lp5830
g68
(g69
g70
NtRp5831
(dp5832
g73
(dp5833
g81
I1
ssg82
g5827
sg75
(lp5834
I00
asbasbasbag68
(g84
g70
NtRp5835
(dp5836
g73
(dp5837
sg82
g5806
sg75
(lp5838
g68
(g89
g70
NtRp5839
(dp5840
g73
(dp5841
sg82
g5835
sg75
(lp5842
g68
(g69
g70
NtRp5843
(dp5844
g73
(dp5845
g81
I1
ssg82
g5839
sg75
(lp5846
S'/paideia/plugin_listandedit/listing.html/quizzes'
p5847
asbasbasbasbasbasbasbag68
(g84
g70
NtRp5848
(dp5849
g73
(dp5850
sg82
g5466
sg75
(lp5851
g68
(g89
g70
NtRp5852
(dp5853
g73
(dp5854
sg82
g5848
sg75
(lp5855
g68
(g69
g70
NtRp5856
(dp5857
g73
(dp5858
g81
I2
ssg82
g5852
sg75
(lp5859
g68
(g77
g70
NtRp5860
(dp5861
g73
(dp5862
g81
I1
ssg82
Nsg75
(lp5863
g68
(g84
g70
NtRp5864
(dp5865
g73
(dp5866
sg82
g5860
sg75
(lp5867
g68
(g89
g70
NtRp5868
(dp5869
g73
(dp5870
sg82
g5864
sg75
(lp5871
g68
(g69
g70
NtRp5872
(dp5873
g73
(dp5874
g81
I1
ssg82
g5868
sg75
(lp5875
g5357
(S't\x04\x00\x00\x00Tags'
tRp5876
asbasbasbag68
(g84
g70
NtRp5877
(dp5878
g73
(dp5879
sg82
g5860
sg75
(lp5880
g68
(g89
g70
NtRp5881
(dp5882
g73
(dp5883
sg82
g5877
sg75
(lp5884
g68
(g69
g70
NtRp5885
(dp5886
g73
(dp5887
g81
I1
ssg82
g5881
sg75
(lp5888
I00
asbasbasbag68
(g84
g70
NtRp5889
(dp5890
g73
(dp5891
sg82
g5860
sg75
(lp5892
g68
(g89
g70
NtRp5893
(dp5894
g73
(dp5895
sg82
g5889
sg75
(lp5896
g68
(g69
g70
NtRp5897
(dp5898
g73
(dp5899
g81
I1
ssg82
g5893
sg75
(lp5900
S'/paideia/plugin_listandedit/listing.html/tags'
p5901
asbasbasbasbasbasbasbag68
(g84
g70
NtRp5902
(dp5903
g73
(dp5904
sg82
g5466
sg75
(lp5905
g68
(g89
g70
NtRp5906
(dp5907
g73
(dp5908
sg82
g5902
sg75
(lp5909
g68
(g69
g70
NtRp5910
(dp5911
g73
(dp5912
g81
I2
ssg82
g5906
sg75
(lp5913
g68
(g77
g70
NtRp5914
(dp5915
g73
(dp5916
g81
I1
ssg82
Nsg75
(lp5917
g68
(g84
g70
NtRp5918
(dp5919
g73
(dp5920
sg82
g5914
sg75
(lp5921
g68
(g89
g70
NtRp5922
(dp5923
g73
(dp5924
sg82
g5918
sg75
(lp5925
g68
(g69
g70
NtRp5926
(dp5927
g73
(dp5928
g81
I1
ssg82
g5922
sg75
(lp5929
g5357
(S't\x04\x00\x00\x00NPCs'
tRp5930
asbasbasbag68
(g84
g70
NtRp5931
(dp5932
g73
(dp5933
sg82
g5914
sg75
(lp5934
g68
(g89
g70
NtRp5935
(dp5936
g73
(dp5937
sg82
g5931
sg75
(lp5938
g68
(g69
g70
NtRp5939
(dp5940
g73
(dp5941
g81
I1
ssg82
g5935
sg75
(lp5942
I00
asbasbasbag68
(g84
g70
NtRp5943
(dp5944
g73
(dp5945
sg82
g5914
sg75
(lp5946
g68
(g89
g70
NtRp5947
(dp5948
g73
(dp5949
sg82
g5943
sg75
(lp5950
g68
(g69
g70
NtRp5951
(dp5952
g73
(dp5953
g81
I1
ssg82
g5947
sg75
(lp5954
S'/paideia/plugin_listandedit/listing.html/npcs'
p5955
asbasbasbasbasbasbasbag68
(g84
g70
NtRp5956
(dp5957
g73
(dp5958
sg82
g5466
sg75
(lp5959
g68
(g89
g70
NtRp5960
(dp5961
g73
(dp5962
sg82
g5956
sg75
(lp5963
g68
(g69
g70
NtRp5964
(dp5965
g73
(dp5966
g81
I2
ssg82
g5960
sg75
(lp5967
g68
(g77
g70
NtRp5968
(dp5969
g73
(dp5970
g81
I1
ssg82
Nsg75
(lp5971
g68
(g84
g70
NtRp5972
(dp5973
g73
(dp5974
sg82
g5968
sg75
(lp5975
g68
(g89
g70
NtRp5976
(dp5977
g73
(dp5978
sg82
g5972
sg75
(lp5979
g68
(g69
g70
NtRp5980
(dp5981
g73
(dp5982
g81
I1
ssg82
g5976
sg75
(lp5983
g5357
(S't\t\x00\x00\x00locations'
tRp5984
asbasbasbag68
(g84
g70
NtRp5985
(dp5986
g73
(dp5987
sg82
g5968
sg75
(lp5988
g68
(g89
g70
NtRp5989
(dp5990
g73
(dp5991
sg82
g5985
sg75
(lp5992
g68
(g69
g70
NtRp5993
(dp5994
g73
(dp5995
g81
I1
ssg82
g5989
sg75
(lp5996
I00
asbasbasbag68
(g84
g70
NtRp5997
(dp5998
g73
(dp5999
sg82
g5968
sg75
(lp6000
g68
(g89
g70
NtRp6001
(dp6002
g73
(dp6003
sg82
g5997
sg75
(lp6004
g68
(g69
g70
NtRp6005
(dp6006
g73
(dp6007
g81
I1
ssg82
g6001
sg75
(lp6008
S'/paideia/plugin_listandedit/listing.html/locations'
p6009
asbasbasbasbasbasbasbasbasbasbasbasbasbasbasbasbasbasbasbag68
(g84
g70
NtRp6010
(dp6011
g73
(dp6012
sg82
g4838
sg75
(lp6013
g68
(g89
g70
NtRp6014
(dp6015
g73
(dp6016
g93
g94
ssg82
g6010
sg75
(lp6017
S'meta'
p6018
asbag68
(g89
g70
NtRp6019
(dp6020
g73
(dp6021
g100
g101
ssg82
g6010
sg75
(lp6022
S':'
asbag68
(g89
g70
NtRp6023
(dp6024
g73
(dp6025
sg82
g6010
sg75
(lp6026
g68
(g69
g70
NtRp6027
(dp6028
g73
(dp6029
g81
I5
ssg82
g6023
sg75
(lp6030
g68
(g77
g70
NtRp6031
(dp6032
g73
(dp6033
g81
I4
ssg82
Nsg75
(lp6034
g68
(g84
g70
NtRp6035
(dp6036
g73
(dp6037
sg82
g6031
sg75
(lp6038
g68
(g89
g70
NtRp6039
(dp6040
g73
(dp6041
g93
g94
ssg82
g6035
sg75
(lp6042
S'author'
p6043
asbag68
(g89
g70
NtRp6044
(dp6045
g73
(dp6046
g100
g101
ssg82
g6035
sg75
(lp6047
S':'
asbag68
(g89
g70
NtRp6048
(dp6049
g73
(dp6050
sg82
g6035
sg75
(lp6051
g68
(g69
g70
NtRp6052
(dp6053
g73
(dp6054
g81
I4
ssg82
g6048
sg75
(lp6055
S'Ian W. Scott'
p6056
asbasbasbag68
(g84
g70
NtRp6057
(dp6058
g73
(dp6059
sg82
g6031
sg75
(lp6060
g68
(g89
g70
NtRp6061
(dp6062
g73
(dp6063
g93
g94
ssg82
g6057
sg75
(lp6064
S'copyright'
p6065
asbag68
(g89
g70
NtRp6066
(dp6067
g73
(dp6068
g100
g101
ssg82
g6057
sg75
(lp6069
S':'
asbag68
(g89
g70
NtRp6070
(dp6071
g73
(dp6072
sg82
g6057
sg75
(lp6073
g68
(g69
g70
NtRp6074
(dp6075
g73
(dp6076
g81
I4
ssg82
g6070
sg75
(lp6077
S'Copyright 2011'
p6078
asbasbasbag68
(g84
g70
NtRp6079
(dp6080
g73
(dp6081
sg82
g6031
sg75
(lp6082
g68
(g89
g70
NtRp6083
(dp6084
g73
(dp6085
g93
g94
ssg82
g6079
sg75
(lp6086
S'description'
p6087
asbag68
(g89
g70
NtRp6088
(dp6089
g73
(dp6090
g100
g101
ssg82
g6079
sg75
(lp6091
S':'
asbag68
(g89
g70
NtRp6092
(dp6093
g73
(dp6094
sg82
g6079
sg75
(lp6095
g68
(g69
g70
NtRp6096
(dp6097
g73
(dp6098
g81
I4
ssg82
g6092
sg75
(lp6099
S'An online space for learning New Testament Greek'
p6100
asbasbasbag68
(g84
g70
NtRp6101
(dp6102
g73
(dp6103
sg82
g6031
sg75
(lp6104
g68
(g89
g70
NtRp6105
(dp6106
g73
(dp6107
g93
g94
ssg82
g6101
sg75
(lp6108
S'generator'
p6109
asbag68
(g89
g70
NtRp6110
(dp6111
g73
(dp6112
g100
g101
ssg82
g6101
sg75
(lp6113
S':'
asbag68
(g89
g70
NtRp6114
(dp6115
g73
(dp6116
sg82
g6101
sg75
(lp6117
g68
(g69
g70
NtRp6118
(dp6119
g73
(dp6120
g81
I4
ssg82
g6114
sg75
(lp6121
S'Web2py Enterprise Framework'
p6122
asbasbasbag68
(g84
g70
NtRp6123
(dp6124
g73
(dp6125
sg82
g6031
sg75
(lp6126
g68
(g89
g70
NtRp6127
(dp6128
g73
(dp6129
g93
g94
ssg82
g6123
sg75
(lp6130
S'keywords'
p6131
asbag68
(g89
g70
NtRp6132
(dp6133
g73
(dp6134
g100
g101
ssg82
g6123
sg75
(lp6135
S':'
asbag68
(g89
g70
NtRp6136
(dp6137
g73
(dp6138
sg82
g6123
sg75
(lp6139
g68
(g69
g70
NtRp6140
(dp6141
g73
(dp6142
g81
I4
ssg82
g6136
sg75
(lp6143
S'Greek, koine, New Testament, language, education, learning'
p6144
asbasbasbasbasbasbasbag68
(g84
g70
NtRp6145
(dp6146
g73
(dp6147
sg82
g4838
sg75
(lp6148
g68
(g89
g70
NtRp6149
(dp6150
g73
(dp6151
g93
g94
ssg82
g6145
sg75
(lp6152
S'mobiletitle'
p6153
asbag68
(g89
g70
NtRp6154
(dp6155
g73
(dp6156
g100
g101
ssg82
g6145
sg75
(lp6157
S':'
asbag68
(g89
g70
NtRp6158
(dp6159
g73
(dp6160
sg82
g6145
sg75
(lp6161
g68
(g69
g70
NtRp6162
(dp6163
g73
(dp6164
g81
I5
ssg82
g6158
sg75
(lp6165
g133
asbasbasbag68
(g84
g70
NtRp6166
(dp6167
g73
(dp6168
sg82
g4838
sg75
(lp6169
g68
(g89
g70
NtRp6170
(dp6171
g73
(dp6172
g93
g94
ssg82
g6166
sg75
(lp6173
S'postprocessing'
p6174
asbag68
(g89
g70
NtRp6175
(dp6176
g73
(dp6177
g100
g101
ssg82
g6166
sg75
(lp6178
S':'
asbag68
(g89
g70
NtRp6179
(dp6180
g73
(dp6181
sg82
g6166
sg75
(lp6182
g68
(g69
g70
NtRp6183
(dp6184
g73
(dp6185
g81
I5
ssg82
g6179
sg75
(lp6186
g68
(g77
g70
NtRp6187
(dp6188
g73
(dp6189
g81
I4
ssg82
Nsg75
(lp6190
sbasbasbasbag68
(g84
g70
NtRp6191
(dp6192
g73
(dp6193
sg82
g4838
sg75
(lp6194
g68
(g89
g70
NtRp6195
(dp6196
g73
(dp6197
g93
g94
ssg82
g6191
sg75
(lp6198
S'session_file'
p6199
asbag68
(g89
g70
NtRp6200
(dp6201
g73
(dp6202
g100
g101
ssg82
g6191
sg75
(lp6203
S':'
asbag68
(g89
g70
NtRp6204
(dp6205
g73
(dp6206
sg82
g6191
sg75
(lp6207
g68
(g69
g70
NtRp6208
(dp6209
g73
(dp6210
g81
I5
ssg82
g6204
sg75
(lp6211
S"<open file '/home/ian/web/web2py/applications/paideia/sessions/127.0.0.1-d6bcece8-2742-4dcd-9d50-e8b957d71ddc', mode 'rb+' at 0x7fc1580f1420>"
p6212
asbasbasbag68
(g84
g70
NtRp6213
(dp6214
g73
(dp6215
sg82
g4838
sg75
(lp6216
g68
(g89
g70
NtRp6217
(dp6218
g73
(dp6219
g93
g94
ssg82
g6213
sg75
(lp6220
S'session_filename'
p6221
asbag68
(g89
g70
NtRp6222
(dp6223
g73
(dp6224
g100
g101
ssg82
g6213
sg75
(lp6225
S':'
asbag68
(g89
g70
NtRp6226
(dp6227
g73
(dp6228
sg82
g6213
sg75
(lp6229
g68
(g69
g70
NtRp6230
(dp6231
g73
(dp6232
g81
I5
ssg82
g6226
sg75
(lp6233
S'/home/ian/web/web2py/applications/paideia/sessions/127.0.0.1-d6bcece8-2742-4dcd-9d50-e8b957d71ddc'
p6234
asbasbasbag68
(g84
g70
NtRp6235
(dp6236
g73
(dp6237
sg82
g4838
sg75
(lp6238
g68
(g89
g70
NtRp6239
(dp6240
g73
(dp6241
g93
g94
ssg82
g6235
sg75
(lp6242
S'session_id'
p6243
asbag68
(g89
g70
NtRp6244
(dp6245
g73
(dp6246
g100
g101
ssg82
g6235
sg75
(lp6247
S':'
asbag68
(g89
g70
NtRp6248
(dp6249
g73
(dp6250
sg82
g6235
sg75
(lp6251
g68
(g69
g70
NtRp6252
(dp6253
g73
(dp6254
g81
I5
ssg82
g6248
sg75
(lp6255
S'127.0.0.1-d6bcece8-2742-4dcd-9d50-e8b957d71ddc'
p6256
asbasbasbag68
(g84
g70
NtRp6257
(dp6258
g73
(dp6259
sg82
g4838
sg75
(lp6260
g68
(g89
g70
NtRp6261
(dp6262
g73
(dp6263
g93
g94
ssg82
g6257
sg75
(lp6264
S'session_id_name'
p6265
asbag68
(g89
g70
NtRp6266
(dp6267
g73
(dp6268
g100
g101
ssg82
g6257
sg75
(lp6269
S':'
asbag68
(g89
g70
NtRp6270
(dp6271
g73
(dp6272
sg82
g6257
sg75
(lp6273
g68
(g69
g70
NtRp6274
(dp6275
g73
(dp6276
g81
I5
ssg82
g6270
sg75
(lp6277
g4895
asbasbasbag68
(g84
g70
NtRp6278
(dp6279
g73
(dp6280
sg82
g4838
sg75
(lp6281
g68
(g89
g70
NtRp6282
(dp6283
g73
(dp6284
g93
g94
ssg82
g6278
sg75
(lp6285
S'session_locked'
p6286
asbag68
(g89
g70
NtRp6287
(dp6288
g73
(dp6289
g100
g101
ssg82
g6278
sg75
(lp6290
S':'
asbag68
(g89
g70
NtRp6291
(dp6292
g73
(dp6293
sg82
g6278
sg75
(lp6294
g68
(g69
g70
NtRp6295
(dp6296
g73
(dp6297
g81
I5
ssg82
g6291
sg75
(lp6298
g1874
asbasbasbag68
(g84
g70
NtRp6299
(dp6300
g73
(dp6301
sg82
g4838
sg75
(lp6302
g68
(g89
g70
NtRp6303
(dp6304
g73
(dp6305
g93
g94
ssg82
g6299
sg75
(lp6306
S'session_new'
p6307
asbag68
(g89
g70
NtRp6308
(dp6309
g73
(dp6310
g100
g101
ssg82
g6299
sg75
(lp6311
S':'
asbag68
(g89
g70
NtRp6312
(dp6313
g73
(dp6314
sg82
g6299
sg75
(lp6315
g68
(g69
g70
NtRp6316
(dp6317
g73
(dp6318
g81
I5
ssg82
g6312
sg75
(lp6319
g111
asbasbasbag68
(g84
g70
NtRp6320
(dp6321
g73
(dp6322
sg82
g4838
sg75
(lp6323
g68
(g89
g70
NtRp6324
(dp6325
g73
(dp6326
g93
g94
ssg82
g6320
sg75
(lp6327
S'status'
p6328
asbag68
(g89
g70
NtRp6329
(dp6330
g73
(dp6331
g100
g101
ssg82
g6320
sg75
(lp6332
S':'
asbag68
(g89
g70
NtRp6333
(dp6334
g73
(dp6335
sg82
g6320
sg75
(lp6336
g68
(g69
g70
NtRp6337
(dp6338
g73
(dp6339
g81
I5
ssg82
g6333
sg75
(lp6340
S'200'
p6341
asbasbasbag68
(g84
g70
NtRp6342
(dp6343
g73
(dp6344
sg82
g4838
sg75
(lp6345
g68
(g89
g70
NtRp6346
(dp6347
g73
(dp6348
g93
g94
ssg82
g6342
sg75
(lp6349
S'subtitle'
p6350
asbag68
(g89
g70
NtRp6351
(dp6352
g73
(dp6353
g100
g101
ssg82
g6342
sg75
(lp6354
S':'
asbag68
(g89
g70
NtRp6355
(dp6356
g73
(dp6357
sg82
g6342
sg75
(lp6358
g68
(g69
g70
NtRp6359
(dp6360
g73
(dp6361
g81
I5
ssg82
g6355
sg75
(lp6362
g5357
(S's0\x00\x00\x00An online space for learning New Testament Greek'
tRp6363
asbasbasbag68
(g84
g70
NtRp6364
(dp6365
g73
(dp6366
sg82
g4838
sg75
(lp6367
g68
(g89
g70
NtRp6368
(dp6369
g73
(dp6370
g93
g94
ssg82
g6364
sg75
(lp6371
S'title'
p6372
asbag68
(g89
g70
NtRp6373
(dp6374
g73
(dp6375
g100
g101
ssg82
g6364
sg75
(lp6376
S':'
asbag68
(g89
g70
NtRp6377
(dp6378
g73
(dp6379
sg82
g6364
sg75
(lp6380
g68
(g69
g70
NtRp6381
(dp6382
g73
(dp6383
g81
I5
ssg82
g6377
sg75
(lp6384
g133
asbasbasbag68
(g84
g70
NtRp6385
(dp6386
g73
(dp6387
sg82
g4838
sg75
(lp6388
g68
(g89
g70
NtRp6389
(dp6390
g73
(dp6391
g93
g94
ssg82
g6385
sg75
(lp6392
g2538
asbag68
(g89
g70
NtRp6393
(dp6394
g73
(dp6395
g100
g101
ssg82
g6385
sg75
(lp6396
S':'
asbag68
(g89
g70
NtRp6397
(dp6398
g73
(dp6399
sg82
g6385
sg75
(lp6400
g68
(g69
g70
NtRp6401
(dp6402
g73
(dp6403
g81
I5
ssg82
g6397
sg75
(lp6404
g2551
asbasbasbag68
(g84
g70
NtRp6405
(dp6406
g73
(dp6407
sg82
g4838
sg75
(lp6408
g68
(g89
g70
NtRp6409
(dp6410
g73
(dp6411
g93
g94
ssg82
g6405
sg75
(lp6412
S'view'
p6413
asbag68
(g89
g70
NtRp6414
(dp6415
g73
(dp6416
g100
g101
ssg82
g6405
sg75
(lp6417
S':'
asbag68
(g89
g70
NtRp6418
(dp6419
g73
(dp6420
sg82
g6405
sg75
(lp6421
g68
(g69
g70
NtRp6422
(dp6423
g73
(dp6424
g81
I5
ssg82
g6418
sg75
(lp6425
S'exploring/index.html'
p6426
asbasbasbasbasbsS'locals'
p6427
(dp6428
g4
S"'/home/ian/web/web2py/applications/paideia/controllers/exploring.py'"
p6429
sg6
S"'# coding: utf8\\nfrom paideia_exploring import pai...    \\n    \\nresponse._vars=response._caller(index)\\n'"
p6430
sssS'traceback'
p6431
S'Traceback (most recent call last):\n  File "/home/ian/web/web2py/gluon/restricted.py", line 203, in restricted\n    ccode = compile2(code,layer)\n  File "/home/ian/web/web2py/gluon/restricted.py", line 189, in compile2\n    return compile(code.rstrip().replace(\'\\r\\n\',\'\\n\')+\'\\n\', layer, \'exec\')\n  File "/home/ian/web/web2py/applications/paideia/controllers/exploring.py", line 40\n    p = pathsteps.first()\n    ^\nSyntaxError: invalid syntax\n'
p6432
s.