(dp1
S'output'
p2
S"<type 'exceptions.NameError'> global name 'paths' is not defined"
p3
sS'layer'
p4
S'/home/ian/web/web2py/applications/paideia/controllers/exploring.py'
p5
sS'code'
p6
S'# coding: utf8\nfrom paideia_exploring import paideia_path, paideia_tag, counter, map\nfrom paideia_questions import question\nimport pprint\n\ndef session_init():\n    print \'calling session_init\'\n\n    #categorize paths for today\n    tags = paideia_tag()\n    session.tagset = tags.categorize_tags()\n    print \'returned categorized tags\'\n\n    #add paths that weren\'t finished during last session\n    path = paideia_path()\n    session.active_paths = path.find_unfinished()\n    print \'returned unfinished paths\'\n\ndef step_init():\n    path = paideia_path()\n    path_result = path.pick()\n    return dict(path = path_result[\'path\'], step = path_result[\'step\'])\n\ndef stepask():\n    \n    #if not, initiate new path\n    if not request.vars.response:\n        set_counter = counter()\n        the_question = question()\n        the_question.selectq()\n\n    form = SQLFORM.factory(\n        Field(\'response\', \'string\', requires=IS_NOT_EMPTY())\n    )\n    if form.accepts(request.vars,  session):\n        session.response = request.vars.response\n        redirect(URL(\'index\', args=[\'reply\']))\n\n    return dict(question=session.question_text, form=form)\n\n\ndef stepreply():\n    #see whether answer matches any of the three answer fields\n    q = question()\n    the_eval = q.evalq()\n\n    #build response to user\n    if session.eval == \'correct\':\n        the_reply = "Right. \xce\x9a\xce\xac\xce\xbb\xce\xb7."\n    elif session.eval == \'partial\':\n        the_reply = "\xce\x9f\xe1\xbd\x90 \xce\xba\xce\xac\xce\xba\xce\xbf\xcf\x82. You\'re close."\n    else:\n        the_reply = "Incorrect. Try again!"\n\n    #add a record for this attempt in db.attempt_log\n    db.attempt_log.insert(question=session.q_ID, score=q.score, quiz=session.path_id)\n\n    return dict(reply=the_reply, answer=session.readable_answer, raw_answer=session.answer, score=session.score)\n\n\ndef patherror():\n    if request.args(1) == \'unknown\':\n        db.q_bugs.insert(question=session.qID, a_submitted=request.vars.answer)\n        #TODO: fix problem with changing column name for status\n        #db(db.questions.id==session.qID).update(qqq_status=1);\n    if request.args(1) == \'regex\':\n        db.q_bugs.insert(question=session.qID, a_submitted=request.vars.answer)\n        #db(db.questions.id==session.qID).update(qqq_status=1);\n    message = "Oops! Something about that question confused me, and I\'m not sure whether your answer was right. Let\'s try another one."\n    button = A(\'continue\', _href=URL(\'index\', args=[\'ask\']), _class=\'button-green-grad next_q\', cid=request.cid)\n    #don\'t include this question in counting the number attempted\n    session.q_counter -= 1\n\n    return dict(message=message, button=button)\n\n\n@auth.requires_login()\ndef index():\n    #check to see whether this user session has been initialized\n    if not session.tagset:\n        session_init()\n\n    #when user begins exploring (also default) present map\n    if (request.args(0) == \'start\') or (not request.args):\n        the_map = map()\n        for i in [\'blocks\', \'active_paths\', \'completed_paths\']:\n            if not session[i]:\n                print i\n                session[i] = None\n\n        return dict(locs=the_map.locs, map_image=the_map.image)\n\n    #after user selects quiz (or \'next question\')\n    elif request.args(0) == \'ask\':\n        return step_init()\n\n    #after submitting answer\n    elif request.args(0) == \'reply\':\n        return stepreply()\n\n    elif request.args(0) == \'error\':\n        return patherror()\n\nresponse._vars=response._caller(index)\n'
p7
sS'snapshot'
p8
(dp9
S'exception'
p10
(dp11
S'__hash__'
p12
S"<method-wrapper '__hash__' of exceptions.NameError object>"
p13
sS'__setattr__'
p14
S"<method-wrapper '__setattr__' of exceptions.NameError object>"
p15
sS'__reduce_ex__'
p16
S'<built-in method __reduce_ex__ of exceptions.NameError object>'
p17
sS'__getslice__'
p18
S"<method-wrapper '__getslice__' of exceptions.NameError object>"
p19
sS'__getitem__'
p20
S"<method-wrapper '__getitem__' of exceptions.NameError object>"
p21
sS'__setstate__'
p22
S'<built-in method __setstate__ of exceptions.NameError object>'
p23
sS'args'
p24
S'("global name \'paths\' is not defined",)'
p25
sS'__reduce__'
p26
S'<built-in method __reduce__ of exceptions.NameError object>'
p27
sS'__str__'
p28
S"<method-wrapper '__str__' of exceptions.NameError object>"
p29
sS'__format__'
p30
S'<built-in method __format__ of exceptions.NameError object>'
p31
sS'__getattribute__'
p32
S"<method-wrapper '__getattribute__' of exceptions.NameError object>"
p33
sS'__class__'
p34
S"<type 'exceptions.NameError'>"
p35
sS'__unicode__'
p36
S'<built-in method __unicode__ of exceptions.NameError object>'
p37
sS'__delattr__'
p38
S"<method-wrapper '__delattr__' of exceptions.NameError object>"
p39
sS'__subclasshook__'
p40
S'<built-in method __subclasshook__ of type object>'
p41
sS'__repr__'
p42
S"<method-wrapper '__repr__' of exceptions.NameError object>"
p43
sS'__dict__'
p44
S'{}'
p45
sS'__sizeof__'
p46
S'<built-in method __sizeof__ of exceptions.NameError object>'
p47
sS'__doc__'
p48
S"'Name not found globally.'"
p49
sS'__init__'
p50
S"<method-wrapper '__init__' of exceptions.NameError object>"
p51
sS'__new__'
p52
S'<built-in method __new__ of type object>'
p53
ssS'evalue'
p54
S"global name 'paths' is not defined"
p55
sS'request'
p56
ccopy_reg
_reconstructor
p57
(cgluon.html
BEAUTIFY
p58
c__builtin__
object
p59
NtRp60
(dp61
S'attributes'
p62
(dp63
sS'components'
p64
(lp65
g57
(cgluon.html
TABLE
p66
g59
NtRp67
(dp68
g62
(dp69
S'level'
p70
I5
ssS'parent'
p71
Nsg64
(lp72
g57
(cgluon.html
TR
p73
g59
NtRp74
(dp75
g62
(dp76
sg71
g67
sg64
(lp77
g57
(cgluon.html
TD
p78
g59
NtRp79
(dp80
g62
(dp81
S'_style'
p82
S'font-weight:bold;vertical-align:top'
p83
ssg71
g74
sg64
(lp84
S'ajax'
p85
asbag57
(g78
g59
NtRp86
(dp87
g62
(dp88
S'_valign'
p89
S'top'
p90
ssg71
g74
sg64
(lp91
S':'
asbag57
(g78
g59
NtRp92
(dp93
g62
(dp94
sg71
g74
sg64
(lp95
g57
(g58
g59
NtRp96
(dp97
g62
(dp98
g70
I5
ssg71
g92
sg64
(lp99
S'True'
p100
asbasbasbag57
(g73
g59
NtRp101
(dp102
g62
(dp103
sg71
g67
sg64
(lp104
g57
(g78
g59
NtRp105
(dp106
g62
(dp107
g82
g83
ssg71
g101
sg64
(lp108
S'application'
p109
asbag57
(g78
g59
NtRp110
(dp111
g62
(dp112
g89
g90
ssg71
g101
sg64
(lp113
S':'
asbag57
(g78
g59
NtRp114
(dp115
g62
(dp116
sg71
g101
sg64
(lp117
g57
(g58
g59
NtRp118
(dp119
g62
(dp120
g70
I5
ssg71
g114
sg64
(lp121
S'paideia'
p122
asbasbasbag57
(g73
g59
NtRp123
(dp124
g62
(dp125
sg71
g67
sg64
(lp126
g57
(g78
g59
NtRp127
(dp128
g62
(dp129
g82
g83
ssg71
g123
sg64
(lp130
g24
asbag57
(g78
g59
NtRp131
(dp132
g62
(dp133
g89
g90
ssg71
g123
sg64
(lp134
S':'
asbag57
(g78
g59
NtRp135
(dp136
g62
(dp137
sg71
g123
sg64
(lp138
g57
(g58
g59
NtRp139
(dp140
g62
(dp141
g70
I5
ssg71
g135
sg64
(lp142
g57
(g66
g59
NtRp143
(dp144
g62
(dp145
g70
I4
ssg71
Nsg64
(lp146
g57
(g73
g59
NtRp147
(dp148
g62
(dp149
sg71
g143
sg64
(lp150
g57
(g78
g59
NtRp151
(dp152
g62
(dp153
sg71
g147
sg64
(lp154
g57
(g58
g59
NtRp155
(dp156
g62
(dp157
g70
I4
ssg71
g151
sg64
(lp158
S'ask'
p159
asbasbasbasbasbasbasbag57
(g73
g59
NtRp160
(dp161
g62
(dp162
sg71
g67
sg64
(lp163
g57
(g78
g59
NtRp164
(dp165
g62
(dp166
g82
g83
ssg71
g160
sg64
(lp167
S'body'
p168
asbag57
(g78
g59
NtRp169
(dp170
g62
(dp171
g89
g90
ssg71
g160
sg64
(lp172
S':'
asbag57
(g78
g59
NtRp173
(dp174
g62
(dp175
sg71
g160
sg64
(lp176
g57
(g58
g59
NtRp177
(dp178
g62
(dp179
g70
I5
ssg71
g173
sg64
(lp180
S'<cStringIO.StringO object at 0x7fbc602dc5a8>'
p181
asbasbasbag57
(g73
g59
NtRp182
(dp183
g62
(dp184
sg71
g67
sg64
(lp185
g57
(g78
g59
NtRp186
(dp187
g62
(dp188
g82
g83
ssg71
g182
sg64
(lp189
S'cid'
p190
asbag57
(g78
g59
NtRp191
(dp192
g62
(dp193
g89
g90
ssg71
g182
sg64
(lp194
S':'
asbag57
(g78
g59
NtRp195
(dp196
g62
(dp197
sg71
g182
sg64
(lp198
g57
(g58
g59
NtRp199
(dp200
g62
(dp201
g70
I5
ssg71
g195
sg64
(lp202
S'page'
p203
asbasbasbag57
(g73
g59
NtRp204
(dp205
g62
(dp206
sg71
g67
sg64
(lp207
g57
(g78
g59
NtRp208
(dp209
g62
(dp210
g82
g83
ssg71
g204
sg64
(lp211
S'client'
p212
asbag57
(g78
g59
NtRp213
(dp214
g62
(dp215
g89
g90
ssg71
g204
sg64
(lp216
S':'
asbag57
(g78
g59
NtRp217
(dp218
g62
(dp219
sg71
g204
sg64
(lp220
g57
(g58
g59
NtRp221
(dp222
g62
(dp223
g70
I5
ssg71
g217
sg64
(lp224
S'127.0.0.1'
p225
asbasbasbag57
(g73
g59
NtRp226
(dp227
g62
(dp228
sg71
g67
sg64
(lp229
g57
(g78
g59
NtRp230
(dp231
g62
(dp232
g82
g83
ssg71
g226
sg64
(lp233
S'controller'
p234
asbag57
(g78
g59
NtRp235
(dp236
g62
(dp237
g89
g90
ssg71
g226
sg64
(lp238
S':'
asbag57
(g78
g59
NtRp239
(dp240
g62
(dp241
sg71
g226
sg64
(lp242
g57
(g58
g59
NtRp243
(dp244
g62
(dp245
g70
I5
ssg71
g239
sg64
(lp246
S'exploring'
p247
asbasbasbag57
(g73
g59
NtRp248
(dp249
g62
(dp250
sg71
g67
sg64
(lp251
g57
(g78
g59
NtRp252
(dp253
g62
(dp254
g82
g83
ssg71
g248
sg64
(lp255
S'cookies'
p256
asbag57
(g78
g59
NtRp257
(dp258
g62
(dp259
g89
g90
ssg71
g248
sg64
(lp260
S':'
asbag57
(g78
g59
NtRp261
(dp262
g62
(dp263
sg71
g248
sg64
(lp264
g57
(g58
g59
NtRp265
(dp266
g62
(dp267
g70
I5
ssg71
g261
sg64
(lp268
g57
(g66
g59
NtRp269
(dp270
g62
(dp271
g70
I4
ssg71
Nsg64
(lp272
g57
(g73
g59
NtRp273
(dp274
g62
(dp275
sg71
g269
sg64
(lp276
g57
(g78
g59
NtRp277
(dp278
g62
(dp279
g82
g83
ssg71
g273
sg64
(lp280
S'session_id_admin'
p281
asbag57
(g78
g59
NtRp282
(dp283
g62
(dp284
g89
g90
ssg71
g273
sg64
(lp285
S':'
asbag57
(g78
g59
NtRp286
(dp287
g62
(dp288
sg71
g273
sg64
(lp289
g57
(g58
g59
NtRp290
(dp291
g62
(dp292
g70
I4
ssg71
g286
sg64
(lp293
g57
(g66
g59
NtRp294
(dp295
g62
(dp296
g70
I3
ssg71
Nsg64
(lp297
g57
(g73
g59
NtRp298
(dp299
g62
(dp300
sg71
g294
sg64
(lp301
g57
(g78
g59
NtRp302
(dp303
g62
(dp304
g82
g83
ssg71
g298
sg64
(lp305
S'comment'
p306
asbag57
(g78
g59
NtRp307
(dp308
g62
(dp309
g89
g90
ssg71
g298
sg64
(lp310
S':'
asbag57
(g78
g59
NtRp311
(dp312
g62
(dp313
sg71
g298
sg64
(lp314
g57
(g58
g59
NtRp315
(dp316
g62
(dp317
g70
I3
ssg71
g311
sg64
(lp318
S''
asbasbasbag57
(g73
g59
NtRp319
(dp320
g62
(dp321
sg71
g294
sg64
(lp322
g57
(g78
g59
NtRp323
(dp324
g62
(dp325
g82
g83
ssg71
g319
sg64
(lp326
S'domain'
p327
asbag57
(g78
g59
NtRp328
(dp329
g62
(dp330
g89
g90
ssg71
g319
sg64
(lp331
S':'
asbag57
(g78
g59
NtRp332
(dp333
g62
(dp334
sg71
g319
sg64
(lp335
g57
(g58
g59
NtRp336
(dp337
g62
(dp338
g70
I3
ssg71
g332
sg64
(lp339
S''
asbasbasbag57
(g73
g59
NtRp340
(dp341
g62
(dp342
sg71
g294
sg64
(lp343
g57
(g78
g59
NtRp344
(dp345
g62
(dp346
g82
g83
ssg71
g340
sg64
(lp347
S'expires'
p348
asbag57
(g78
g59
NtRp349
(dp350
g62
(dp351
g89
g90
ssg71
g340
sg64
(lp352
S':'
asbag57
(g78
g59
NtRp353
(dp354
g62
(dp355
sg71
g340
sg64
(lp356
g57
(g58
g59
NtRp357
(dp358
g62
(dp359
g70
I3
ssg71
g353
sg64
(lp360
S''
asbasbasbag57
(g73
g59
NtRp361
(dp362
g62
(dp363
sg71
g294
sg64
(lp364
g57
(g78
g59
NtRp365
(dp366
g62
(dp367
g82
g83
ssg71
g361
sg64
(lp368
S'httponly'
p369
asbag57
(g78
g59
NtRp370
(dp371
g62
(dp372
g89
g90
ssg71
g361
sg64
(lp373
S':'
asbag57
(g78
g59
NtRp374
(dp375
g62
(dp376
sg71
g361
sg64
(lp377
g57
(g58
g59
NtRp378
(dp379
g62
(dp380
g70
I3
ssg71
g374
sg64
(lp381
S''
asbasbasbag57
(g73
g59
NtRp382
(dp383
g62
(dp384
sg71
g294
sg64
(lp385
g57
(g78
g59
NtRp386
(dp387
g62
(dp388
g82
g83
ssg71
g382
sg64
(lp389
S'max-age'
p390
asbag57
(g78
g59
NtRp391
(dp392
g62
(dp393
g89
g90
ssg71
g382
sg64
(lp394
S':'
asbag57
(g78
g59
NtRp395
(dp396
g62
(dp397
sg71
g382
sg64
(lp398
g57
(g58
g59
NtRp399
(dp400
g62
(dp401
g70
I3
ssg71
g395
sg64
(lp402
S''
asbasbasbag57
(g73
g59
NtRp403
(dp404
g62
(dp405
sg71
g294
sg64
(lp406
g57
(g78
g59
NtRp407
(dp408
g62
(dp409
g82
g83
ssg71
g403
sg64
(lp410
S'path'
p411
asbag57
(g78
g59
NtRp412
(dp413
g62
(dp414
g89
g90
ssg71
g403
sg64
(lp415
S':'
asbag57
(g78
g59
NtRp416
(dp417
g62
(dp418
sg71
g403
sg64
(lp419
g57
(g58
g59
NtRp420
(dp421
g62
(dp422
g70
I3
ssg71
g416
sg64
(lp423
S''
asbasbasbag57
(g73
g59
NtRp424
(dp425
g62
(dp426
sg71
g294
sg64
(lp427
g57
(g78
g59
NtRp428
(dp429
g62
(dp430
g82
g83
ssg71
g424
sg64
(lp431
S'secure'
p432
asbag57
(g78
g59
NtRp433
(dp434
g62
(dp435
g89
g90
ssg71
g424
sg64
(lp436
S':'
asbag57
(g78
g59
NtRp437
(dp438
g62
(dp439
sg71
g424
sg64
(lp440
g57
(g58
g59
NtRp441
(dp442
g62
(dp443
g70
I3
ssg71
g437
sg64
(lp444
S''
asbasbasbag57
(g73
g59
NtRp445
(dp446
g62
(dp447
sg71
g294
sg64
(lp448
g57
(g78
g59
NtRp449
(dp450
g62
(dp451
g82
g83
ssg71
g445
sg64
(lp452
S'version'
p453
asbag57
(g78
g59
NtRp454
(dp455
g62
(dp456
g89
g90
ssg71
g445
sg64
(lp457
S':'
asbag57
(g78
g59
NtRp458
(dp459
g62
(dp460
sg71
g445
sg64
(lp461
g57
(g58
g59
NtRp462
(dp463
g62
(dp464
g70
I3
ssg71
g458
sg64
(lp465
S''
asbasbasbasbasbasbasbag57
(g73
g59
NtRp466
(dp467
g62
(dp468
sg71
g269
sg64
(lp469
g57
(g78
g59
NtRp470
(dp471
g62
(dp472
g82
g83
ssg71
g466
sg64
(lp473
S'session_id_grammateus3'
p474
asbag57
(g78
g59
NtRp475
(dp476
g62
(dp477
g89
g90
ssg71
g466
sg64
(lp478
S':'
asbag57
(g78
g59
NtRp479
(dp480
g62
(dp481
sg71
g466
sg64
(lp482
g57
(g58
g59
NtRp483
(dp484
g62
(dp485
g70
I4
ssg71
g479
sg64
(lp486
g57
(g66
g59
NtRp487
(dp488
g62
(dp489
g70
I3
ssg71
Nsg64
(lp490
g57
(g73
g59
NtRp491
(dp492
g62
(dp493
sg71
g487
sg64
(lp494
g57
(g78
g59
NtRp495
(dp496
g62
(dp497
g82
g83
ssg71
g491
sg64
(lp498
g306
asbag57
(g78
g59
NtRp499
(dp500
g62
(dp501
g89
g90
ssg71
g491
sg64
(lp502
S':'
asbag57
(g78
g59
NtRp503
(dp504
g62
(dp505
sg71
g491
sg64
(lp506
g57
(g58
g59
NtRp507
(dp508
g62
(dp509
g70
I3
ssg71
g503
sg64
(lp510
S''
asbasbasbag57
(g73
g59
NtRp511
(dp512
g62
(dp513
sg71
g487
sg64
(lp514
g57
(g78
g59
NtRp515
(dp516
g62
(dp517
g82
g83
ssg71
g511
sg64
(lp518
g327
asbag57
(g78
g59
NtRp519
(dp520
g62
(dp521
g89
g90
ssg71
g511
sg64
(lp522
S':'
asbag57
(g78
g59
NtRp523
(dp524
g62
(dp525
sg71
g511
sg64
(lp526
g57
(g58
g59
NtRp527
(dp528
g62
(dp529
g70
I3
ssg71
g523
sg64
(lp530
S''
asbasbasbag57
(g73
g59
NtRp531
(dp532
g62
(dp533
sg71
g487
sg64
(lp534
g57
(g78
g59
NtRp535
(dp536
g62
(dp537
g82
g83
ssg71
g531
sg64
(lp538
g348
asbag57
(g78
g59
NtRp539
(dp540
g62
(dp541
g89
g90
ssg71
g531
sg64
(lp542
S':'
asbag57
(g78
g59
NtRp543
(dp544
g62
(dp545
sg71
g531
sg64
(lp546
g57
(g58
g59
NtRp547
(dp548
g62
(dp549
g70
I3
ssg71
g543
sg64
(lp550
S''
asbasbasbag57
(g73
g59
NtRp551
(dp552
g62
(dp553
sg71
g487
sg64
(lp554
g57
(g78
g59
NtRp555
(dp556
g62
(dp557
g82
g83
ssg71
g551
sg64
(lp558
g369
asbag57
(g78
g59
NtRp559
(dp560
g62
(dp561
g89
g90
ssg71
g551
sg64
(lp562
S':'
asbag57
(g78
g59
NtRp563
(dp564
g62
(dp565
sg71
g551
sg64
(lp566
g57
(g58
g59
NtRp567
(dp568
g62
(dp569
g70
I3
ssg71
g563
sg64
(lp570
S''
asbasbasbag57
(g73
g59
NtRp571
(dp572
g62
(dp573
sg71
g487
sg64
(lp574
g57
(g78
g59
NtRp575
(dp576
g62
(dp577
g82
g83
ssg71
g571
sg64
(lp578
g390
asbag57
(g78
g59
NtRp579
(dp580
g62
(dp581
g89
g90
ssg71
g571
sg64
(lp582
S':'
asbag57
(g78
g59
NtRp583
(dp584
g62
(dp585
sg71
g571
sg64
(lp586
g57
(g58
g59
NtRp587
(dp588
g62
(dp589
g70
I3
ssg71
g583
sg64
(lp590
S''
asbasbasbag57
(g73
g59
NtRp591
(dp592
g62
(dp593
sg71
g487
sg64
(lp594
g57
(g78
g59
NtRp595
(dp596
g62
(dp597
g82
g83
ssg71
g591
sg64
(lp598
g411
asbag57
(g78
g59
NtRp599
(dp600
g62
(dp601
g89
g90
ssg71
g591
sg64
(lp602
S':'
asbag57
(g78
g59
NtRp603
(dp604
g62
(dp605
sg71
g591
sg64
(lp606
g57
(g58
g59
NtRp607
(dp608
g62
(dp609
g70
I3
ssg71
g603
sg64
(lp610
S''
asbasbasbag57
(g73
g59
NtRp611
(dp612
g62
(dp613
sg71
g487
sg64
(lp614
g57
(g78
g59
NtRp615
(dp616
g62
(dp617
g82
g83
ssg71
g611
sg64
(lp618
g432
asbag57
(g78
g59
NtRp619
(dp620
g62
(dp621
g89
g90
ssg71
g611
sg64
(lp622
S':'
asbag57
(g78
g59
NtRp623
(dp624
g62
(dp625
sg71
g611
sg64
(lp626
g57
(g58
g59
NtRp627
(dp628
g62
(dp629
g70
I3
ssg71
g623
sg64
(lp630
S''
asbasbasbag57
(g73
g59
NtRp631
(dp632
g62
(dp633
sg71
g487
sg64
(lp634
g57
(g78
g59
NtRp635
(dp636
g62
(dp637
g82
g83
ssg71
g631
sg64
(lp638
g453
asbag57
(g78
g59
NtRp639
(dp640
g62
(dp641
g89
g90
ssg71
g631
sg64
(lp642
S':'
asbag57
(g78
g59
NtRp643
(dp644
g62
(dp645
sg71
g631
sg64
(lp646
g57
(g58
g59
NtRp647
(dp648
g62
(dp649
g70
I3
ssg71
g643
sg64
(lp650
S''
asbasbasbasbasbasbasbag57
(g73
g59
NtRp651
(dp652
g62
(dp653
sg71
g269
sg64
(lp654
g57
(g78
g59
NtRp655
(dp656
g62
(dp657
g82
g83
ssg71
g651
sg64
(lp658
S'session_id_paideia'
p659
asbag57
(g78
g59
NtRp660
(dp661
g62
(dp662
g89
g90
ssg71
g651
sg64
(lp663
S':'
asbag57
(g78
g59
NtRp664
(dp665
g62
(dp666
sg71
g651
sg64
(lp667
g57
(g58
g59
NtRp668
(dp669
g62
(dp670
g70
I4
ssg71
g664
sg64
(lp671
g57
(g66
g59
NtRp672
(dp673
g62
(dp674
g70
I3
ssg71
Nsg64
(lp675
g57
(g73
g59
NtRp676
(dp677
g62
(dp678
sg71
g672
sg64
(lp679
g57
(g78
g59
NtRp680
(dp681
g62
(dp682
g82
g83
ssg71
g676
sg64
(lp683
g306
asbag57
(g78
g59
NtRp684
(dp685
g62
(dp686
g89
g90
ssg71
g676
sg64
(lp687
S':'
asbag57
(g78
g59
NtRp688
(dp689
g62
(dp690
sg71
g676
sg64
(lp691
g57
(g58
g59
NtRp692
(dp693
g62
(dp694
g70
I3
ssg71
g688
sg64
(lp695
S''
asbasbasbag57
(g73
g59
NtRp696
(dp697
g62
(dp698
sg71
g672
sg64
(lp699
g57
(g78
g59
NtRp700
(dp701
g62
(dp702
g82
g83
ssg71
g696
sg64
(lp703
g327
asbag57
(g78
g59
NtRp704
(dp705
g62
(dp706
g89
g90
ssg71
g696
sg64
(lp707
S':'
asbag57
(g78
g59
NtRp708
(dp709
g62
(dp710
sg71
g696
sg64
(lp711
g57
(g58
g59
NtRp712
(dp713
g62
(dp714
g70
I3
ssg71
g708
sg64
(lp715
S''
asbasbasbag57
(g73
g59
NtRp716
(dp717
g62
(dp718
sg71
g672
sg64
(lp719
g57
(g78
g59
NtRp720
(dp721
g62
(dp722
g82
g83
ssg71
g716
sg64
(lp723
g348
asbag57
(g78
g59
NtRp724
(dp725
g62
(dp726
g89
g90
ssg71
g716
sg64
(lp727
S':'
asbag57
(g78
g59
NtRp728
(dp729
g62
(dp730
sg71
g716
sg64
(lp731
g57
(g58
g59
NtRp732
(dp733
g62
(dp734
g70
I3
ssg71
g728
sg64
(lp735
S''
asbasbasbag57
(g73
g59
NtRp736
(dp737
g62
(dp738
sg71
g672
sg64
(lp739
g57
(g78
g59
NtRp740
(dp741
g62
(dp742
g82
g83
ssg71
g736
sg64
(lp743
g369
asbag57
(g78
g59
NtRp744
(dp745
g62
(dp746
g89
g90
ssg71
g736
sg64
(lp747
S':'
asbag57
(g78
g59
NtRp748
(dp749
g62
(dp750
sg71
g736
sg64
(lp751
g57
(g58
g59
NtRp752
(dp753
g62
(dp754
g70
I3
ssg71
g748
sg64
(lp755
S''
asbasbasbag57
(g73
g59
NtRp756
(dp757
g62
(dp758
sg71
g672
sg64
(lp759
g57
(g78
g59
NtRp760
(dp761
g62
(dp762
g82
g83
ssg71
g756
sg64
(lp763
g390
asbag57
(g78
g59
NtRp764
(dp765
g62
(dp766
g89
g90
ssg71
g756
sg64
(lp767
S':'
asbag57
(g78
g59
NtRp768
(dp769
g62
(dp770
sg71
g756
sg64
(lp771
g57
(g58
g59
NtRp772
(dp773
g62
(dp774
g70
I3
ssg71
g768
sg64
(lp775
S''
asbasbasbag57
(g73
g59
NtRp776
(dp777
g62
(dp778
sg71
g672
sg64
(lp779
g57
(g78
g59
NtRp780
(dp781
g62
(dp782
g82
g83
ssg71
g776
sg64
(lp783
g411
asbag57
(g78
g59
NtRp784
(dp785
g62
(dp786
g89
g90
ssg71
g776
sg64
(lp787
S':'
asbag57
(g78
g59
NtRp788
(dp789
g62
(dp790
sg71
g776
sg64
(lp791
g57
(g58
g59
NtRp792
(dp793
g62
(dp794
g70
I3
ssg71
g788
sg64
(lp795
S''
asbasbasbag57
(g73
g59
NtRp796
(dp797
g62
(dp798
sg71
g672
sg64
(lp799
g57
(g78
g59
NtRp800
(dp801
g62
(dp802
g82
g83
ssg71
g796
sg64
(lp803
g432
asbag57
(g78
g59
NtRp804
(dp805
g62
(dp806
g89
g90
ssg71
g796
sg64
(lp807
S':'
asbag57
(g78
g59
NtRp808
(dp809
g62
(dp810
sg71
g796
sg64
(lp811
g57
(g58
g59
NtRp812
(dp813
g62
(dp814
g70
I3
ssg71
g808
sg64
(lp815
S''
asbasbasbag57
(g73
g59
NtRp816
(dp817
g62
(dp818
sg71
g672
sg64
(lp819
g57
(g78
g59
NtRp820
(dp821
g62
(dp822
g82
g83
ssg71
g816
sg64
(lp823
g453
asbag57
(g78
g59
NtRp824
(dp825
g62
(dp826
g89
g90
ssg71
g816
sg64
(lp827
S':'
asbag57
(g78
g59
NtRp828
(dp829
g62
(dp830
sg71
g816
sg64
(lp831
g57
(g58
g59
NtRp832
(dp833
g62
(dp834
g70
I3
ssg71
g828
sg64
(lp835
S''
asbasbasbasbasbasbasbag57
(g73
g59
NtRp836
(dp837
g62
(dp838
sg71
g269
sg64
(lp839
g57
(g78
g59
NtRp840
(dp841
g62
(dp842
g82
g83
ssg71
g836
sg64
(lp843
S'session_id_welcome'
p844
asbag57
(g78
g59
NtRp845
(dp846
g62
(dp847
g89
g90
ssg71
g836
sg64
(lp848
S':'
asbag57
(g78
g59
NtRp849
(dp850
g62
(dp851
sg71
g836
sg64
(lp852
g57
(g58
g59
NtRp853
(dp854
g62
(dp855
g70
I4
ssg71
g849
sg64
(lp856
g57
(g66
g59
NtRp857
(dp858
g62
(dp859
g70
I3
ssg71
Nsg64
(lp860
g57
(g73
g59
NtRp861
(dp862
g62
(dp863
sg71
g857
sg64
(lp864
g57
(g78
g59
NtRp865
(dp866
g62
(dp867
g82
g83
ssg71
g861
sg64
(lp868
g306
asbag57
(g78
g59
NtRp869
(dp870
g62
(dp871
g89
g90
ssg71
g861
sg64
(lp872
S':'
asbag57
(g78
g59
NtRp873
(dp874
g62
(dp875
sg71
g861
sg64
(lp876
g57
(g58
g59
NtRp877
(dp878
g62
(dp879
g70
I3
ssg71
g873
sg64
(lp880
S''
asbasbasbag57
(g73
g59
NtRp881
(dp882
g62
(dp883
sg71
g857
sg64
(lp884
g57
(g78
g59
NtRp885
(dp886
g62
(dp887
g82
g83
ssg71
g881
sg64
(lp888
g327
asbag57
(g78
g59
NtRp889
(dp890
g62
(dp891
g89
g90
ssg71
g881
sg64
(lp892
S':'
asbag57
(g78
g59
NtRp893
(dp894
g62
(dp895
sg71
g881
sg64
(lp896
g57
(g58
g59
NtRp897
(dp898
g62
(dp899
g70
I3
ssg71
g893
sg64
(lp900
S''
asbasbasbag57
(g73
g59
NtRp901
(dp902
g62
(dp903
sg71
g857
sg64
(lp904
g57
(g78
g59
NtRp905
(dp906
g62
(dp907
g82
g83
ssg71
g901
sg64
(lp908
g348
asbag57
(g78
g59
NtRp909
(dp910
g62
(dp911
g89
g90
ssg71
g901
sg64
(lp912
S':'
asbag57
(g78
g59
NtRp913
(dp914
g62
(dp915
sg71
g901
sg64
(lp916
g57
(g58
g59
NtRp917
(dp918
g62
(dp919
g70
I3
ssg71
g913
sg64
(lp920
S''
asbasbasbag57
(g73
g59
NtRp921
(dp922
g62
(dp923
sg71
g857
sg64
(lp924
g57
(g78
g59
NtRp925
(dp926
g62
(dp927
g82
g83
ssg71
g921
sg64
(lp928
g369
asbag57
(g78
g59
NtRp929
(dp930
g62
(dp931
g89
g90
ssg71
g921
sg64
(lp932
S':'
asbag57
(g78
g59
NtRp933
(dp934
g62
(dp935
sg71
g921
sg64
(lp936
g57
(g58
g59
NtRp937
(dp938
g62
(dp939
g70
I3
ssg71
g933
sg64
(lp940
S''
asbasbasbag57
(g73
g59
NtRp941
(dp942
g62
(dp943
sg71
g857
sg64
(lp944
g57
(g78
g59
NtRp945
(dp946
g62
(dp947
g82
g83
ssg71
g941
sg64
(lp948
g390
asbag57
(g78
g59
NtRp949
(dp950
g62
(dp951
g89
g90
ssg71
g941
sg64
(lp952
S':'
asbag57
(g78
g59
NtRp953
(dp954
g62
(dp955
sg71
g941
sg64
(lp956
g57
(g58
g59
NtRp957
(dp958
g62
(dp959
g70
I3
ssg71
g953
sg64
(lp960
S''
asbasbasbag57
(g73
g59
NtRp961
(dp962
g62
(dp963
sg71
g857
sg64
(lp964
g57
(g78
g59
NtRp965
(dp966
g62
(dp967
g82
g83
ssg71
g961
sg64
(lp968
g411
asbag57
(g78
g59
NtRp969
(dp970
g62
(dp971
g89
g90
ssg71
g961
sg64
(lp972
S':'
asbag57
(g78
g59
NtRp973
(dp974
g62
(dp975
sg71
g961
sg64
(lp976
g57
(g58
g59
NtRp977
(dp978
g62
(dp979
g70
I3
ssg71
g973
sg64
(lp980
S''
asbasbasbag57
(g73
g59
NtRp981
(dp982
g62
(dp983
sg71
g857
sg64
(lp984
g57
(g78
g59
NtRp985
(dp986
g62
(dp987
g82
g83
ssg71
g981
sg64
(lp988
g432
asbag57
(g78
g59
NtRp989
(dp990
g62
(dp991
g89
g90
ssg71
g981
sg64
(lp992
S':'
asbag57
(g78
g59
NtRp993
(dp994
g62
(dp995
sg71
g981
sg64
(lp996
g57
(g58
g59
NtRp997
(dp998
g62
(dp999
g70
I3
ssg71
g993
sg64
(lp1000
S''
asbasbasbag57
(g73
g59
NtRp1001
(dp1002
g62
(dp1003
sg71
g857
sg64
(lp1004
g57
(g78
g59
NtRp1005
(dp1006
g62
(dp1007
g82
g83
ssg71
g1001
sg64
(lp1008
g453
asbag57
(g78
g59
NtRp1009
(dp1010
g62
(dp1011
g89
g90
ssg71
g1001
sg64
(lp1012
S':'
asbag57
(g78
g59
NtRp1013
(dp1014
g62
(dp1015
sg71
g1001
sg64
(lp1016
g57
(g58
g59
NtRp1017
(dp1018
g62
(dp1019
g70
I3
ssg71
g1013
sg64
(lp1020
S''
asbasbasbasbasbasbasbasbasbasbasbag57
(g73
g59
NtRp1021
(dp1022
g62
(dp1023
sg71
g67
sg64
(lp1024
g57
(g78
g59
NtRp1025
(dp1026
g62
(dp1027
g82
g83
ssg71
g1021
sg64
(lp1028
S'env'
p1029
asbag57
(g78
g59
NtRp1030
(dp1031
g62
(dp1032
g89
g90
ssg71
g1021
sg64
(lp1033
S':'
asbag57
(g78
g59
NtRp1034
(dp1035
g62
(dp1036
sg71
g1021
sg64
(lp1037
g57
(g58
g59
NtRp1038
(dp1039
g62
(dp1040
g70
I5
ssg71
g1034
sg64
(lp1041
g57
(g66
g59
NtRp1042
(dp1043
g62
(dp1044
g70
I4
ssg71
Nsg64
(lp1045
g57
(g73
g59
NtRp1046
(dp1047
g62
(dp1048
sg71
g1042
sg64
(lp1049
g57
(g78
g59
NtRp1050
(dp1051
g62
(dp1052
g82
g83
ssg71
g1046
sg64
(lp1053
S'app_folders'
p1054
asbag57
(g78
g59
NtRp1055
(dp1056
g62
(dp1057
g89
g90
ssg71
g1046
sg64
(lp1058
S':'
asbag57
(g78
g59
NtRp1059
(dp1060
g62
(dp1061
sg71
g1046
sg64
(lp1062
g57
(g58
g59
NtRp1063
(dp1064
g62
(dp1065
g70
I4
ssg71
g1059
sg64
(lp1066
S"set(['/home/ian/web/web2py/applications/welcome/', '/home/ian/web/web2py/applications/paideia/', '/home/ian/web/web2py/applications/admin/'])"
p1067
asbasbasbag57
(g73
g59
NtRp1068
(dp1069
g62
(dp1070
sg71
g1042
sg64
(lp1071
g57
(g78
g59
NtRp1072
(dp1073
g62
(dp1074
g82
g83
ssg71
g1068
sg64
(lp1075
S'applications_parent'
p1076
asbag57
(g78
g59
NtRp1077
(dp1078
g62
(dp1079
g89
g90
ssg71
g1068
sg64
(lp1080
S':'
asbag57
(g78
g59
NtRp1081
(dp1082
g62
(dp1083
sg71
g1068
sg64
(lp1084
g57
(g58
g59
NtRp1085
(dp1086
g62
(dp1087
g70
I4
ssg71
g1081
sg64
(lp1088
S'/home/ian/web/web2py'
p1089
asbasbasbag57
(g73
g59
NtRp1090
(dp1091
g62
(dp1092
sg71
g1042
sg64
(lp1093
g57
(g78
g59
NtRp1094
(dp1095
g62
(dp1096
g82
g83
ssg71
g1090
sg64
(lp1097
S'cmd_args'
p1098
asbag57
(g78
g59
NtRp1099
(dp1100
g62
(dp1101
g89
g90
ssg71
g1090
sg64
(lp1102
S':'
asbag57
(g78
g59
NtRp1103
(dp1104
g62
(dp1105
sg71
g1090
sg64
(lp1106
g57
(g58
g59
NtRp1107
(dp1108
g62
(dp1109
g70
I4
ssg71
g1103
sg64
(lp1110
g57
(g66
g59
NtRp1111
(dp1112
g62
(dp1113
g70
I3
ssg71
Nsg64
(lp1114
sbasbasbasbag57
(g73
g59
NtRp1115
(dp1116
g62
(dp1117
sg71
g1042
sg64
(lp1118
g57
(g78
g59
NtRp1119
(dp1120
g62
(dp1121
g82
g83
ssg71
g1115
sg64
(lp1122
S'cmd_options'
p1123
asbag57
(g78
g59
NtRp1124
(dp1125
g62
(dp1126
g89
g90
ssg71
g1115
sg64
(lp1127
S':'
asbag57
(g78
g59
NtRp1128
(dp1129
g62
(dp1130
sg71
g1115
sg64
(lp1131
g57
(g58
g59
NtRp1132
(dp1133
g62
(dp1134
g70
I4
ssg71
g1128
sg64
(lp1135
S"<Values at 0x1b4d758: {'verbose': False, 'ip': '127.0.0.1', 'shutdown_timeout': 5, 'taskbar': False, 'nocron': False, 'pid_filename': 'httpserver.pid', 'maxthreads': None, 'softcron': False, 'server_name': 'uriel', 'bpython': False, 'nogui': False, 'port': 8000, 'extcron': False, 'debuglevel': 30, 'test': None, 'folder': '/home/ian/web/web2py', 'config': '', 'import_models': False, 'winservice': '', 'shell': None, 'run': '', 'log_filename': 'httpserver.log', 'args': [''], 'socket_timeout': 1, 'ssl_ca_certificate': None, 'scheduler': None, 'profiler_filename': None, 'ssl_private_key': '', 'password': '<ask>', 'request_queue_size': 5, 'ssl_certificate': '', 'cronjob': False, 'numthreads': None, 'quiet': False, 'interfaces': None, 'minthreads': None, 'timeout': 10, 'plain': False, 'nobanner': False}>"
p1136
asbasbasbag57
(g73
g59
NtRp1137
(dp1138
g62
(dp1139
sg71
g1042
sg64
(lp1140
g57
(g78
g59
NtRp1141
(dp1142
g62
(dp1143
g82
g83
ssg71
g1137
sg64
(lp1144
S'db_sessions'
p1145
asbag57
(g78
g59
NtRp1146
(dp1147
g62
(dp1148
g89
g90
ssg71
g1137
sg64
(lp1149
S':'
asbag57
(g78
g59
NtRp1150
(dp1151
g62
(dp1152
sg71
g1137
sg64
(lp1153
g57
(g58
g59
NtRp1154
(dp1155
g62
(dp1156
g70
I4
ssg71
g1150
sg64
(lp1157
S'set([])'
p1158
asbasbasbag57
(g73
g59
NtRp1159
(dp1160
g62
(dp1161
sg71
g1042
sg64
(lp1162
g57
(g78
g59
NtRp1163
(dp1164
g62
(dp1165
g82
g83
ssg71
g1159
sg64
(lp1166
S'debugging'
p1167
asbag57
(g78
g59
NtRp1168
(dp1169
g62
(dp1170
g89
g90
ssg71
g1159
sg64
(lp1171
S':'
asbag57
(g78
g59
NtRp1172
(dp1173
g62
(dp1174
sg71
g1159
sg64
(lp1175
g57
(g58
g59
NtRp1176
(dp1177
g62
(dp1178
g70
I4
ssg71
g1172
sg64
(lp1179
S'False'
p1180
asbasbasbag57
(g73
g59
NtRp1181
(dp1182
g62
(dp1183
sg71
g1042
sg64
(lp1184
g57
(g78
g59
NtRp1185
(dp1186
g62
(dp1187
g82
g83
ssg71
g1181
sg64
(lp1188
S'gluon_parent'
p1189
asbag57
(g78
g59
NtRp1190
(dp1191
g62
(dp1192
g89
g90
ssg71
g1181
sg64
(lp1193
S':'
asbag57
(g78
g59
NtRp1194
(dp1195
g62
(dp1196
sg71
g1181
sg64
(lp1197
g57
(g58
g59
NtRp1198
(dp1199
g62
(dp1200
g70
I4
ssg71
g1194
sg64
(lp1201
S'/home/ian/web/web2py'
p1202
asbasbasbag57
(g73
g59
NtRp1203
(dp1204
g62
(dp1205
sg71
g1042
sg64
(lp1206
g57
(g78
g59
NtRp1207
(dp1208
g62
(dp1209
g82
g83
ssg71
g1203
sg64
(lp1210
S'http_accept'
p1211
asbag57
(g78
g59
NtRp1212
(dp1213
g62
(dp1214
g89
g90
ssg71
g1203
sg64
(lp1215
S':'
asbag57
(g78
g59
NtRp1216
(dp1217
g62
(dp1218
sg71
g1203
sg64
(lp1219
g57
(g58
g59
NtRp1220
(dp1221
g62
(dp1222
g70
I4
ssg71
g1216
sg64
(lp1223
S'*/*'
p1224
asbasbasbag57
(g73
g59
NtRp1225
(dp1226
g62
(dp1227
sg71
g1042
sg64
(lp1228
g57
(g78
g59
NtRp1229
(dp1230
g62
(dp1231
g82
g83
ssg71
g1225
sg64
(lp1232
S'http_accept_encoding'
p1233
asbag57
(g78
g59
NtRp1234
(dp1235
g62
(dp1236
g89
g90
ssg71
g1225
sg64
(lp1237
S':'
asbag57
(g78
g59
NtRp1238
(dp1239
g62
(dp1240
sg71
g1225
sg64
(lp1241
g57
(g58
g59
NtRp1242
(dp1243
g62
(dp1244
g70
I4
ssg71
g1238
sg64
(lp1245
S'gzip, deflate'
p1246
asbasbasbag57
(g73
g59
NtRp1247
(dp1248
g62
(dp1249
sg71
g1042
sg64
(lp1250
g57
(g78
g59
NtRp1251
(dp1252
g62
(dp1253
g82
g83
ssg71
g1247
sg64
(lp1254
S'http_accept_language'
p1255
asbag57
(g78
g59
NtRp1256
(dp1257
g62
(dp1258
g89
g90
ssg71
g1247
sg64
(lp1259
S':'
asbag57
(g78
g59
NtRp1260
(dp1261
g62
(dp1262
sg71
g1247
sg64
(lp1263
g57
(g58
g59
NtRp1264
(dp1265
g62
(dp1266
g70
I4
ssg71
g1260
sg64
(lp1267
S'en-us,en;q=0.5'
p1268
asbasbasbag57
(g73
g59
NtRp1269
(dp1270
g62
(dp1271
sg71
g1042
sg64
(lp1272
g57
(g78
g59
NtRp1273
(dp1274
g62
(dp1275
g82
g83
ssg71
g1269
sg64
(lp1276
S'http_connection'
p1277
asbag57
(g78
g59
NtRp1278
(dp1279
g62
(dp1280
g89
g90
ssg71
g1269
sg64
(lp1281
S':'
asbag57
(g78
g59
NtRp1282
(dp1283
g62
(dp1284
sg71
g1269
sg64
(lp1285
g57
(g58
g59
NtRp1286
(dp1287
g62
(dp1288
g70
I4
ssg71
g1282
sg64
(lp1289
S'keep-alive'
p1290
asbasbasbag57
(g73
g59
NtRp1291
(dp1292
g62
(dp1293
sg71
g1042
sg64
(lp1294
g57
(g78
g59
NtRp1295
(dp1296
g62
(dp1297
g82
g83
ssg71
g1291
sg64
(lp1298
S'http_cookie'
p1299
asbag57
(g78
g59
NtRp1300
(dp1301
g62
(dp1302
g89
g90
ssg71
g1291
sg64
(lp1303
S':'
asbag57
(g78
g59
NtRp1304
(dp1305
g62
(dp1306
sg71
g1291
sg64
(lp1307
g57
(g58
g59
NtRp1308
(dp1309
g62
(dp1310
g70
I4
ssg71
g1304
sg64
(lp1311
S'session_id_paideia=127.0.0.1-d6bcece8-2742-4dcd-9d50-e8b957d71ddc; session_id_grammateus3=127.0.0.1-ae131346-de62-453a-b308-33d5b317e3e5; session_id_welcome=127.0.0.1-2d7c426d-8b25-4e09-8198-5df3cafff407; session_id_admin=127.0.0.1-453b5352-a071-43ca-bc66-0de3f7575479'
p1312
asbasbasbag57
(g73
g59
NtRp1313
(dp1314
g62
(dp1315
sg71
g1042
sg64
(lp1316
g57
(g78
g59
NtRp1317
(dp1318
g62
(dp1319
g82
g83
ssg71
g1313
sg64
(lp1320
S'http_host'
p1321
asbag57
(g78
g59
NtRp1322
(dp1323
g62
(dp1324
g89
g90
ssg71
g1313
sg64
(lp1325
S':'
asbag57
(g78
g59
NtRp1326
(dp1327
g62
(dp1328
sg71
g1313
sg64
(lp1329
g57
(g58
g59
NtRp1330
(dp1331
g62
(dp1332
g70
I4
ssg71
g1326
sg64
(lp1333
S'127.0.0.1:8000'
p1334
asbasbasbag57
(g73
g59
NtRp1335
(dp1336
g62
(dp1337
sg71
g1042
sg64
(lp1338
g57
(g78
g59
NtRp1339
(dp1340
g62
(dp1341
g82
g83
ssg71
g1335
sg64
(lp1342
S'http_referer'
p1343
asbag57
(g78
g59
NtRp1344
(dp1345
g62
(dp1346
g89
g90
ssg71
g1335
sg64
(lp1347
S':'
asbag57
(g78
g59
NtRp1348
(dp1349
g62
(dp1350
sg71
g1335
sg64
(lp1351
g57
(g58
g59
NtRp1352
(dp1353
g62
(dp1354
g70
I4
ssg71
g1348
sg64
(lp1355
S'http://127.0.0.1:8000/paideia/exploring/index'
p1356
asbasbasbag57
(g73
g59
NtRp1357
(dp1358
g62
(dp1359
sg71
g1042
sg64
(lp1360
g57
(g78
g59
NtRp1361
(dp1362
g62
(dp1363
g82
g83
ssg71
g1357
sg64
(lp1364
S'http_user_agent'
p1365
asbag57
(g78
g59
NtRp1366
(dp1367
g62
(dp1368
g89
g90
ssg71
g1357
sg64
(lp1369
S':'
asbag57
(g78
g59
NtRp1370
(dp1371
g62
(dp1372
sg71
g1357
sg64
(lp1373
g57
(g58
g59
NtRp1374
(dp1375
g62
(dp1376
g70
I4
ssg71
g1370
sg64
(lp1377
S'Mozilla/5.0 (X11; Ubuntu; Linux x86_64; rv:11.0) Gecko/20100101 Firefox/11.0 openid'
p1378
asbasbasbag57
(g73
g59
NtRp1379
(dp1380
g62
(dp1381
sg71
g1042
sg64
(lp1382
g57
(g78
g59
NtRp1383
(dp1384
g62
(dp1385
g82
g83
ssg71
g1379
sg64
(lp1386
S'http_web2py_component_element'
p1387
asbag57
(g78
g59
NtRp1388
(dp1389
g62
(dp1390
g89
g90
ssg71
g1379
sg64
(lp1391
S':'
asbag57
(g78
g59
NtRp1392
(dp1393
g62
(dp1394
sg71
g1379
sg64
(lp1395
g57
(g58
g59
NtRp1396
(dp1397
g62
(dp1398
g70
I4
ssg71
g1392
sg64
(lp1399
g203
asbasbasbag57
(g73
g59
NtRp1400
(dp1401
g62
(dp1402
sg71
g1042
sg64
(lp1403
g57
(g78
g59
NtRp1404
(dp1405
g62
(dp1406
g82
g83
ssg71
g1400
sg64
(lp1407
S'http_web2py_component_location'
p1408
asbag57
(g78
g59
NtRp1409
(dp1410
g62
(dp1411
g89
g90
ssg71
g1400
sg64
(lp1412
S':'
asbag57
(g78
g59
NtRp1413
(dp1414
g62
(dp1415
sg71
g1400
sg64
(lp1416
g57
(g58
g59
NtRp1417
(dp1418
g62
(dp1419
g70
I4
ssg71
g1413
sg64
(lp1420
S'http://127.0.0.1:8000/paideia/exploring/index'
p1421
asbasbasbag57
(g73
g59
NtRp1422
(dp1423
g62
(dp1424
sg71
g1042
sg64
(lp1425
g57
(g78
g59
NtRp1426
(dp1427
g62
(dp1428
g82
g83
ssg71
g1422
sg64
(lp1429
S'http_x_requested_with'
p1430
asbag57
(g78
g59
NtRp1431
(dp1432
g62
(dp1433
g89
g90
ssg71
g1422
sg64
(lp1434
S':'
asbag57
(g78
g59
NtRp1435
(dp1436
g62
(dp1437
sg71
g1422
sg64
(lp1438
g57
(g58
g59
NtRp1439
(dp1440
g62
(dp1441
g70
I4
ssg71
g1435
sg64
(lp1442
S'XMLHttpRequest'
p1443
asbasbasbag57
(g73
g59
NtRp1444
(dp1445
g62
(dp1446
sg71
g1042
sg64
(lp1447
g57
(g78
g59
NtRp1448
(dp1449
g62
(dp1450
g82
g83
ssg71
g1444
sg64
(lp1451
S'is_jython'
p1452
asbag57
(g78
g59
NtRp1453
(dp1454
g62
(dp1455
g89
g90
ssg71
g1444
sg64
(lp1456
S':'
asbag57
(g78
g59
NtRp1457
(dp1458
g62
(dp1459
sg71
g1444
sg64
(lp1460
g57
(g58
g59
NtRp1461
(dp1462
g62
(dp1463
g70
I4
ssg71
g1457
sg64
(lp1464
g1180
asbasbasbag57
(g73
g59
NtRp1465
(dp1466
g62
(dp1467
sg71
g1042
sg64
(lp1468
g57
(g78
g59
NtRp1469
(dp1470
g62
(dp1471
g82
g83
ssg71
g1465
sg64
(lp1472
S'is_pypy'
p1473
asbag57
(g78
g59
NtRp1474
(dp1475
g62
(dp1476
g89
g90
ssg71
g1465
sg64
(lp1477
S':'
asbag57
(g78
g59
NtRp1478
(dp1479
g62
(dp1480
sg71
g1465
sg64
(lp1481
g57
(g58
g59
NtRp1482
(dp1483
g62
(dp1484
g70
I4
ssg71
g1478
sg64
(lp1485
g1180
asbasbasbag57
(g73
g59
NtRp1486
(dp1487
g62
(dp1488
sg71
g1042
sg64
(lp1489
g57
(g78
g59
NtRp1490
(dp1491
g62
(dp1492
g82
g83
ssg71
g1486
sg64
(lp1493
S'path_info'
p1494
asbag57
(g78
g59
NtRp1495
(dp1496
g62
(dp1497
g89
g90
ssg71
g1486
sg64
(lp1498
S':'
asbag57
(g78
g59
NtRp1499
(dp1500
g62
(dp1501
sg71
g1486
sg64
(lp1502
g57
(g58
g59
NtRp1503
(dp1504
g62
(dp1505
g70
I4
ssg71
g1499
sg64
(lp1506
S'/paideia/exploring/index.load/ask'
p1507
asbasbasbag57
(g73
g59
NtRp1508
(dp1509
g62
(dp1510
sg71
g1042
sg64
(lp1511
g57
(g78
g59
NtRp1512
(dp1513
g62
(dp1514
g82
g83
ssg71
g1508
sg64
(lp1515
S'query_string'
p1516
asbag57
(g78
g59
NtRp1517
(dp1518
g62
(dp1519
g89
g90
ssg71
g1508
sg64
(lp1520
S':'
asbag57
(g78
g59
NtRp1521
(dp1522
g62
(dp1523
sg71
g1508
sg64
(lp1524
g57
(g58
g59
NtRp1525
(dp1526
g62
(dp1527
g70
I4
ssg71
g1521
sg64
(lp1528
S'loc=domusA'
p1529
asbasbasbag57
(g73
g59
NtRp1530
(dp1531
g62
(dp1532
sg71
g1042
sg64
(lp1533
g57
(g78
g59
NtRp1534
(dp1535
g62
(dp1536
g82
g83
ssg71
g1530
sg64
(lp1537
S'remote_addr'
p1538
asbag57
(g78
g59
NtRp1539
(dp1540
g62
(dp1541
g89
g90
ssg71
g1530
sg64
(lp1542
S':'
asbag57
(g78
g59
NtRp1543
(dp1544
g62
(dp1545
sg71
g1530
sg64
(lp1546
g57
(g58
g59
NtRp1547
(dp1548
g62
(dp1549
g70
I4
ssg71
g1543
sg64
(lp1550
g225
asbasbasbag57
(g73
g59
NtRp1551
(dp1552
g62
(dp1553
sg71
g1042
sg64
(lp1554
g57
(g78
g59
NtRp1555
(dp1556
g62
(dp1557
g82
g83
ssg71
g1551
sg64
(lp1558
S'remote_port'
p1559
asbag57
(g78
g59
NtRp1560
(dp1561
g62
(dp1562
g89
g90
ssg71
g1551
sg64
(lp1563
S':'
asbag57
(g78
g59
NtRp1564
(dp1565
g62
(dp1566
sg71
g1551
sg64
(lp1567
g57
(g58
g59
NtRp1568
(dp1569
g62
(dp1570
g70
I4
ssg71
g1564
sg64
(lp1571
S'50879'
p1572
asbasbasbag57
(g73
g59
NtRp1573
(dp1574
g62
(dp1575
sg71
g1042
sg64
(lp1576
g57
(g78
g59
NtRp1577
(dp1578
g62
(dp1579
g82
g83
ssg71
g1573
sg64
(lp1580
S'request_method'
p1581
asbag57
(g78
g59
NtRp1582
(dp1583
g62
(dp1584
g89
g90
ssg71
g1573
sg64
(lp1585
S':'
asbag57
(g78
g59
NtRp1586
(dp1587
g62
(dp1588
sg71
g1573
sg64
(lp1589
g57
(g58
g59
NtRp1590
(dp1591
g62
(dp1592
g70
I4
ssg71
g1586
sg64
(lp1593
S'GET'
p1594
asbasbasbag57
(g73
g59
NtRp1595
(dp1596
g62
(dp1597
sg71
g1042
sg64
(lp1598
g57
(g78
g59
NtRp1599
(dp1600
g62
(dp1601
g82
g83
ssg71
g1595
sg64
(lp1602
S'script_name'
p1603
asbag57
(g78
g59
NtRp1604
(dp1605
g62
(dp1606
g89
g90
ssg71
g1595
sg64
(lp1607
S':'
asbag57
(g78
g59
NtRp1608
(dp1609
g62
(dp1610
sg71
g1595
sg64
(lp1611
g57
(g58
g59
NtRp1612
(dp1613
g62
(dp1614
g70
I4
ssg71
g1608
sg64
(lp1615
S''
asbasbasbag57
(g73
g59
NtRp1616
(dp1617
g62
(dp1618
sg71
g1042
sg64
(lp1619
g57
(g78
g59
NtRp1620
(dp1621
g62
(dp1622
g82
g83
ssg71
g1616
sg64
(lp1623
S'server_name'
p1624
asbag57
(g78
g59
NtRp1625
(dp1626
g62
(dp1627
g89
g90
ssg71
g1616
sg64
(lp1628
S':'
asbag57
(g78
g59
NtRp1629
(dp1630
g62
(dp1631
sg71
g1616
sg64
(lp1632
g57
(g58
g59
NtRp1633
(dp1634
g62
(dp1635
g70
I4
ssg71
g1629
sg64
(lp1636
S'uriel'
p1637
asbasbasbag57
(g73
g59
NtRp1638
(dp1639
g62
(dp1640
sg71
g1042
sg64
(lp1641
g57
(g78
g59
NtRp1642
(dp1643
g62
(dp1644
g82
g83
ssg71
g1638
sg64
(lp1645
S'server_port'
p1646
asbag57
(g78
g59
NtRp1647
(dp1648
g62
(dp1649
g89
g90
ssg71
g1638
sg64
(lp1650
S':'
asbag57
(g78
g59
NtRp1651
(dp1652
g62
(dp1653
sg71
g1638
sg64
(lp1654
g57
(g58
g59
NtRp1655
(dp1656
g62
(dp1657
g70
I4
ssg71
g1651
sg64
(lp1658
S'8000'
p1659
asbasbasbag57
(g73
g59
NtRp1660
(dp1661
g62
(dp1662
sg71
g1042
sg64
(lp1663
g57
(g78
g59
NtRp1664
(dp1665
g62
(dp1666
g82
g83
ssg71
g1660
sg64
(lp1667
S'server_protocol'
p1668
asbag57
(g78
g59
NtRp1669
(dp1670
g62
(dp1671
g89
g90
ssg71
g1660
sg64
(lp1672
S':'
asbag57
(g78
g59
NtRp1673
(dp1674
g62
(dp1675
sg71
g1660
sg64
(lp1676
g57
(g58
g59
NtRp1677
(dp1678
g62
(dp1679
g70
I4
ssg71
g1673
sg64
(lp1680
S'HTTP/1.1'
p1681
asbasbasbag57
(g73
g59
NtRp1682
(dp1683
g62
(dp1684
sg71
g1042
sg64
(lp1685
g57
(g78
g59
NtRp1686
(dp1687
g62
(dp1688
g82
g83
ssg71
g1682
sg64
(lp1689
S'server_software'
p1690
asbag57
(g78
g59
NtRp1691
(dp1692
g62
(dp1693
g89
g90
ssg71
g1682
sg64
(lp1694
S':'
asbag57
(g78
g59
NtRp1695
(dp1696
g62
(dp1697
sg71
g1682
sg64
(lp1698
g57
(g58
g59
NtRp1699
(dp1700
g62
(dp1701
g70
I4
ssg71
g1695
sg64
(lp1702
S'Rocket 1.2.4'
p1703
asbasbasbag57
(g73
g59
NtRp1704
(dp1705
g62
(dp1706
sg71
g1042
sg64
(lp1707
g57
(g78
g59
NtRp1708
(dp1709
g62
(dp1710
g82
g83
ssg71
g1704
sg64
(lp1711
S'web2py_crontype'
p1712
asbag57
(g78
g59
NtRp1713
(dp1714
g62
(dp1715
g89
g90
ssg71
g1704
sg64
(lp1716
S':'
asbag57
(g78
g59
NtRp1717
(dp1718
g62
(dp1719
sg71
g1704
sg64
(lp1720
g57
(g58
g59
NtRp1721
(dp1722
g62
(dp1723
g70
I4
ssg71
g1717
sg64
(lp1724
S'hard'
p1725
asbasbasbag57
(g73
g59
NtRp1726
(dp1727
g62
(dp1728
sg71
g1042
sg64
(lp1729
g57
(g78
g59
NtRp1730
(dp1731
g62
(dp1732
g82
g83
ssg71
g1726
sg64
(lp1733
S'web2py_path'
p1734
asbag57
(g78
g59
NtRp1735
(dp1736
g62
(dp1737
g89
g90
ssg71
g1726
sg64
(lp1738
S':'
asbag57
(g78
g59
NtRp1739
(dp1740
g62
(dp1741
sg71
g1726
sg64
(lp1742
g57
(g58
g59
NtRp1743
(dp1744
g62
(dp1745
g70
I4
ssg71
g1739
sg64
(lp1746
g1089
asbasbasbag57
(g73
g59
NtRp1747
(dp1748
g62
(dp1749
sg71
g1042
sg64
(lp1750
g57
(g78
g59
NtRp1751
(dp1752
g62
(dp1753
g82
g83
ssg71
g1747
sg64
(lp1754
S'web2py_version'
p1755
asbag57
(g78
g59
NtRp1756
(dp1757
g62
(dp1758
g89
g90
ssg71
g1747
sg64
(lp1759
S':'
asbag57
(g78
g59
NtRp1760
(dp1761
g62
(dp1762
sg71
g1747
sg64
(lp1763
g57
(g58
g59
NtRp1764
(dp1765
g62
(dp1766
g70
I4
ssg71
g1760
sg64
(lp1767
g57
(g66
g59
NtRp1768
(dp1769
g62
(dp1770
g70
I3
ssg71
Nsg64
(lp1771
g57
(g73
g59
NtRp1772
(dp1773
g62
(dp1774
sg71
g1768
sg64
(lp1775
g57
(g78
g59
NtRp1776
(dp1777
g62
(dp1778
sg71
g1772
sg64
(lp1779
g57
(g58
g59
NtRp1780
(dp1781
g62
(dp1782
g70
I3
ssg71
g1776
sg64
(lp1783
S'1'
asbasbasbag57
(g73
g59
NtRp1784
(dp1785
g62
(dp1786
sg71
g1768
sg64
(lp1787
g57
(g78
g59
NtRp1788
(dp1789
g62
(dp1790
sg71
g1784
sg64
(lp1791
g57
(g58
g59
NtRp1792
(dp1793
g62
(dp1794
g70
I3
ssg71
g1788
sg64
(lp1795
S'99'
p1796
asbasbasbag57
(g73
g59
NtRp1797
(dp1798
g62
(dp1799
sg71
g1768
sg64
(lp1800
g57
(g78
g59
NtRp1801
(dp1802
g62
(dp1803
sg71
g1797
sg64
(lp1804
g57
(g58
g59
NtRp1805
(dp1806
g62
(dp1807
g70
I3
ssg71
g1801
sg64
(lp1808
S'4'
asbasbasbag57
(g73
g59
NtRp1809
(dp1810
g62
(dp1811
sg71
g1768
sg64
(lp1812
g57
(g78
g59
NtRp1813
(dp1814
g62
(dp1815
sg71
g1809
sg64
(lp1816
g57
(g58
g59
NtRp1817
(dp1818
g62
(dp1819
g70
I3
ssg71
g1813
sg64
(lp1820
S'datetime.datetime(2011, 12, 14, 14, 46, 14)'
p1821
asbasbasbag57
(g73
g59
NtRp1822
(dp1823
g62
(dp1824
sg71
g1768
sg64
(lp1825
g57
(g78
g59
NtRp1826
(dp1827
g62
(dp1828
sg71
g1822
sg64
(lp1829
g57
(g58
g59
NtRp1830
(dp1831
g62
(dp1832
g70
I3
ssg71
g1826
sg64
(lp1833
S'stable'
p1834
asbasbasbasbasbasbasbag57
(g73
g59
NtRp1835
(dp1836
g62
(dp1837
sg71
g1042
sg64
(lp1838
g57
(g78
g59
NtRp1839
(dp1840
g62
(dp1841
g82
g83
ssg71
g1835
sg64
(lp1842
S'wsgi_errors'
p1843
asbag57
(g78
g59
NtRp1844
(dp1845
g62
(dp1846
g89
g90
ssg71
g1835
sg64
(lp1847
S':'
asbag57
(g78
g59
NtRp1848
(dp1849
g62
(dp1850
sg71
g1835
sg64
(lp1851
g57
(g58
g59
NtRp1852
(dp1853
g62
(dp1854
g70
I4
ssg71
g1848
sg64
(lp1855
S"<open file '<stderr>', mode 'w' at 0x7fbc88466270>"
p1856
asbasbasbag57
(g73
g59
NtRp1857
(dp1858
g62
(dp1859
sg71
g1042
sg64
(lp1860
g57
(g78
g59
NtRp1861
(dp1862
g62
(dp1863
g82
g83
ssg71
g1857
sg64
(lp1864
S'wsgi_file_wrapper'
p1865
asbag57
(g78
g59
NtRp1866
(dp1867
g62
(dp1868
g89
g90
ssg71
g1857
sg64
(lp1869
S':'
asbag57
(g78
g59
NtRp1870
(dp1871
g62
(dp1872
sg71
g1857
sg64
(lp1873
g57
(g58
g59
NtRp1874
(dp1875
g62
(dp1876
g70
I4
ssg71
g1870
sg64
(lp1877
S'<class wsgiref.util.FileWrapper at 0x1a17d50>'
p1878
asbasbasbag57
(g73
g59
NtRp1879
(dp1880
g62
(dp1881
sg71
g1042
sg64
(lp1882
g57
(g78
g59
NtRp1883
(dp1884
g62
(dp1885
g82
g83
ssg71
g1879
sg64
(lp1886
S'wsgi_input'
p1887
asbag57
(g78
g59
NtRp1888
(dp1889
g62
(dp1890
g89
g90
ssg71
g1879
sg64
(lp1891
S':'
asbag57
(g78
g59
NtRp1892
(dp1893
g62
(dp1894
sg71
g1879
sg64
(lp1895
g57
(g58
g59
NtRp1896
(dp1897
g62
(dp1898
g70
I4
ssg71
g1892
sg64
(lp1899
S'<socket._fileobject object at 0x7fbc5c589550>'
p1900
asbasbasbag57
(g73
g59
NtRp1901
(dp1902
g62
(dp1903
sg71
g1042
sg64
(lp1904
g57
(g78
g59
NtRp1905
(dp1906
g62
(dp1907
g82
g83
ssg71
g1901
sg64
(lp1908
S'wsgi_multiprocess'
p1909
asbag57
(g78
g59
NtRp1910
(dp1911
g62
(dp1912
g89
g90
ssg71
g1901
sg64
(lp1913
S':'
asbag57
(g78
g59
NtRp1914
(dp1915
g62
(dp1916
sg71
g1901
sg64
(lp1917
g57
(g58
g59
NtRp1918
(dp1919
g62
(dp1920
g70
I4
ssg71
g1914
sg64
(lp1921
g1180
asbasbasbag57
(g73
g59
NtRp1922
(dp1923
g62
(dp1924
sg71
g1042
sg64
(lp1925
g57
(g78
g59
NtRp1926
(dp1927
g62
(dp1928
g82
g83
ssg71
g1922
sg64
(lp1929
S'wsgi_multithread'
p1930
asbag57
(g78
g59
NtRp1931
(dp1932
g62
(dp1933
g89
g90
ssg71
g1922
sg64
(lp1934
S':'
asbag57
(g78
g59
NtRp1935
(dp1936
g62
(dp1937
sg71
g1922
sg64
(lp1938
g57
(g58
g59
NtRp1939
(dp1940
g62
(dp1941
g70
I4
ssg71
g1935
sg64
(lp1942
g100
asbasbasbag57
(g73
g59
NtRp1943
(dp1944
g62
(dp1945
sg71
g1042
sg64
(lp1946
g57
(g78
g59
NtRp1947
(dp1948
g62
(dp1949
g82
g83
ssg71
g1943
sg64
(lp1950
S'wsgi_run_once'
p1951
asbag57
(g78
g59
NtRp1952
(dp1953
g62
(dp1954
g89
g90
ssg71
g1943
sg64
(lp1955
S':'
asbag57
(g78
g59
NtRp1956
(dp1957
g62
(dp1958
sg71
g1943
sg64
(lp1959
g57
(g58
g59
NtRp1960
(dp1961
g62
(dp1962
g70
I4
ssg71
g1956
sg64
(lp1963
g1180
asbasbasbag57
(g73
g59
NtRp1964
(dp1965
g62
(dp1966
sg71
g1042
sg64
(lp1967
g57
(g78
g59
NtRp1968
(dp1969
g62
(dp1970
g82
g83
ssg71
g1964
sg64
(lp1971
S'wsgi_url_scheme'
p1972
asbag57
(g78
g59
NtRp1973
(dp1974
g62
(dp1975
g89
g90
ssg71
g1964
sg64
(lp1976
S':'
asbag57
(g78
g59
NtRp1977
(dp1978
g62
(dp1979
sg71
g1964
sg64
(lp1980
g57
(g58
g59
NtRp1981
(dp1982
g62
(dp1983
g70
I4
ssg71
g1977
sg64
(lp1984
S'http'
p1985
asbasbasbag57
(g73
g59
NtRp1986
(dp1987
g62
(dp1988
sg71
g1042
sg64
(lp1989
g57
(g78
g59
NtRp1990
(dp1991
g62
(dp1992
g82
g83
ssg71
g1986
sg64
(lp1993
S'wsgi_version'
p1994
asbag57
(g78
g59
NtRp1995
(dp1996
g62
(dp1997
g89
g90
ssg71
g1986
sg64
(lp1998
S':'
asbag57
(g78
g59
NtRp1999
(dp2000
g62
(dp2001
sg71
g1986
sg64
(lp2002
g57
(g58
g59
NtRp2003
(dp2004
g62
(dp2005
g70
I4
ssg71
g1999
sg64
(lp2006
g57
(g66
g59
NtRp2007
(dp2008
g62
(dp2009
g70
I3
ssg71
Nsg64
(lp2010
g57
(g73
g59
NtRp2011
(dp2012
g62
(dp2013
sg71
g2007
sg64
(lp2014
g57
(g78
g59
NtRp2015
(dp2016
g62
(dp2017
sg71
g2011
sg64
(lp2018
g57
(g58
g59
NtRp2019
(dp2020
g62
(dp2021
g70
I3
ssg71
g2015
sg64
(lp2022
S'1'
asbasbasbag57
(g73
g59
NtRp2023
(dp2024
g62
(dp2025
sg71
g2007
sg64
(lp2026
g57
(g78
g59
NtRp2027
(dp2028
g62
(dp2029
sg71
g2023
sg64
(lp2030
g57
(g58
g59
NtRp2031
(dp2032
g62
(dp2033
g70
I3
ssg71
g2027
sg64
(lp2034
S'0'
asbasbasbasbasbasbasbasbasbasbasbag57
(g73
g59
NtRp2035
(dp2036
g62
(dp2037
sg71
g67
sg64
(lp2038
g57
(g78
g59
NtRp2039
(dp2040
g62
(dp2041
g82
g83
ssg71
g2035
sg64
(lp2042
S'extension'
p2043
asbag57
(g78
g59
NtRp2044
(dp2045
g62
(dp2046
g89
g90
ssg71
g2035
sg64
(lp2047
S':'
asbag57
(g78
g59
NtRp2048
(dp2049
g62
(dp2050
sg71
g2035
sg64
(lp2051
g57
(g58
g59
NtRp2052
(dp2053
g62
(dp2054
g70
I5
ssg71
g2048
sg64
(lp2055
S'load'
p2056
asbasbasbag57
(g73
g59
NtRp2057
(dp2058
g62
(dp2059
sg71
g67
sg64
(lp2060
g57
(g78
g59
NtRp2061
(dp2062
g62
(dp2063
g82
g83
ssg71
g2057
sg64
(lp2064
S'folder'
p2065
asbag57
(g78
g59
NtRp2066
(dp2067
g62
(dp2068
g89
g90
ssg71
g2057
sg64
(lp2069
S':'
asbag57
(g78
g59
NtRp2070
(dp2071
g62
(dp2072
sg71
g2057
sg64
(lp2073
g57
(g58
g59
NtRp2074
(dp2075
g62
(dp2076
g70
I5
ssg71
g2070
sg64
(lp2077
S'/home/ian/web/web2py/applications/paideia/'
p2078
asbasbasbag57
(g73
g59
NtRp2079
(dp2080
g62
(dp2081
sg71
g67
sg64
(lp2082
g57
(g78
g59
NtRp2083
(dp2084
g62
(dp2085
g82
g83
ssg71
g2079
sg64
(lp2086
S'function'
p2087
asbag57
(g78
g59
NtRp2088
(dp2089
g62
(dp2090
g89
g90
ssg71
g2079
sg64
(lp2091
S':'
asbag57
(g78
g59
NtRp2092
(dp2093
g62
(dp2094
sg71
g2079
sg64
(lp2095
g57
(g58
g59
NtRp2096
(dp2097
g62
(dp2098
g70
I5
ssg71
g2092
sg64
(lp2099
S'index'
p2100
asbasbasbag57
(g73
g59
NtRp2101
(dp2102
g62
(dp2103
sg71
g67
sg64
(lp2104
g57
(g78
g59
NtRp2105
(dp2106
g62
(dp2107
g82
g83
ssg71
g2101
sg64
(lp2108
S'get_vars'
p2109
asbag57
(g78
g59
NtRp2110
(dp2111
g62
(dp2112
g89
g90
ssg71
g2101
sg64
(lp2113
S':'
asbag57
(g78
g59
NtRp2114
(dp2115
g62
(dp2116
sg71
g2101
sg64
(lp2117
g57
(g58
g59
NtRp2118
(dp2119
g62
(dp2120
g70
I5
ssg71
g2114
sg64
(lp2121
g57
(g66
g59
NtRp2122
(dp2123
g62
(dp2124
g70
I4
ssg71
Nsg64
(lp2125
g57
(g73
g59
NtRp2126
(dp2127
g62
(dp2128
sg71
g2122
sg64
(lp2129
g57
(g78
g59
NtRp2130
(dp2131
g62
(dp2132
g82
g83
ssg71
g2126
sg64
(lp2133
S'loc'
p2134
asbag57
(g78
g59
NtRp2135
(dp2136
g62
(dp2137
g89
g90
ssg71
g2126
sg64
(lp2138
S':'
asbag57
(g78
g59
NtRp2139
(dp2140
g62
(dp2141
sg71
g2126
sg64
(lp2142
g57
(g58
g59
NtRp2143
(dp2144
g62
(dp2145
g70
I4
ssg71
g2139
sg64
(lp2146
S'domusA'
p2147
asbasbasbasbasbasbasbag57
(g73
g59
NtRp2148
(dp2149
g62
(dp2150
sg71
g67
sg64
(lp2151
g57
(g78
g59
NtRp2152
(dp2153
g62
(dp2154
g82
g83
ssg71
g2148
sg64
(lp2155
S'global_settings'
p2156
asbag57
(g78
g59
NtRp2157
(dp2158
g62
(dp2159
g89
g90
ssg71
g2148
sg64
(lp2160
S':'
asbag57
(g78
g59
NtRp2161
(dp2162
g62
(dp2163
sg71
g2148
sg64
(lp2164
g57
(g58
g59
NtRp2165
(dp2166
g62
(dp2167
g70
I5
ssg71
g2161
sg64
(lp2168
g57
(g66
g59
NtRp2169
(dp2170
g62
(dp2171
g70
I4
ssg71
Nsg64
(lp2172
g57
(g73
g59
NtRp2173
(dp2174
g62
(dp2175
sg71
g2169
sg64
(lp2176
g57
(g78
g59
NtRp2177
(dp2178
g62
(dp2179
g82
g83
ssg71
g2173
sg64
(lp2180
g1054
asbag57
(g78
g59
NtRp2181
(dp2182
g62
(dp2183
g89
g90
ssg71
g2173
sg64
(lp2184
S':'
asbag57
(g78
g59
NtRp2185
(dp2186
g62
(dp2187
sg71
g2173
sg64
(lp2188
g57
(g58
g59
NtRp2189
(dp2190
g62
(dp2191
g70
I4
ssg71
g2185
sg64
(lp2192
S"set(['/home/ian/web/web2py/applications/welcome/', '/home/ian/web/web2py/applications/paideia/', '/home/ian/web/web2py/applications/admin/'])"
p2193
asbasbasbag57
(g73
g59
NtRp2194
(dp2195
g62
(dp2196
sg71
g2169
sg64
(lp2197
g57
(g78
g59
NtRp2198
(dp2199
g62
(dp2200
g82
g83
ssg71
g2194
sg64
(lp2201
g1076
asbag57
(g78
g59
NtRp2202
(dp2203
g62
(dp2204
g89
g90
ssg71
g2194
sg64
(lp2205
S':'
asbag57
(g78
g59
NtRp2206
(dp2207
g62
(dp2208
sg71
g2194
sg64
(lp2209
g57
(g58
g59
NtRp2210
(dp2211
g62
(dp2212
g70
I4
ssg71
g2206
sg64
(lp2213
g1089
asbasbasbag57
(g73
g59
NtRp2214
(dp2215
g62
(dp2216
sg71
g2169
sg64
(lp2217
g57
(g78
g59
NtRp2218
(dp2219
g62
(dp2220
g82
g83
ssg71
g2214
sg64
(lp2221
g1098
asbag57
(g78
g59
NtRp2222
(dp2223
g62
(dp2224
g89
g90
ssg71
g2214
sg64
(lp2225
S':'
asbag57
(g78
g59
NtRp2226
(dp2227
g62
(dp2228
sg71
g2214
sg64
(lp2229
g57
(g58
g59
NtRp2230
(dp2231
g62
(dp2232
g70
I4
ssg71
g2226
sg64
(lp2233
g57
(g66
g59
NtRp2234
(dp2235
g62
(dp2236
g70
I3
ssg71
Nsg64
(lp2237
sbasbasbasbag57
(g73
g59
NtRp2238
(dp2239
g62
(dp2240
sg71
g2169
sg64
(lp2241
g57
(g78
g59
NtRp2242
(dp2243
g62
(dp2244
g82
g83
ssg71
g2238
sg64
(lp2245
g1123
asbag57
(g78
g59
NtRp2246
(dp2247
g62
(dp2248
g89
g90
ssg71
g2238
sg64
(lp2249
S':'
asbag57
(g78
g59
NtRp2250
(dp2251
g62
(dp2252
sg71
g2238
sg64
(lp2253
g57
(g58
g59
NtRp2254
(dp2255
g62
(dp2256
g70
I4
ssg71
g2250
sg64
(lp2257
S"<Values at 0x1b4d758: {'verbose': False, 'ip': '127.0.0.1', 'shutdown_timeout': 5, 'taskbar': False, 'nocron': False, 'pid_filename': 'httpserver.pid', 'maxthreads': None, 'softcron': False, 'server_name': 'uriel', 'bpython': False, 'nogui': False, 'port': 8000, 'extcron': False, 'debuglevel': 30, 'test': None, 'folder': '/home/ian/web/web2py', 'config': '', 'import_models': False, 'winservice': '', 'shell': None, 'run': '', 'log_filename': 'httpserver.log', 'args': [''], 'socket_timeout': 1, 'ssl_ca_certificate': None, 'scheduler': None, 'profiler_filename': None, 'ssl_private_key': '', 'password': '<ask>', 'request_queue_size': 5, 'ssl_certificate': '', 'cronjob': False, 'numthreads': None, 'quiet': False, 'interfaces': None, 'minthreads': None, 'timeout': 10, 'plain': False, 'nobanner': False}>"
p2258
asbasbasbag57
(g73
g59
NtRp2259
(dp2260
g62
(dp2261
sg71
g2169
sg64
(lp2262
g57
(g78
g59
NtRp2263
(dp2264
g62
(dp2265
g82
g83
ssg71
g2259
sg64
(lp2266
g1145
asbag57
(g78
g59
NtRp2267
(dp2268
g62
(dp2269
g89
g90
ssg71
g2259
sg64
(lp2270
S':'
asbag57
(g78
g59
NtRp2271
(dp2272
g62
(dp2273
sg71
g2259
sg64
(lp2274
g57
(g58
g59
NtRp2275
(dp2276
g62
(dp2277
g70
I4
ssg71
g2271
sg64
(lp2278
S'set([])'
p2279
asbasbasbag57
(g73
g59
NtRp2280
(dp2281
g62
(dp2282
sg71
g2169
sg64
(lp2283
g57
(g78
g59
NtRp2284
(dp2285
g62
(dp2286
g82
g83
ssg71
g2280
sg64
(lp2287
g1167
asbag57
(g78
g59
NtRp2288
(dp2289
g62
(dp2290
g89
g90
ssg71
g2280
sg64
(lp2291
S':'
asbag57
(g78
g59
NtRp2292
(dp2293
g62
(dp2294
sg71
g2280
sg64
(lp2295
g57
(g58
g59
NtRp2296
(dp2297
g62
(dp2298
g70
I4
ssg71
g2292
sg64
(lp2299
g1180
asbasbasbag57
(g73
g59
NtRp2300
(dp2301
g62
(dp2302
sg71
g2169
sg64
(lp2303
g57
(g78
g59
NtRp2304
(dp2305
g62
(dp2306
g82
g83
ssg71
g2300
sg64
(lp2307
g1189
asbag57
(g78
g59
NtRp2308
(dp2309
g62
(dp2310
g89
g90
ssg71
g2300
sg64
(lp2311
S':'
asbag57
(g78
g59
NtRp2312
(dp2313
g62
(dp2314
sg71
g2300
sg64
(lp2315
g57
(g58
g59
NtRp2316
(dp2317
g62
(dp2318
g70
I4
ssg71
g2312
sg64
(lp2319
g1202
asbasbasbag57
(g73
g59
NtRp2320
(dp2321
g62
(dp2322
sg71
g2169
sg64
(lp2323
g57
(g78
g59
NtRp2324
(dp2325
g62
(dp2326
g82
g83
ssg71
g2320
sg64
(lp2327
g1452
asbag57
(g78
g59
NtRp2328
(dp2329
g62
(dp2330
g89
g90
ssg71
g2320
sg64
(lp2331
S':'
asbag57
(g78
g59
NtRp2332
(dp2333
g62
(dp2334
sg71
g2320
sg64
(lp2335
g57
(g58
g59
NtRp2336
(dp2337
g62
(dp2338
g70
I4
ssg71
g2332
sg64
(lp2339
g1180
asbasbasbag57
(g73
g59
NtRp2340
(dp2341
g62
(dp2342
sg71
g2169
sg64
(lp2343
g57
(g78
g59
NtRp2344
(dp2345
g62
(dp2346
g82
g83
ssg71
g2340
sg64
(lp2347
g1473
asbag57
(g78
g59
NtRp2348
(dp2349
g62
(dp2350
g89
g90
ssg71
g2340
sg64
(lp2351
S':'
asbag57
(g78
g59
NtRp2352
(dp2353
g62
(dp2354
sg71
g2340
sg64
(lp2355
g57
(g58
g59
NtRp2356
(dp2357
g62
(dp2358
g70
I4
ssg71
g2352
sg64
(lp2359
g1180
asbasbasbag57
(g73
g59
NtRp2360
(dp2361
g62
(dp2362
sg71
g2169
sg64
(lp2363
g57
(g78
g59
NtRp2364
(dp2365
g62
(dp2366
g82
g83
ssg71
g2360
sg64
(lp2367
g1712
asbag57
(g78
g59
NtRp2368
(dp2369
g62
(dp2370
g89
g90
ssg71
g2360
sg64
(lp2371
S':'
asbag57
(g78
g59
NtRp2372
(dp2373
g62
(dp2374
sg71
g2360
sg64
(lp2375
g57
(g58
g59
NtRp2376
(dp2377
g62
(dp2378
g70
I4
ssg71
g2372
sg64
(lp2379
g1725
asbasbasbag57
(g73
g59
NtRp2380
(dp2381
g62
(dp2382
sg71
g2169
sg64
(lp2383
g57
(g78
g59
NtRp2384
(dp2385
g62
(dp2386
g82
g83
ssg71
g2380
sg64
(lp2387
g1755
asbag57
(g78
g59
NtRp2388
(dp2389
g62
(dp2390
g89
g90
ssg71
g2380
sg64
(lp2391
S':'
asbag57
(g78
g59
NtRp2392
(dp2393
g62
(dp2394
sg71
g2380
sg64
(lp2395
g57
(g58
g59
NtRp2396
(dp2397
g62
(dp2398
g70
I4
ssg71
g2392
sg64
(lp2399
g57
(g66
g59
NtRp2400
(dp2401
g62
(dp2402
g70
I3
ssg71
Nsg64
(lp2403
g57
(g73
g59
NtRp2404
(dp2405
g62
(dp2406
sg71
g2400
sg64
(lp2407
g57
(g78
g59
NtRp2408
(dp2409
g62
(dp2410
sg71
g2404
sg64
(lp2411
g57
(g58
g59
NtRp2412
(dp2413
g62
(dp2414
g70
I3
ssg71
g2408
sg64
(lp2415
S'1'
asbasbasbag57
(g73
g59
NtRp2416
(dp2417
g62
(dp2418
sg71
g2400
sg64
(lp2419
g57
(g78
g59
NtRp2420
(dp2421
g62
(dp2422
sg71
g2416
sg64
(lp2423
g57
(g58
g59
NtRp2424
(dp2425
g62
(dp2426
g70
I3
ssg71
g2420
sg64
(lp2427
S'99'
p2428
asbasbasbag57
(g73
g59
NtRp2429
(dp2430
g62
(dp2431
sg71
g2400
sg64
(lp2432
g57
(g78
g59
NtRp2433
(dp2434
g62
(dp2435
sg71
g2429
sg64
(lp2436
g57
(g58
g59
NtRp2437
(dp2438
g62
(dp2439
g70
I3
ssg71
g2433
sg64
(lp2440
S'4'
asbasbasbag57
(g73
g59
NtRp2441
(dp2442
g62
(dp2443
sg71
g2400
sg64
(lp2444
g57
(g78
g59
NtRp2445
(dp2446
g62
(dp2447
sg71
g2441
sg64
(lp2448
g57
(g58
g59
NtRp2449
(dp2450
g62
(dp2451
g70
I3
ssg71
g2445
sg64
(lp2452
S'datetime.datetime(2011, 12, 14, 14, 46, 14)'
p2453
asbasbasbag57
(g73
g59
NtRp2454
(dp2455
g62
(dp2456
sg71
g2400
sg64
(lp2457
g57
(g78
g59
NtRp2458
(dp2459
g62
(dp2460
sg71
g2454
sg64
(lp2461
g57
(g58
g59
NtRp2462
(dp2463
g62
(dp2464
g70
I3
ssg71
g2458
sg64
(lp2465
g1834
asbasbasbasbasbasbasbasbasbasbasbag57
(g73
g59
NtRp2466
(dp2467
g62
(dp2468
sg71
g67
sg64
(lp2469
g57
(g78
g59
NtRp2470
(dp2471
g62
(dp2472
g82
g83
ssg71
g2466
sg64
(lp2473
S'is_https'
p2474
asbag57
(g78
g59
NtRp2475
(dp2476
g62
(dp2477
g89
g90
ssg71
g2466
sg64
(lp2478
S':'
asbag57
(g78
g59
NtRp2479
(dp2480
g62
(dp2481
sg71
g2466
sg64
(lp2482
g57
(g58
g59
NtRp2483
(dp2484
g62
(dp2485
g70
I5
ssg71
g2479
sg64
(lp2486
g1180
asbasbasbag57
(g73
g59
NtRp2487
(dp2488
g62
(dp2489
sg71
g67
sg64
(lp2490
g57
(g78
g59
NtRp2491
(dp2492
g62
(dp2493
g82
g83
ssg71
g2487
sg64
(lp2494
S'is_local'
p2495
asbag57
(g78
g59
NtRp2496
(dp2497
g62
(dp2498
g89
g90
ssg71
g2487
sg64
(lp2499
S':'
asbag57
(g78
g59
NtRp2500
(dp2501
g62
(dp2502
sg71
g2487
sg64
(lp2503
g57
(g58
g59
NtRp2504
(dp2505
g62
(dp2506
g70
I5
ssg71
g2500
sg64
(lp2507
g100
asbasbasbag57
(g73
g59
NtRp2508
(dp2509
g62
(dp2510
sg71
g67
sg64
(lp2511
g57
(g78
g59
NtRp2512
(dp2513
g62
(dp2514
g82
g83
ssg71
g2508
sg64
(lp2515
S'is_restful'
p2516
asbag57
(g78
g59
NtRp2517
(dp2518
g62
(dp2519
g89
g90
ssg71
g2508
sg64
(lp2520
S':'
asbag57
(g78
g59
NtRp2521
(dp2522
g62
(dp2523
sg71
g2508
sg64
(lp2524
g57
(g58
g59
NtRp2525
(dp2526
g62
(dp2527
g70
I5
ssg71
g2521
sg64
(lp2528
g1180
asbasbasbag57
(g73
g59
NtRp2529
(dp2530
g62
(dp2531
sg71
g67
sg64
(lp2532
g57
(g78
g59
NtRp2533
(dp2534
g62
(dp2535
g82
g83
ssg71
g2529
sg64
(lp2536
S'now'
p2537
asbag57
(g78
g59
NtRp2538
(dp2539
g62
(dp2540
g89
g90
ssg71
g2529
sg64
(lp2541
S':'
asbag57
(g78
g59
NtRp2542
(dp2543
g62
(dp2544
sg71
g2529
sg64
(lp2545
g57
(g58
g59
NtRp2546
(dp2547
g62
(dp2548
g70
I5
ssg71
g2542
sg64
(lp2549
S'datetime.datetime(2012, 3, 15, 16, 11, 21, 227797)'
p2550
asbasbasbag57
(g73
g59
NtRp2551
(dp2552
g62
(dp2553
sg71
g67
sg64
(lp2554
g57
(g78
g59
NtRp2555
(dp2556
g62
(dp2557
g82
g83
ssg71
g2551
sg64
(lp2558
S'post_vars'
p2559
asbag57
(g78
g59
NtRp2560
(dp2561
g62
(dp2562
g89
g90
ssg71
g2551
sg64
(lp2563
S':'
asbag57
(g78
g59
NtRp2564
(dp2565
g62
(dp2566
sg71
g2551
sg64
(lp2567
g57
(g58
g59
NtRp2568
(dp2569
g62
(dp2570
g70
I5
ssg71
g2564
sg64
(lp2571
g57
(g66
g59
NtRp2572
(dp2573
g62
(dp2574
g70
I4
ssg71
Nsg64
(lp2575
sbasbasbasbag57
(g73
g59
NtRp2576
(dp2577
g62
(dp2578
sg71
g67
sg64
(lp2579
g57
(g78
g59
NtRp2580
(dp2581
g62
(dp2582
g82
g83
ssg71
g2576
sg64
(lp2583
S'raw_args'
p2584
asbag57
(g78
g59
NtRp2585
(dp2586
g62
(dp2587
g89
g90
ssg71
g2576
sg64
(lp2588
S':'
asbag57
(g78
g59
NtRp2589
(dp2590
g62
(dp2591
sg71
g2576
sg64
(lp2592
g57
(g58
g59
NtRp2593
(dp2594
g62
(dp2595
g70
I5
ssg71
g2589
sg64
(lp2596
g159
asbasbasbag57
(g73
g59
NtRp2597
(dp2598
g62
(dp2599
sg71
g67
sg64
(lp2600
g57
(g78
g59
NtRp2601
(dp2602
g62
(dp2603
g82
g83
ssg71
g2597
sg64
(lp2604
S'raw_extension'
p2605
asbag57
(g78
g59
NtRp2606
(dp2607
g62
(dp2608
g89
g90
ssg71
g2597
sg64
(lp2609
S':'
asbag57
(g78
g59
NtRp2610
(dp2611
g62
(dp2612
sg71
g2597
sg64
(lp2613
g57
(g58
g59
NtRp2614
(dp2615
g62
(dp2616
g70
I5
ssg71
g2610
sg64
(lp2617
g2056
asbasbasbag57
(g73
g59
NtRp2618
(dp2619
g62
(dp2620
sg71
g67
sg64
(lp2621
g57
(g78
g59
NtRp2622
(dp2623
g62
(dp2624
g82
g83
ssg71
g2618
sg64
(lp2625
S'url'
p2626
asbag57
(g78
g59
NtRp2627
(dp2628
g62
(dp2629
g89
g90
ssg71
g2618
sg64
(lp2630
S':'
asbag57
(g78
g59
NtRp2631
(dp2632
g62
(dp2633
sg71
g2618
sg64
(lp2634
g57
(g58
g59
NtRp2635
(dp2636
g62
(dp2637
g70
I5
ssg71
g2631
sg64
(lp2638
S'/paideia/exploring/index.load/ask'
p2639
asbasbasbag57
(g73
g59
NtRp2640
(dp2641
g62
(dp2642
sg71
g67
sg64
(lp2643
g57
(g78
g59
NtRp2644
(dp2645
g62
(dp2646
g82
g83
ssg71
g2640
sg64
(lp2647
S'utcnow'
p2648
asbag57
(g78
g59
NtRp2649
(dp2650
g62
(dp2651
g89
g90
ssg71
g2640
sg64
(lp2652
S':'
asbag57
(g78
g59
NtRp2653
(dp2654
g62
(dp2655
sg71
g2640
sg64
(lp2656
g57
(g58
g59
NtRp2657
(dp2658
g62
(dp2659
g70
I5
ssg71
g2653
sg64
(lp2660
S'datetime.datetime(2012, 3, 15, 20, 11, 21, 227844)'
p2661
asbasbasbag57
(g73
g59
NtRp2662
(dp2663
g62
(dp2664
sg71
g67
sg64
(lp2665
g57
(g78
g59
NtRp2666
(dp2667
g62
(dp2668
g82
g83
ssg71
g2662
sg64
(lp2669
S'uuid'
p2670
asbag57
(g78
g59
NtRp2671
(dp2672
g62
(dp2673
g89
g90
ssg71
g2662
sg64
(lp2674
S':'
asbag57
(g78
g59
NtRp2675
(dp2676
g62
(dp2677
sg71
g2662
sg64
(lp2678
g57
(g58
g59
NtRp2679
(dp2680
g62
(dp2681
g70
I5
ssg71
g2675
sg64
(lp2682
S'paideia/127.0.0.1.2012-03-15.16-11-21.32ae185b-aa10-430c-83ca-3311c9e7a9ce'
p2683
asbasbasbag57
(g73
g59
NtRp2684
(dp2685
g62
(dp2686
sg71
g67
sg64
(lp2687
g57
(g78
g59
NtRp2688
(dp2689
g62
(dp2690
g82
g83
ssg71
g2684
sg64
(lp2691
S'vars'
p2692
asbag57
(g78
g59
NtRp2693
(dp2694
g62
(dp2695
g89
g90
ssg71
g2684
sg64
(lp2696
S':'
asbag57
(g78
g59
NtRp2697
(dp2698
g62
(dp2699
sg71
g2684
sg64
(lp2700
g57
(g58
g59
NtRp2701
(dp2702
g62
(dp2703
g70
I5
ssg71
g2697
sg64
(lp2704
g57
(g66
g59
NtRp2705
(dp2706
g62
(dp2707
g70
I4
ssg71
Nsg64
(lp2708
g57
(g73
g59
NtRp2709
(dp2710
g62
(dp2711
sg71
g2705
sg64
(lp2712
g57
(g78
g59
NtRp2713
(dp2714
g62
(dp2715
g82
g83
ssg71
g2709
sg64
(lp2716
g2134
asbag57
(g78
g59
NtRp2717
(dp2718
g62
(dp2719
g89
g90
ssg71
g2709
sg64
(lp2720
S':'
asbag57
(g78
g59
NtRp2721
(dp2722
g62
(dp2723
sg71
g2709
sg64
(lp2724
g57
(g58
g59
NtRp2725
(dp2726
g62
(dp2727
g70
I4
ssg71
g2721
sg64
(lp2728
g2147
asbasbasbasbasbasbasbag57
(g73
g59
NtRp2729
(dp2730
g62
(dp2731
sg71
g67
sg64
(lp2732
g57
(g78
g59
NtRp2733
(dp2734
g62
(dp2735
g82
g83
ssg71
g2729
sg64
(lp2736
S'wsgi'
p2737
asbag57
(g78
g59
NtRp2738
(dp2739
g62
(dp2740
g89
g90
ssg71
g2729
sg64
(lp2741
S':'
asbag57
(g78
g59
NtRp2742
(dp2743
g62
(dp2744
sg71
g2729
sg64
(lp2745
g57
(g58
g59
NtRp2746
(dp2747
g62
(dp2748
g70
I5
ssg71
g2742
sg64
(lp2749
g57
(g66
g59
NtRp2750
(dp2751
g62
(dp2752
g70
I4
ssg71
Nsg64
(lp2753
g57
(g73
g59
NtRp2754
(dp2755
g62
(dp2756
sg71
g2750
sg64
(lp2757
g57
(g78
g59
NtRp2758
(dp2759
g62
(dp2760
g82
g83
ssg71
g2754
sg64
(lp2761
S'environ'
p2762
asbag57
(g78
g59
NtRp2763
(dp2764
g62
(dp2765
g89
g90
ssg71
g2754
sg64
(lp2766
S':'
asbag57
(g78
g59
NtRp2767
(dp2768
g62
(dp2769
sg71
g2754
sg64
(lp2770
g57
(g58
g59
NtRp2771
(dp2772
g62
(dp2773
g70
I4
ssg71
g2767
sg64
(lp2774
g57
(g66
g59
NtRp2775
(dp2776
g62
(dp2777
g70
I3
ssg71
Nsg64
(lp2778
g57
(g73
g59
NtRp2779
(dp2780
g62
(dp2781
sg71
g2775
sg64
(lp2782
g57
(g78
g59
NtRp2783
(dp2784
g62
(dp2785
g82
g83
ssg71
g2779
sg64
(lp2786
S'HTTP_ACCEPT'
p2787
asbag57
(g78
g59
NtRp2788
(dp2789
g62
(dp2790
g89
g90
ssg71
g2779
sg64
(lp2791
S':'
asbag57
(g78
g59
NtRp2792
(dp2793
g62
(dp2794
sg71
g2779
sg64
(lp2795
g57
(g58
g59
NtRp2796
(dp2797
g62
(dp2798
g70
I3
ssg71
g2792
sg64
(lp2799
g1224
asbasbasbag57
(g73
g59
NtRp2800
(dp2801
g62
(dp2802
sg71
g2775
sg64
(lp2803
g57
(g78
g59
NtRp2804
(dp2805
g62
(dp2806
g82
g83
ssg71
g2800
sg64
(lp2807
S'HTTP_ACCEPT_ENCODING'
p2808
asbag57
(g78
g59
NtRp2809
(dp2810
g62
(dp2811
g89
g90
ssg71
g2800
sg64
(lp2812
S':'
asbag57
(g78
g59
NtRp2813
(dp2814
g62
(dp2815
sg71
g2800
sg64
(lp2816
g57
(g58
g59
NtRp2817
(dp2818
g62
(dp2819
g70
I3
ssg71
g2813
sg64
(lp2820
g1246
asbasbasbag57
(g73
g59
NtRp2821
(dp2822
g62
(dp2823
sg71
g2775
sg64
(lp2824
g57
(g78
g59
NtRp2825
(dp2826
g62
(dp2827
g82
g83
ssg71
g2821
sg64
(lp2828
S'HTTP_ACCEPT_LANGUAGE'
p2829
asbag57
(g78
g59
NtRp2830
(dp2831
g62
(dp2832
g89
g90
ssg71
g2821
sg64
(lp2833
S':'
asbag57
(g78
g59
NtRp2834
(dp2835
g62
(dp2836
sg71
g2821
sg64
(lp2837
g57
(g58
g59
NtRp2838
(dp2839
g62
(dp2840
g70
I3
ssg71
g2834
sg64
(lp2841
g1268
asbasbasbag57
(g73
g59
NtRp2842
(dp2843
g62
(dp2844
sg71
g2775
sg64
(lp2845
g57
(g78
g59
NtRp2846
(dp2847
g62
(dp2848
g82
g83
ssg71
g2842
sg64
(lp2849
S'HTTP_CONNECTION'
p2850
asbag57
(g78
g59
NtRp2851
(dp2852
g62
(dp2853
g89
g90
ssg71
g2842
sg64
(lp2854
S':'
asbag57
(g78
g59
NtRp2855
(dp2856
g62
(dp2857
sg71
g2842
sg64
(lp2858
g57
(g58
g59
NtRp2859
(dp2860
g62
(dp2861
g70
I3
ssg71
g2855
sg64
(lp2862
g1290
asbasbasbag57
(g73
g59
NtRp2863
(dp2864
g62
(dp2865
sg71
g2775
sg64
(lp2866
g57
(g78
g59
NtRp2867
(dp2868
g62
(dp2869
g82
g83
ssg71
g2863
sg64
(lp2870
S'HTTP_COOKIE'
p2871
asbag57
(g78
g59
NtRp2872
(dp2873
g62
(dp2874
g89
g90
ssg71
g2863
sg64
(lp2875
S':'
asbag57
(g78
g59
NtRp2876
(dp2877
g62
(dp2878
sg71
g2863
sg64
(lp2879
g57
(g58
g59
NtRp2880
(dp2881
g62
(dp2882
g70
I3
ssg71
g2876
sg64
(lp2883
g1312
asbasbasbag57
(g73
g59
NtRp2884
(dp2885
g62
(dp2886
sg71
g2775
sg64
(lp2887
g57
(g78
g59
NtRp2888
(dp2889
g62
(dp2890
g82
g83
ssg71
g2884
sg64
(lp2891
S'HTTP_HOST'
p2892
asbag57
(g78
g59
NtRp2893
(dp2894
g62
(dp2895
g89
g90
ssg71
g2884
sg64
(lp2896
S':'
asbag57
(g78
g59
NtRp2897
(dp2898
g62
(dp2899
sg71
g2884
sg64
(lp2900
g57
(g58
g59
NtRp2901
(dp2902
g62
(dp2903
g70
I3
ssg71
g2897
sg64
(lp2904
g1334
asbasbasbag57
(g73
g59
NtRp2905
(dp2906
g62
(dp2907
sg71
g2775
sg64
(lp2908
g57
(g78
g59
NtRp2909
(dp2910
g62
(dp2911
g82
g83
ssg71
g2905
sg64
(lp2912
S'HTTP_REFERER'
p2913
asbag57
(g78
g59
NtRp2914
(dp2915
g62
(dp2916
g89
g90
ssg71
g2905
sg64
(lp2917
S':'
asbag57
(g78
g59
NtRp2918
(dp2919
g62
(dp2920
sg71
g2905
sg64
(lp2921
g57
(g58
g59
NtRp2922
(dp2923
g62
(dp2924
g70
I3
ssg71
g2918
sg64
(lp2925
g1356
asbasbasbag57
(g73
g59
NtRp2926
(dp2927
g62
(dp2928
sg71
g2775
sg64
(lp2929
g57
(g78
g59
NtRp2930
(dp2931
g62
(dp2932
g82
g83
ssg71
g2926
sg64
(lp2933
S'HTTP_USER_AGENT'
p2934
asbag57
(g78
g59
NtRp2935
(dp2936
g62
(dp2937
g89
g90
ssg71
g2926
sg64
(lp2938
S':'
asbag57
(g78
g59
NtRp2939
(dp2940
g62
(dp2941
sg71
g2926
sg64
(lp2942
g57
(g58
g59
NtRp2943
(dp2944
g62
(dp2945
g70
I3
ssg71
g2939
sg64
(lp2946
g1378
asbasbasbag57
(g73
g59
NtRp2947
(dp2948
g62
(dp2949
sg71
g2775
sg64
(lp2950
g57
(g78
g59
NtRp2951
(dp2952
g62
(dp2953
g82
g83
ssg71
g2947
sg64
(lp2954
S'HTTP_WEB2PY_COMPONENT_ELEMENT'
p2955
asbag57
(g78
g59
NtRp2956
(dp2957
g62
(dp2958
g89
g90
ssg71
g2947
sg64
(lp2959
S':'
asbag57
(g78
g59
NtRp2960
(dp2961
g62
(dp2962
sg71
g2947
sg64
(lp2963
g57
(g58
g59
NtRp2964
(dp2965
g62
(dp2966
g70
I3
ssg71
g2960
sg64
(lp2967
g203
asbasbasbag57
(g73
g59
NtRp2968
(dp2969
g62
(dp2970
sg71
g2775
sg64
(lp2971
g57
(g78
g59
NtRp2972
(dp2973
g62
(dp2974
g82
g83
ssg71
g2968
sg64
(lp2975
S'HTTP_WEB2PY_COMPONENT_LOCATION'
p2976
asbag57
(g78
g59
NtRp2977
(dp2978
g62
(dp2979
g89
g90
ssg71
g2968
sg64
(lp2980
S':'
asbag57
(g78
g59
NtRp2981
(dp2982
g62
(dp2983
sg71
g2968
sg64
(lp2984
g57
(g58
g59
NtRp2985
(dp2986
g62
(dp2987
g70
I3
ssg71
g2981
sg64
(lp2988
g1421
asbasbasbag57
(g73
g59
NtRp2989
(dp2990
g62
(dp2991
sg71
g2775
sg64
(lp2992
g57
(g78
g59
NtRp2993
(dp2994
g62
(dp2995
g82
g83
ssg71
g2989
sg64
(lp2996
S'HTTP_X_REQUESTED_WITH'
p2997
asbag57
(g78
g59
NtRp2998
(dp2999
g62
(dp3000
g89
g90
ssg71
g2989
sg64
(lp3001
S':'
asbag57
(g78
g59
NtRp3002
(dp3003
g62
(dp3004
sg71
g2989
sg64
(lp3005
g57
(g58
g59
NtRp3006
(dp3007
g62
(dp3008
g70
I3
ssg71
g3002
sg64
(lp3009
g1443
asbasbasbag57
(g73
g59
NtRp3010
(dp3011
g62
(dp3012
sg71
g2775
sg64
(lp3013
g57
(g78
g59
NtRp3014
(dp3015
g62
(dp3016
g82
g83
ssg71
g3010
sg64
(lp3017
S'PATH_INFO'
p3018
asbag57
(g78
g59
NtRp3019
(dp3020
g62
(dp3021
g89
g90
ssg71
g3010
sg64
(lp3022
S':'
asbag57
(g78
g59
NtRp3023
(dp3024
g62
(dp3025
sg71
g3010
sg64
(lp3026
g57
(g58
g59
NtRp3027
(dp3028
g62
(dp3029
g70
I3
ssg71
g3023
sg64
(lp3030
g1507
asbasbasbag57
(g73
g59
NtRp3031
(dp3032
g62
(dp3033
sg71
g2775
sg64
(lp3034
g57
(g78
g59
NtRp3035
(dp3036
g62
(dp3037
g82
g83
ssg71
g3031
sg64
(lp3038
S'QUERY_STRING'
p3039
asbag57
(g78
g59
NtRp3040
(dp3041
g62
(dp3042
g89
g90
ssg71
g3031
sg64
(lp3043
S':'
asbag57
(g78
g59
NtRp3044
(dp3045
g62
(dp3046
sg71
g3031
sg64
(lp3047
g57
(g58
g59
NtRp3048
(dp3049
g62
(dp3050
g70
I3
ssg71
g3044
sg64
(lp3051
g1529
asbasbasbag57
(g73
g59
NtRp3052
(dp3053
g62
(dp3054
sg71
g2775
sg64
(lp3055
g57
(g78
g59
NtRp3056
(dp3057
g62
(dp3058
g82
g83
ssg71
g3052
sg64
(lp3059
S'REMOTE_ADDR'
p3060
asbag57
(g78
g59
NtRp3061
(dp3062
g62
(dp3063
g89
g90
ssg71
g3052
sg64
(lp3064
S':'
asbag57
(g78
g59
NtRp3065
(dp3066
g62
(dp3067
sg71
g3052
sg64
(lp3068
g57
(g58
g59
NtRp3069
(dp3070
g62
(dp3071
g70
I3
ssg71
g3065
sg64
(lp3072
g225
asbasbasbag57
(g73
g59
NtRp3073
(dp3074
g62
(dp3075
sg71
g2775
sg64
(lp3076
g57
(g78
g59
NtRp3077
(dp3078
g62
(dp3079
g82
g83
ssg71
g3073
sg64
(lp3080
S'REMOTE_PORT'
p3081
asbag57
(g78
g59
NtRp3082
(dp3083
g62
(dp3084
g89
g90
ssg71
g3073
sg64
(lp3085
S':'
asbag57
(g78
g59
NtRp3086
(dp3087
g62
(dp3088
sg71
g3073
sg64
(lp3089
g57
(g58
g59
NtRp3090
(dp3091
g62
(dp3092
g70
I3
ssg71
g3086
sg64
(lp3093
g1572
asbasbasbag57
(g73
g59
NtRp3094
(dp3095
g62
(dp3096
sg71
g2775
sg64
(lp3097
g57
(g78
g59
NtRp3098
(dp3099
g62
(dp3100
g82
g83
ssg71
g3094
sg64
(lp3101
S'REQUEST_METHOD'
p3102
asbag57
(g78
g59
NtRp3103
(dp3104
g62
(dp3105
g89
g90
ssg71
g3094
sg64
(lp3106
S':'
asbag57
(g78
g59
NtRp3107
(dp3108
g62
(dp3109
sg71
g3094
sg64
(lp3110
g57
(g58
g59
NtRp3111
(dp3112
g62
(dp3113
g70
I3
ssg71
g3107
sg64
(lp3114
g1594
asbasbasbag57
(g73
g59
NtRp3115
(dp3116
g62
(dp3117
sg71
g2775
sg64
(lp3118
g57
(g78
g59
NtRp3119
(dp3120
g62
(dp3121
g82
g83
ssg71
g3115
sg64
(lp3122
S'SCRIPT_NAME'
p3123
asbag57
(g78
g59
NtRp3124
(dp3125
g62
(dp3126
g89
g90
ssg71
g3115
sg64
(lp3127
S':'
asbag57
(g78
g59
NtRp3128
(dp3129
g62
(dp3130
sg71
g3115
sg64
(lp3131
g57
(g58
g59
NtRp3132
(dp3133
g62
(dp3134
g70
I3
ssg71
g3128
sg64
(lp3135
S''
asbasbasbag57
(g73
g59
NtRp3136
(dp3137
g62
(dp3138
sg71
g2775
sg64
(lp3139
g57
(g78
g59
NtRp3140
(dp3141
g62
(dp3142
g82
g83
ssg71
g3136
sg64
(lp3143
S'SERVER_NAME'
p3144
asbag57
(g78
g59
NtRp3145
(dp3146
g62
(dp3147
g89
g90
ssg71
g3136
sg64
(lp3148
S':'
asbag57
(g78
g59
NtRp3149
(dp3150
g62
(dp3151
sg71
g3136
sg64
(lp3152
g57
(g58
g59
NtRp3153
(dp3154
g62
(dp3155
g70
I3
ssg71
g3149
sg64
(lp3156
g1637
asbasbasbag57
(g73
g59
NtRp3157
(dp3158
g62
(dp3159
sg71
g2775
sg64
(lp3160
g57
(g78
g59
NtRp3161
(dp3162
g62
(dp3163
g82
g83
ssg71
g3157
sg64
(lp3164
S'SERVER_PORT'
p3165
asbag57
(g78
g59
NtRp3166
(dp3167
g62
(dp3168
g89
g90
ssg71
g3157
sg64
(lp3169
S':'
asbag57
(g78
g59
NtRp3170
(dp3171
g62
(dp3172
sg71
g3157
sg64
(lp3173
g57
(g58
g59
NtRp3174
(dp3175
g62
(dp3176
g70
I3
ssg71
g3170
sg64
(lp3177
g1659
asbasbasbag57
(g73
g59
NtRp3178
(dp3179
g62
(dp3180
sg71
g2775
sg64
(lp3181
g57
(g78
g59
NtRp3182
(dp3183
g62
(dp3184
g82
g83
ssg71
g3178
sg64
(lp3185
S'SERVER_PROTOCOL'
p3186
asbag57
(g78
g59
NtRp3187
(dp3188
g62
(dp3189
g89
g90
ssg71
g3178
sg64
(lp3190
S':'
asbag57
(g78
g59
NtRp3191
(dp3192
g62
(dp3193
sg71
g3178
sg64
(lp3194
g57
(g58
g59
NtRp3195
(dp3196
g62
(dp3197
g70
I3
ssg71
g3191
sg64
(lp3198
g1681
asbasbasbag57
(g73
g59
NtRp3199
(dp3200
g62
(dp3201
sg71
g2775
sg64
(lp3202
g57
(g78
g59
NtRp3203
(dp3204
g62
(dp3205
g82
g83
ssg71
g3199
sg64
(lp3206
S'SERVER_SOFTWARE'
p3207
asbag57
(g78
g59
NtRp3208
(dp3209
g62
(dp3210
g89
g90
ssg71
g3199
sg64
(lp3211
S':'
asbag57
(g78
g59
NtRp3212
(dp3213
g62
(dp3214
sg71
g3199
sg64
(lp3215
g57
(g58
g59
NtRp3216
(dp3217
g62
(dp3218
g70
I3
ssg71
g3212
sg64
(lp3219
g1703
asbasbasbag57
(g73
g59
NtRp3220
(dp3221
g62
(dp3222
sg71
g2775
sg64
(lp3223
g57
(g78
g59
NtRp3224
(dp3225
g62
(dp3226
g82
g83
ssg71
g3220
sg64
(lp3227
S'wsgi.errors'
p3228
asbag57
(g78
g59
NtRp3229
(dp3230
g62
(dp3231
g89
g90
ssg71
g3220
sg64
(lp3232
S':'
asbag57
(g78
g59
NtRp3233
(dp3234
g62
(dp3235
sg71
g3220
sg64
(lp3236
g57
(g58
g59
NtRp3237
(dp3238
g62
(dp3239
g70
I3
ssg71
g3233
sg64
(lp3240
S"<open file '<stderr>', mode 'w' at 0x7fbc88466270>"
p3241
asbasbasbag57
(g73
g59
NtRp3242
(dp3243
g62
(dp3244
sg71
g2775
sg64
(lp3245
g57
(g78
g59
NtRp3246
(dp3247
g62
(dp3248
g82
g83
ssg71
g3242
sg64
(lp3249
S'wsgi.file_wrapper'
p3250
asbag57
(g78
g59
NtRp3251
(dp3252
g62
(dp3253
g89
g90
ssg71
g3242
sg64
(lp3254
S':'
asbag57
(g78
g59
NtRp3255
(dp3256
g62
(dp3257
sg71
g3242
sg64
(lp3258
g57
(g58
g59
NtRp3259
(dp3260
g62
(dp3261
g70
I3
ssg71
g3255
sg64
(lp3262
S'<class wsgiref.util.FileWrapper at 0x1a17d50>'
p3263
asbasbasbag57
(g73
g59
NtRp3264
(dp3265
g62
(dp3266
sg71
g2775
sg64
(lp3267
g57
(g78
g59
NtRp3268
(dp3269
g62
(dp3270
g82
g83
ssg71
g3264
sg64
(lp3271
S'wsgi.input'
p3272
asbag57
(g78
g59
NtRp3273
(dp3274
g62
(dp3275
g89
g90
ssg71
g3264
sg64
(lp3276
S':'
asbag57
(g78
g59
NtRp3277
(dp3278
g62
(dp3279
sg71
g3264
sg64
(lp3280
g57
(g58
g59
NtRp3281
(dp3282
g62
(dp3283
g70
I3
ssg71
g3277
sg64
(lp3284
S'<cStringIO.StringO object at 0x7fbc602dc5a8>'
p3285
asbasbasbag57
(g73
g59
NtRp3286
(dp3287
g62
(dp3288
sg71
g2775
sg64
(lp3289
g57
(g78
g59
NtRp3290
(dp3291
g62
(dp3292
g82
g83
ssg71
g3286
sg64
(lp3293
S'wsgi.multiprocess'
p3294
asbag57
(g78
g59
NtRp3295
(dp3296
g62
(dp3297
g89
g90
ssg71
g3286
sg64
(lp3298
S':'
asbag57
(g78
g59
NtRp3299
(dp3300
g62
(dp3301
sg71
g3286
sg64
(lp3302
g57
(g58
g59
NtRp3303
(dp3304
g62
(dp3305
g70
I3
ssg71
g3299
sg64
(lp3306
g1180
asbasbasbag57
(g73
g59
NtRp3307
(dp3308
g62
(dp3309
sg71
g2775
sg64
(lp3310
g57
(g78
g59
NtRp3311
(dp3312
g62
(dp3313
g82
g83
ssg71
g3307
sg64
(lp3314
S'wsgi.multithread'
p3315
asbag57
(g78
g59
NtRp3316
(dp3317
g62
(dp3318
g89
g90
ssg71
g3307
sg64
(lp3319
S':'
asbag57
(g78
g59
NtRp3320
(dp3321
g62
(dp3322
sg71
g3307
sg64
(lp3323
g57
(g58
g59
NtRp3324
(dp3325
g62
(dp3326
g70
I3
ssg71
g3320
sg64
(lp3327
g100
asbasbasbag57
(g73
g59
NtRp3328
(dp3329
g62
(dp3330
sg71
g2775
sg64
(lp3331
g57
(g78
g59
NtRp3332
(dp3333
g62
(dp3334
g82
g83
ssg71
g3328
sg64
(lp3335
S'wsgi.run_once'
p3336
asbag57
(g78
g59
NtRp3337
(dp3338
g62
(dp3339
g89
g90
ssg71
g3328
sg64
(lp3340
S':'
asbag57
(g78
g59
NtRp3341
(dp3342
g62
(dp3343
sg71
g3328
sg64
(lp3344
g57
(g58
g59
NtRp3345
(dp3346
g62
(dp3347
g70
I3
ssg71
g3341
sg64
(lp3348
g1180
asbasbasbag57
(g73
g59
NtRp3349
(dp3350
g62
(dp3351
sg71
g2775
sg64
(lp3352
g57
(g78
g59
NtRp3353
(dp3354
g62
(dp3355
g82
g83
ssg71
g3349
sg64
(lp3356
S'wsgi.url_scheme'
p3357
asbag57
(g78
g59
NtRp3358
(dp3359
g62
(dp3360
g89
g90
ssg71
g3349
sg64
(lp3361
S':'
asbag57
(g78
g59
NtRp3362
(dp3363
g62
(dp3364
sg71
g3349
sg64
(lp3365
g57
(g58
g59
NtRp3366
(dp3367
g62
(dp3368
g70
I3
ssg71
g3362
sg64
(lp3369
g1985
asbasbasbag57
(g73
g59
NtRp3370
(dp3371
g62
(dp3372
sg71
g2775
sg64
(lp3373
g57
(g78
g59
NtRp3374
(dp3375
g62
(dp3376
g82
g83
ssg71
g3370
sg64
(lp3377
S'wsgi.version'
p3378
asbag57
(g78
g59
NtRp3379
(dp3380
g62
(dp3381
g89
g90
ssg71
g3370
sg64
(lp3382
S':'
asbag57
(g78
g59
NtRp3383
(dp3384
g62
(dp3385
sg71
g3370
sg64
(lp3386
g57
(g58
g59
NtRp3387
(dp3388
g62
(dp3389
g70
I3
ssg71
g3383
sg64
(lp3390
S'1'
asbasbasbasbasbasbasbasbasbasbasbasbasbsS'frames'
p3391
(lp3392
(dp3393
S'file'
p3394
S'/home/ian/web/web2py/gluon/restricted.py'
p3395
sS'dump'
p3396
(dp3397
S'environment'
p3398
S"{'A': <class 'gluon.html.A'>, 'AjaxSelect': <class applications.paideia.modules.plugin_ajaxselect.AjaxSelect>, 'Auth': <class 'gluon.tools.Auth'>, 'B': <class 'gluon.html.B'>, 'BEAUTIFY': <class 'gluon.html.BEAUTIFY'>, 'BODY': <class 'gluon.html.BODY'>, 'BR': <class 'gluon.html.BR'>, 'BUTTON': <class 'gluon.html.BUTTON'>, 'CAT': <class 'gluon.html.CAT'>, 'CENTER': <class 'gluon.html.CENTER'>, ...}"
p3399
sS'ccode'
p3400
S'<code object <module> at 0x7fbc58468330, file "/...ations/paideia/controllers/exploring.py", line 2>'
p3401
ssS'lnum'
p3402
I204
sS'lines'
p3403
(dp3404
I199
S'    try:'
p3405
sI200
S'        if type(code) == types.CodeType:'
p3406
sI201
S'            ccode = code'
p3407
sI202
S'        else:'
p3408
sI203
S'            ccode = compile2(code,layer)'
p3409
sI204
S'        exec ccode in environment'
p3410
sI205
S'    except HTTP:'
p3411
sI206
S'        raise'
p3412
sI207
S'    except RestrictedError:'
p3413
sI208
S'        # do not encapsulate (obfuscate) the original RestrictedError'
p3414
ssS'call'
p3415
S"(code='# coding: utf8\\nfrom paideia_exploring import pai...herror()\\n\\nresponse._vars=response._caller(index)\\n', environment={'A': <class 'gluon.html.A'>, 'AjaxSelect': <class applications.paideia.modules.plugin_ajaxselect.AjaxSelect>, 'Auth': <class 'gluon.tools.Auth'>, 'B': <class 'gluon.html.B'>, 'BEAUTIFY': <class 'gluon.html.BEAUTIFY'>, 'BODY': <class 'gluon.html.BODY'>, 'BR': <class 'gluon.html.BR'>, 'BUTTON': <class 'gluon.html.BUTTON'>, 'CAT': <class 'gluon.html.CAT'>, 'CENTER': <class 'gluon.html.CENTER'>, ...}, layer='/home/ian/web/web2py/applications/paideia/controllers/exploring.py')"
p3416
sS'func'
p3417
S'restricted'
p3418
sa(dp3419
g3394
S'/home/ian/web/web2py/applications/paideia/controllers/exploring.py'
p3420
sg3396
(dp3421
sg3402
I104
sg3403
(dp3422
I96
S''
sI97
S'    #after submitting answer'
p3423
sI98
S"    elif request.args(0) == 'reply':"
p3424
sI99
S'        return stepreply()'
p3425
sI100
S''
sI101
S"    elif request.args(0) == 'error':"
p3426
sI102
S'        return patherror()'
p3427
sI93
S"    #after user selects quiz (or 'next question')"
p3428
sI94
S"    elif request.args(0) == 'ask':"
p3429
sI95
S'        return step_init()'
p3430
ssg3415
S'()'
p3431
sg3417
S'<module>'
p3432
sa(dp3433
g3394
S'/home/ian/web/web2py/gluon/globals.py'
p3434
sg3396
(dp3435
S'self'
p3436
S'undefined'
p3437
sS'f'
S'<function index>'
p3438
ssg3402
I172
sg3403
(dp3439
I167
S'        self.meta = Storage()      # used by web2py_ajax.html'
p3440
sI168
S'        self.menu = []             # used by the default view layout'
p3441
sI169
S'        self.files = []            # used by web2py_ajax.html'
p3442
sI170
S'        self.generic_patterns = [] # patterns to allow generic views'
p3443
sI171
S'        self._vars = None'
p3444
sI172
S'        self._caller = lambda f: f()'
p3445
sI173
S'        self._view_environment = None'
p3446
sI174
S'        self._custom_commit = None'
p3447
sI175
S'        self._custom_rollback = None'
p3448
sI176
S''
ssg3415
S'(f=<function index>)'
p3449
sg3417
S'<lambda>'
p3450
sa(dp3451
g3394
S'/home/ian/web/web2py/gluon/tools.py'
p3452
sg3396
(dp3453
S'action'
p3454
S'<function index>'
p3455
sS'a'
S'()'
p3456
sS'b'
g45
ssg3402
I2533
sg3403
(dp3457
I2528
S'                # otherwise case 3 would be ok.'
p3458
sI2529
S'                if not (callable(condition) and condition() == True) and not condition == True:'
p3459
sI2530
S'                    current.session.flash = self.messages.access_denied'
p3460
sI2531
S'                    return call_or_redirect('
p3461
sI2532
S'                        self.settings.on_failed_authorization)'
p3462
sI2533
S'                return action(*a, **b)'
p3463
sI2534
S'            f.__doc__ = action.__doc__'
p3464
sI2535
S'            f.__name__ = action.__name__'
p3465
sI2536
S'            f.__dict__.update(action.__dict__)'
p3466
sI2537
S'            return f'
p3467
ssg3415
S'(*a=(), **b={})'
p3468
sg3417
S'f'
sa(dp3469
g3394
S'/home/ian/web/web2py/applications/paideia/controllers/exploring.py'
p3470
sg3396
(dp3471
S'global step_init'
p3472
S'<function step_init>'
p3473
ssg3402
I95
sg3403
(dp3474
I96
S''
sI97
S'    #after submitting answer'
p3475
sI98
S"    elif request.args(0) == 'reply':"
p3476
sI99
S'        return stepreply()'
p3477
sI90
S''
sI91
S'        return dict(locs=the_map.locs, map_image=the_map.image)'
p3478
sI92
S''
sI93
S"    #after user selects quiz (or 'next question')"
p3479
sI94
S"    elif request.args(0) == 'ask':"
p3480
sI95
S'        return step_init()'
p3481
ssg3415
S'()'
p3482
sg3417
S'index'
p3483
sa(dp3484
g3394
S'/home/ian/web/web2py/applications/paideia/controllers/exploring.py'
p3485
sg3396
(dp3486
S'path_result'
p3487
g3437
sS'path'
p3488
S'<applications.paideia.modules.paideia_exploring.paideia_path instance>'
p3489
sS'path.pick'
p3490
S'<bound method paideia_path.pick of <applications...modules.paideia_exploring.paideia_path instance>>'
p3491
ssg3402
I21
sg3403
(dp3492
I16
S'    session.active_paths = path.find_unfinished()'
p3493
sI17
S"    print 'returned unfinished paths'"
p3494
sI18
S''
sI19
S'def step_init():'
p3495
sI20
S'    path = paideia_path()'
p3496
sI21
S'    path_result = path.pick()'
p3497
sI22
S"    return dict(path = path_result['path'], step = path_result['step'])"
p3498
sI23
S''
sI24
S'def stepask():'
p3499
sI25
S''
ssg3415
S'()'
p3500
sg3417
S'step_init'
p3501
sa(dp3502
g3394
S'/home/ian/web/web2py/applications/paideia/modules/paideia_exploring.py'
p3503
sg3396
(dp3504
S'p'
g3437
sS'self'
p3505
S'<applications.paideia.modules.paideia_exploring.paideia_path instance>'
p3506
sS'self.find_paths'
p3507
S'<bound method paideia_path.find_paths of <applic...modules.paideia_exploring.paideia_path instance>>'
p3508
sS'curr_loc'
p3509
S"<Row {'update_record': <function <lambda> at 0x7..._record': <function <lambda> at 0x7fbc5c16fde8>}>"
p3510
sS'cat'
p3511
S'2'
ssg3402
I196
sg3403
(dp3512
I192
S'        else:'
p3513
sI193
S'            cat = 4'
p3514
sI194
S''
sI195
S'        #look for a new path to begin, starting with selected category'
p3515
sI196
S'        p = self.find_paths(cat, curr_loc)'
p3516
sI197
S"        category = p['c']"
p3517
sI198
S"        paths = p['catXpaths']"
p3518
sI199
S'        path_count = len(paths.as_list())'
p3519
sI200
S"        print 'selected ', path_count, ' paths from category ', \\"
p3520
sI191
S'            cat = 3'
p3521
ssg3415
S'(self=<applications.paideia.modules.paideia_exploring.paideia_path instance>)'
p3522
sg3417
S'pick'
p3523
sa(dp3524
g3394
S'/home/ian/web/web2py/applications/paideia/modules/paideia_exploring.py'
p3525
sg3396
(dp3526
S'builtinlen'
p3527
S'<built-in function len>'
p3528
sS'c'
S'2'
sS'session'
p3529
S"<Storage {'paths_npcs_loader': None, 'last_query...ths/3]': '01e4c29e-9e70-4dcd-9939-48bd80d63bf1'}>"
p3530
sS'session.tagset'
p3531
S'{1: [44, 44, 44, 44, 44, 18, 6, 1, 33, 31, 12, 2, 14, 7, 8, 16, 4, 3, 35, 17, ...], 2: [], 3: [], 4: []}'
p3532
ssg3402
I224
sg3403
(dp3533
I224
S'            for k in db(paths).select():'
p3534
sI225
S'                print k.locations'
p3535
sI226
S'                print k.tags'
p3536
sI227
S''
sI228
S'            if len(session.tagset[c]) > 0:'
p3537
sI219
S'        #until some available paths are found'
p3538
sI220
S'        cats = [1,2,3,4]'
p3539
sI221
S'        for c in cats[cats.index(cat):] + cats[:cats.index(cat)]:'
p3540
sI222
S'            #if any tags in this category, look for paths with these tags'
p3541
sI223
S'            #that can be started in this location.'
p3542
ssg3415
S"(self=<applications.paideia.modules.paideia_exploring.paideia_path instance>, cat=2, curr_loc=<Row {'update_record': <function <lambda> at 0x7..._record': <function <lambda> at 0x7fbc5c16fde8>}>)"
p3543
sg3417
S'find_paths'
p3544
sasS'pyver'
p3545
S'Python 2.7.3rc1: /usr/bin/python2.7'
p3546
sS'session'
p3547
g57
(g58
g59
NtRp3548
(dp3549
g62
(dp3550
sg64
(lp3551
g57
(g66
g59
NtRp3552
(dp3553
g62
(dp3554
g70
I5
ssg71
Nsg64
(lp3555
g57
(g73
g59
NtRp3556
(dp3557
g62
(dp3558
sg71
g3552
sg64
(lp3559
g57
(g78
g59
NtRp3560
(dp3561
g62
(dp3562
g82
g83
ssg71
g3556
sg64
(lp3563
S'active_paths'
p3564
asbag57
(g78
g59
NtRp3565
(dp3566
g62
(dp3567
g89
g90
ssg71
g3556
sg64
(lp3568
S':'
asbag57
(g78
g59
NtRp3569
(dp3570
g62
(dp3571
sg71
g3556
sg64
(lp3572
g57
(g58
g59
NtRp3573
(dp3574
g62
(dp3575
g70
I5
ssg71
g3569
sg64
(lp3576
S'None'
p3577
asbasbasbag57
(g73
g59
NtRp3578
(dp3579
g62
(dp3580
sg71
g3552
sg64
(lp3581
g57
(g78
g59
NtRp3582
(dp3583
g62
(dp3584
g82
g83
ssg71
g3578
sg64
(lp3585
S'auth'
p3586
asbag57
(g78
g59
NtRp3587
(dp3588
g62
(dp3589
g89
g90
ssg71
g3578
sg64
(lp3590
S':'
asbag57
(g78
g59
NtRp3591
(dp3592
g62
(dp3593
sg71
g3578
sg64
(lp3594
g57
(g58
g59
NtRp3595
(dp3596
g62
(dp3597
g70
I5
ssg71
g3591
sg64
(lp3598
g57
(g66
g59
NtRp3599
(dp3600
g62
(dp3601
g70
I4
ssg71
Nsg64
(lp3602
g57
(g73
g59
NtRp3603
(dp3604
g62
(dp3605
sg71
g3599
sg64
(lp3606
g57
(g78
g59
NtRp3607
(dp3608
g62
(dp3609
g82
g83
ssg71
g3603
sg64
(lp3610
S'expiration'
p3611
asbag57
(g78
g59
NtRp3612
(dp3613
g62
(dp3614
g89
g90
ssg71
g3603
sg64
(lp3615
S':'
asbag57
(g78
g59
NtRp3616
(dp3617
g62
(dp3618
sg71
g3603
sg64
(lp3619
g57
(g58
g59
NtRp3620
(dp3621
g62
(dp3622
g70
I4
ssg71
g3616
sg64
(lp3623
S'2592000'
p3624
asbasbasbag57
(g73
g59
NtRp3625
(dp3626
g62
(dp3627
sg71
g3599
sg64
(lp3628
g57
(g78
g59
NtRp3629
(dp3630
g62
(dp3631
g82
g83
ssg71
g3625
sg64
(lp3632
S'hmac_key'
p3633
asbag57
(g78
g59
NtRp3634
(dp3635
g62
(dp3636
g89
g90
ssg71
g3625
sg64
(lp3637
S':'
asbag57
(g78
g59
NtRp3638
(dp3639
g62
(dp3640
sg71
g3625
sg64
(lp3641
g57
(g58
g59
NtRp3642
(dp3643
g62
(dp3644
g70
I4
ssg71
g3638
sg64
(lp3645
S'cf0843bd-b632-44be-979e-cdc3b6f8efb2'
p3646
asbasbasbag57
(g73
g59
NtRp3647
(dp3648
g62
(dp3649
sg71
g3599
sg64
(lp3650
g57
(g78
g59
NtRp3651
(dp3652
g62
(dp3653
g82
g83
ssg71
g3647
sg64
(lp3654
S'last_visit'
p3655
asbag57
(g78
g59
NtRp3656
(dp3657
g62
(dp3658
g89
g90
ssg71
g3647
sg64
(lp3659
S':'
asbag57
(g78
g59
NtRp3660
(dp3661
g62
(dp3662
sg71
g3647
sg64
(lp3663
g57
(g58
g59
NtRp3664
(dp3665
g62
(dp3666
g70
I4
ssg71
g3660
sg64
(lp3667
S'datetime.datetime(2012, 3, 14, 12, 38, 56, 266988)'
p3668
asbasbasbag57
(g73
g59
NtRp3669
(dp3670
g62
(dp3671
sg71
g3599
sg64
(lp3672
g57
(g78
g59
NtRp3673
(dp3674
g62
(dp3675
g82
g83
ssg71
g3669
sg64
(lp3676
S'remember'
p3677
asbag57
(g78
g59
NtRp3678
(dp3679
g62
(dp3680
g89
g90
ssg71
g3669
sg64
(lp3681
S':'
asbag57
(g78
g59
NtRp3682
(dp3683
g62
(dp3684
sg71
g3669
sg64
(lp3685
g57
(g58
g59
NtRp3686
(dp3687
g62
(dp3688
g70
I4
ssg71
g3682
sg64
(lp3689
g100
asbasbasbag57
(g73
g59
NtRp3690
(dp3691
g62
(dp3692
sg71
g3599
sg64
(lp3693
g57
(g78
g59
NtRp3694
(dp3695
g62
(dp3696
g82
g83
ssg71
g3690
sg64
(lp3697
S'user'
p3698
asbag57
(g78
g59
NtRp3699
(dp3700
g62
(dp3701
g89
g90
ssg71
g3690
sg64
(lp3702
S':'
asbag57
(g78
g59
NtRp3703
(dp3704
g62
(dp3705
sg71
g3690
sg64
(lp3706
g57
(g58
g59
NtRp3707
(dp3708
g62
(dp3709
g70
I4
ssg71
g3703
sg64
(lp3710
g57
(g66
g59
NtRp3711
(dp3712
g62
(dp3713
g70
I3
ssg71
Nsg64
(lp3714
g57
(g73
g59
NtRp3715
(dp3716
g62
(dp3717
sg71
g3711
sg64
(lp3718
g57
(g78
g59
NtRp3719
(dp3720
g62
(dp3721
g82
g83
ssg71
g3715
sg64
(lp3722
S'email'
p3723
asbag57
(g78
g59
NtRp3724
(dp3725
g62
(dp3726
g89
g90
ssg71
g3715
sg64
(lp3727
S':'
asbag57
(g78
g59
NtRp3728
(dp3729
g62
(dp3730
sg71
g3715
sg64
(lp3731
g57
(g58
g59
NtRp3732
(dp3733
g62
(dp3734
g70
I3
ssg71
g3728
sg64
(lp3735
S'scottianw@gmail.com'
p3736
asbasbasbag57
(g73
g59
NtRp3737
(dp3738
g62
(dp3739
sg71
g3711
sg64
(lp3740
g57
(g78
g59
NtRp3741
(dp3742
g62
(dp3743
g82
g83
ssg71
g3737
sg64
(lp3744
S'first_name'
p3745
asbag57
(g78
g59
NtRp3746
(dp3747
g62
(dp3748
g89
g90
ssg71
g3737
sg64
(lp3749
S':'
asbag57
(g78
g59
NtRp3750
(dp3751
g62
(dp3752
sg71
g3737
sg64
(lp3753
g57
(g58
g59
NtRp3754
(dp3755
g62
(dp3756
g70
I3
ssg71
g3750
sg64
(lp3757
S'Ian'
p3758
asbasbasbag57
(g73
g59
NtRp3759
(dp3760
g62
(dp3761
sg71
g3711
sg64
(lp3762
g57
(g78
g59
NtRp3763
(dp3764
g62
(dp3765
g82
g83
ssg71
g3759
sg64
(lp3766
S'id'
p3767
asbag57
(g78
g59
NtRp3768
(dp3769
g62
(dp3770
g89
g90
ssg71
g3759
sg64
(lp3771
S':'
asbag57
(g78
g59
NtRp3772
(dp3773
g62
(dp3774
sg71
g3759
sg64
(lp3775
g57
(g58
g59
NtRp3776
(dp3777
g62
(dp3778
g70
I3
ssg71
g3772
sg64
(lp3779
S'2'
asbasbasbag57
(g73
g59
NtRp3780
(dp3781
g62
(dp3782
sg71
g3711
sg64
(lp3783
g57
(g78
g59
NtRp3784
(dp3785
g62
(dp3786
g82
g83
ssg71
g3780
sg64
(lp3787
S'last_name'
p3788
asbag57
(g78
g59
NtRp3789
(dp3790
g62
(dp3791
g89
g90
ssg71
g3780
sg64
(lp3792
S':'
asbag57
(g78
g59
NtRp3793
(dp3794
g62
(dp3795
sg71
g3780
sg64
(lp3796
g57
(g58
g59
NtRp3797
(dp3798
g62
(dp3799
g70
I3
ssg71
g3793
sg64
(lp3800
S'Scott'
p3801
asbasbasbag57
(g73
g59
NtRp3802
(dp3803
g62
(dp3804
sg71
g3711
sg64
(lp3805
g57
(g78
g59
NtRp3806
(dp3807
g62
(dp3808
g82
g83
ssg71
g3802
sg64
(lp3809
S'password'
p3810
asbag57
(g78
g59
NtRp3811
(dp3812
g62
(dp3813
g89
g90
ssg71
g3802
sg64
(lp3814
S':'
asbag57
(g78
g59
NtRp3815
(dp3816
g62
(dp3817
sg71
g3802
sg64
(lp3818
g57
(g58
g59
NtRp3819
(dp3820
g62
(dp3821
g70
I3
ssg71
g3815
sg64
(lp3822
S'19738f1e9a2c8eaac81936a86bf608a1a6995e02f527fa31723cb88a2e513a1efae33471354a02805bf25ea2ea17a59c025a5fc8eca6b3bb2137bda74e538737'
p3823
asbasbasbag57
(g73
g59
NtRp3824
(dp3825
g62
(dp3826
sg71
g3711
sg64
(lp3827
g57
(g78
g59
NtRp3828
(dp3829
g62
(dp3830
g82
g83
ssg71
g3824
sg64
(lp3831
S'registration_id'
p3832
asbag57
(g78
g59
NtRp3833
(dp3834
g62
(dp3835
g89
g90
ssg71
g3824
sg64
(lp3836
S':'
asbag57
(g78
g59
NtRp3837
(dp3838
g62
(dp3839
sg71
g3824
sg64
(lp3840
g57
(g58
g59
NtRp3841
(dp3842
g62
(dp3843
g70
I3
ssg71
g3837
sg64
(lp3844
S'None'
p3845
asbasbasbag57
(g73
g59
NtRp3846
(dp3847
g62
(dp3848
sg71
g3711
sg64
(lp3849
g57
(g78
g59
NtRp3850
(dp3851
g62
(dp3852
g82
g83
ssg71
g3846
sg64
(lp3853
S'registration_key'
p3854
asbag57
(g78
g59
NtRp3855
(dp3856
g62
(dp3857
g89
g90
ssg71
g3846
sg64
(lp3858
S':'
asbag57
(g78
g59
NtRp3859
(dp3860
g62
(dp3861
sg71
g3846
sg64
(lp3862
g57
(g58
g59
NtRp3863
(dp3864
g62
(dp3865
g70
I3
ssg71
g3859
sg64
(lp3866
S''
asbasbasbag57
(g73
g59
NtRp3867
(dp3868
g62
(dp3869
sg71
g3711
sg64
(lp3870
g57
(g78
g59
NtRp3871
(dp3872
g62
(dp3873
g82
g83
ssg71
g3867
sg64
(lp3874
S'reset_password_key'
p3875
asbag57
(g78
g59
NtRp3876
(dp3877
g62
(dp3878
g89
g90
ssg71
g3867
sg64
(lp3879
S':'
asbag57
(g78
g59
NtRp3880
(dp3881
g62
(dp3882
sg71
g3867
sg64
(lp3883
g57
(g58
g59
NtRp3884
(dp3885
g62
(dp3886
g70
I3
ssg71
g3880
sg64
(lp3887
S'1327083713-2cc5b0bb-81c6-473e-adeb-2160a9624c63'
p3888
asbasbasbasbasbasbasbasbasbasbasbag57
(g73
g59
NtRp3889
(dp3890
g62
(dp3891
sg71
g3552
sg64
(lp3892
g57
(g78
g59
NtRp3893
(dp3894
g62
(dp3895
g82
g83
ssg71
g3889
sg64
(lp3896
S'blocks'
p3897
asbag57
(g78
g59
NtRp3898
(dp3899
g62
(dp3900
g89
g90
ssg71
g3889
sg64
(lp3901
S':'
asbag57
(g78
g59
NtRp3902
(dp3903
g62
(dp3904
sg71
g3889
sg64
(lp3905
g57
(g58
g59
NtRp3906
(dp3907
g62
(dp3908
g70
I5
ssg71
g3902
sg64
(lp3909
S'None'
p3910
asbasbasbag57
(g73
g59
NtRp3911
(dp3912
g62
(dp3913
sg71
g3552
sg64
(lp3914
g57
(g78
g59
NtRp3915
(dp3916
g62
(dp3917
g82
g83
ssg71
g3911
sg64
(lp3918
S'completed_paths'
p3919
asbag57
(g78
g59
NtRp3920
(dp3921
g62
(dp3922
g89
g90
ssg71
g3911
sg64
(lp3923
S':'
asbag57
(g78
g59
NtRp3924
(dp3925
g62
(dp3926
sg71
g3911
sg64
(lp3927
g57
(g58
g59
NtRp3928
(dp3929
g62
(dp3930
g70
I5
ssg71
g3924
sg64
(lp3931
S'None'
p3932
asbasbasbag57
(g73
g59
NtRp3933
(dp3934
g62
(dp3935
sg71
g3552
sg64
(lp3936
g57
(g78
g59
NtRp3937
(dp3938
g62
(dp3939
g82
g83
ssg71
g3933
sg64
(lp3940
S'debug'
p3941
asbag57
(g78
g59
NtRp3942
(dp3943
g62
(dp3944
g89
g90
ssg71
g3933
sg64
(lp3945
S':'
asbag57
(g78
g59
NtRp3946
(dp3947
g62
(dp3948
sg71
g3933
sg64
(lp3949
g57
(g58
g59
NtRp3950
(dp3951
g62
(dp3952
g70
I5
ssg71
g3946
sg64
(lp3953
g57
(g66
g59
NtRp3954
(dp3955
g62
(dp3956
g70
I4
ssg71
Nsg64
(lp3957
g57
(g73
g59
NtRp3958
(dp3959
g62
(dp3960
sg71
g3954
sg64
(lp3961
g57
(g78
g59
NtRp3962
(dp3963
g62
(dp3964
g82
g83
ssg71
g3958
sg64
(lp3965
S'2011-10-24'
p3966
asbag57
(g78
g59
NtRp3967
(dp3968
g62
(dp3969
g89
g90
ssg71
g3958
sg64
(lp3970
S':'
asbag57
(g78
g59
NtRp3971
(dp3972
g62
(dp3973
sg71
g3958
sg64
(lp3974
g57
(g58
g59
NtRp3975
(dp3976
g62
(dp3977
g70
I4
ssg71
g3971
sg64
(lp3978
S'8'
asbasbasbag57
(g73
g59
NtRp3979
(dp3980
g62
(dp3981
sg71
g3954
sg64
(lp3982
g57
(g78
g59
NtRp3983
(dp3984
g62
(dp3985
g82
g83
ssg71
g3979
sg64
(lp3986
S'2011-10-25'
p3987
asbag57
(g78
g59
NtRp3988
(dp3989
g62
(dp3990
g89
g90
ssg71
g3979
sg64
(lp3991
S':'
asbag57
(g78
g59
NtRp3992
(dp3993
g62
(dp3994
sg71
g3979
sg64
(lp3995
g57
(g58
g59
NtRp3996
(dp3997
g62
(dp3998
g70
I4
ssg71
g3992
sg64
(lp3999
S'2'
asbasbasbag57
(g73
g59
NtRp4000
(dp4001
g62
(dp4002
sg71
g3954
sg64
(lp4003
g57
(g78
g59
NtRp4004
(dp4005
g62
(dp4006
g82
g83
ssg71
g4000
sg64
(lp4007
S'2011-10-26'
p4008
asbag57
(g78
g59
NtRp4009
(dp4010
g62
(dp4011
g89
g90
ssg71
g4000
sg64
(lp4012
S':'
asbag57
(g78
g59
NtRp4013
(dp4014
g62
(dp4015
sg71
g4000
sg64
(lp4016
g57
(g58
g59
NtRp4017
(dp4018
g62
(dp4019
g70
I4
ssg71
g4013
sg64
(lp4020
S'11'
p4021
asbasbasbag57
(g73
g59
NtRp4022
(dp4023
g62
(dp4024
sg71
g3954
sg64
(lp4025
g57
(g78
g59
NtRp4026
(dp4027
g62
(dp4028
g82
g83
ssg71
g4022
sg64
(lp4029
S'2011-10-31'
p4030
asbag57
(g78
g59
NtRp4031
(dp4032
g62
(dp4033
g89
g90
ssg71
g4022
sg64
(lp4034
S':'
asbag57
(g78
g59
NtRp4035
(dp4036
g62
(dp4037
sg71
g4022
sg64
(lp4038
g57
(g58
g59
NtRp4039
(dp4040
g62
(dp4041
g70
I4
ssg71
g4035
sg64
(lp4042
S'29'
p4043
asbasbasbag57
(g73
g59
NtRp4044
(dp4045
g62
(dp4046
sg71
g3954
sg64
(lp4047
g57
(g78
g59
NtRp4048
(dp4049
g62
(dp4050
g82
g83
ssg71
g4044
sg64
(lp4051
S'2011-11-01'
p4052
asbag57
(g78
g59
NtRp4053
(dp4054
g62
(dp4055
g89
g90
ssg71
g4044
sg64
(lp4056
S':'
asbag57
(g78
g59
NtRp4057
(dp4058
g62
(dp4059
sg71
g4044
sg64
(lp4060
g57
(g58
g59
NtRp4061
(dp4062
g62
(dp4063
g70
I4
ssg71
g4057
sg64
(lp4064
S'11'
p4065
asbasbasbag57
(g73
g59
NtRp4066
(dp4067
g62
(dp4068
sg71
g3954
sg64
(lp4069
g57
(g78
g59
NtRp4070
(dp4071
g62
(dp4072
g82
g83
ssg71
g4066
sg64
(lp4073
S'2011-11-09'
p4074
asbag57
(g78
g59
NtRp4075
(dp4076
g62
(dp4077
g89
g90
ssg71
g4066
sg64
(lp4078
S':'
asbag57
(g78
g59
NtRp4079
(dp4080
g62
(dp4081
sg71
g4066
sg64
(lp4082
g57
(g58
g59
NtRp4083
(dp4084
g62
(dp4085
g70
I4
ssg71
g4079
sg64
(lp4086
S'2'
asbasbasbag57
(g73
g59
NtRp4087
(dp4088
g62
(dp4089
sg71
g3954
sg64
(lp4090
g57
(g78
g59
NtRp4091
(dp4092
g62
(dp4093
g82
g83
ssg71
g4087
sg64
(lp4094
S'2011-11-10'
p4095
asbag57
(g78
g59
NtRp4096
(dp4097
g62
(dp4098
g89
g90
ssg71
g4087
sg64
(lp4099
S':'
asbag57
(g78
g59
NtRp4100
(dp4101
g62
(dp4102
sg71
g4087
sg64
(lp4103
g57
(g58
g59
NtRp4104
(dp4105
g62
(dp4106
g70
I4
ssg71
g4100
sg64
(lp4107
S'14'
p4108
asbasbasbag57
(g73
g59
NtRp4109
(dp4110
g62
(dp4111
sg71
g3954
sg64
(lp4112
g57
(g78
g59
NtRp4113
(dp4114
g62
(dp4115
g82
g83
ssg71
g4109
sg64
(lp4116
S'2011-11-11'
p4117
asbag57
(g78
g59
NtRp4118
(dp4119
g62
(dp4120
g89
g90
ssg71
g4109
sg64
(lp4121
S':'
asbag57
(g78
g59
NtRp4122
(dp4123
g62
(dp4124
sg71
g4109
sg64
(lp4125
g57
(g58
g59
NtRp4126
(dp4127
g62
(dp4128
g70
I4
ssg71
g4122
sg64
(lp4129
S'56'
p4130
asbasbasbag57
(g73
g59
NtRp4131
(dp4132
g62
(dp4133
sg71
g3954
sg64
(lp4134
g57
(g78
g59
NtRp4135
(dp4136
g62
(dp4137
g82
g83
ssg71
g4131
sg64
(lp4138
S'2011-11-12'
p4139
asbag57
(g78
g59
NtRp4140
(dp4141
g62
(dp4142
g89
g90
ssg71
g4131
sg64
(lp4143
S':'
asbag57
(g78
g59
NtRp4144
(dp4145
g62
(dp4146
sg71
g4131
sg64
(lp4147
g57
(g58
g59
NtRp4148
(dp4149
g62
(dp4150
g70
I4
ssg71
g4144
sg64
(lp4151
S'23'
p4152
asbasbasbag57
(g73
g59
NtRp4153
(dp4154
g62
(dp4155
sg71
g3954
sg64
(lp4156
g57
(g78
g59
NtRp4157
(dp4158
g62
(dp4159
g82
g83
ssg71
g4153
sg64
(lp4160
S'2011-11-15'
p4161
asbag57
(g78
g59
NtRp4162
(dp4163
g62
(dp4164
g89
g90
ssg71
g4153
sg64
(lp4165
S':'
asbag57
(g78
g59
NtRp4166
(dp4167
g62
(dp4168
sg71
g4153
sg64
(lp4169
g57
(g58
g59
NtRp4170
(dp4171
g62
(dp4172
g70
I4
ssg71
g4166
sg64
(lp4173
S'10'
p4174
asbasbasbag57
(g73
g59
NtRp4175
(dp4176
g62
(dp4177
sg71
g3954
sg64
(lp4178
g57
(g78
g59
NtRp4179
(dp4180
g62
(dp4181
g82
g83
ssg71
g4175
sg64
(lp4182
S'2011-11-16'
p4183
asbag57
(g78
g59
NtRp4184
(dp4185
g62
(dp4186
g89
g90
ssg71
g4175
sg64
(lp4187
S':'
asbag57
(g78
g59
NtRp4188
(dp4189
g62
(dp4190
sg71
g4175
sg64
(lp4191
g57
(g58
g59
NtRp4192
(dp4193
g62
(dp4194
g70
I4
ssg71
g4188
sg64
(lp4195
S'21'
p4196
asbasbasbag57
(g73
g59
NtRp4197
(dp4198
g62
(dp4199
sg71
g3954
sg64
(lp4200
g57
(g78
g59
NtRp4201
(dp4202
g62
(dp4203
g82
g83
ssg71
g4197
sg64
(lp4204
S'2011-11-25'
p4205
asbag57
(g78
g59
NtRp4206
(dp4207
g62
(dp4208
g89
g90
ssg71
g4197
sg64
(lp4209
S':'
asbag57
(g78
g59
NtRp4210
(dp4211
g62
(dp4212
sg71
g4197
sg64
(lp4213
g57
(g58
g59
NtRp4214
(dp4215
g62
(dp4216
g70
I4
ssg71
g4210
sg64
(lp4217
S'5'
asbasbasbag57
(g73
g59
NtRp4218
(dp4219
g62
(dp4220
sg71
g3954
sg64
(lp4221
g57
(g78
g59
NtRp4222
(dp4223
g62
(dp4224
g82
g83
ssg71
g4218
sg64
(lp4225
S'2012-01-16'
p4226
asbag57
(g78
g59
NtRp4227
(dp4228
g62
(dp4229
g89
g90
ssg71
g4218
sg64
(lp4230
S':'
asbag57
(g78
g59
NtRp4231
(dp4232
g62
(dp4233
sg71
g4218
sg64
(lp4234
g57
(g58
g59
NtRp4235
(dp4236
g62
(dp4237
g70
I4
ssg71
g4231
sg64
(lp4238
S'1'
asbasbasbag57
(g73
g59
NtRp4239
(dp4240
g62
(dp4241
sg71
g3954
sg64
(lp4242
g57
(g78
g59
NtRp4243
(dp4244
g62
(dp4245
g82
g83
ssg71
g4239
sg64
(lp4246
S'2012-01-18'
p4247
asbag57
(g78
g59
NtRp4248
(dp4249
g62
(dp4250
g89
g90
ssg71
g4239
sg64
(lp4251
S':'
asbag57
(g78
g59
NtRp4252
(dp4253
g62
(dp4254
sg71
g4239
sg64
(lp4255
g57
(g58
g59
NtRp4256
(dp4257
g62
(dp4258
g70
I4
ssg71
g4252
sg64
(lp4259
S'2'
asbasbasbag57
(g73
g59
NtRp4260
(dp4261
g62
(dp4262
sg71
g3954
sg64
(lp4263
g57
(g78
g59
NtRp4264
(dp4265
g62
(dp4266
g82
g83
ssg71
g4260
sg64
(lp4267
S'2012-01-20'
p4268
asbag57
(g78
g59
NtRp4269
(dp4270
g62
(dp4271
g89
g90
ssg71
g4260
sg64
(lp4272
S':'
asbag57
(g78
g59
NtRp4273
(dp4274
g62
(dp4275
sg71
g4260
sg64
(lp4276
g57
(g58
g59
NtRp4277
(dp4278
g62
(dp4279
g70
I4
ssg71
g4273
sg64
(lp4280
S'20'
p4281
asbasbasbag57
(g73
g59
NtRp4282
(dp4283
g62
(dp4284
sg71
g3954
sg64
(lp4285
g57
(g78
g59
NtRp4286
(dp4287
g62
(dp4288
g82
g83
ssg71
g4282
sg64
(lp4289
S'2012-01-25'
p4290
asbag57
(g78
g59
NtRp4291
(dp4292
g62
(dp4293
g89
g90
ssg71
g4282
sg64
(lp4294
S':'
asbag57
(g78
g59
NtRp4295
(dp4296
g62
(dp4297
sg71
g4282
sg64
(lp4298
g57
(g58
g59
NtRp4299
(dp4300
g62
(dp4301
g70
I4
ssg71
g4295
sg64
(lp4302
S'7'
asbasbasbag57
(g73
g59
NtRp4303
(dp4304
g62
(dp4305
sg71
g3954
sg64
(lp4306
g57
(g78
g59
NtRp4307
(dp4308
g62
(dp4309
g82
g83
ssg71
g4303
sg64
(lp4310
S'2012-01-27'
p4311
asbag57
(g78
g59
NtRp4312
(dp4313
g62
(dp4314
g89
g90
ssg71
g4303
sg64
(lp4315
S':'
asbag57
(g78
g59
NtRp4316
(dp4317
g62
(dp4318
sg71
g4303
sg64
(lp4319
g57
(g58
g59
NtRp4320
(dp4321
g62
(dp4322
g70
I4
ssg71
g4316
sg64
(lp4323
S'24'
p4324
asbasbasbag57
(g73
g59
NtRp4325
(dp4326
g62
(dp4327
sg71
g3954
sg64
(lp4328
g57
(g78
g59
NtRp4329
(dp4330
g62
(dp4331
g82
g83
ssg71
g4325
sg64
(lp4332
S'2012-02-02'
p4333
asbag57
(g78
g59
NtRp4334
(dp4335
g62
(dp4336
g89
g90
ssg71
g4325
sg64
(lp4337
S':'
asbag57
(g78
g59
NtRp4338
(dp4339
g62
(dp4340
sg71
g4325
sg64
(lp4341
g57
(g58
g59
NtRp4342
(dp4343
g62
(dp4344
g70
I4
ssg71
g4338
sg64
(lp4345
S'22'
p4346
asbasbasbag57
(g73
g59
NtRp4347
(dp4348
g62
(dp4349
sg71
g3954
sg64
(lp4350
g57
(g78
g59
NtRp4351
(dp4352
g62
(dp4353
g82
g83
ssg71
g4347
sg64
(lp4354
S'2012-02-07'
p4355
asbag57
(g78
g59
NtRp4356
(dp4357
g62
(dp4358
g89
g90
ssg71
g4347
sg64
(lp4359
S':'
asbag57
(g78
g59
NtRp4360
(dp4361
g62
(dp4362
sg71
g4347
sg64
(lp4363
g57
(g58
g59
NtRp4364
(dp4365
g62
(dp4366
g70
I4
ssg71
g4360
sg64
(lp4367
S'3'
asbasbasbasbasbasbasbag57
(g73
g59
NtRp4368
(dp4369
g62
(dp4370
sg71
g3552
sg64
(lp4371
g57
(g78
g59
NtRp4372
(dp4373
g62
(dp4374
g82
g83
ssg71
g4368
sg64
(lp4375
S'last_query'
p4376
asbag57
(g78
g59
NtRp4377
(dp4378
g62
(dp4379
g89
g90
ssg71
g4368
sg64
(lp4380
S':'
asbag57
(g78
g59
NtRp4381
(dp4382
g62
(dp4383
sg71
g4368
sg64
(lp4384
g57
(g58
g59
NtRp4385
(dp4386
g62
(dp4387
g70
I5
ssg71
g4381
sg64
(lp4388
S'db.paths.id>0'
p4389
asbasbasbag57
(g73
g59
NtRp4390
(dp4391
g62
(dp4392
sg71
g3552
sg64
(lp4393
g57
(g78
g59
NtRp4394
(dp4395
g62
(dp4396
g82
g83
ssg71
g4390
sg64
(lp4397
S'paths_npcs_loader'
p4398
asbag57
(g78
g59
NtRp4399
(dp4400
g62
(dp4401
g89
g90
ssg71
g4390
sg64
(lp4402
S':'
asbag57
(g78
g59
NtRp4403
(dp4404
g62
(dp4405
sg71
g4390
sg64
(lp4406
g57
(g58
g59
NtRp4407
(dp4408
g62
(dp4409
g70
I5
ssg71
g4403
sg64
(lp4410
S'None'
p4411
asbasbasbag57
(g73
g59
NtRp4412
(dp4413
g62
(dp4414
sg71
g3552
sg64
(lp4415
g57
(g78
g59
NtRp4416
(dp4417
g62
(dp4418
g82
g83
ssg71
g4412
sg64
(lp4419
S'paths_steps_loader'
p4420
asbag57
(g78
g59
NtRp4421
(dp4422
g62
(dp4423
g89
g90
ssg71
g4412
sg64
(lp4424
S':'
asbag57
(g78
g59
NtRp4425
(dp4426
g62
(dp4427
sg71
g4412
sg64
(lp4428
g57
(g58
g59
NtRp4429
(dp4430
g62
(dp4431
g70
I5
ssg71
g4425
sg64
(lp4432
S'None'
p4433
asbasbasbag57
(g73
g59
NtRp4434
(dp4435
g62
(dp4436
sg71
g3552
sg64
(lp4437
g57
(g78
g59
NtRp4438
(dp4439
g62
(dp4440
g82
g83
ssg71
g4434
sg64
(lp4441
S'tagset'
p4442
asbag57
(g78
g59
NtRp4443
(dp4444
g62
(dp4445
g89
g90
ssg71
g4434
sg64
(lp4446
S':'
asbag57
(g78
g59
NtRp4447
(dp4448
g62
(dp4449
sg71
g4434
sg64
(lp4450
g57
(g58
g59
NtRp4451
(dp4452
g62
(dp4453
g70
I5
ssg71
g4447
sg64
(lp4454
g57
(g66
g59
NtRp4455
(dp4456
g62
(dp4457
g70
I4
ssg71
Nsg64
(lp4458
g57
(g73
g59
NtRp4459
(dp4460
g62
(dp4461
sg71
g4455
sg64
(lp4462
g57
(g78
g59
NtRp4463
(dp4464
g62
(dp4465
g82
g83
ssg71
g4459
sg64
(lp4466
S'1'
asbag57
(g78
g59
NtRp4467
(dp4468
g62
(dp4469
g89
g90
ssg71
g4459
sg64
(lp4470
S':'
asbag57
(g78
g59
NtRp4471
(dp4472
g62
(dp4473
sg71
g4459
sg64
(lp4474
g57
(g58
g59
NtRp4475
(dp4476
g62
(dp4477
g70
I4
ssg71
g4471
sg64
(lp4478
g57
(g66
g59
NtRp4479
(dp4480
g62
(dp4481
g70
I3
ssg71
Nsg64
(lp4482
g57
(g73
g59
NtRp4483
(dp4484
g62
(dp4485
sg71
g4479
sg64
(lp4486
g57
(g78
g59
NtRp4487
(dp4488
g62
(dp4489
sg71
g4483
sg64
(lp4490
g57
(g58
g59
NtRp4491
(dp4492
g62
(dp4493
g70
I3
ssg71
g4487
sg64
(lp4494
S'44'
p4495
asbasbasbag57
(g73
g59
NtRp4496
(dp4497
g62
(dp4498
sg71
g4479
sg64
(lp4499
g57
(g78
g59
NtRp4500
(dp4501
g62
(dp4502
sg71
g4496
sg64
(lp4503
g57
(g58
g59
NtRp4504
(dp4505
g62
(dp4506
g70
I3
ssg71
g4500
sg64
(lp4507
S'44'
p4508
asbasbasbag57
(g73
g59
NtRp4509
(dp4510
g62
(dp4511
sg71
g4479
sg64
(lp4512
g57
(g78
g59
NtRp4513
(dp4514
g62
(dp4515
sg71
g4509
sg64
(lp4516
g57
(g58
g59
NtRp4517
(dp4518
g62
(dp4519
g70
I3
ssg71
g4513
sg64
(lp4520
S'44'
p4521
asbasbasbag57
(g73
g59
NtRp4522
(dp4523
g62
(dp4524
sg71
g4479
sg64
(lp4525
g57
(g78
g59
NtRp4526
(dp4527
g62
(dp4528
sg71
g4522
sg64
(lp4529
g57
(g58
g59
NtRp4530
(dp4531
g62
(dp4532
g70
I3
ssg71
g4526
sg64
(lp4533
S'44'
p4534
asbasbasbag57
(g73
g59
NtRp4535
(dp4536
g62
(dp4537
sg71
g4479
sg64
(lp4538
g57
(g78
g59
NtRp4539
(dp4540
g62
(dp4541
sg71
g4535
sg64
(lp4542
g57
(g58
g59
NtRp4543
(dp4544
g62
(dp4545
g70
I3
ssg71
g4539
sg64
(lp4546
S'44'
p4547
asbasbasbag57
(g73
g59
NtRp4548
(dp4549
g62
(dp4550
sg71
g4479
sg64
(lp4551
g57
(g78
g59
NtRp4552
(dp4553
g62
(dp4554
sg71
g4548
sg64
(lp4555
g57
(g58
g59
NtRp4556
(dp4557
g62
(dp4558
g70
I3
ssg71
g4552
sg64
(lp4559
S'18'
p4560
asbasbasbag57
(g73
g59
NtRp4561
(dp4562
g62
(dp4563
sg71
g4479
sg64
(lp4564
g57
(g78
g59
NtRp4565
(dp4566
g62
(dp4567
sg71
g4561
sg64
(lp4568
g57
(g58
g59
NtRp4569
(dp4570
g62
(dp4571
g70
I3
ssg71
g4565
sg64
(lp4572
S'6'
asbasbasbag57
(g73
g59
NtRp4573
(dp4574
g62
(dp4575
sg71
g4479
sg64
(lp4576
g57
(g78
g59
NtRp4577
(dp4578
g62
(dp4579
sg71
g4573
sg64
(lp4580
g57
(g58
g59
NtRp4581
(dp4582
g62
(dp4583
g70
I3
ssg71
g4577
sg64
(lp4584
S'1'
asbasbasbag57
(g73
g59
NtRp4585
(dp4586
g62
(dp4587
sg71
g4479
sg64
(lp4588
g57
(g78
g59
NtRp4589
(dp4590
g62
(dp4591
sg71
g4585
sg64
(lp4592
g57
(g58
g59
NtRp4593
(dp4594
g62
(dp4595
g70
I3
ssg71
g4589
sg64
(lp4596
S'33'
p4597
asbasbasbag57
(g73
g59
NtRp4598
(dp4599
g62
(dp4600
sg71
g4479
sg64
(lp4601
g57
(g78
g59
NtRp4602
(dp4603
g62
(dp4604
sg71
g4598
sg64
(lp4605
g57
(g58
g59
NtRp4606
(dp4607
g62
(dp4608
g70
I3
ssg71
g4602
sg64
(lp4609
S'31'
p4610
asbasbasbag57
(g73
g59
NtRp4611
(dp4612
g62
(dp4613
sg71
g4479
sg64
(lp4614
g57
(g78
g59
NtRp4615
(dp4616
g62
(dp4617
sg71
g4611
sg64
(lp4618
g57
(g58
g59
NtRp4619
(dp4620
g62
(dp4621
g70
I3
ssg71
g4615
sg64
(lp4622
S'12'
p4623
asbasbasbag57
(g73
g59
NtRp4624
(dp4625
g62
(dp4626
sg71
g4479
sg64
(lp4627
g57
(g78
g59
NtRp4628
(dp4629
g62
(dp4630
sg71
g4624
sg64
(lp4631
g57
(g58
g59
NtRp4632
(dp4633
g62
(dp4634
g70
I3
ssg71
g4628
sg64
(lp4635
S'2'
asbasbasbag57
(g73
g59
NtRp4636
(dp4637
g62
(dp4638
sg71
g4479
sg64
(lp4639
g57
(g78
g59
NtRp4640
(dp4641
g62
(dp4642
sg71
g4636
sg64
(lp4643
g57
(g58
g59
NtRp4644
(dp4645
g62
(dp4646
g70
I3
ssg71
g4640
sg64
(lp4647
S'14'
p4648
asbasbasbag57
(g73
g59
NtRp4649
(dp4650
g62
(dp4651
sg71
g4479
sg64
(lp4652
g57
(g78
g59
NtRp4653
(dp4654
g62
(dp4655
sg71
g4649
sg64
(lp4656
g57
(g58
g59
NtRp4657
(dp4658
g62
(dp4659
g70
I3
ssg71
g4653
sg64
(lp4660
S'7'
asbasbasbag57
(g73
g59
NtRp4661
(dp4662
g62
(dp4663
sg71
g4479
sg64
(lp4664
g57
(g78
g59
NtRp4665
(dp4666
g62
(dp4667
sg71
g4661
sg64
(lp4668
g57
(g58
g59
NtRp4669
(dp4670
g62
(dp4671
g70
I3
ssg71
g4665
sg64
(lp4672
S'8'
asbasbasbag57
(g73
g59
NtRp4673
(dp4674
g62
(dp4675
sg71
g4479
sg64
(lp4676
g57
(g78
g59
NtRp4677
(dp4678
g62
(dp4679
sg71
g4673
sg64
(lp4680
g57
(g58
g59
NtRp4681
(dp4682
g62
(dp4683
g70
I3
ssg71
g4677
sg64
(lp4684
S'16'
p4685
asbasbasbag57
(g73
g59
NtRp4686
(dp4687
g62
(dp4688
sg71
g4479
sg64
(lp4689
g57
(g78
g59
NtRp4690
(dp4691
g62
(dp4692
sg71
g4686
sg64
(lp4693
g57
(g58
g59
NtRp4694
(dp4695
g62
(dp4696
g70
I3
ssg71
g4690
sg64
(lp4697
S'4'
asbasbasbag57
(g73
g59
NtRp4698
(dp4699
g62
(dp4700
sg71
g4479
sg64
(lp4701
g57
(g78
g59
NtRp4702
(dp4703
g62
(dp4704
sg71
g4698
sg64
(lp4705
g57
(g58
g59
NtRp4706
(dp4707
g62
(dp4708
g70
I3
ssg71
g4702
sg64
(lp4709
S'3'
asbasbasbag57
(g73
g59
NtRp4710
(dp4711
g62
(dp4712
sg71
g4479
sg64
(lp4713
g57
(g78
g59
NtRp4714
(dp4715
g62
(dp4716
sg71
g4710
sg64
(lp4717
g57
(g58
g59
NtRp4718
(dp4719
g62
(dp4720
g70
I3
ssg71
g4714
sg64
(lp4721
S'35'
p4722
asbasbasbag57
(g73
g59
NtRp4723
(dp4724
g62
(dp4725
sg71
g4479
sg64
(lp4726
g57
(g78
g59
NtRp4727
(dp4728
g62
(dp4729
sg71
g4723
sg64
(lp4730
g57
(g58
g59
NtRp4731
(dp4732
g62
(dp4733
g70
I3
ssg71
g4727
sg64
(lp4734
S'17'
p4735
asbasbasbag57
(g73
g59
NtRp4736
(dp4737
g62
(dp4738
sg71
g4479
sg64
(lp4739
g57
(g78
g59
NtRp4740
(dp4741
g62
(dp4742
sg71
g4736
sg64
(lp4743
g57
(g58
g59
NtRp4744
(dp4745
g62
(dp4746
g70
I3
ssg71
g4740
sg64
(lp4747
S'32'
p4748
asbasbasbag57
(g73
g59
NtRp4749
(dp4750
g62
(dp4751
sg71
g4479
sg64
(lp4752
g57
(g78
g59
NtRp4753
(dp4754
g62
(dp4755
sg71
g4749
sg64
(lp4756
g57
(g58
g59
NtRp4757
(dp4758
g62
(dp4759
g70
I3
ssg71
g4753
sg64
(lp4760
S'10'
p4761
asbasbasbag57
(g73
g59
NtRp4762
(dp4763
g62
(dp4764
sg71
g4479
sg64
(lp4765
g57
(g78
g59
NtRp4766
(dp4767
g62
(dp4768
sg71
g4762
sg64
(lp4769
g57
(g58
g59
NtRp4770
(dp4771
g62
(dp4772
g70
I3
ssg71
g4766
sg64
(lp4773
S'24'
p4774
asbasbasbag57
(g73
g59
NtRp4775
(dp4776
g62
(dp4777
sg71
g4479
sg64
(lp4778
g57
(g78
g59
NtRp4779
(dp4780
g62
(dp4781
sg71
g4775
sg64
(lp4782
g57
(g58
g59
NtRp4783
(dp4784
g62
(dp4785
g70
I3
ssg71
g4779
sg64
(lp4786
S'22'
p4787
asbasbasbag57
(g73
g59
NtRp4788
(dp4789
g62
(dp4790
sg71
g4479
sg64
(lp4791
g57
(g78
g59
NtRp4792
(dp4793
g62
(dp4794
sg71
g4788
sg64
(lp4795
g57
(g58
g59
NtRp4796
(dp4797
g62
(dp4798
g70
I3
ssg71
g4792
sg64
(lp4799
S'43'
p4800
asbasbasbag57
(g73
g59
NtRp4801
(dp4802
g62
(dp4803
sg71
g4479
sg64
(lp4804
g57
(g78
g59
NtRp4805
(dp4806
g62
(dp4807
sg71
g4801
sg64
(lp4808
g57
(g58
g59
NtRp4809
(dp4810
g62
(dp4811
g70
I3
ssg71
g4805
sg64
(lp4812
S'15'
p4813
asbasbasbag57
(g73
g59
NtRp4814
(dp4815
g62
(dp4816
sg71
g4479
sg64
(lp4817
g57
(g78
g59
NtRp4818
(dp4819
g62
(dp4820
sg71
g4814
sg64
(lp4821
g57
(g58
g59
NtRp4822
(dp4823
g62
(dp4824
g70
I3
ssg71
g4818
sg64
(lp4825
S'37'
p4826
asbasbasbag57
(g73
g59
NtRp4827
(dp4828
g62
(dp4829
sg71
g4479
sg64
(lp4830
g57
(g78
g59
NtRp4831
(dp4832
g62
(dp4833
sg71
g4827
sg64
(lp4834
g57
(g58
g59
NtRp4835
(dp4836
g62
(dp4837
g70
I3
ssg71
g4831
sg64
(lp4838
S'30'
p4839
asbasbasbag57
(g73
g59
NtRp4840
(dp4841
g62
(dp4842
sg71
g4479
sg64
(lp4843
g57
(g78
g59
NtRp4844
(dp4845
g62
(dp4846
sg71
g4840
sg64
(lp4847
g57
(g58
g59
NtRp4848
(dp4849
g62
(dp4850
g70
I3
ssg71
g4844
sg64
(lp4851
S'36'
p4852
asbasbasbag57
(g73
g59
NtRp4853
(dp4854
g62
(dp4855
sg71
g4479
sg64
(lp4856
g57
(g78
g59
NtRp4857
(dp4858
g62
(dp4859
sg71
g4853
sg64
(lp4860
g57
(g58
g59
NtRp4861
(dp4862
g62
(dp4863
g70
I3
ssg71
g4857
sg64
(lp4864
S'48'
p4865
asbasbasbag57
(g73
g59
NtRp4866
(dp4867
g62
(dp4868
sg71
g4479
sg64
(lp4869
g57
(g78
g59
NtRp4870
(dp4871
g62
(dp4872
sg71
g4866
sg64
(lp4873
g57
(g58
g59
NtRp4874
(dp4875
g62
(dp4876
g70
I3
ssg71
g4870
sg64
(lp4877
S'29'
p4878
asbasbasbag57
(g73
g59
NtRp4879
(dp4880
g62
(dp4881
sg71
g4479
sg64
(lp4882
g57
(g78
g59
NtRp4883
(dp4884
g62
(dp4885
sg71
g4879
sg64
(lp4886
g57
(g58
g59
NtRp4887
(dp4888
g62
(dp4889
g70
I3
ssg71
g4883
sg64
(lp4890
S'5'
asbasbasbag57
(g73
g59
NtRp4891
(dp4892
g62
(dp4893
sg71
g4479
sg64
(lp4894
g57
(g78
g59
NtRp4895
(dp4896
g62
(dp4897
sg71
g4891
sg64
(lp4898
g57
(g58
g59
NtRp4899
(dp4900
g62
(dp4901
g70
I3
ssg71
g4895
sg64
(lp4902
S'9'
asbasbasbag57
(g73
g59
NtRp4903
(dp4904
g62
(dp4905
sg71
g4479
sg64
(lp4906
g57
(g78
g59
NtRp4907
(dp4908
g62
(dp4909
sg71
g4903
sg64
(lp4910
g57
(g58
g59
NtRp4911
(dp4912
g62
(dp4913
g70
I3
ssg71
g4907
sg64
(lp4914
S'40'
p4915
asbasbasbag57
(g73
g59
NtRp4916
(dp4917
g62
(dp4918
sg71
g4479
sg64
(lp4919
g57
(g78
g59
NtRp4920
(dp4921
g62
(dp4922
sg71
g4916
sg64
(lp4923
g57
(g58
g59
NtRp4924
(dp4925
g62
(dp4926
g70
I3
ssg71
g4920
sg64
(lp4927
S'25'
p4928
asbasbasbag57
(g73
g59
NtRp4929
(dp4930
g62
(dp4931
sg71
g4479
sg64
(lp4932
g57
(g78
g59
NtRp4933
(dp4934
g62
(dp4935
sg71
g4929
sg64
(lp4936
g57
(g58
g59
NtRp4937
(dp4938
g62
(dp4939
g70
I3
ssg71
g4933
sg64
(lp4940
S'39'
p4941
asbasbasbasbasbasbasbag57
(g73
g59
NtRp4942
(dp4943
g62
(dp4944
sg71
g4455
sg64
(lp4945
g57
(g78
g59
NtRp4946
(dp4947
g62
(dp4948
g82
g83
ssg71
g4942
sg64
(lp4949
S'2'
asbag57
(g78
g59
NtRp4950
(dp4951
g62
(dp4952
g89
g90
ssg71
g4942
sg64
(lp4953
S':'
asbag57
(g78
g59
NtRp4954
(dp4955
g62
(dp4956
sg71
g4942
sg64
(lp4957
g57
(g58
g59
NtRp4958
(dp4959
g62
(dp4960
g70
I4
ssg71
g4954
sg64
(lp4961
g57
(g66
g59
NtRp4962
(dp4963
g62
(dp4964
g70
I3
ssg71
Nsg64
(lp4965
sbasbasbasbag57
(g73
g59
NtRp4966
(dp4967
g62
(dp4968
sg71
g4455
sg64
(lp4969
g57
(g78
g59
NtRp4970
(dp4971
g62
(dp4972
g82
g83
ssg71
g4966
sg64
(lp4973
S'3'
asbag57
(g78
g59
NtRp4974
(dp4975
g62
(dp4976
g89
g90
ssg71
g4966
sg64
(lp4977
S':'
asbag57
(g78
g59
NtRp4978
(dp4979
g62
(dp4980
sg71
g4966
sg64
(lp4981
g57
(g58
g59
NtRp4982
(dp4983
g62
(dp4984
g70
I4
ssg71
g4978
sg64
(lp4985
g57
(g66
g59
NtRp4986
(dp4987
g62
(dp4988
g70
I3
ssg71
Nsg64
(lp4989
sbasbasbasbag57
(g73
g59
NtRp4990
(dp4991
g62
(dp4992
sg71
g4455
sg64
(lp4993
g57
(g78
g59
NtRp4994
(dp4995
g62
(dp4996
g82
g83
ssg71
g4990
sg64
(lp4997
S'4'
asbag57
(g78
g59
NtRp4998
(dp4999
g62
(dp5000
g89
g90
ssg71
g4990
sg64
(lp5001
S':'
asbag57
(g78
g59
NtRp5002
(dp5003
g62
(dp5004
sg71
g4990
sg64
(lp5005
g57
(g58
g59
NtRp5006
(dp5007
g62
(dp5008
g70
I4
ssg71
g5002
sg64
(lp5009
g57
(g66
g59
NtRp5010
(dp5011
g62
(dp5012
g70
I3
ssg71
Nsg64
(lp5013
sbasbasbasbasbasbasbasbasbasbsS'etype'
p5014
S"<type 'exceptions.NameError'>"
p5015
sS'date'
p5016
S'Thu Mar 15 16:11:21 2012'
p5017
sS'response'
p5018
g57
(g58
g59
NtRp5019
(dp5020
g62
(dp5021
sg64
(lp5022
g57
(g66
g59
NtRp5023
(dp5024
g62
(dp5025
g70
I5
ssg71
Nsg64
(lp5026
g57
(g73
g59
NtRp5027
(dp5028
g62
(dp5029
sg71
g5023
sg64
(lp5030
g57
(g78
g59
NtRp5031
(dp5032
g62
(dp5033
g82
g83
ssg71
g5027
sg64
(lp5034
g168
asbag57
(g78
g59
NtRp5035
(dp5036
g62
(dp5037
g89
g90
ssg71
g5027
sg64
(lp5038
S':'
asbag57
(g78
g59
NtRp5039
(dp5040
g62
(dp5041
sg71
g5027
sg64
(lp5042
g57
(g58
g59
NtRp5043
(dp5044
g62
(dp5045
g70
I5
ssg71
g5039
sg64
(lp5046
S'<cStringIO.StringO object at 0x7fbc602e0068>'
p5047
asbasbasbag57
(g73
g59
NtRp5048
(dp5049
g62
(dp5050
sg71
g5023
sg64
(lp5051
g57
(g78
g59
NtRp5052
(dp5053
g62
(dp5054
g82
g83
ssg71
g5048
sg64
(lp5055
g256
asbag57
(g78
g59
NtRp5056
(dp5057
g62
(dp5058
g89
g90
ssg71
g5048
sg64
(lp5059
S':'
asbag57
(g78
g59
NtRp5060
(dp5061
g62
(dp5062
sg71
g5048
sg64
(lp5063
g57
(g58
g59
NtRp5064
(dp5065
g62
(dp5066
g70
I5
ssg71
g5060
sg64
(lp5067
g57
(g66
g59
NtRp5068
(dp5069
g62
(dp5070
g70
I4
ssg71
Nsg64
(lp5071
g57
(g73
g59
NtRp5072
(dp5073
g62
(dp5074
sg71
g5068
sg64
(lp5075
g57
(g78
g59
NtRp5076
(dp5077
g62
(dp5078
g82
g83
ssg71
g5072
sg64
(lp5079
S'session_id_paideia'
p5080
asbag57
(g78
g59
NtRp5081
(dp5082
g62
(dp5083
g89
g90
ssg71
g5072
sg64
(lp5084
S':'
asbag57
(g78
g59
NtRp5085
(dp5086
g62
(dp5087
sg71
g5072
sg64
(lp5088
g57
(g58
g59
NtRp5089
(dp5090
g62
(dp5091
g70
I4
ssg71
g5085
sg64
(lp5092
g57
(g66
g59
NtRp5093
(dp5094
g62
(dp5095
g70
I3
ssg71
Nsg64
(lp5096
g57
(g73
g59
NtRp5097
(dp5098
g62
(dp5099
sg71
g5093
sg64
(lp5100
g57
(g78
g59
NtRp5101
(dp5102
g62
(dp5103
g82
g83
ssg71
g5097
sg64
(lp5104
g306
asbag57
(g78
g59
NtRp5105
(dp5106
g62
(dp5107
g89
g90
ssg71
g5097
sg64
(lp5108
S':'
asbag57
(g78
g59
NtRp5109
(dp5110
g62
(dp5111
sg71
g5097
sg64
(lp5112
g57
(g58
g59
NtRp5113
(dp5114
g62
(dp5115
g70
I3
ssg71
g5109
sg64
(lp5116
S''
asbasbasbag57
(g73
g59
NtRp5117
(dp5118
g62
(dp5119
sg71
g5093
sg64
(lp5120
g57
(g78
g59
NtRp5121
(dp5122
g62
(dp5123
g82
g83
ssg71
g5117
sg64
(lp5124
g327
asbag57
(g78
g59
NtRp5125
(dp5126
g62
(dp5127
g89
g90
ssg71
g5117
sg64
(lp5128
S':'
asbag57
(g78
g59
NtRp5129
(dp5130
g62
(dp5131
sg71
g5117
sg64
(lp5132
g57
(g58
g59
NtRp5133
(dp5134
g62
(dp5135
g70
I3
ssg71
g5129
sg64
(lp5136
S''
asbasbasbag57
(g73
g59
NtRp5137
(dp5138
g62
(dp5139
sg71
g5093
sg64
(lp5140
g57
(g78
g59
NtRp5141
(dp5142
g62
(dp5143
g82
g83
ssg71
g5137
sg64
(lp5144
g348
asbag57
(g78
g59
NtRp5145
(dp5146
g62
(dp5147
g89
g90
ssg71
g5137
sg64
(lp5148
S':'
asbag57
(g78
g59
NtRp5149
(dp5150
g62
(dp5151
sg71
g5137
sg64
(lp5152
g57
(g58
g59
NtRp5153
(dp5154
g62
(dp5155
g70
I3
ssg71
g5149
sg64
(lp5156
S'2592000'
p5157
asbasbasbag57
(g73
g59
NtRp5158
(dp5159
g62
(dp5160
sg71
g5093
sg64
(lp5161
g57
(g78
g59
NtRp5162
(dp5163
g62
(dp5164
g82
g83
ssg71
g5158
sg64
(lp5165
g369
asbag57
(g78
g59
NtRp5166
(dp5167
g62
(dp5168
g89
g90
ssg71
g5158
sg64
(lp5169
S':'
asbag57
(g78
g59
NtRp5170
(dp5171
g62
(dp5172
sg71
g5158
sg64
(lp5173
g57
(g58
g59
NtRp5174
(dp5175
g62
(dp5176
g70
I3
ssg71
g5170
sg64
(lp5177
S''
asbasbasbag57
(g73
g59
NtRp5178
(dp5179
g62
(dp5180
sg71
g5093
sg64
(lp5181
g57
(g78
g59
NtRp5182
(dp5183
g62
(dp5184
g82
g83
ssg71
g5178
sg64
(lp5185
g390
asbag57
(g78
g59
NtRp5186
(dp5187
g62
(dp5188
g89
g90
ssg71
g5178
sg64
(lp5189
S':'
asbag57
(g78
g59
NtRp5190
(dp5191
g62
(dp5192
sg71
g5178
sg64
(lp5193
g57
(g58
g59
NtRp5194
(dp5195
g62
(dp5196
g70
I3
ssg71
g5190
sg64
(lp5197
S''
asbasbasbag57
(g73
g59
NtRp5198
(dp5199
g62
(dp5200
sg71
g5093
sg64
(lp5201
g57
(g78
g59
NtRp5202
(dp5203
g62
(dp5204
g82
g83
ssg71
g5198
sg64
(lp5205
g411
asbag57
(g78
g59
NtRp5206
(dp5207
g62
(dp5208
g89
g90
ssg71
g5198
sg64
(lp5209
S':'
asbag57
(g78
g59
NtRp5210
(dp5211
g62
(dp5212
sg71
g5198
sg64
(lp5213
g57
(g58
g59
NtRp5214
(dp5215
g62
(dp5216
g70
I3
ssg71
g5210
sg64
(lp5217
S'/'
asbasbasbag57
(g73
g59
NtRp5218
(dp5219
g62
(dp5220
sg71
g5093
sg64
(lp5221
g57
(g78
g59
NtRp5222
(dp5223
g62
(dp5224
g82
g83
ssg71
g5218
sg64
(lp5225
g432
asbag57
(g78
g59
NtRp5226
(dp5227
g62
(dp5228
g89
g90
ssg71
g5218
sg64
(lp5229
S':'
asbag57
(g78
g59
NtRp5230
(dp5231
g62
(dp5232
sg71
g5218
sg64
(lp5233
g57
(g58
g59
NtRp5234
(dp5235
g62
(dp5236
g70
I3
ssg71
g5230
sg64
(lp5237
S''
asbasbasbag57
(g73
g59
NtRp5238
(dp5239
g62
(dp5240
sg71
g5093
sg64
(lp5241
g57
(g78
g59
NtRp5242
(dp5243
g62
(dp5244
g82
g83
ssg71
g5238
sg64
(lp5245
g453
asbag57
(g78
g59
NtRp5246
(dp5247
g62
(dp5248
g89
g90
ssg71
g5238
sg64
(lp5249
S':'
asbag57
(g78
g59
NtRp5250
(dp5251
g62
(dp5252
sg71
g5238
sg64
(lp5253
g57
(g58
g59
NtRp5254
(dp5255
g62
(dp5256
g70
I3
ssg71
g5250
sg64
(lp5257
S''
asbasbasbasbasbasbasbasbasbasbasbag57
(g73
g59
NtRp5258
(dp5259
g62
(dp5260
sg71
g5023
sg64
(lp5261
g57
(g78
g59
NtRp5262
(dp5263
g62
(dp5264
g82
g83
ssg71
g5258
sg64
(lp5265
S'files'
p5266
asbag57
(g78
g59
NtRp5267
(dp5268
g62
(dp5269
g89
g90
ssg71
g5258
sg64
(lp5270
S':'
asbag57
(g78
g59
NtRp5271
(dp5272
g62
(dp5273
sg71
g5258
sg64
(lp5274
g57
(g58
g59
NtRp5275
(dp5276
g62
(dp5277
g70
I5
ssg71
g5271
sg64
(lp5278
g57
(g66
g59
NtRp5279
(dp5280
g62
(dp5281
g70
I4
ssg71
Nsg64
(lp5282
g57
(g73
g59
NtRp5283
(dp5284
g62
(dp5285
sg71
g5279
sg64
(lp5286
g57
(g78
g59
NtRp5287
(dp5288
g62
(dp5289
sg71
g5283
sg64
(lp5290
g57
(g58
g59
NtRp5291
(dp5292
g62
(dp5293
g70
I4
ssg71
g5287
sg64
(lp5294
S'/paideia/static/plugin_ajaxselect/plugin_ajaxselect.js'
p5295
asbasbasbasbasbasbasbag57
(g73
g59
NtRp5296
(dp5297
g62
(dp5298
sg71
g5023
sg64
(lp5299
g57
(g78
g59
NtRp5300
(dp5301
g62
(dp5302
g82
g83
ssg71
g5296
sg64
(lp5303
S'flash'
p5304
asbag57
(g78
g59
NtRp5305
(dp5306
g62
(dp5307
g89
g90
ssg71
g5296
sg64
(lp5308
S':'
asbag57
(g78
g59
NtRp5309
(dp5310
g62
(dp5311
sg71
g5296
sg64
(lp5312
g57
(g58
g59
NtRp5313
(dp5314
g62
(dp5315
g70
I5
ssg71
g5309
sg64
(lp5316
S''
asbasbasbag57
(g73
g59
NtRp5317
(dp5318
g62
(dp5319
sg71
g5023
sg64
(lp5320
g57
(g78
g59
NtRp5321
(dp5322
g62
(dp5323
g82
g83
ssg71
g5317
sg64
(lp5324
S'generic_patterns'
p5325
asbag57
(g78
g59
NtRp5326
(dp5327
g62
(dp5328
g89
g90
ssg71
g5317
sg64
(lp5329
S':'
asbag57
(g78
g59
NtRp5330
(dp5331
g62
(dp5332
sg71
g5317
sg64
(lp5333
g57
(g58
g59
NtRp5334
(dp5335
g62
(dp5336
g70
I5
ssg71
g5330
sg64
(lp5337
g57
(g66
g59
NtRp5338
(dp5339
g62
(dp5340
g70
I4
ssg71
Nsg64
(lp5341
g57
(g73
g59
NtRp5342
(dp5343
g62
(dp5344
sg71
g5338
sg64
(lp5345
g57
(g78
g59
NtRp5346
(dp5347
g62
(dp5348
sg71
g5342
sg64
(lp5349
g57
(g58
g59
NtRp5350
(dp5351
g62
(dp5352
g70
I4
ssg71
g5346
sg64
(lp5353
S'*'
asbasbasbasbasbasbasbag57
(g73
g59
NtRp5354
(dp5355
g62
(dp5356
sg71
g5023
sg64
(lp5357
g57
(g78
g59
NtRp5358
(dp5359
g62
(dp5360
g82
g83
ssg71
g5354
sg64
(lp5361
S'headers'
p5362
asbag57
(g78
g59
NtRp5363
(dp5364
g62
(dp5365
g89
g90
ssg71
g5354
sg64
(lp5366
S':'
asbag57
(g78
g59
NtRp5367
(dp5368
g62
(dp5369
sg71
g5354
sg64
(lp5370
g57
(g58
g59
NtRp5371
(dp5372
g62
(dp5373
g70
I5
ssg71
g5367
sg64
(lp5374
g57
(g66
g59
NtRp5375
(dp5376
g62
(dp5377
g70
I4
ssg71
Nsg64
(lp5378
g57
(g73
g59
NtRp5379
(dp5380
g62
(dp5381
sg71
g5375
sg64
(lp5382
g57
(g78
g59
NtRp5383
(dp5384
g62
(dp5385
g82
g83
ssg71
g5379
sg64
(lp5386
S'Cache-Control'
p5387
asbag57
(g78
g59
NtRp5388
(dp5389
g62
(dp5390
g89
g90
ssg71
g5379
sg64
(lp5391
S':'
asbag57
(g78
g59
NtRp5392
(dp5393
g62
(dp5394
sg71
g5379
sg64
(lp5395
g57
(g58
g59
NtRp5396
(dp5397
g62
(dp5398
g70
I4
ssg71
g5392
sg64
(lp5399
S'no-store, no-cache, must-revalidate, post-check=0, pre-check=0'
p5400
asbasbasbag57
(g73
g59
NtRp5401
(dp5402
g62
(dp5403
sg71
g5375
sg64
(lp5404
g57
(g78
g59
NtRp5405
(dp5406
g62
(dp5407
g82
g83
ssg71
g5401
sg64
(lp5408
S'Content-Type'
p5409
asbag57
(g78
g59
NtRp5410
(dp5411
g62
(dp5412
g89
g90
ssg71
g5401
sg64
(lp5413
S':'
asbag57
(g78
g59
NtRp5414
(dp5415
g62
(dp5416
sg71
g5401
sg64
(lp5417
g57
(g58
g59
NtRp5418
(dp5419
g62
(dp5420
g70
I4
ssg71
g5414
sg64
(lp5421
S'text/html; charset=utf-8'
p5422
asbasbasbag57
(g73
g59
NtRp5423
(dp5424
g62
(dp5425
sg71
g5375
sg64
(lp5426
g57
(g78
g59
NtRp5427
(dp5428
g62
(dp5429
g82
g83
ssg71
g5423
sg64
(lp5430
S'Expires'
p5431
asbag57
(g78
g59
NtRp5432
(dp5433
g62
(dp5434
g89
g90
ssg71
g5423
sg64
(lp5435
S':'
asbag57
(g78
g59
NtRp5436
(dp5437
g62
(dp5438
sg71
g5423
sg64
(lp5439
g57
(g58
g59
NtRp5440
(dp5441
g62
(dp5442
g70
I4
ssg71
g5436
sg64
(lp5443
S'Thu, 15 Mar 2012 20:11:21 GMT'
p5444
asbasbasbag57
(g73
g59
NtRp5445
(dp5446
g62
(dp5447
sg71
g5375
sg64
(lp5448
g57
(g78
g59
NtRp5449
(dp5450
g62
(dp5451
g82
g83
ssg71
g5445
sg64
(lp5452
S'Pragma'
p5453
asbag57
(g78
g59
NtRp5454
(dp5455
g62
(dp5456
g89
g90
ssg71
g5445
sg64
(lp5457
S':'
asbag57
(g78
g59
NtRp5458
(dp5459
g62
(dp5460
sg71
g5445
sg64
(lp5461
g57
(g58
g59
NtRp5462
(dp5463
g62
(dp5464
g70
I4
ssg71
g5458
sg64
(lp5465
S'no-cache'
p5466
asbasbasbag57
(g73
g59
NtRp5467
(dp5468
g62
(dp5469
sg71
g5375
sg64
(lp5470
g57
(g78
g59
NtRp5471
(dp5472
g62
(dp5473
g82
g83
ssg71
g5467
sg64
(lp5474
S'X-Powered-By'
p5475
asbag57
(g78
g59
NtRp5476
(dp5477
g62
(dp5478
g89
g90
ssg71
g5467
sg64
(lp5479
S':'
asbag57
(g78
g59
NtRp5480
(dp5481
g62
(dp5482
sg71
g5467
sg64
(lp5483
g57
(g58
g59
NtRp5484
(dp5485
g62
(dp5486
g70
I4
ssg71
g5480
sg64
(lp5487
S'web2py'
p5488
asbasbasbasbasbasbasbag57
(g73
g59
NtRp5489
(dp5490
g62
(dp5491
sg71
g5023
sg64
(lp5492
g57
(g78
g59
NtRp5493
(dp5494
g62
(dp5495
g82
g83
ssg71
g5489
sg64
(lp5496
S'menu'
p5497
asbag57
(g78
g59
NtRp5498
(dp5499
g62
(dp5500
g89
g90
ssg71
g5489
sg64
(lp5501
S':'
asbag57
(g78
g59
NtRp5502
(dp5503
g62
(dp5504
sg71
g5489
sg64
(lp5505
g57
(g58
g59
NtRp5506
(dp5507
g62
(dp5508
g70
I5
ssg71
g5502
sg64
(lp5509
g57
(g66
g59
NtRp5510
(dp5511
g62
(dp5512
g70
I4
ssg71
Nsg64
(lp5513
g57
(g73
g59
NtRp5514
(dp5515
g62
(dp5516
sg71
g5510
sg64
(lp5517
g57
(g78
g59
NtRp5518
(dp5519
g62
(dp5520
sg71
g5514
sg64
(lp5521
g57
(g58
g59
NtRp5522
(dp5523
g62
(dp5524
g70
I4
ssg71
g5518
sg64
(lp5525
g57
(g66
g59
NtRp5526
(dp5527
g62
(dp5528
g70
I3
ssg71
Nsg64
(lp5529
g57
(g73
g59
NtRp5530
(dp5531
g62
(dp5532
sg71
g5526
sg64
(lp5533
g57
(g78
g59
NtRp5534
(dp5535
g62
(dp5536
sg71
g5530
sg64
(lp5537
g57
(g58
g59
NtRp5538
(dp5539
g62
(dp5540
g70
I3
ssg71
g5534
sg64
(lp5541
cgluon.languages
lazyT_unpickle
p5542
(S't\x04\x00\x00\x00Home'
tRp5543
asbasbasbag57
(g73
g59
NtRp5544
(dp5545
g62
(dp5546
sg71
g5526
sg64
(lp5547
g57
(g78
g59
NtRp5548
(dp5549
g62
(dp5550
sg71
g5544
sg64
(lp5551
g57
(g58
g59
NtRp5552
(dp5553
g62
(dp5554
g70
I3
ssg71
g5548
sg64
(lp5555
g1180
asbasbasbag57
(g73
g59
NtRp5556
(dp5557
g62
(dp5558
sg71
g5526
sg64
(lp5559
g57
(g78
g59
NtRp5560
(dp5561
g62
(dp5562
sg71
g5556
sg64
(lp5563
g57
(g58
g59
NtRp5564
(dp5565
g62
(dp5566
g70
I3
ssg71
g5560
sg64
(lp5567
S'/paideia/default/index.load'
p5568
asbasbasbag57
(g73
g59
NtRp5569
(dp5570
g62
(dp5571
sg71
g5526
sg64
(lp5572
g57
(g78
g59
NtRp5573
(dp5574
g62
(dp5575
sg71
g5569
sg64
(lp5576
g57
(g58
g59
NtRp5577
(dp5578
g62
(dp5579
g70
I3
ssg71
g5573
sg64
(lp5580
g57
(g66
g59
NtRp5581
(dp5582
g62
(dp5583
g70
I2
ssg71
Nsg64
(lp5584
sbasbasbasbasbasbasbasbag57
(g73
g59
NtRp5585
(dp5586
g62
(dp5587
sg71
g5510
sg64
(lp5588
g57
(g78
g59
NtRp5589
(dp5590
g62
(dp5591
sg71
g5585
sg64
(lp5592
g57
(g58
g59
NtRp5593
(dp5594
g62
(dp5595
g70
I4
ssg71
g5589
sg64
(lp5596
g57
(g66
g59
NtRp5597
(dp5598
g62
(dp5599
g70
I3
ssg71
Nsg64
(lp5600
g57
(g73
g59
NtRp5601
(dp5602
g62
(dp5603
sg71
g5597
sg64
(lp5604
g57
(g78
g59
NtRp5605
(dp5606
g62
(dp5607
sg71
g5601
sg64
(lp5608
g57
(g58
g59
NtRp5609
(dp5610
g62
(dp5611
g70
I3
ssg71
g5605
sg64
(lp5612
g5542
(S't\x05\x00\x00\x00Admin'
tRp5613
asbasbasbag57
(g73
g59
NtRp5614
(dp5615
g62
(dp5616
sg71
g5597
sg64
(lp5617
g57
(g78
g59
NtRp5618
(dp5619
g62
(dp5620
sg71
g5614
sg64
(lp5621
g57
(g58
g59
NtRp5622
(dp5623
g62
(dp5624
g70
I3
ssg71
g5618
sg64
(lp5625
g1180
asbasbasbag57
(g73
g59
NtRp5626
(dp5627
g62
(dp5628
sg71
g5597
sg64
(lp5629
g57
(g78
g59
NtRp5630
(dp5631
g62
(dp5632
sg71
g5626
sg64
(lp5633
g57
(g58
g59
NtRp5634
(dp5635
g62
(dp5636
g70
I3
ssg71
g5630
sg64
(lp5637
S'None'
p5638
asbasbasbag57
(g73
g59
NtRp5639
(dp5640
g62
(dp5641
sg71
g5597
sg64
(lp5642
g57
(g78
g59
NtRp5643
(dp5644
g62
(dp5645
sg71
g5639
sg64
(lp5646
g57
(g58
g59
NtRp5647
(dp5648
g62
(dp5649
g70
I3
ssg71
g5643
sg64
(lp5650
g57
(g66
g59
NtRp5651
(dp5652
g62
(dp5653
g70
I2
ssg71
Nsg64
(lp5654
g57
(g73
g59
NtRp5655
(dp5656
g62
(dp5657
sg71
g5651
sg64
(lp5658
g57
(g78
g59
NtRp5659
(dp5660
g62
(dp5661
sg71
g5655
sg64
(lp5662
g57
(g58
g59
NtRp5663
(dp5664
g62
(dp5665
g70
I2
ssg71
g5659
sg64
(lp5666
g57
(g66
g59
NtRp5667
(dp5668
g62
(dp5669
g70
I1
ssg71
Nsg64
(lp5670
g57
(g73
g59
NtRp5671
(dp5672
g62
(dp5673
sg71
g5667
sg64
(lp5674
g57
(g78
g59
NtRp5675
(dp5676
g62
(dp5677
sg71
g5671
sg64
(lp5678
g57
(g58
g59
NtRp5679
(dp5680
g62
(dp5681
g70
I1
ssg71
g5675
sg64
(lp5682
g5542
(S's\x07\x00\x00\x00Web IDE'
tRp5683
asbasbasbag57
(g73
g59
NtRp5684
(dp5685
g62
(dp5686
sg71
g5667
sg64
(lp5687
g57
(g78
g59
NtRp5688
(dp5689
g62
(dp5690
sg71
g5684
sg64
(lp5691
g57
(g58
g59
NtRp5692
(dp5693
g62
(dp5694
g70
I1
ssg71
g5688
sg64
(lp5695
I00
asbasbasbag57
(g73
g59
NtRp5696
(dp5697
g62
(dp5698
sg71
g5667
sg64
(lp5699
g57
(g78
g59
NtRp5700
(dp5701
g62
(dp5702
sg71
g5696
sg64
(lp5703
g57
(g58
g59
NtRp5704
(dp5705
g62
(dp5706
g70
I1
ssg71
g5700
sg64
(lp5707
S'/admin/default/index.load'
p5708
asbasbasbasbasbasbasbag57
(g73
g59
NtRp5709
(dp5710
g62
(dp5711
sg71
g5651
sg64
(lp5712
g57
(g78
g59
NtRp5713
(dp5714
g62
(dp5715
sg71
g5709
sg64
(lp5716
g57
(g58
g59
NtRp5717
(dp5718
g62
(dp5719
g70
I2
ssg71
g5713
sg64
(lp5720
g57
(g66
g59
NtRp5721
(dp5722
g62
(dp5723
g70
I1
ssg71
Nsg64
(lp5724
g57
(g73
g59
NtRp5725
(dp5726
g62
(dp5727
sg71
g5721
sg64
(lp5728
g57
(g78
g59
NtRp5729
(dp5730
g62
(dp5731
sg71
g5725
sg64
(lp5732
g57
(g58
g59
NtRp5733
(dp5734
g62
(dp5735
g70
I1
ssg71
g5729
sg64
(lp5736
g5542
(S't\x08\x00\x00\x00Database'
tRp5737
asbasbasbag57
(g73
g59
NtRp5738
(dp5739
g62
(dp5740
sg71
g5721
sg64
(lp5741
g57
(g78
g59
NtRp5742
(dp5743
g62
(dp5744
sg71
g5738
sg64
(lp5745
g57
(g58
g59
NtRp5746
(dp5747
g62
(dp5748
g70
I1
ssg71
g5742
sg64
(lp5749
I00
asbasbasbag57
(g73
g59
NtRp5750
(dp5751
g62
(dp5752
sg71
g5721
sg64
(lp5753
g57
(g78
g59
NtRp5754
(dp5755
g62
(dp5756
sg71
g5750
sg64
(lp5757
g57
(g58
g59
NtRp5758
(dp5759
g62
(dp5760
g70
I1
ssg71
g5754
sg64
(lp5761
S'/paideia/appadmin/index.load'
p5762
asbasbasbasbasbasbasbag57
(g73
g59
NtRp5763
(dp5764
g62
(dp5765
sg71
g5651
sg64
(lp5766
g57
(g78
g59
NtRp5767
(dp5768
g62
(dp5769
sg71
g5763
sg64
(lp5770
g57
(g58
g59
NtRp5771
(dp5772
g62
(dp5773
g70
I2
ssg71
g5767
sg64
(lp5774
g57
(g66
g59
NtRp5775
(dp5776
g62
(dp5777
g70
I1
ssg71
Nsg64
(lp5778
g57
(g73
g59
NtRp5779
(dp5780
g62
(dp5781
sg71
g5775
sg64
(lp5782
g57
(g78
g59
NtRp5783
(dp5784
g62
(dp5785
sg71
g5779
sg64
(lp5786
g57
(g58
g59
NtRp5787
(dp5788
g62
(dp5789
g70
I1
ssg71
g5783
sg64
(lp5790
g5542
(S't\x05\x00\x00\x00Users'
tRp5791
asbasbasbag57
(g73
g59
NtRp5792
(dp5793
g62
(dp5794
sg71
g5775
sg64
(lp5795
g57
(g78
g59
NtRp5796
(dp5797
g62
(dp5798
sg71
g5792
sg64
(lp5799
g57
(g58
g59
NtRp5800
(dp5801
g62
(dp5802
g70
I1
ssg71
g5796
sg64
(lp5803
I00
asbasbasbag57
(g73
g59
NtRp5804
(dp5805
g62
(dp5806
sg71
g5775
sg64
(lp5807
g57
(g78
g59
NtRp5808
(dp5809
g62
(dp5810
sg71
g5804
sg64
(lp5811
g57
(g58
g59
NtRp5812
(dp5813
g62
(dp5814
g70
I1
ssg71
g5808
sg64
(lp5815
S'/paideia/listing/user.load'
p5816
asbasbasbasbasbasbasbag57
(g73
g59
NtRp5817
(dp5818
g62
(dp5819
sg71
g5651
sg64
(lp5820
g57
(g78
g59
NtRp5821
(dp5822
g62
(dp5823
sg71
g5817
sg64
(lp5824
g57
(g58
g59
NtRp5825
(dp5826
g62
(dp5827
g70
I2
ssg71
g5821
sg64
(lp5828
g57
(g66
g59
NtRp5829
(dp5830
g62
(dp5831
g70
I1
ssg71
Nsg64
(lp5832
g57
(g73
g59
NtRp5833
(dp5834
g62
(dp5835
sg71
g5829
sg64
(lp5836
g57
(g78
g59
NtRp5837
(dp5838
g62
(dp5839
sg71
g5833
sg64
(lp5840
g57
(g58
g59
NtRp5841
(dp5842
g62
(dp5843
g70
I1
ssg71
g5837
sg64
(lp5844
g5542
(S't\x05\x00\x00\x00Paths'
tRp5845
asbasbasbag57
(g73
g59
NtRp5846
(dp5847
g62
(dp5848
sg71
g5829
sg64
(lp5849
g57
(g78
g59
NtRp5850
(dp5851
g62
(dp5852
sg71
g5846
sg64
(lp5853
g57
(g58
g59
NtRp5854
(dp5855
g62
(dp5856
g70
I1
ssg71
g5850
sg64
(lp5857
I00
asbasbasbag57
(g73
g59
NtRp5858
(dp5859
g62
(dp5860
sg71
g5829
sg64
(lp5861
g57
(g78
g59
NtRp5862
(dp5863
g62
(dp5864
sg71
g5858
sg64
(lp5865
g57
(g58
g59
NtRp5866
(dp5867
g62
(dp5868
g70
I1
ssg71
g5862
sg64
(lp5869
S'/paideia/plugin_listandedit/listing.html/paths'
p5870
asbasbasbasbasbasbasbag57
(g73
g59
NtRp5871
(dp5872
g62
(dp5873
sg71
g5651
sg64
(lp5874
g57
(g78
g59
NtRp5875
(dp5876
g62
(dp5877
sg71
g5871
sg64
(lp5878
g57
(g58
g59
NtRp5879
(dp5880
g62
(dp5881
g70
I2
ssg71
g5875
sg64
(lp5882
g57
(g66
g59
NtRp5883
(dp5884
g62
(dp5885
g70
I1
ssg71
Nsg64
(lp5886
g57
(g73
g59
NtRp5887
(dp5888
g62
(dp5889
sg71
g5883
sg64
(lp5890
g57
(g78
g59
NtRp5891
(dp5892
g62
(dp5893
sg71
g5887
sg64
(lp5894
g57
(g58
g59
NtRp5895
(dp5896
g62
(dp5897
g70
I1
ssg71
g5891
sg64
(lp5898
g5542
(S't\x05\x00\x00\x00Steps'
tRp5899
asbasbasbag57
(g73
g59
NtRp5900
(dp5901
g62
(dp5902
sg71
g5883
sg64
(lp5903
g57
(g78
g59
NtRp5904
(dp5905
g62
(dp5906
sg71
g5900
sg64
(lp5907
g57
(g58
g59
NtRp5908
(dp5909
g62
(dp5910
g70
I1
ssg71
g5904
sg64
(lp5911
I00
asbasbasbag57
(g73
g59
NtRp5912
(dp5913
g62
(dp5914
sg71
g5883
sg64
(lp5915
g57
(g78
g59
NtRp5916
(dp5917
g62
(dp5918
sg71
g5912
sg64
(lp5919
g57
(g58
g59
NtRp5920
(dp5921
g62
(dp5922
g70
I1
ssg71
g5916
sg64
(lp5923
S'/paideia/plugin_listandedit/listing.html/steps'
p5924
asbasbasbasbasbasbasbag57
(g73
g59
NtRp5925
(dp5926
g62
(dp5927
sg71
g5651
sg64
(lp5928
g57
(g78
g59
NtRp5929
(dp5930
g62
(dp5931
sg71
g5925
sg64
(lp5932
g57
(g58
g59
NtRp5933
(dp5934
g62
(dp5935
g70
I2
ssg71
g5929
sg64
(lp5936
g57
(g66
g59
NtRp5937
(dp5938
g62
(dp5939
g70
I1
ssg71
Nsg64
(lp5940
g57
(g73
g59
NtRp5941
(dp5942
g62
(dp5943
sg71
g5937
sg64
(lp5944
g57
(g78
g59
NtRp5945
(dp5946
g62
(dp5947
sg71
g5941
sg64
(lp5948
g57
(g58
g59
NtRp5949
(dp5950
g62
(dp5951
g70
I1
ssg71
g5945
sg64
(lp5952
g5542
(S't\t\x00\x00\x00Questions'
tRp5953
asbasbasbag57
(g73
g59
NtRp5954
(dp5955
g62
(dp5956
sg71
g5937
sg64
(lp5957
g57
(g78
g59
NtRp5958
(dp5959
g62
(dp5960
sg71
g5954
sg64
(lp5961
g57
(g58
g59
NtRp5962
(dp5963
g62
(dp5964
g70
I1
ssg71
g5958
sg64
(lp5965
I00
asbasbasbag57
(g73
g59
NtRp5966
(dp5967
g62
(dp5968
sg71
g5937
sg64
(lp5969
g57
(g78
g59
NtRp5970
(dp5971
g62
(dp5972
sg71
g5966
sg64
(lp5973
g57
(g58
g59
NtRp5974
(dp5975
g62
(dp5976
g70
I1
ssg71
g5970
sg64
(lp5977
S'/paideia/plugin_listandedit/listing.html/questions'
p5978
asbasbasbasbasbasbasbag57
(g73
g59
NtRp5979
(dp5980
g62
(dp5981
sg71
g5651
sg64
(lp5982
g57
(g78
g59
NtRp5983
(dp5984
g62
(dp5985
sg71
g5979
sg64
(lp5986
g57
(g58
g59
NtRp5987
(dp5988
g62
(dp5989
g70
I2
ssg71
g5983
sg64
(lp5990
g57
(g66
g59
NtRp5991
(dp5992
g62
(dp5993
g70
I1
ssg71
Nsg64
(lp5994
g57
(g73
g59
NtRp5995
(dp5996
g62
(dp5997
sg71
g5991
sg64
(lp5998
g57
(g78
g59
NtRp5999
(dp6000
g62
(dp6001
sg71
g5995
sg64
(lp6002
g57
(g58
g59
NtRp6003
(dp6004
g62
(dp6005
g70
I1
ssg71
g5999
sg64
(lp6006
g5542
(S't\x07\x00\x00\x00Quizzes'
tRp6007
asbasbasbag57
(g73
g59
NtRp6008
(dp6009
g62
(dp6010
sg71
g5991
sg64
(lp6011
g57
(g78
g59
NtRp6012
(dp6013
g62
(dp6014
sg71
g6008
sg64
(lp6015
g57
(g58
g59
NtRp6016
(dp6017
g62
(dp6018
g70
I1
ssg71
g6012
sg64
(lp6019
I00
asbasbasbag57
(g73
g59
NtRp6020
(dp6021
g62
(dp6022
sg71
g5991
sg64
(lp6023
g57
(g78
g59
NtRp6024
(dp6025
g62
(dp6026
sg71
g6020
sg64
(lp6027
g57
(g58
g59
NtRp6028
(dp6029
g62
(dp6030
g70
I1
ssg71
g6024
sg64
(lp6031
S'/paideia/plugin_listandedit/listing.html/quizzes'
p6032
asbasbasbasbasbasbasbag57
(g73
g59
NtRp6033
(dp6034
g62
(dp6035
sg71
g5651
sg64
(lp6036
g57
(g78
g59
NtRp6037
(dp6038
g62
(dp6039
sg71
g6033
sg64
(lp6040
g57
(g58
g59
NtRp6041
(dp6042
g62
(dp6043
g70
I2
ssg71
g6037
sg64
(lp6044
g57
(g66
g59
NtRp6045
(dp6046
g62
(dp6047
g70
I1
ssg71
Nsg64
(lp6048
g57
(g73
g59
NtRp6049
(dp6050
g62
(dp6051
sg71
g6045
sg64
(lp6052
g57
(g78
g59
NtRp6053
(dp6054
g62
(dp6055
sg71
g6049
sg64
(lp6056
g57
(g58
g59
NtRp6057
(dp6058
g62
(dp6059
g70
I1
ssg71
g6053
sg64
(lp6060
g5542
(S't\x04\x00\x00\x00Tags'
tRp6061
asbasbasbag57
(g73
g59
NtRp6062
(dp6063
g62
(dp6064
sg71
g6045
sg64
(lp6065
g57
(g78
g59
NtRp6066
(dp6067
g62
(dp6068
sg71
g6062
sg64
(lp6069
g57
(g58
g59
NtRp6070
(dp6071
g62
(dp6072
g70
I1
ssg71
g6066
sg64
(lp6073
I00
asbasbasbag57
(g73
g59
NtRp6074
(dp6075
g62
(dp6076
sg71
g6045
sg64
(lp6077
g57
(g78
g59
NtRp6078
(dp6079
g62
(dp6080
sg71
g6074
sg64
(lp6081
g57
(g58
g59
NtRp6082
(dp6083
g62
(dp6084
g70
I1
ssg71
g6078
sg64
(lp6085
S'/paideia/plugin_listandedit/listing.html/tags'
p6086
asbasbasbasbasbasbasbag57
(g73
g59
NtRp6087
(dp6088
g62
(dp6089
sg71
g5651
sg64
(lp6090
g57
(g78
g59
NtRp6091
(dp6092
g62
(dp6093
sg71
g6087
sg64
(lp6094
g57
(g58
g59
NtRp6095
(dp6096
g62
(dp6097
g70
I2
ssg71
g6091
sg64
(lp6098
g57
(g66
g59
NtRp6099
(dp6100
g62
(dp6101
g70
I1
ssg71
Nsg64
(lp6102
g57
(g73
g59
NtRp6103
(dp6104
g62
(dp6105
sg71
g6099
sg64
(lp6106
g57
(g78
g59
NtRp6107
(dp6108
g62
(dp6109
sg71
g6103
sg64
(lp6110
g57
(g58
g59
NtRp6111
(dp6112
g62
(dp6113
g70
I1
ssg71
g6107
sg64
(lp6114
g5542
(S't\x04\x00\x00\x00NPCs'
tRp6115
asbasbasbag57
(g73
g59
NtRp6116
(dp6117
g62
(dp6118
sg71
g6099
sg64
(lp6119
g57
(g78
g59
NtRp6120
(dp6121
g62
(dp6122
sg71
g6116
sg64
(lp6123
g57
(g58
g59
NtRp6124
(dp6125
g62
(dp6126
g70
I1
ssg71
g6120
sg64
(lp6127
I00
asbasbasbag57
(g73
g59
NtRp6128
(dp6129
g62
(dp6130
sg71
g6099
sg64
(lp6131
g57
(g78
g59
NtRp6132
(dp6133
g62
(dp6134
sg71
g6128
sg64
(lp6135
g57
(g58
g59
NtRp6136
(dp6137
g62
(dp6138
g70
I1
ssg71
g6132
sg64
(lp6139
S'/paideia/plugin_listandedit/listing.html/npcs'
p6140
asbasbasbasbasbasbasbag57
(g73
g59
NtRp6141
(dp6142
g62
(dp6143
sg71
g5651
sg64
(lp6144
g57
(g78
g59
NtRp6145
(dp6146
g62
(dp6147
sg71
g6141
sg64
(lp6148
g57
(g58
g59
NtRp6149
(dp6150
g62
(dp6151
g70
I2
ssg71
g6145
sg64
(lp6152
g57
(g66
g59
NtRp6153
(dp6154
g62
(dp6155
g70
I1
ssg71
Nsg64
(lp6156
g57
(g73
g59
NtRp6157
(dp6158
g62
(dp6159
sg71
g6153
sg64
(lp6160
g57
(g78
g59
NtRp6161
(dp6162
g62
(dp6163
sg71
g6157
sg64
(lp6164
g57
(g58
g59
NtRp6165
(dp6166
g62
(dp6167
g70
I1
ssg71
g6161
sg64
(lp6168
g5542
(S't\t\x00\x00\x00locations'
tRp6169
asbasbasbag57
(g73
g59
NtRp6170
(dp6171
g62
(dp6172
sg71
g6153
sg64
(lp6173
g57
(g78
g59
NtRp6174
(dp6175
g62
(dp6176
sg71
g6170
sg64
(lp6177
g57
(g58
g59
NtRp6178
(dp6179
g62
(dp6180
g70
I1
ssg71
g6174
sg64
(lp6181
I00
asbasbasbag57
(g73
g59
NtRp6182
(dp6183
g62
(dp6184
sg71
g6153
sg64
(lp6185
g57
(g78
g59
NtRp6186
(dp6187
g62
(dp6188
sg71
g6182
sg64
(lp6189
g57
(g58
g59
NtRp6190
(dp6191
g62
(dp6192
g70
I1
ssg71
g6186
sg64
(lp6193
S'/paideia/plugin_listandedit/listing.html/locations'
p6194
asbasbasbasbasbasbasbasbasbasbasbasbasbasbasbasbasbasbasbag57
(g73
g59
NtRp6195
(dp6196
g62
(dp6197
sg71
g5023
sg64
(lp6198
g57
(g78
g59
NtRp6199
(dp6200
g62
(dp6201
g82
g83
ssg71
g6195
sg64
(lp6202
S'meta'
p6203
asbag57
(g78
g59
NtRp6204
(dp6205
g62
(dp6206
g89
g90
ssg71
g6195
sg64
(lp6207
S':'
asbag57
(g78
g59
NtRp6208
(dp6209
g62
(dp6210
sg71
g6195
sg64
(lp6211
g57
(g58
g59
NtRp6212
(dp6213
g62
(dp6214
g70
I5
ssg71
g6208
sg64
(lp6215
g57
(g66
g59
NtRp6216
(dp6217
g62
(dp6218
g70
I4
ssg71
Nsg64
(lp6219
g57
(g73
g59
NtRp6220
(dp6221
g62
(dp6222
sg71
g6216
sg64
(lp6223
g57
(g78
g59
NtRp6224
(dp6225
g62
(dp6226
g82
g83
ssg71
g6220
sg64
(lp6227
S'author'
p6228
asbag57
(g78
g59
NtRp6229
(dp6230
g62
(dp6231
g89
g90
ssg71
g6220
sg64
(lp6232
S':'
asbag57
(g78
g59
NtRp6233
(dp6234
g62
(dp6235
sg71
g6220
sg64
(lp6236
g57
(g58
g59
NtRp6237
(dp6238
g62
(dp6239
g70
I4
ssg71
g6233
sg64
(lp6240
S'Ian W. Scott'
p6241
asbasbasbag57
(g73
g59
NtRp6242
(dp6243
g62
(dp6244
sg71
g6216
sg64
(lp6245
g57
(g78
g59
NtRp6246
(dp6247
g62
(dp6248
g82
g83
ssg71
g6242
sg64
(lp6249
S'copyright'
p6250
asbag57
(g78
g59
NtRp6251
(dp6252
g62
(dp6253
g89
g90
ssg71
g6242
sg64
(lp6254
S':'
asbag57
(g78
g59
NtRp6255
(dp6256
g62
(dp6257
sg71
g6242
sg64
(lp6258
g57
(g58
g59
NtRp6259
(dp6260
g62
(dp6261
g70
I4
ssg71
g6255
sg64
(lp6262
S'Copyright 2011'
p6263
asbasbasbag57
(g73
g59
NtRp6264
(dp6265
g62
(dp6266
sg71
g6216
sg64
(lp6267
g57
(g78
g59
NtRp6268
(dp6269
g62
(dp6270
g82
g83
ssg71
g6264
sg64
(lp6271
S'description'
p6272
asbag57
(g78
g59
NtRp6273
(dp6274
g62
(dp6275
g89
g90
ssg71
g6264
sg64
(lp6276
S':'
asbag57
(g78
g59
NtRp6277
(dp6278
g62
(dp6279
sg71
g6264
sg64
(lp6280
g57
(g58
g59
NtRp6281
(dp6282
g62
(dp6283
g70
I4
ssg71
g6277
sg64
(lp6284
S'An online space for learning New Testament Greek'
p6285
asbasbasbag57
(g73
g59
NtRp6286
(dp6287
g62
(dp6288
sg71
g6216
sg64
(lp6289
g57
(g78
g59
NtRp6290
(dp6291
g62
(dp6292
g82
g83
ssg71
g6286
sg64
(lp6293
S'generator'
p6294
asbag57
(g78
g59
NtRp6295
(dp6296
g62
(dp6297
g89
g90
ssg71
g6286
sg64
(lp6298
S':'
asbag57
(g78
g59
NtRp6299
(dp6300
g62
(dp6301
sg71
g6286
sg64
(lp6302
g57
(g58
g59
NtRp6303
(dp6304
g62
(dp6305
g70
I4
ssg71
g6299
sg64
(lp6306
S'Web2py Enterprise Framework'
p6307
asbasbasbag57
(g73
g59
NtRp6308
(dp6309
g62
(dp6310
sg71
g6216
sg64
(lp6311
g57
(g78
g59
NtRp6312
(dp6313
g62
(dp6314
g82
g83
ssg71
g6308
sg64
(lp6315
S'keywords'
p6316
asbag57
(g78
g59
NtRp6317
(dp6318
g62
(dp6319
g89
g90
ssg71
g6308
sg64
(lp6320
S':'
asbag57
(g78
g59
NtRp6321
(dp6322
g62
(dp6323
sg71
g6308
sg64
(lp6324
g57
(g58
g59
NtRp6325
(dp6326
g62
(dp6327
g70
I4
ssg71
g6321
sg64
(lp6328
S'Greek, koine, New Testament, language, education, learning'
p6329
asbasbasbasbasbasbasbag57
(g73
g59
NtRp6330
(dp6331
g62
(dp6332
sg71
g5023
sg64
(lp6333
g57
(g78
g59
NtRp6334
(dp6335
g62
(dp6336
g82
g83
ssg71
g6330
sg64
(lp6337
S'mobiletitle'
p6338
asbag57
(g78
g59
NtRp6339
(dp6340
g62
(dp6341
g89
g90
ssg71
g6330
sg64
(lp6342
S':'
asbag57
(g78
g59
NtRp6343
(dp6344
g62
(dp6345
sg71
g6330
sg64
(lp6346
g57
(g58
g59
NtRp6347
(dp6348
g62
(dp6349
g70
I5
ssg71
g6343
sg64
(lp6350
g122
asbasbasbag57
(g73
g59
NtRp6351
(dp6352
g62
(dp6353
sg71
g5023
sg64
(lp6354
g57
(g78
g59
NtRp6355
(dp6356
g62
(dp6357
g82
g83
ssg71
g6351
sg64
(lp6358
S'postprocessing'
p6359
asbag57
(g78
g59
NtRp6360
(dp6361
g62
(dp6362
g89
g90
ssg71
g6351
sg64
(lp6363
S':'
asbag57
(g78
g59
NtRp6364
(dp6365
g62
(dp6366
sg71
g6351
sg64
(lp6367
g57
(g58
g59
NtRp6368
(dp6369
g62
(dp6370
g70
I5
ssg71
g6364
sg64
(lp6371
g57
(g66
g59
NtRp6372
(dp6373
g62
(dp6374
g70
I4
ssg71
Nsg64
(lp6375
sbasbasbasbag57
(g73
g59
NtRp6376
(dp6377
g62
(dp6378
sg71
g5023
sg64
(lp6379
g57
(g78
g59
NtRp6380
(dp6381
g62
(dp6382
g82
g83
ssg71
g6376
sg64
(lp6383
S'session_file'
p6384
asbag57
(g78
g59
NtRp6385
(dp6386
g62
(dp6387
g89
g90
ssg71
g6376
sg64
(lp6388
S':'
asbag57
(g78
g59
NtRp6389
(dp6390
g62
(dp6391
sg71
g6376
sg64
(lp6392
g57
(g58
g59
NtRp6393
(dp6394
g62
(dp6395
g70
I5
ssg71
g6389
sg64
(lp6396
S"<open file '/home/ian/web/web2py/applications/paideia/sessions/127.0.0.1-d6bcece8-2742-4dcd-9d50-e8b957d71ddc', mode 'rb+' at 0x7fbc5c586ed0>"
p6397
asbasbasbag57
(g73
g59
NtRp6398
(dp6399
g62
(dp6400
sg71
g5023
sg64
(lp6401
g57
(g78
g59
NtRp6402
(dp6403
g62
(dp6404
g82
g83
ssg71
g6398
sg64
(lp6405
S'session_filename'
p6406
asbag57
(g78
g59
NtRp6407
(dp6408
g62
(dp6409
g89
g90
ssg71
g6398
sg64
(lp6410
S':'
asbag57
(g78
g59
NtRp6411
(dp6412
g62
(dp6413
sg71
g6398
sg64
(lp6414
g57
(g58
g59
NtRp6415
(dp6416
g62
(dp6417
g70
I5
ssg71
g6411
sg64
(lp6418
S'/home/ian/web/web2py/applications/paideia/sessions/127.0.0.1-d6bcece8-2742-4dcd-9d50-e8b957d71ddc'
p6419
asbasbasbag57
(g73
g59
NtRp6420
(dp6421
g62
(dp6422
sg71
g5023
sg64
(lp6423
g57
(g78
g59
NtRp6424
(dp6425
g62
(dp6426
g82
g83
ssg71
g6420
sg64
(lp6427
S'session_id'
p6428
asbag57
(g78
g59
NtRp6429
(dp6430
g62
(dp6431
g89
g90
ssg71
g6420
sg64
(lp6432
S':'
asbag57
(g78
g59
NtRp6433
(dp6434
g62
(dp6435
sg71
g6420
sg64
(lp6436
g57
(g58
g59
NtRp6437
(dp6438
g62
(dp6439
g70
I5
ssg71
g6433
sg64
(lp6440
S'127.0.0.1-d6bcece8-2742-4dcd-9d50-e8b957d71ddc'
p6441
asbasbasbag57
(g73
g59
NtRp6442
(dp6443
g62
(dp6444
sg71
g5023
sg64
(lp6445
g57
(g78
g59
NtRp6446
(dp6447
g62
(dp6448
g82
g83
ssg71
g6442
sg64
(lp6449
S'session_id_name'
p6450
asbag57
(g78
g59
NtRp6451
(dp6452
g62
(dp6453
g89
g90
ssg71
g6442
sg64
(lp6454
S':'
asbag57
(g78
g59
NtRp6455
(dp6456
g62
(dp6457
sg71
g6442
sg64
(lp6458
g57
(g58
g59
NtRp6459
(dp6460
g62
(dp6461
g70
I5
ssg71
g6455
sg64
(lp6462
g5080
asbasbasbag57
(g73
g59
NtRp6463
(dp6464
g62
(dp6465
sg71
g5023
sg64
(lp6466
g57
(g78
g59
NtRp6467
(dp6468
g62
(dp6469
g82
g83
ssg71
g6463
sg64
(lp6470
S'session_locked'
p6471
asbag57
(g78
g59
NtRp6472
(dp6473
g62
(dp6474
g89
g90
ssg71
g6463
sg64
(lp6475
S':'
asbag57
(g78
g59
NtRp6476
(dp6477
g62
(dp6478
sg71
g6463
sg64
(lp6479
g57
(g58
g59
NtRp6480
(dp6481
g62
(dp6482
g70
I5
ssg71
g6476
sg64
(lp6483
g100
asbasbasbag57
(g73
g59
NtRp6484
(dp6485
g62
(dp6486
sg71
g5023
sg64
(lp6487
g57
(g78
g59
NtRp6488
(dp6489
g62
(dp6490
g82
g83
ssg71
g6484
sg64
(lp6491
S'session_new'
p6492
asbag57
(g78
g59
NtRp6493
(dp6494
g62
(dp6495
g89
g90
ssg71
g6484
sg64
(lp6496
S':'
asbag57
(g78
g59
NtRp6497
(dp6498
g62
(dp6499
sg71
g6484
sg64
(lp6500
g57
(g58
g59
NtRp6501
(dp6502
g62
(dp6503
g70
I5
ssg71
g6497
sg64
(lp6504
g1180
asbasbasbag57
(g73
g59
NtRp6505
(dp6506
g62
(dp6507
sg71
g5023
sg64
(lp6508
g57
(g78
g59
NtRp6509
(dp6510
g62
(dp6511
g82
g83
ssg71
g6505
sg64
(lp6512
S'status'
p6513
asbag57
(g78
g59
NtRp6514
(dp6515
g62
(dp6516
g89
g90
ssg71
g6505
sg64
(lp6517
S':'
asbag57
(g78
g59
NtRp6518
(dp6519
g62
(dp6520
sg71
g6505
sg64
(lp6521
g57
(g58
g59
NtRp6522
(dp6523
g62
(dp6524
g70
I5
ssg71
g6518
sg64
(lp6525
S'200'
p6526
asbasbasbag57
(g73
g59
NtRp6527
(dp6528
g62
(dp6529
sg71
g5023
sg64
(lp6530
g57
(g78
g59
NtRp6531
(dp6532
g62
(dp6533
g82
g83
ssg71
g6527
sg64
(lp6534
S'subtitle'
p6535
asbag57
(g78
g59
NtRp6536
(dp6537
g62
(dp6538
g89
g90
ssg71
g6527
sg64
(lp6539
S':'
asbag57
(g78
g59
NtRp6540
(dp6541
g62
(dp6542
sg71
g6527
sg64
(lp6543
g57
(g58
g59
NtRp6544
(dp6545
g62
(dp6546
g70
I5
ssg71
g6540
sg64
(lp6547
g5542
(S's0\x00\x00\x00An online space for learning New Testament Greek'
tRp6548
asbasbasbag57
(g73
g59
NtRp6549
(dp6550
g62
(dp6551
sg71
g5023
sg64
(lp6552
g57
(g78
g59
NtRp6553
(dp6554
g62
(dp6555
g82
g83
ssg71
g6549
sg64
(lp6556
S'title'
p6557
asbag57
(g78
g59
NtRp6558
(dp6559
g62
(dp6560
g89
g90
ssg71
g6549
sg64
(lp6561
S':'
asbag57
(g78
g59
NtRp6562
(dp6563
g62
(dp6564
sg71
g6549
sg64
(lp6565
g57
(g58
g59
NtRp6566
(dp6567
g62
(dp6568
g70
I5
ssg71
g6562
sg64
(lp6569
g122
asbasbasbag57
(g73
g59
NtRp6570
(dp6571
g62
(dp6572
sg71
g5023
sg64
(lp6573
g57
(g78
g59
NtRp6574
(dp6575
g62
(dp6576
g82
g83
ssg71
g6570
sg64
(lp6577
g2670
asbag57
(g78
g59
NtRp6578
(dp6579
g62
(dp6580
g89
g90
ssg71
g6570
sg64
(lp6581
S':'
asbag57
(g78
g59
NtRp6582
(dp6583
g62
(dp6584
sg71
g6570
sg64
(lp6585
g57
(g58
g59
NtRp6586
(dp6587
g62
(dp6588
g70
I5
ssg71
g6582
sg64
(lp6589
g2683
asbasbasbag57
(g73
g59
NtRp6590
(dp6591
g62
(dp6592
sg71
g5023
sg64
(lp6593
g57
(g78
g59
NtRp6594
(dp6595
g62
(dp6596
g82
g83
ssg71
g6590
sg64
(lp6597
S'view'
p6598
asbag57
(g78
g59
NtRp6599
(dp6600
g62
(dp6601
g89
g90
ssg71
g6590
sg64
(lp6602
S':'
asbag57
(g78
g59
NtRp6603
(dp6604
g62
(dp6605
sg71
g6590
sg64
(lp6606
g57
(g58
g59
NtRp6607
(dp6608
g62
(dp6609
g70
I5
ssg71
g6603
sg64
(lp6610
S'exploring/index.load'
p6611
asbasbasbasbasbsS'locals'
p6612
(dp6613
g3547
S"<Storage {'paths_npcs_loader': None, 'last_query...ths/3]': '01e4c29e-9e70-4dcd-9939-48bd80d63bf1'}>"
p6614
sS'c'
S'2'
sS'self'
p6615
S'<applications.paideia.modules.paideia_exploring.paideia_path instance>'
p6616
sS'db'
p6617
S"<DAL {'auth_event': <Table {'origin': <gluon.dal...': <gluon.dal.Field object at 0x7fbc602dd5d0>}>}>"
p6618
sS'cat'
p6619
S'2'
sS'cats'
p6620
S'[1, 2, 3, 4]'
p6621
sS'curr_loc'
p6622
S"<Row {'update_record': <function <lambda> at 0x7..._record': <function <lambda> at 0x7fbc5c16fde8>}>"
p6623
sssS'traceback'
p6624
S'Traceback (most recent call last):\n  File "/home/ian/web/web2py/gluon/restricted.py", line 204, in restricted\n    exec ccode in environment\n  File "/home/ian/web/web2py/applications/paideia/controllers/exploring.py", line 104, in <module>\n  File "/home/ian/web/web2py/gluon/globals.py", line 172, in <lambda>\n    self._caller = lambda f: f()\n  File "/home/ian/web/web2py/gluon/tools.py", line 2533, in f\n    return action(*a, **b)\n  File "/home/ian/web/web2py/applications/paideia/controllers/exploring.py", line 95, in index\n    return step_init()\n  File "/home/ian/web/web2py/applications/paideia/controllers/exploring.py", line 21, in step_init\n    path_result = path.pick()\n  File "applications/paideia/modules/paideia_exploring.py", line 196, in pick\n    p = self.find_paths(cat, curr_loc)\n  File "applications/paideia/modules/paideia_exploring.py", line 224, in find_paths\n    for k in db(paths).select():\nNameError: global name \'paths\' is not defined\n'
p6625
s.