(dp1
S'output'
p2
S''
sS'layer'
p3
S'/home/ian/web2py/applications/paideia/controllers/reporting.py'
p4
sS'code'
p5
S'# coding: utf8\n\n@auth.requires_membership(role=\'administrators\')\ndef index():\n    reports = dict(attempts=\'Attemps Log\',)\n    return dict(reports=reports)\n\n@auth.requires_membership(role=\'administrators\')\ndef attempts():\n    form = SQLFORM.grid(db.attempt_log)\n    return dict(form = form)\n\n@auth.requires_membership(role=\'administrators\' | role=\'user_\'+request.args[0])\ndef user():\n    the_user = db.auth_user[request.args[0]]\n    the_name = the_user.last_name + \', \' + the_user.first_name\n    try:\n        attempts = db(db.attempt_log.name == request.args[0]).select()\n        s=db.attempt_log.score.sum()\n        row = db(db.attempt_log.name == request.args[0]).select(s).first()\n        answer = row[s]\n        score_avg = answer/len(attempts)*100\n    except:\n        score_avg = "Can\'t calculate average"\n\n    # get statistics for different classes of questions\n    the_records = db(db.question_records.name == request.args[0]).select()\n    total_len = float(len(the_records))\n\n    try:\n        cat1 = db((db.question_records.name == request.args[0]) & (db.question_records.category == 1)).select()\n        total_cat1 = len(cat1)\n        percent_cat1 = (total_cat1/total_len)*100\n    except:\n        total_cat1 = "Can\'t calculate number"\n    try:\n        cat2 = db((db.question_records.name == request.args[0]) & (db.question_records.category == 2)).select()\n        total_cat2 = len(cat2)\n        percent_cat2 = (int(total_cat2)/total_len)*100\n    except:\n        total_cat2 = "Can\'t calculate number"\n    try:\n        cat3 = db((db.question_records.name == request.args[0]) & (db.question_records.category == 3)).select()\n        total_cat3 = len(cat3)\n        percent_cat3 = (total_cat3/total_len)*100\n    except:\n        total_cat3 = "Can\'t calculate number"\n    try:\n        cat4 = db((db.question_records.name == request.args[0]) & (db.question_records.category == 3)).select()\n        total_cat4 = len(cat4)\n        percent_cat4 = (total_cat4/total_len)*100\n    except:\n        total_cat4 = "Can\'t calculate number"\n\n    form = SQLFORM.grid(db.attempt_log.name == request.args[0])\n\n    return dict(form=form, score_avg=score_avg, the_name = the_name, total_len = total_len, total_cat1 = total_cat1, total_cat2 = total_cat2, total_cat3 = total_cat3, percent_cat1 = percent_cat1, percent_cat2 = percent_cat2, percent_cat3 = percent_cat3, total_cat4 = total_cat4, percent_cat4 = percent_cat4)\n\nresponse._vars=response._caller(user)\n'
p6
sS'snapshot'
p7
(dp8
S'exception'
p9
(dp10
S'__getslice__'
p11
S"<method-wrapper '__getslice__' of exceptions.SyntaxError object>"
p12
sS'text'
p13
S'"@auth.requires_membership(role=\'administrators\' | role=\'user_\'+request.args[0])\\n"'
p14
sS'__str__'
p15
S"<method-wrapper '__str__' of exceptions.SyntaxError object>"
p16
sS'__reduce__'
p17
S'<built-in method __reduce__ of exceptions.SyntaxError object>'
p18
sS'__dict__'
p19
S'{}'
p20
sS'__sizeof__'
p21
S'<built-in method __sizeof__ of exceptions.SyntaxError object>'
p22
sS'__init__'
p23
S"<method-wrapper '__init__' of exceptions.SyntaxError object>"
p24
sS'__setattr__'
p25
S"<method-wrapper '__setattr__' of exceptions.SyntaxError object>"
p26
sS'__reduce_ex__'
p27
S'<built-in method __reduce_ex__ of exceptions.SyntaxError object>'
p28
sS'__new__'
p29
S'<built-in method __new__ of type object>'
p30
sS'__format__'
p31
S'<built-in method __format__ of exceptions.SyntaxError object>'
p32
sS'__class__'
p33
S"<type 'exceptions.SyntaxError'>"
p34
sS'filename'
p35
S"'/home/ian/web2py/applications/paideia/controllers/reporting.py'"
p36
sS'lineno'
p37
S'13'
p38
sS'msg'
p39
S"'invalid syntax'"
p40
sS'__doc__'
p41
S"'Invalid syntax.'"
p42
sS'__getitem__'
p43
S"<method-wrapper '__getitem__' of exceptions.SyntaxError object>"
p44
sS'__setstate__'
p45
S'<built-in method __setstate__ of exceptions.SyntaxError object>'
p46
sS'__getattribute__'
p47
S"<method-wrapper '__getattribute__' of exceptions.SyntaxError object>"
p48
sS'print_file_and_line'
p49
S'None'
p50
sS'args'
p51
S'(\'invalid syntax\', (\'/home/ian/web2py/applications/paideia/controllers/reporting.py\', 13, 55, "@auth.requires_membership(role=\'administrators\' | role=\'user_\'+request.args[0])\\n"))'
p52
sS'__subclasshook__'
p53
S'<built-in method __subclasshook__ of type object>'
p54
sS'offset'
p55
S'55'
p56
sS'__unicode__'
p57
S'<built-in method __unicode__ of exceptions.SyntaxError object>'
p58
sS'__delattr__'
p59
S"<method-wrapper '__delattr__' of exceptions.SyntaxError object>"
p60
sS'__repr__'
p61
S"<method-wrapper '__repr__' of exceptions.SyntaxError object>"
p62
sS'__hash__'
p63
S"<method-wrapper '__hash__' of exceptions.SyntaxError object>"
p64
ssS'evalue'
p65
S'invalid syntax (reporting.py, line 13)'
p66
sS'request'
p67
ccopy_reg
_reconstructor
p68
(cgluon.html
BEAUTIFY
p69
c__builtin__
object
p70
NtRp71
(dp72
S'attributes'
p73
(dp74
sS'components'
p75
(lp76
g68
(cgluon.html
TABLE
p77
g70
NtRp78
(dp79
g73
(dp80
S'level'
p81
I5
ssS'parent'
p82
Nsg75
(lp83
g68
(cgluon.html
TR
p84
g70
NtRp85
(dp86
g73
(dp87
sg82
g78
sg75
(lp88
g68
(cgluon.html
TD
p89
g70
NtRp90
(dp91
g73
(dp92
S'_style'
p93
S'font-weight:bold;'
p94
ssg82
g85
sg75
(lp95
S'ajax'
p96
asbag68
(g89
g70
NtRp97
(dp98
g73
(dp99
S'_valign'
p100
S'top'
p101
ssg82
g85
sg75
(lp102
S':'
asbag68
(g89
g70
NtRp103
(dp104
g73
(dp105
sg82
g85
sg75
(lp106
g68
(g69
g70
NtRp107
(dp108
g73
(dp109
g81
I5
ssg82
g103
sg75
(lp110
S'False'
p111
asbasbasbag68
(g84
g70
NtRp112
(dp113
g73
(dp114
sg82
g78
sg75
(lp115
g68
(g89
g70
NtRp116
(dp117
g73
(dp118
g93
g94
ssg82
g112
sg75
(lp119
S'application'
p120
asbag68
(g89
g70
NtRp121
(dp122
g73
(dp123
g100
g101
ssg82
g112
sg75
(lp124
S':'
asbag68
(g89
g70
NtRp125
(dp126
g73
(dp127
sg82
g112
sg75
(lp128
g68
(g69
g70
NtRp129
(dp130
g73
(dp131
g81
I5
ssg82
g125
sg75
(lp132
S'paideia'
p133
asbasbasbag68
(g84
g70
NtRp134
(dp135
g73
(dp136
sg82
g78
sg75
(lp137
g68
(g89
g70
NtRp138
(dp139
g73
(dp140
g93
g94
ssg82
g134
sg75
(lp141
g51
asbag68
(g89
g70
NtRp142
(dp143
g73
(dp144
g100
g101
ssg82
g134
sg75
(lp145
S':'
asbag68
(g89
g70
NtRp146
(dp147
g73
(dp148
sg82
g134
sg75
(lp149
g68
(g69
g70
NtRp150
(dp151
g73
(dp152
g81
I5
ssg82
g146
sg75
(lp153
g68
(g77
g70
NtRp154
(dp155
g73
(dp156
g81
I4
ssg82
Nsg75
(lp157
g68
(g84
g70
NtRp158
(dp159
g73
(dp160
sg82
g154
sg75
(lp161
g68
(g89
g70
NtRp162
(dp163
g73
(dp164
sg82
g158
sg75
(lp165
g68
(g69
g70
NtRp166
(dp167
g73
(dp168
g81
I4
ssg82
g162
sg75
(lp169
S'2'
asbasbasbasbasbasbasbag68
(g84
g70
NtRp170
(dp171
g73
(dp172
sg82
g78
sg75
(lp173
g68
(g89
g70
NtRp174
(dp175
g73
(dp176
g93
g94
ssg82
g170
sg75
(lp177
S'body'
p178
asbag68
(g89
g70
NtRp179
(dp180
g73
(dp181
g100
g101
ssg82
g170
sg75
(lp182
S':'
asbag68
(g89
g70
NtRp183
(dp184
g73
(dp185
sg82
g170
sg75
(lp186
g68
(g69
g70
NtRp187
(dp188
g73
(dp189
g81
I5
ssg82
g183
sg75
(lp190
S'<cStringIO.StringO object at 0x4051b20>'
p191
asbasbasbag68
(g84
g70
NtRp192
(dp193
g73
(dp194
sg82
g78
sg75
(lp195
g68
(g89
g70
NtRp196
(dp197
g73
(dp198
g93
g94
ssg82
g192
sg75
(lp199
S'client'
p200
asbag68
(g89
g70
NtRp201
(dp202
g73
(dp203
g100
g101
ssg82
g192
sg75
(lp204
S':'
asbag68
(g89
g70
NtRp205
(dp206
g73
(dp207
sg82
g192
sg75
(lp208
g68
(g69
g70
NtRp209
(dp210
g73
(dp211
g81
I5
ssg82
g205
sg75
(lp212
S'127.0.0.1'
p213
asbasbasbag68
(g84
g70
NtRp214
(dp215
g73
(dp216
sg82
g78
sg75
(lp217
g68
(g89
g70
NtRp218
(dp219
g73
(dp220
g93
g94
ssg82
g214
sg75
(lp221
S'controller'
p222
asbag68
(g89
g70
NtRp223
(dp224
g73
(dp225
g100
g101
ssg82
g214
sg75
(lp226
S':'
asbag68
(g89
g70
NtRp227
(dp228
g73
(dp229
sg82
g214
sg75
(lp230
g68
(g69
g70
NtRp231
(dp232
g73
(dp233
g81
I5
ssg82
g227
sg75
(lp234
S'reporting'
p235
asbasbasbag68
(g84
g70
NtRp236
(dp237
g73
(dp238
sg82
g78
sg75
(lp239
g68
(g89
g70
NtRp240
(dp241
g73
(dp242
g93
g94
ssg82
g236
sg75
(lp243
S'cookies'
p244
asbag68
(g89
g70
NtRp245
(dp246
g73
(dp247
g100
g101
ssg82
g236
sg75
(lp248
S':'
asbag68
(g89
g70
NtRp249
(dp250
g73
(dp251
sg82
g236
sg75
(lp252
g68
(g69
g70
NtRp253
(dp254
g73
(dp255
g81
I5
ssg82
g249
sg75
(lp256
g68
(g77
g70
NtRp257
(dp258
g73
(dp259
g81
I4
ssg82
Nsg75
(lp260
g68
(g84
g70
NtRp261
(dp262
g73
(dp263
sg82
g257
sg75
(lp264
g68
(g89
g70
NtRp265
(dp266
g73
(dp267
g93
g94
ssg82
g261
sg75
(lp268
S'session_id_admin'
p269
asbag68
(g89
g70
NtRp270
(dp271
g73
(dp272
g100
g101
ssg82
g261
sg75
(lp273
S':'
asbag68
(g89
g70
NtRp274
(dp275
g73
(dp276
sg82
g261
sg75
(lp277
g68
(g69
g70
NtRp278
(dp279
g73
(dp280
g81
I4
ssg82
g274
sg75
(lp281
g68
(g77
g70
NtRp282
(dp283
g73
(dp284
g81
I3
ssg82
Nsg75
(lp285
g68
(g84
g70
NtRp286
(dp287
g73
(dp288
sg82
g282
sg75
(lp289
g68
(g89
g70
NtRp290
(dp291
g73
(dp292
g93
g94
ssg82
g286
sg75
(lp293
S'comment'
p294
asbag68
(g89
g70
NtRp295
(dp296
g73
(dp297
g100
g101
ssg82
g286
sg75
(lp298
S':'
asbag68
(g89
g70
NtRp299
(dp300
g73
(dp301
sg82
g286
sg75
(lp302
g68
(g69
g70
NtRp303
(dp304
g73
(dp305
g81
I3
ssg82
g299
sg75
(lp306
S''
asbasbasbag68
(g84
g70
NtRp307
(dp308
g73
(dp309
sg82
g282
sg75
(lp310
g68
(g89
g70
NtRp311
(dp312
g73
(dp313
g93
g94
ssg82
g307
sg75
(lp314
S'domain'
p315
asbag68
(g89
g70
NtRp316
(dp317
g73
(dp318
g100
g101
ssg82
g307
sg75
(lp319
S':'
asbag68
(g89
g70
NtRp320
(dp321
g73
(dp322
sg82
g307
sg75
(lp323
g68
(g69
g70
NtRp324
(dp325
g73
(dp326
g81
I3
ssg82
g320
sg75
(lp327
S''
asbasbasbag68
(g84
g70
NtRp328
(dp329
g73
(dp330
sg82
g282
sg75
(lp331
g68
(g89
g70
NtRp332
(dp333
g73
(dp334
g93
g94
ssg82
g328
sg75
(lp335
S'expires'
p336
asbag68
(g89
g70
NtRp337
(dp338
g73
(dp339
g100
g101
ssg82
g328
sg75
(lp340
S':'
asbag68
(g89
g70
NtRp341
(dp342
g73
(dp343
sg82
g328
sg75
(lp344
g68
(g69
g70
NtRp345
(dp346
g73
(dp347
g81
I3
ssg82
g341
sg75
(lp348
S''
asbasbasbag68
(g84
g70
NtRp349
(dp350
g73
(dp351
sg82
g282
sg75
(lp352
g68
(g89
g70
NtRp353
(dp354
g73
(dp355
g93
g94
ssg82
g349
sg75
(lp356
S'httponly'
p357
asbag68
(g89
g70
NtRp358
(dp359
g73
(dp360
g100
g101
ssg82
g349
sg75
(lp361
S':'
asbag68
(g89
g70
NtRp362
(dp363
g73
(dp364
sg82
g349
sg75
(lp365
g68
(g69
g70
NtRp366
(dp367
g73
(dp368
g81
I3
ssg82
g362
sg75
(lp369
S''
asbasbasbag68
(g84
g70
NtRp370
(dp371
g73
(dp372
sg82
g282
sg75
(lp373
g68
(g89
g70
NtRp374
(dp375
g73
(dp376
g93
g94
ssg82
g370
sg75
(lp377
S'max-age'
p378
asbag68
(g89
g70
NtRp379
(dp380
g73
(dp381
g100
g101
ssg82
g370
sg75
(lp382
S':'
asbag68
(g89
g70
NtRp383
(dp384
g73
(dp385
sg82
g370
sg75
(lp386
g68
(g69
g70
NtRp387
(dp388
g73
(dp389
g81
I3
ssg82
g383
sg75
(lp390
S''
asbasbasbag68
(g84
g70
NtRp391
(dp392
g73
(dp393
sg82
g282
sg75
(lp394
g68
(g89
g70
NtRp395
(dp396
g73
(dp397
g93
g94
ssg82
g391
sg75
(lp398
S'path'
p399
asbag68
(g89
g70
NtRp400
(dp401
g73
(dp402
g100
g101
ssg82
g391
sg75
(lp403
S':'
asbag68
(g89
g70
NtRp404
(dp405
g73
(dp406
sg82
g391
sg75
(lp407
g68
(g69
g70
NtRp408
(dp409
g73
(dp410
g81
I3
ssg82
g404
sg75
(lp411
S''
asbasbasbag68
(g84
g70
NtRp412
(dp413
g73
(dp414
sg82
g282
sg75
(lp415
g68
(g89
g70
NtRp416
(dp417
g73
(dp418
g93
g94
ssg82
g412
sg75
(lp419
S'secure'
p420
asbag68
(g89
g70
NtRp421
(dp422
g73
(dp423
g100
g101
ssg82
g412
sg75
(lp424
S':'
asbag68
(g89
g70
NtRp425
(dp426
g73
(dp427
sg82
g412
sg75
(lp428
g68
(g69
g70
NtRp429
(dp430
g73
(dp431
g81
I3
ssg82
g425
sg75
(lp432
S''
asbasbasbag68
(g84
g70
NtRp433
(dp434
g73
(dp435
sg82
g282
sg75
(lp436
g68
(g89
g70
NtRp437
(dp438
g73
(dp439
g93
g94
ssg82
g433
sg75
(lp440
S'version'
p441
asbag68
(g89
g70
NtRp442
(dp443
g73
(dp444
g100
g101
ssg82
g433
sg75
(lp445
S':'
asbag68
(g89
g70
NtRp446
(dp447
g73
(dp448
sg82
g433
sg75
(lp449
g68
(g69
g70
NtRp450
(dp451
g73
(dp452
g81
I3
ssg82
g446
sg75
(lp453
S''
asbasbasbasbasbasbasbag68
(g84
g70
NtRp454
(dp455
g73
(dp456
sg82
g257
sg75
(lp457
g68
(g89
g70
NtRp458
(dp459
g73
(dp460
g93
g94
ssg82
g454
sg75
(lp461
S'session_id_paideia'
p462
asbag68
(g89
g70
NtRp463
(dp464
g73
(dp465
g100
g101
ssg82
g454
sg75
(lp466
S':'
asbag68
(g89
g70
NtRp467
(dp468
g73
(dp469
sg82
g454
sg75
(lp470
g68
(g69
g70
NtRp471
(dp472
g73
(dp473
g81
I4
ssg82
g467
sg75
(lp474
g68
(g77
g70
NtRp475
(dp476
g73
(dp477
g81
I3
ssg82
Nsg75
(lp478
g68
(g84
g70
NtRp479
(dp480
g73
(dp481
sg82
g475
sg75
(lp482
g68
(g89
g70
NtRp483
(dp484
g73
(dp485
g93
g94
ssg82
g479
sg75
(lp486
g294
asbag68
(g89
g70
NtRp487
(dp488
g73
(dp489
g100
g101
ssg82
g479
sg75
(lp490
S':'
asbag68
(g89
g70
NtRp491
(dp492
g73
(dp493
sg82
g479
sg75
(lp494
g68
(g69
g70
NtRp495
(dp496
g73
(dp497
g81
I3
ssg82
g491
sg75
(lp498
S''
asbasbasbag68
(g84
g70
NtRp499
(dp500
g73
(dp501
sg82
g475
sg75
(lp502
g68
(g89
g70
NtRp503
(dp504
g73
(dp505
g93
g94
ssg82
g499
sg75
(lp506
g315
asbag68
(g89
g70
NtRp507
(dp508
g73
(dp509
g100
g101
ssg82
g499
sg75
(lp510
S':'
asbag68
(g89
g70
NtRp511
(dp512
g73
(dp513
sg82
g499
sg75
(lp514
g68
(g69
g70
NtRp515
(dp516
g73
(dp517
g81
I3
ssg82
g511
sg75
(lp518
S''
asbasbasbag68
(g84
g70
NtRp519
(dp520
g73
(dp521
sg82
g475
sg75
(lp522
g68
(g89
g70
NtRp523
(dp524
g73
(dp525
g93
g94
ssg82
g519
sg75
(lp526
g336
asbag68
(g89
g70
NtRp527
(dp528
g73
(dp529
g100
g101
ssg82
g519
sg75
(lp530
S':'
asbag68
(g89
g70
NtRp531
(dp532
g73
(dp533
sg82
g519
sg75
(lp534
g68
(g69
g70
NtRp535
(dp536
g73
(dp537
g81
I3
ssg82
g531
sg75
(lp538
S''
asbasbasbag68
(g84
g70
NtRp539
(dp540
g73
(dp541
sg82
g475
sg75
(lp542
g68
(g89
g70
NtRp543
(dp544
g73
(dp545
g93
g94
ssg82
g539
sg75
(lp546
g357
asbag68
(g89
g70
NtRp547
(dp548
g73
(dp549
g100
g101
ssg82
g539
sg75
(lp550
S':'
asbag68
(g89
g70
NtRp551
(dp552
g73
(dp553
sg82
g539
sg75
(lp554
g68
(g69
g70
NtRp555
(dp556
g73
(dp557
g81
I3
ssg82
g551
sg75
(lp558
S''
asbasbasbag68
(g84
g70
NtRp559
(dp560
g73
(dp561
sg82
g475
sg75
(lp562
g68
(g89
g70
NtRp563
(dp564
g73
(dp565
g93
g94
ssg82
g559
sg75
(lp566
g378
asbag68
(g89
g70
NtRp567
(dp568
g73
(dp569
g100
g101
ssg82
g559
sg75
(lp570
S':'
asbag68
(g89
g70
NtRp571
(dp572
g73
(dp573
sg82
g559
sg75
(lp574
g68
(g69
g70
NtRp575
(dp576
g73
(dp577
g81
I3
ssg82
g571
sg75
(lp578
S''
asbasbasbag68
(g84
g70
NtRp579
(dp580
g73
(dp581
sg82
g475
sg75
(lp582
g68
(g89
g70
NtRp583
(dp584
g73
(dp585
g93
g94
ssg82
g579
sg75
(lp586
g399
asbag68
(g89
g70
NtRp587
(dp588
g73
(dp589
g100
g101
ssg82
g579
sg75
(lp590
S':'
asbag68
(g89
g70
NtRp591
(dp592
g73
(dp593
sg82
g579
sg75
(lp594
g68
(g69
g70
NtRp595
(dp596
g73
(dp597
g81
I3
ssg82
g591
sg75
(lp598
S''
asbasbasbag68
(g84
g70
NtRp599
(dp600
g73
(dp601
sg82
g475
sg75
(lp602
g68
(g89
g70
NtRp603
(dp604
g73
(dp605
g93
g94
ssg82
g599
sg75
(lp606
g420
asbag68
(g89
g70
NtRp607
(dp608
g73
(dp609
g100
g101
ssg82
g599
sg75
(lp610
S':'
asbag68
(g89
g70
NtRp611
(dp612
g73
(dp613
sg82
g599
sg75
(lp614
g68
(g69
g70
NtRp615
(dp616
g73
(dp617
g81
I3
ssg82
g611
sg75
(lp618
S''
asbasbasbag68
(g84
g70
NtRp619
(dp620
g73
(dp621
sg82
g475
sg75
(lp622
g68
(g89
g70
NtRp623
(dp624
g73
(dp625
g93
g94
ssg82
g619
sg75
(lp626
g441
asbag68
(g89
g70
NtRp627
(dp628
g73
(dp629
g100
g101
ssg82
g619
sg75
(lp630
S':'
asbag68
(g89
g70
NtRp631
(dp632
g73
(dp633
sg82
g619
sg75
(lp634
g68
(g69
g70
NtRp635
(dp636
g73
(dp637
g81
I3
ssg82
g631
sg75
(lp638
S''
asbasbasbasbasbasbasbag68
(g84
g70
NtRp639
(dp640
g73
(dp641
sg82
g257
sg75
(lp642
g68
(g89
g70
NtRp643
(dp644
g73
(dp645
g93
g94
ssg82
g639
sg75
(lp646
S'session_id_places'
p647
asbag68
(g89
g70
NtRp648
(dp649
g73
(dp650
g100
g101
ssg82
g639
sg75
(lp651
S':'
asbag68
(g89
g70
NtRp652
(dp653
g73
(dp654
sg82
g639
sg75
(lp655
g68
(g69
g70
NtRp656
(dp657
g73
(dp658
g81
I4
ssg82
g652
sg75
(lp659
g68
(g77
g70
NtRp660
(dp661
g73
(dp662
g81
I3
ssg82
Nsg75
(lp663
g68
(g84
g70
NtRp664
(dp665
g73
(dp666
sg82
g660
sg75
(lp667
g68
(g89
g70
NtRp668
(dp669
g73
(dp670
g93
g94
ssg82
g664
sg75
(lp671
g294
asbag68
(g89
g70
NtRp672
(dp673
g73
(dp674
g100
g101
ssg82
g664
sg75
(lp675
S':'
asbag68
(g89
g70
NtRp676
(dp677
g73
(dp678
sg82
g664
sg75
(lp679
g68
(g69
g70
NtRp680
(dp681
g73
(dp682
g81
I3
ssg82
g676
sg75
(lp683
S''
asbasbasbag68
(g84
g70
NtRp684
(dp685
g73
(dp686
sg82
g660
sg75
(lp687
g68
(g89
g70
NtRp688
(dp689
g73
(dp690
g93
g94
ssg82
g684
sg75
(lp691
g315
asbag68
(g89
g70
NtRp692
(dp693
g73
(dp694
g100
g101
ssg82
g684
sg75
(lp695
S':'
asbag68
(g89
g70
NtRp696
(dp697
g73
(dp698
sg82
g684
sg75
(lp699
g68
(g69
g70
NtRp700
(dp701
g73
(dp702
g81
I3
ssg82
g696
sg75
(lp703
S''
asbasbasbag68
(g84
g70
NtRp704
(dp705
g73
(dp706
sg82
g660
sg75
(lp707
g68
(g89
g70
NtRp708
(dp709
g73
(dp710
g93
g94
ssg82
g704
sg75
(lp711
g336
asbag68
(g89
g70
NtRp712
(dp713
g73
(dp714
g100
g101
ssg82
g704
sg75
(lp715
S':'
asbag68
(g89
g70
NtRp716
(dp717
g73
(dp718
sg82
g704
sg75
(lp719
g68
(g69
g70
NtRp720
(dp721
g73
(dp722
g81
I3
ssg82
g716
sg75
(lp723
S''
asbasbasbag68
(g84
g70
NtRp724
(dp725
g73
(dp726
sg82
g660
sg75
(lp727
g68
(g89
g70
NtRp728
(dp729
g73
(dp730
g93
g94
ssg82
g724
sg75
(lp731
g357
asbag68
(g89
g70
NtRp732
(dp733
g73
(dp734
g100
g101
ssg82
g724
sg75
(lp735
S':'
asbag68
(g89
g70
NtRp736
(dp737
g73
(dp738
sg82
g724
sg75
(lp739
g68
(g69
g70
NtRp740
(dp741
g73
(dp742
g81
I3
ssg82
g736
sg75
(lp743
S''
asbasbasbag68
(g84
g70
NtRp744
(dp745
g73
(dp746
sg82
g660
sg75
(lp747
g68
(g89
g70
NtRp748
(dp749
g73
(dp750
g93
g94
ssg82
g744
sg75
(lp751
g378
asbag68
(g89
g70
NtRp752
(dp753
g73
(dp754
g100
g101
ssg82
g744
sg75
(lp755
S':'
asbag68
(g89
g70
NtRp756
(dp757
g73
(dp758
sg82
g744
sg75
(lp759
g68
(g69
g70
NtRp760
(dp761
g73
(dp762
g81
I3
ssg82
g756
sg75
(lp763
S''
asbasbasbag68
(g84
g70
NtRp764
(dp765
g73
(dp766
sg82
g660
sg75
(lp767
g68
(g89
g70
NtRp768
(dp769
g73
(dp770
g93
g94
ssg82
g764
sg75
(lp771
g399
asbag68
(g89
g70
NtRp772
(dp773
g73
(dp774
g100
g101
ssg82
g764
sg75
(lp775
S':'
asbag68
(g89
g70
NtRp776
(dp777
g73
(dp778
sg82
g764
sg75
(lp779
g68
(g69
g70
NtRp780
(dp781
g73
(dp782
g81
I3
ssg82
g776
sg75
(lp783
S''
asbasbasbag68
(g84
g70
NtRp784
(dp785
g73
(dp786
sg82
g660
sg75
(lp787
g68
(g89
g70
NtRp788
(dp789
g73
(dp790
g93
g94
ssg82
g784
sg75
(lp791
g420
asbag68
(g89
g70
NtRp792
(dp793
g73
(dp794
g100
g101
ssg82
g784
sg75
(lp795
S':'
asbag68
(g89
g70
NtRp796
(dp797
g73
(dp798
sg82
g784
sg75
(lp799
g68
(g69
g70
NtRp800
(dp801
g73
(dp802
g81
I3
ssg82
g796
sg75
(lp803
S''
asbasbasbag68
(g84
g70
NtRp804
(dp805
g73
(dp806
sg82
g660
sg75
(lp807
g68
(g89
g70
NtRp808
(dp809
g73
(dp810
g93
g94
ssg82
g804
sg75
(lp811
g441
asbag68
(g89
g70
NtRp812
(dp813
g73
(dp814
g100
g101
ssg82
g804
sg75
(lp815
S':'
asbag68
(g89
g70
NtRp816
(dp817
g73
(dp818
sg82
g804
sg75
(lp819
g68
(g69
g70
NtRp820
(dp821
g73
(dp822
g81
I3
ssg82
g816
sg75
(lp823
S''
asbasbasbasbasbasbasbag68
(g84
g70
NtRp824
(dp825
g73
(dp826
sg82
g257
sg75
(lp827
g68
(g89
g70
NtRp828
(dp829
g73
(dp830
g93
g94
ssg82
g824
sg75
(lp831
S'session_id_welcome'
p832
asbag68
(g89
g70
NtRp833
(dp834
g73
(dp835
g100
g101
ssg82
g824
sg75
(lp836
S':'
asbag68
(g89
g70
NtRp837
(dp838
g73
(dp839
sg82
g824
sg75
(lp840
g68
(g69
g70
NtRp841
(dp842
g73
(dp843
g81
I4
ssg82
g837
sg75
(lp844
g68
(g77
g70
NtRp845
(dp846
g73
(dp847
g81
I3
ssg82
Nsg75
(lp848
g68
(g84
g70
NtRp849
(dp850
g73
(dp851
sg82
g845
sg75
(lp852
g68
(g89
g70
NtRp853
(dp854
g73
(dp855
g93
g94
ssg82
g849
sg75
(lp856
g294
asbag68
(g89
g70
NtRp857
(dp858
g73
(dp859
g100
g101
ssg82
g849
sg75
(lp860
S':'
asbag68
(g89
g70
NtRp861
(dp862
g73
(dp863
sg82
g849
sg75
(lp864
g68
(g69
g70
NtRp865
(dp866
g73
(dp867
g81
I3
ssg82
g861
sg75
(lp868
S''
asbasbasbag68
(g84
g70
NtRp869
(dp870
g73
(dp871
sg82
g845
sg75
(lp872
g68
(g89
g70
NtRp873
(dp874
g73
(dp875
g93
g94
ssg82
g869
sg75
(lp876
g315
asbag68
(g89
g70
NtRp877
(dp878
g73
(dp879
g100
g101
ssg82
g869
sg75
(lp880
S':'
asbag68
(g89
g70
NtRp881
(dp882
g73
(dp883
sg82
g869
sg75
(lp884
g68
(g69
g70
NtRp885
(dp886
g73
(dp887
g81
I3
ssg82
g881
sg75
(lp888
S''
asbasbasbag68
(g84
g70
NtRp889
(dp890
g73
(dp891
sg82
g845
sg75
(lp892
g68
(g89
g70
NtRp893
(dp894
g73
(dp895
g93
g94
ssg82
g889
sg75
(lp896
g336
asbag68
(g89
g70
NtRp897
(dp898
g73
(dp899
g100
g101
ssg82
g889
sg75
(lp900
S':'
asbag68
(g89
g70
NtRp901
(dp902
g73
(dp903
sg82
g889
sg75
(lp904
g68
(g69
g70
NtRp905
(dp906
g73
(dp907
g81
I3
ssg82
g901
sg75
(lp908
S''
asbasbasbag68
(g84
g70
NtRp909
(dp910
g73
(dp911
sg82
g845
sg75
(lp912
g68
(g89
g70
NtRp913
(dp914
g73
(dp915
g93
g94
ssg82
g909
sg75
(lp916
g357
asbag68
(g89
g70
NtRp917
(dp918
g73
(dp919
g100
g101
ssg82
g909
sg75
(lp920
S':'
asbag68
(g89
g70
NtRp921
(dp922
g73
(dp923
sg82
g909
sg75
(lp924
g68
(g69
g70
NtRp925
(dp926
g73
(dp927
g81
I3
ssg82
g921
sg75
(lp928
S''
asbasbasbag68
(g84
g70
NtRp929
(dp930
g73
(dp931
sg82
g845
sg75
(lp932
g68
(g89
g70
NtRp933
(dp934
g73
(dp935
g93
g94
ssg82
g929
sg75
(lp936
g378
asbag68
(g89
g70
NtRp937
(dp938
g73
(dp939
g100
g101
ssg82
g929
sg75
(lp940
S':'
asbag68
(g89
g70
NtRp941
(dp942
g73
(dp943
sg82
g929
sg75
(lp944
g68
(g69
g70
NtRp945
(dp946
g73
(dp947
g81
I3
ssg82
g941
sg75
(lp948
S''
asbasbasbag68
(g84
g70
NtRp949
(dp950
g73
(dp951
sg82
g845
sg75
(lp952
g68
(g89
g70
NtRp953
(dp954
g73
(dp955
g93
g94
ssg82
g949
sg75
(lp956
g399
asbag68
(g89
g70
NtRp957
(dp958
g73
(dp959
g100
g101
ssg82
g949
sg75
(lp960
S':'
asbag68
(g89
g70
NtRp961
(dp962
g73
(dp963
sg82
g949
sg75
(lp964
g68
(g69
g70
NtRp965
(dp966
g73
(dp967
g81
I3
ssg82
g961
sg75
(lp968
S''
asbasbasbag68
(g84
g70
NtRp969
(dp970
g73
(dp971
sg82
g845
sg75
(lp972
g68
(g89
g70
NtRp973
(dp974
g73
(dp975
g93
g94
ssg82
g969
sg75
(lp976
g420
asbag68
(g89
g70
NtRp977
(dp978
g73
(dp979
g100
g101
ssg82
g969
sg75
(lp980
S':'
asbag68
(g89
g70
NtRp981
(dp982
g73
(dp983
sg82
g969
sg75
(lp984
g68
(g69
g70
NtRp985
(dp986
g73
(dp987
g81
I3
ssg82
g981
sg75
(lp988
S''
asbasbasbag68
(g84
g70
NtRp989
(dp990
g73
(dp991
sg82
g845
sg75
(lp992
g68
(g89
g70
NtRp993
(dp994
g73
(dp995
g93
g94
ssg82
g989
sg75
(lp996
g441
asbag68
(g89
g70
NtRp997
(dp998
g73
(dp999
g100
g101
ssg82
g989
sg75
(lp1000
S':'
asbag68
(g89
g70
NtRp1001
(dp1002
g73
(dp1003
sg82
g989
sg75
(lp1004
g68
(g69
g70
NtRp1005
(dp1006
g73
(dp1007
g81
I3
ssg82
g1001
sg75
(lp1008
S''
asbasbasbasbasbasbasbasbasbasbasbag68
(g84
g70
NtRp1009
(dp1010
g73
(dp1011
sg82
g78
sg75
(lp1012
g68
(g89
g70
NtRp1013
(dp1014
g73
(dp1015
g93
g94
ssg82
g1009
sg75
(lp1016
S'env'
p1017
asbag68
(g89
g70
NtRp1018
(dp1019
g73
(dp1020
g100
g101
ssg82
g1009
sg75
(lp1021
S':'
asbag68
(g89
g70
NtRp1022
(dp1023
g73
(dp1024
sg82
g1009
sg75
(lp1025
g68
(g69
g70
NtRp1026
(dp1027
g73
(dp1028
g81
I5
ssg82
g1022
sg75
(lp1029
g68
(g77
g70
NtRp1030
(dp1031
g73
(dp1032
g81
I4
ssg82
Nsg75
(lp1033
g68
(g84
g70
NtRp1034
(dp1035
g73
(dp1036
sg82
g1030
sg75
(lp1037
g68
(g89
g70
NtRp1038
(dp1039
g73
(dp1040
g93
g94
ssg82
g1034
sg75
(lp1041
S'app_folders'
p1042
asbag68
(g89
g70
NtRp1043
(dp1044
g73
(dp1045
g100
g101
ssg82
g1034
sg75
(lp1046
S':'
asbag68
(g89
g70
NtRp1047
(dp1048
g73
(dp1049
sg82
g1034
sg75
(lp1050
g68
(g69
g70
NtRp1051
(dp1052
g73
(dp1053
g81
I4
ssg82
g1047
sg75
(lp1054
S"set(['/home/ian/web2py/applications/places/', '/home/ian/web2py/applications/welcome/', '/home/ian/web2py/applications/paideia/', '/home/ian/web2py/applications/admin/'])"
p1055
asbasbasbag68
(g84
g70
NtRp1056
(dp1057
g73
(dp1058
sg82
g1030
sg75
(lp1059
g68
(g89
g70
NtRp1060
(dp1061
g73
(dp1062
g93
g94
ssg82
g1056
sg75
(lp1063
S'applications_parent'
p1064
asbag68
(g89
g70
NtRp1065
(dp1066
g73
(dp1067
g100
g101
ssg82
g1056
sg75
(lp1068
S':'
asbag68
(g89
g70
NtRp1069
(dp1070
g73
(dp1071
sg82
g1056
sg75
(lp1072
g68
(g69
g70
NtRp1073
(dp1074
g73
(dp1075
g81
I4
ssg82
g1069
sg75
(lp1076
S'/home/ian/web2py'
p1077
asbasbasbag68
(g84
g70
NtRp1078
(dp1079
g73
(dp1080
sg82
g1030
sg75
(lp1081
g68
(g89
g70
NtRp1082
(dp1083
g73
(dp1084
g93
g94
ssg82
g1078
sg75
(lp1085
S'cmd_args'
p1086
asbag68
(g89
g70
NtRp1087
(dp1088
g73
(dp1089
g100
g101
ssg82
g1078
sg75
(lp1090
S':'
asbag68
(g89
g70
NtRp1091
(dp1092
g73
(dp1093
sg82
g1078
sg75
(lp1094
g68
(g69
g70
NtRp1095
(dp1096
g73
(dp1097
g81
I4
ssg82
g1091
sg75
(lp1098
g68
(g77
g70
NtRp1099
(dp1100
g73
(dp1101
g81
I3
ssg82
Nsg75
(lp1102
sbasbasbasbag68
(g84
g70
NtRp1103
(dp1104
g73
(dp1105
sg82
g1030
sg75
(lp1106
g68
(g89
g70
NtRp1107
(dp1108
g73
(dp1109
g93
g94
ssg82
g1103
sg75
(lp1110
S'cmd_options'
p1111
asbag68
(g89
g70
NtRp1112
(dp1113
g73
(dp1114
g100
g101
ssg82
g1103
sg75
(lp1115
S':'
asbag68
(g89
g70
NtRp1116
(dp1117
g73
(dp1118
sg82
g1103
sg75
(lp1119
g68
(g69
g70
NtRp1120
(dp1121
g73
(dp1122
g81
I4
ssg82
g1116
sg75
(lp1123
S"<Values at 0x25467e8: {'verbose': False, 'ip': '127.0.0.1', 'shutdown_timeout': 5, 'taskbar': False, 'nocron': False, 'pid_filename': 'httpserver.pid', 'maxthreads': None, 'softcron': False, 'server_name': 'Ariel-ubuntu', 'bpython': False, 'nogui': False, 'port': 8000, 'extcron': False, 'debuglevel': 30, 'test': None, 'folder': '/home/ian/web2py', 'config': '', 'import_models': False, 'winservice': '', 'shell': None, 'run': '', 'log_filename': 'httpserver.log', 'args': [''], 'ssl_ca_certificate': None, 'scheduler': None, 'profiler_filename': None, 'ssl_private_key': '', 'password': '<ask>', 'request_queue_size': 5, 'ssl_certificate': '', 'cronjob': False, 'plain': False, 'quiet': False, 'interfaces': None, 'minthreads': None, 'timeout': 10, 'numthreads': None, 'nobanner': False}>"
p1124
asbasbasbag68
(g84
g70
NtRp1125
(dp1126
g73
(dp1127
sg82
g1030
sg75
(lp1128
g68
(g89
g70
NtRp1129
(dp1130
g73
(dp1131
g93
g94
ssg82
g1125
sg75
(lp1132
S'db_sessions'
p1133
asbag68
(g89
g70
NtRp1134
(dp1135
g73
(dp1136
g100
g101
ssg82
g1125
sg75
(lp1137
S':'
asbag68
(g89
g70
NtRp1138
(dp1139
g73
(dp1140
sg82
g1125
sg75
(lp1141
g68
(g69
g70
NtRp1142
(dp1143
g73
(dp1144
g81
I4
ssg82
g1138
sg75
(lp1145
S'set([])'
p1146
asbasbasbag68
(g84
g70
NtRp1147
(dp1148
g73
(dp1149
sg82
g1030
sg75
(lp1150
g68
(g89
g70
NtRp1151
(dp1152
g73
(dp1153
g93
g94
ssg82
g1147
sg75
(lp1154
S'debugging'
p1155
asbag68
(g89
g70
NtRp1156
(dp1157
g73
(dp1158
g100
g101
ssg82
g1147
sg75
(lp1159
S':'
asbag68
(g89
g70
NtRp1160
(dp1161
g73
(dp1162
sg82
g1147
sg75
(lp1163
g68
(g69
g70
NtRp1164
(dp1165
g73
(dp1166
g81
I4
ssg82
g1160
sg75
(lp1167
g111
asbasbasbag68
(g84
g70
NtRp1168
(dp1169
g73
(dp1170
sg82
g1030
sg75
(lp1171
g68
(g89
g70
NtRp1172
(dp1173
g73
(dp1174
g93
g94
ssg82
g1168
sg75
(lp1175
S'gluon_parent'
p1176
asbag68
(g89
g70
NtRp1177
(dp1178
g73
(dp1179
g100
g101
ssg82
g1168
sg75
(lp1180
S':'
asbag68
(g89
g70
NtRp1181
(dp1182
g73
(dp1183
sg82
g1168
sg75
(lp1184
g68
(g69
g70
NtRp1185
(dp1186
g73
(dp1187
g81
I4
ssg82
g1181
sg75
(lp1188
S'/home/ian/web2py'
p1189
asbasbasbag68
(g84
g70
NtRp1190
(dp1191
g73
(dp1192
sg82
g1030
sg75
(lp1193
g68
(g89
g70
NtRp1194
(dp1195
g73
(dp1196
g93
g94
ssg82
g1190
sg75
(lp1197
S'http_accept'
p1198
asbag68
(g89
g70
NtRp1199
(dp1200
g73
(dp1201
g100
g101
ssg82
g1190
sg75
(lp1202
S':'
asbag68
(g89
g70
NtRp1203
(dp1204
g73
(dp1205
sg82
g1190
sg75
(lp1206
g68
(g69
g70
NtRp1207
(dp1208
g73
(dp1209
g81
I4
ssg82
g1203
sg75
(lp1210
S'text/html,application/xhtml+xml,application/xml;q=0.9,*/*;q=0.8'
p1211
asbasbasbag68
(g84
g70
NtRp1212
(dp1213
g73
(dp1214
sg82
g1030
sg75
(lp1215
g68
(g89
g70
NtRp1216
(dp1217
g73
(dp1218
g93
g94
ssg82
g1212
sg75
(lp1219
S'http_accept_encoding'
p1220
asbag68
(g89
g70
NtRp1221
(dp1222
g73
(dp1223
g100
g101
ssg82
g1212
sg75
(lp1224
S':'
asbag68
(g89
g70
NtRp1225
(dp1226
g73
(dp1227
sg82
g1212
sg75
(lp1228
g68
(g69
g70
NtRp1229
(dp1230
g73
(dp1231
g81
I4
ssg82
g1225
sg75
(lp1232
S'gzip, deflate'
p1233
asbasbasbag68
(g84
g70
NtRp1234
(dp1235
g73
(dp1236
sg82
g1030
sg75
(lp1237
g68
(g89
g70
NtRp1238
(dp1239
g73
(dp1240
g93
g94
ssg82
g1234
sg75
(lp1241
S'http_accept_language'
p1242
asbag68
(g89
g70
NtRp1243
(dp1244
g73
(dp1245
g100
g101
ssg82
g1234
sg75
(lp1246
S':'
asbag68
(g89
g70
NtRp1247
(dp1248
g73
(dp1249
sg82
g1234
sg75
(lp1250
g68
(g69
g70
NtRp1251
(dp1252
g73
(dp1253
g81
I4
ssg82
g1247
sg75
(lp1254
S'en-us,en;q=0.5'
p1255
asbasbasbag68
(g84
g70
NtRp1256
(dp1257
g73
(dp1258
sg82
g1030
sg75
(lp1259
g68
(g89
g70
NtRp1260
(dp1261
g73
(dp1262
g93
g94
ssg82
g1256
sg75
(lp1263
S'http_cache_control'
p1264
asbag68
(g89
g70
NtRp1265
(dp1266
g73
(dp1267
g100
g101
ssg82
g1256
sg75
(lp1268
S':'
asbag68
(g89
g70
NtRp1269
(dp1270
g73
(dp1271
sg82
g1256
sg75
(lp1272
g68
(g69
g70
NtRp1273
(dp1274
g73
(dp1275
g81
I4
ssg82
g1269
sg75
(lp1276
S'max-age=0'
p1277
asbasbasbag68
(g84
g70
NtRp1278
(dp1279
g73
(dp1280
sg82
g1030
sg75
(lp1281
g68
(g89
g70
NtRp1282
(dp1283
g73
(dp1284
g93
g94
ssg82
g1278
sg75
(lp1285
S'http_connection'
p1286
asbag68
(g89
g70
NtRp1287
(dp1288
g73
(dp1289
g100
g101
ssg82
g1278
sg75
(lp1290
S':'
asbag68
(g89
g70
NtRp1291
(dp1292
g73
(dp1293
sg82
g1278
sg75
(lp1294
g68
(g69
g70
NtRp1295
(dp1296
g73
(dp1297
g81
I4
ssg82
g1291
sg75
(lp1298
S'keep-alive'
p1299
asbasbasbag68
(g84
g70
NtRp1300
(dp1301
g73
(dp1302
sg82
g1030
sg75
(lp1303
g68
(g89
g70
NtRp1304
(dp1305
g73
(dp1306
g93
g94
ssg82
g1300
sg75
(lp1307
S'http_cookie'
p1308
asbag68
(g89
g70
NtRp1309
(dp1310
g73
(dp1311
g100
g101
ssg82
g1300
sg75
(lp1312
S':'
asbag68
(g89
g70
NtRp1313
(dp1314
g73
(dp1315
sg82
g1300
sg75
(lp1316
g68
(g69
g70
NtRp1317
(dp1318
g73
(dp1319
g81
I4
ssg82
g1313
sg75
(lp1320
S'session_id_welcome=127.0.0.1-9ce72f93-e7fe-423a-b24a-f91fc4f908bf; session_id_paideia=127.0.0.1-38346cf4-0a63-4c64-88f4-8a75236eaea4; session_id_admin=127.0.0.1-733e5102-e031-4237-a565-ba37d6526866; session_id_places=127.0.0.1-9b08bf3b-8d06-4377-af16-7b2b5b28e33e'
p1321
asbasbasbag68
(g84
g70
NtRp1322
(dp1323
g73
(dp1324
sg82
g1030
sg75
(lp1325
g68
(g89
g70
NtRp1326
(dp1327
g73
(dp1328
g93
g94
ssg82
g1322
sg75
(lp1329
S'http_host'
p1330
asbag68
(g89
g70
NtRp1331
(dp1332
g73
(dp1333
g100
g101
ssg82
g1322
sg75
(lp1334
S':'
asbag68
(g89
g70
NtRp1335
(dp1336
g73
(dp1337
sg82
g1322
sg75
(lp1338
g68
(g69
g70
NtRp1339
(dp1340
g73
(dp1341
g81
I4
ssg82
g1335
sg75
(lp1342
S'127.0.0.1:8000'
p1343
asbasbasbag68
(g84
g70
NtRp1344
(dp1345
g73
(dp1346
sg82
g1030
sg75
(lp1347
g68
(g89
g70
NtRp1348
(dp1349
g73
(dp1350
g93
g94
ssg82
g1344
sg75
(lp1351
S'http_referer'
p1352
asbag68
(g89
g70
NtRp1353
(dp1354
g73
(dp1355
g100
g101
ssg82
g1344
sg75
(lp1356
S':'
asbag68
(g89
g70
NtRp1357
(dp1358
g73
(dp1359
sg82
g1344
sg75
(lp1360
g68
(g69
g70
NtRp1361
(dp1362
g73
(dp1363
g81
I4
ssg82
g1357
sg75
(lp1364
S'http://127.0.0.1:8000/paideia/listing/user'
p1365
asbasbasbag68
(g84
g70
NtRp1366
(dp1367
g73
(dp1368
sg82
g1030
sg75
(lp1369
g68
(g89
g70
NtRp1370
(dp1371
g73
(dp1372
g93
g94
ssg82
g1366
sg75
(lp1373
S'http_user_agent'
p1374
asbag68
(g89
g70
NtRp1375
(dp1376
g73
(dp1377
g100
g101
ssg82
g1366
sg75
(lp1378
S':'
asbag68
(g89
g70
NtRp1379
(dp1380
g73
(dp1381
sg82
g1366
sg75
(lp1382
g68
(g69
g70
NtRp1383
(dp1384
g73
(dp1385
g81
I4
ssg82
g1379
sg75
(lp1386
S'Mozilla/5.0 (Ubuntu; X11; Linux x86_64; rv:9.0a2) Gecko/20111022 Firefox/9.0a2'
p1387
asbasbasbag68
(g84
g70
NtRp1388
(dp1389
g73
(dp1390
sg82
g1030
sg75
(lp1391
g68
(g89
g70
NtRp1392
(dp1393
g73
(dp1394
g93
g94
ssg82
g1388
sg75
(lp1395
S'is_jython'
p1396
asbag68
(g89
g70
NtRp1397
(dp1398
g73
(dp1399
g100
g101
ssg82
g1388
sg75
(lp1400
S':'
asbag68
(g89
g70
NtRp1401
(dp1402
g73
(dp1403
sg82
g1388
sg75
(lp1404
g68
(g69
g70
NtRp1405
(dp1406
g73
(dp1407
g81
I4
ssg82
g1401
sg75
(lp1408
g111
asbasbasbag68
(g84
g70
NtRp1409
(dp1410
g73
(dp1411
sg82
g1030
sg75
(lp1412
g68
(g89
g70
NtRp1413
(dp1414
g73
(dp1415
g93
g94
ssg82
g1409
sg75
(lp1416
S'path_info'
p1417
asbag68
(g89
g70
NtRp1418
(dp1419
g73
(dp1420
g100
g101
ssg82
g1409
sg75
(lp1421
S':'
asbag68
(g89
g70
NtRp1422
(dp1423
g73
(dp1424
sg82
g1409
sg75
(lp1425
g68
(g69
g70
NtRp1426
(dp1427
g73
(dp1428
g81
I4
ssg82
g1422
sg75
(lp1429
S'/paideia/reporting/user/2'
p1430
asbasbasbag68
(g84
g70
NtRp1431
(dp1432
g73
(dp1433
sg82
g1030
sg75
(lp1434
g68
(g89
g70
NtRp1435
(dp1436
g73
(dp1437
g93
g94
ssg82
g1431
sg75
(lp1438
S'query_string'
p1439
asbag68
(g89
g70
NtRp1440
(dp1441
g73
(dp1442
g100
g101
ssg82
g1431
sg75
(lp1443
S':'
asbag68
(g89
g70
NtRp1444
(dp1445
g73
(dp1446
sg82
g1431
sg75
(lp1447
g68
(g69
g70
NtRp1448
(dp1449
g73
(dp1450
g81
I4
ssg82
g1444
sg75
(lp1451
S''
asbasbasbag68
(g84
g70
NtRp1452
(dp1453
g73
(dp1454
sg82
g1030
sg75
(lp1455
g68
(g89
g70
NtRp1456
(dp1457
g73
(dp1458
g93
g94
ssg82
g1452
sg75
(lp1459
S'remote_addr'
p1460
asbag68
(g89
g70
NtRp1461
(dp1462
g73
(dp1463
g100
g101
ssg82
g1452
sg75
(lp1464
S':'
asbag68
(g89
g70
NtRp1465
(dp1466
g73
(dp1467
sg82
g1452
sg75
(lp1468
g68
(g69
g70
NtRp1469
(dp1470
g73
(dp1471
g81
I4
ssg82
g1465
sg75
(lp1472
g213
asbasbasbag68
(g84
g70
NtRp1473
(dp1474
g73
(dp1475
sg82
g1030
sg75
(lp1476
g68
(g89
g70
NtRp1477
(dp1478
g73
(dp1479
g93
g94
ssg82
g1473
sg75
(lp1480
S'remote_port'
p1481
asbag68
(g89
g70
NtRp1482
(dp1483
g73
(dp1484
g100
g101
ssg82
g1473
sg75
(lp1485
S':'
asbag68
(g89
g70
NtRp1486
(dp1487
g73
(dp1488
sg82
g1473
sg75
(lp1489
g68
(g69
g70
NtRp1490
(dp1491
g73
(dp1492
g81
I4
ssg82
g1486
sg75
(lp1493
S'54107'
p1494
asbasbasbag68
(g84
g70
NtRp1495
(dp1496
g73
(dp1497
sg82
g1030
sg75
(lp1498
g68
(g89
g70
NtRp1499
(dp1500
g73
(dp1501
g93
g94
ssg82
g1495
sg75
(lp1502
S'request_method'
p1503
asbag68
(g89
g70
NtRp1504
(dp1505
g73
(dp1506
g100
g101
ssg82
g1495
sg75
(lp1507
S':'
asbag68
(g89
g70
NtRp1508
(dp1509
g73
(dp1510
sg82
g1495
sg75
(lp1511
g68
(g69
g70
NtRp1512
(dp1513
g73
(dp1514
g81
I4
ssg82
g1508
sg75
(lp1515
S'GET'
p1516
asbasbasbag68
(g84
g70
NtRp1517
(dp1518
g73
(dp1519
sg82
g1030
sg75
(lp1520
g68
(g89
g70
NtRp1521
(dp1522
g73
(dp1523
g93
g94
ssg82
g1517
sg75
(lp1524
S'script_name'
p1525
asbag68
(g89
g70
NtRp1526
(dp1527
g73
(dp1528
g100
g101
ssg82
g1517
sg75
(lp1529
S':'
asbag68
(g89
g70
NtRp1530
(dp1531
g73
(dp1532
sg82
g1517
sg75
(lp1533
g68
(g69
g70
NtRp1534
(dp1535
g73
(dp1536
g81
I4
ssg82
g1530
sg75
(lp1537
S''
asbasbasbag68
(g84
g70
NtRp1538
(dp1539
g73
(dp1540
sg82
g1030
sg75
(lp1541
g68
(g89
g70
NtRp1542
(dp1543
g73
(dp1544
g93
g94
ssg82
g1538
sg75
(lp1545
S'server_name'
p1546
asbag68
(g89
g70
NtRp1547
(dp1548
g73
(dp1549
g100
g101
ssg82
g1538
sg75
(lp1550
S':'
asbag68
(g89
g70
NtRp1551
(dp1552
g73
(dp1553
sg82
g1538
sg75
(lp1554
g68
(g69
g70
NtRp1555
(dp1556
g73
(dp1557
g81
I4
ssg82
g1551
sg75
(lp1558
S'Ariel-ubuntu'
p1559
asbasbasbag68
(g84
g70
NtRp1560
(dp1561
g73
(dp1562
sg82
g1030
sg75
(lp1563
g68
(g89
g70
NtRp1564
(dp1565
g73
(dp1566
g93
g94
ssg82
g1560
sg75
(lp1567
S'server_port'
p1568
asbag68
(g89
g70
NtRp1569
(dp1570
g73
(dp1571
g100
g101
ssg82
g1560
sg75
(lp1572
S':'
asbag68
(g89
g70
NtRp1573
(dp1574
g73
(dp1575
sg82
g1560
sg75
(lp1576
g68
(g69
g70
NtRp1577
(dp1578
g73
(dp1579
g81
I4
ssg82
g1573
sg75
(lp1580
S'8000'
p1581
asbasbasbag68
(g84
g70
NtRp1582
(dp1583
g73
(dp1584
sg82
g1030
sg75
(lp1585
g68
(g89
g70
NtRp1586
(dp1587
g73
(dp1588
g93
g94
ssg82
g1582
sg75
(lp1589
S'server_protocol'
p1590
asbag68
(g89
g70
NtRp1591
(dp1592
g73
(dp1593
g100
g101
ssg82
g1582
sg75
(lp1594
S':'
asbag68
(g89
g70
NtRp1595
(dp1596
g73
(dp1597
sg82
g1582
sg75
(lp1598
g68
(g69
g70
NtRp1599
(dp1600
g73
(dp1601
g81
I4
ssg82
g1595
sg75
(lp1602
S'HTTP/1.1'
p1603
asbasbasbag68
(g84
g70
NtRp1604
(dp1605
g73
(dp1606
sg82
g1030
sg75
(lp1607
g68
(g89
g70
NtRp1608
(dp1609
g73
(dp1610
g93
g94
ssg82
g1604
sg75
(lp1611
S'server_software'
p1612
asbag68
(g89
g70
NtRp1613
(dp1614
g73
(dp1615
g100
g101
ssg82
g1604
sg75
(lp1616
S':'
asbag68
(g89
g70
NtRp1617
(dp1618
g73
(dp1619
sg82
g1604
sg75
(lp1620
g68
(g69
g70
NtRp1621
(dp1622
g73
(dp1623
g81
I4
ssg82
g1617
sg75
(lp1624
S'Rocket 1.2.4'
p1625
asbasbasbag68
(g84
g70
NtRp1626
(dp1627
g73
(dp1628
sg82
g1030
sg75
(lp1629
g68
(g89
g70
NtRp1630
(dp1631
g73
(dp1632
g93
g94
ssg82
g1626
sg75
(lp1633
S'web2py_crontype'
p1634
asbag68
(g89
g70
NtRp1635
(dp1636
g73
(dp1637
g100
g101
ssg82
g1626
sg75
(lp1638
S':'
asbag68
(g89
g70
NtRp1639
(dp1640
g73
(dp1641
sg82
g1626
sg75
(lp1642
g68
(g69
g70
NtRp1643
(dp1644
g73
(dp1645
g81
I4
ssg82
g1639
sg75
(lp1646
S'hard'
p1647
asbasbasbag68
(g84
g70
NtRp1648
(dp1649
g73
(dp1650
sg82
g1030
sg75
(lp1651
g68
(g89
g70
NtRp1652
(dp1653
g73
(dp1654
g93
g94
ssg82
g1648
sg75
(lp1655
S'web2py_path'
p1656
asbag68
(g89
g70
NtRp1657
(dp1658
g73
(dp1659
g100
g101
ssg82
g1648
sg75
(lp1660
S':'
asbag68
(g89
g70
NtRp1661
(dp1662
g73
(dp1663
sg82
g1648
sg75
(lp1664
g68
(g69
g70
NtRp1665
(dp1666
g73
(dp1667
g81
I4
ssg82
g1661
sg75
(lp1668
g1077
asbasbasbag68
(g84
g70
NtRp1669
(dp1670
g73
(dp1671
sg82
g1030
sg75
(lp1672
g68
(g89
g70
NtRp1673
(dp1674
g73
(dp1675
g93
g94
ssg82
g1669
sg75
(lp1676
S'web2py_version'
p1677
asbag68
(g89
g70
NtRp1678
(dp1679
g73
(dp1680
g100
g101
ssg82
g1669
sg75
(lp1681
S':'
asbag68
(g89
g70
NtRp1682
(dp1683
g73
(dp1684
sg82
g1669
sg75
(lp1685
g68
(g69
g70
NtRp1686
(dp1687
g73
(dp1688
g81
I4
ssg82
g1682
sg75
(lp1689
g68
(g77
g70
NtRp1690
(dp1691
g73
(dp1692
g81
I3
ssg82
Nsg75
(lp1693
g68
(g84
g70
NtRp1694
(dp1695
g73
(dp1696
sg82
g1690
sg75
(lp1697
g68
(g89
g70
NtRp1698
(dp1699
g73
(dp1700
sg82
g1694
sg75
(lp1701
g68
(g69
g70
NtRp1702
(dp1703
g73
(dp1704
g81
I3
ssg82
g1698
sg75
(lp1705
S'1'
asbasbasbag68
(g84
g70
NtRp1706
(dp1707
g73
(dp1708
sg82
g1690
sg75
(lp1709
g68
(g89
g70
NtRp1710
(dp1711
g73
(dp1712
sg82
g1706
sg75
(lp1713
g68
(g69
g70
NtRp1714
(dp1715
g73
(dp1716
g81
I3
ssg82
g1710
sg75
(lp1717
S'99'
p1718
asbasbasbag68
(g84
g70
NtRp1719
(dp1720
g73
(dp1721
sg82
g1690
sg75
(lp1722
g68
(g89
g70
NtRp1723
(dp1724
g73
(dp1725
sg82
g1719
sg75
(lp1726
g68
(g69
g70
NtRp1727
(dp1728
g73
(dp1729
g81
I3
ssg82
g1723
sg75
(lp1730
S'2'
asbasbasbag68
(g84
g70
NtRp1731
(dp1732
g73
(dp1733
sg82
g1690
sg75
(lp1734
g68
(g89
g70
NtRp1735
(dp1736
g73
(dp1737
sg82
g1731
sg75
(lp1738
g68
(g69
g70
NtRp1739
(dp1740
g73
(dp1741
g81
I3
ssg82
g1735
sg75
(lp1742
S'datetime.datetime(2011, 9, 26, 6, 55, 33)'
p1743
asbasbasbag68
(g84
g70
NtRp1744
(dp1745
g73
(dp1746
sg82
g1690
sg75
(lp1747
g68
(g89
g70
NtRp1748
(dp1749
g73
(dp1750
sg82
g1744
sg75
(lp1751
g68
(g69
g70
NtRp1752
(dp1753
g73
(dp1754
g81
I3
ssg82
g1748
sg75
(lp1755
S'stable'
p1756
asbasbasbasbasbasbasbag68
(g84
g70
NtRp1757
(dp1758
g73
(dp1759
sg82
g1030
sg75
(lp1760
g68
(g89
g70
NtRp1761
(dp1762
g73
(dp1763
g93
g94
ssg82
g1757
sg75
(lp1764
S'wsgi_errors'
p1765
asbag68
(g89
g70
NtRp1766
(dp1767
g73
(dp1768
g100
g101
ssg82
g1757
sg75
(lp1769
S':'
asbag68
(g89
g70
NtRp1770
(dp1771
g73
(dp1772
sg82
g1757
sg75
(lp1773
g68
(g69
g70
NtRp1774
(dp1775
g73
(dp1776
g81
I4
ssg82
g1770
sg75
(lp1777
S"<open file '<stderr>', mode 'w' at 0x7f3c1e008270>"
p1778
asbasbasbag68
(g84
g70
NtRp1779
(dp1780
g73
(dp1781
sg82
g1030
sg75
(lp1782
g68
(g89
g70
NtRp1783
(dp1784
g73
(dp1785
g93
g94
ssg82
g1779
sg75
(lp1786
S'wsgi_file_wrapper'
p1787
asbag68
(g89
g70
NtRp1788
(dp1789
g73
(dp1790
g100
g101
ssg82
g1779
sg75
(lp1791
S':'
asbag68
(g89
g70
NtRp1792
(dp1793
g73
(dp1794
sg82
g1779
sg75
(lp1795
g68
(g69
g70
NtRp1796
(dp1797
g73
(dp1798
g81
I4
ssg82
g1792
sg75
(lp1799
S'<class wsgiref.util.FileWrapper at 0x240f7a0>'
p1800
asbasbasbag68
(g84
g70
NtRp1801
(dp1802
g73
(dp1803
sg82
g1030
sg75
(lp1804
g68
(g89
g70
NtRp1805
(dp1806
g73
(dp1807
g93
g94
ssg82
g1801
sg75
(lp1808
S'wsgi_input'
p1809
asbag68
(g89
g70
NtRp1810
(dp1811
g73
(dp1812
g100
g101
ssg82
g1801
sg75
(lp1813
S':'
asbag68
(g89
g70
NtRp1814
(dp1815
g73
(dp1816
sg82
g1801
sg75
(lp1817
g68
(g69
g70
NtRp1818
(dp1819
g73
(dp1820
g81
I4
ssg82
g1814
sg75
(lp1821
S'<socket._fileobject object at 0x2f066d0>'
p1822
asbasbasbag68
(g84
g70
NtRp1823
(dp1824
g73
(dp1825
sg82
g1030
sg75
(lp1826
g68
(g89
g70
NtRp1827
(dp1828
g73
(dp1829
g93
g94
ssg82
g1823
sg75
(lp1830
S'wsgi_multiprocess'
p1831
asbag68
(g89
g70
NtRp1832
(dp1833
g73
(dp1834
g100
g101
ssg82
g1823
sg75
(lp1835
S':'
asbag68
(g89
g70
NtRp1836
(dp1837
g73
(dp1838
sg82
g1823
sg75
(lp1839
g68
(g69
g70
NtRp1840
(dp1841
g73
(dp1842
g81
I4
ssg82
g1836
sg75
(lp1843
g111
asbasbasbag68
(g84
g70
NtRp1844
(dp1845
g73
(dp1846
sg82
g1030
sg75
(lp1847
g68
(g89
g70
NtRp1848
(dp1849
g73
(dp1850
g93
g94
ssg82
g1844
sg75
(lp1851
S'wsgi_multithread'
p1852
asbag68
(g89
g70
NtRp1853
(dp1854
g73
(dp1855
g100
g101
ssg82
g1844
sg75
(lp1856
S':'
asbag68
(g89
g70
NtRp1857
(dp1858
g73
(dp1859
sg82
g1844
sg75
(lp1860
g68
(g69
g70
NtRp1861
(dp1862
g73
(dp1863
g81
I4
ssg82
g1857
sg75
(lp1864
S'True'
p1865
asbasbasbag68
(g84
g70
NtRp1866
(dp1867
g73
(dp1868
sg82
g1030
sg75
(lp1869
g68
(g89
g70
NtRp1870
(dp1871
g73
(dp1872
g93
g94
ssg82
g1866
sg75
(lp1873
S'wsgi_run_once'
p1874
asbag68
(g89
g70
NtRp1875
(dp1876
g73
(dp1877
g100
g101
ssg82
g1866
sg75
(lp1878
S':'
asbag68
(g89
g70
NtRp1879
(dp1880
g73
(dp1881
sg82
g1866
sg75
(lp1882
g68
(g69
g70
NtRp1883
(dp1884
g73
(dp1885
g81
I4
ssg82
g1879
sg75
(lp1886
g111
asbasbasbag68
(g84
g70
NtRp1887
(dp1888
g73
(dp1889
sg82
g1030
sg75
(lp1890
g68
(g89
g70
NtRp1891
(dp1892
g73
(dp1893
g93
g94
ssg82
g1887
sg75
(lp1894
S'wsgi_url_scheme'
p1895
asbag68
(g89
g70
NtRp1896
(dp1897
g73
(dp1898
g100
g101
ssg82
g1887
sg75
(lp1899
S':'
asbag68
(g89
g70
NtRp1900
(dp1901
g73
(dp1902
sg82
g1887
sg75
(lp1903
g68
(g69
g70
NtRp1904
(dp1905
g73
(dp1906
g81
I4
ssg82
g1900
sg75
(lp1907
S'http'
p1908
asbasbasbag68
(g84
g70
NtRp1909
(dp1910
g73
(dp1911
sg82
g1030
sg75
(lp1912
g68
(g89
g70
NtRp1913
(dp1914
g73
(dp1915
g93
g94
ssg82
g1909
sg75
(lp1916
S'wsgi_version'
p1917
asbag68
(g89
g70
NtRp1918
(dp1919
g73
(dp1920
g100
g101
ssg82
g1909
sg75
(lp1921
S':'
asbag68
(g89
g70
NtRp1922
(dp1923
g73
(dp1924
sg82
g1909
sg75
(lp1925
g68
(g69
g70
NtRp1926
(dp1927
g73
(dp1928
g81
I4
ssg82
g1922
sg75
(lp1929
g68
(g77
g70
NtRp1930
(dp1931
g73
(dp1932
g81
I3
ssg82
Nsg75
(lp1933
g68
(g84
g70
NtRp1934
(dp1935
g73
(dp1936
sg82
g1930
sg75
(lp1937
g68
(g89
g70
NtRp1938
(dp1939
g73
(dp1940
sg82
g1934
sg75
(lp1941
g68
(g69
g70
NtRp1942
(dp1943
g73
(dp1944
g81
I3
ssg82
g1938
sg75
(lp1945
S'1'
asbasbasbag68
(g84
g70
NtRp1946
(dp1947
g73
(dp1948
sg82
g1930
sg75
(lp1949
g68
(g89
g70
NtRp1950
(dp1951
g73
(dp1952
sg82
g1946
sg75
(lp1953
g68
(g69
g70
NtRp1954
(dp1955
g73
(dp1956
g81
I3
ssg82
g1950
sg75
(lp1957
S'0'
asbasbasbasbasbasbasbasbasbasbasbag68
(g84
g70
NtRp1958
(dp1959
g73
(dp1960
sg82
g78
sg75
(lp1961
g68
(g89
g70
NtRp1962
(dp1963
g73
(dp1964
g93
g94
ssg82
g1958
sg75
(lp1965
S'extension'
p1966
asbag68
(g89
g70
NtRp1967
(dp1968
g73
(dp1969
g100
g101
ssg82
g1958
sg75
(lp1970
S':'
asbag68
(g89
g70
NtRp1971
(dp1972
g73
(dp1973
sg82
g1958
sg75
(lp1974
g68
(g69
g70
NtRp1975
(dp1976
g73
(dp1977
g81
I5
ssg82
g1971
sg75
(lp1978
S'html'
p1979
asbasbasbag68
(g84
g70
NtRp1980
(dp1981
g73
(dp1982
sg82
g78
sg75
(lp1983
g68
(g89
g70
NtRp1984
(dp1985
g73
(dp1986
g93
g94
ssg82
g1980
sg75
(lp1987
S'folder'
p1988
asbag68
(g89
g70
NtRp1989
(dp1990
g73
(dp1991
g100
g101
ssg82
g1980
sg75
(lp1992
S':'
asbag68
(g89
g70
NtRp1993
(dp1994
g73
(dp1995
sg82
g1980
sg75
(lp1996
g68
(g69
g70
NtRp1997
(dp1998
g73
(dp1999
g81
I5
ssg82
g1993
sg75
(lp2000
S'/home/ian/web2py/applications/paideia/'
p2001
asbasbasbag68
(g84
g70
NtRp2002
(dp2003
g73
(dp2004
sg82
g78
sg75
(lp2005
g68
(g89
g70
NtRp2006
(dp2007
g73
(dp2008
g93
g94
ssg82
g2002
sg75
(lp2009
S'function'
p2010
asbag68
(g89
g70
NtRp2011
(dp2012
g73
(dp2013
g100
g101
ssg82
g2002
sg75
(lp2014
S':'
asbag68
(g89
g70
NtRp2015
(dp2016
g73
(dp2017
sg82
g2002
sg75
(lp2018
g68
(g69
g70
NtRp2019
(dp2020
g73
(dp2021
g81
I5
ssg82
g2015
sg75
(lp2022
S'user'
p2023
asbasbasbag68
(g84
g70
NtRp2024
(dp2025
g73
(dp2026
sg82
g78
sg75
(lp2027
g68
(g89
g70
NtRp2028
(dp2029
g73
(dp2030
g93
g94
ssg82
g2024
sg75
(lp2031
S'get_vars'
p2032
asbag68
(g89
g70
NtRp2033
(dp2034
g73
(dp2035
g100
g101
ssg82
g2024
sg75
(lp2036
S':'
asbag68
(g89
g70
NtRp2037
(dp2038
g73
(dp2039
sg82
g2024
sg75
(lp2040
g68
(g69
g70
NtRp2041
(dp2042
g73
(dp2043
g81
I5
ssg82
g2037
sg75
(lp2044
g68
(g77
g70
NtRp2045
(dp2046
g73
(dp2047
g81
I4
ssg82
Nsg75
(lp2048
sbasbasbasbag68
(g84
g70
NtRp2049
(dp2050
g73
(dp2051
sg82
g78
sg75
(lp2052
g68
(g89
g70
NtRp2053
(dp2054
g73
(dp2055
g93
g94
ssg82
g2049
sg75
(lp2056
S'global_settings'
p2057
asbag68
(g89
g70
NtRp2058
(dp2059
g73
(dp2060
g100
g101
ssg82
g2049
sg75
(lp2061
S':'
asbag68
(g89
g70
NtRp2062
(dp2063
g73
(dp2064
sg82
g2049
sg75
(lp2065
g68
(g69
g70
NtRp2066
(dp2067
g73
(dp2068
g81
I5
ssg82
g2062
sg75
(lp2069
g68
(g77
g70
NtRp2070
(dp2071
g73
(dp2072
g81
I4
ssg82
Nsg75
(lp2073
g68
(g84
g70
NtRp2074
(dp2075
g73
(dp2076
sg82
g2070
sg75
(lp2077
g68
(g89
g70
NtRp2078
(dp2079
g73
(dp2080
g93
g94
ssg82
g2074
sg75
(lp2081
g1042
asbag68
(g89
g70
NtRp2082
(dp2083
g73
(dp2084
g100
g101
ssg82
g2074
sg75
(lp2085
S':'
asbag68
(g89
g70
NtRp2086
(dp2087
g73
(dp2088
sg82
g2074
sg75
(lp2089
g68
(g69
g70
NtRp2090
(dp2091
g73
(dp2092
g81
I4
ssg82
g2086
sg75
(lp2093
S"set(['/home/ian/web2py/applications/places/', '/home/ian/web2py/applications/welcome/', '/home/ian/web2py/applications/paideia/', '/home/ian/web2py/applications/admin/'])"
p2094
asbasbasbag68
(g84
g70
NtRp2095
(dp2096
g73
(dp2097
sg82
g2070
sg75
(lp2098
g68
(g89
g70
NtRp2099
(dp2100
g73
(dp2101
g93
g94
ssg82
g2095
sg75
(lp2102
g1064
asbag68
(g89
g70
NtRp2103
(dp2104
g73
(dp2105
g100
g101
ssg82
g2095
sg75
(lp2106
S':'
asbag68
(g89
g70
NtRp2107
(dp2108
g73
(dp2109
sg82
g2095
sg75
(lp2110
g68
(g69
g70
NtRp2111
(dp2112
g73
(dp2113
g81
I4
ssg82
g2107
sg75
(lp2114
g1077
asbasbasbag68
(g84
g70
NtRp2115
(dp2116
g73
(dp2117
sg82
g2070
sg75
(lp2118
g68
(g89
g70
NtRp2119
(dp2120
g73
(dp2121
g93
g94
ssg82
g2115
sg75
(lp2122
g1086
asbag68
(g89
g70
NtRp2123
(dp2124
g73
(dp2125
g100
g101
ssg82
g2115
sg75
(lp2126
S':'
asbag68
(g89
g70
NtRp2127
(dp2128
g73
(dp2129
sg82
g2115
sg75
(lp2130
g68
(g69
g70
NtRp2131
(dp2132
g73
(dp2133
g81
I4
ssg82
g2127
sg75
(lp2134
g68
(g77
g70
NtRp2135
(dp2136
g73
(dp2137
g81
I3
ssg82
Nsg75
(lp2138
sbasbasbasbag68
(g84
g70
NtRp2139
(dp2140
g73
(dp2141
sg82
g2070
sg75
(lp2142
g68
(g89
g70
NtRp2143
(dp2144
g73
(dp2145
g93
g94
ssg82
g2139
sg75
(lp2146
g1111
asbag68
(g89
g70
NtRp2147
(dp2148
g73
(dp2149
g100
g101
ssg82
g2139
sg75
(lp2150
S':'
asbag68
(g89
g70
NtRp2151
(dp2152
g73
(dp2153
sg82
g2139
sg75
(lp2154
g68
(g69
g70
NtRp2155
(dp2156
g73
(dp2157
g81
I4
ssg82
g2151
sg75
(lp2158
S"<Values at 0x25467e8: {'verbose': False, 'ip': '127.0.0.1', 'shutdown_timeout': 5, 'taskbar': False, 'nocron': False, 'pid_filename': 'httpserver.pid', 'maxthreads': None, 'softcron': False, 'server_name': 'Ariel-ubuntu', 'bpython': False, 'nogui': False, 'port': 8000, 'extcron': False, 'debuglevel': 30, 'test': None, 'folder': '/home/ian/web2py', 'config': '', 'import_models': False, 'winservice': '', 'shell': None, 'run': '', 'log_filename': 'httpserver.log', 'args': [''], 'ssl_ca_certificate': None, 'scheduler': None, 'profiler_filename': None, 'ssl_private_key': '', 'password': '<ask>', 'request_queue_size': 5, 'ssl_certificate': '', 'cronjob': False, 'plain': False, 'quiet': False, 'interfaces': None, 'minthreads': None, 'timeout': 10, 'numthreads': None, 'nobanner': False}>"
p2159
asbasbasbag68
(g84
g70
NtRp2160
(dp2161
g73
(dp2162
sg82
g2070
sg75
(lp2163
g68
(g89
g70
NtRp2164
(dp2165
g73
(dp2166
g93
g94
ssg82
g2160
sg75
(lp2167
g1133
asbag68
(g89
g70
NtRp2168
(dp2169
g73
(dp2170
g100
g101
ssg82
g2160
sg75
(lp2171
S':'
asbag68
(g89
g70
NtRp2172
(dp2173
g73
(dp2174
sg82
g2160
sg75
(lp2175
g68
(g69
g70
NtRp2176
(dp2177
g73
(dp2178
g81
I4
ssg82
g2172
sg75
(lp2179
S'set([])'
p2180
asbasbasbag68
(g84
g70
NtRp2181
(dp2182
g73
(dp2183
sg82
g2070
sg75
(lp2184
g68
(g89
g70
NtRp2185
(dp2186
g73
(dp2187
g93
g94
ssg82
g2181
sg75
(lp2188
g1155
asbag68
(g89
g70
NtRp2189
(dp2190
g73
(dp2191
g100
g101
ssg82
g2181
sg75
(lp2192
S':'
asbag68
(g89
g70
NtRp2193
(dp2194
g73
(dp2195
sg82
g2181
sg75
(lp2196
g68
(g69
g70
NtRp2197
(dp2198
g73
(dp2199
g81
I4
ssg82
g2193
sg75
(lp2200
g111
asbasbasbag68
(g84
g70
NtRp2201
(dp2202
g73
(dp2203
sg82
g2070
sg75
(lp2204
g68
(g89
g70
NtRp2205
(dp2206
g73
(dp2207
g93
g94
ssg82
g2201
sg75
(lp2208
g1176
asbag68
(g89
g70
NtRp2209
(dp2210
g73
(dp2211
g100
g101
ssg82
g2201
sg75
(lp2212
S':'
asbag68
(g89
g70
NtRp2213
(dp2214
g73
(dp2215
sg82
g2201
sg75
(lp2216
g68
(g69
g70
NtRp2217
(dp2218
g73
(dp2219
g81
I4
ssg82
g2213
sg75
(lp2220
g1189
asbasbasbag68
(g84
g70
NtRp2221
(dp2222
g73
(dp2223
sg82
g2070
sg75
(lp2224
g68
(g89
g70
NtRp2225
(dp2226
g73
(dp2227
g93
g94
ssg82
g2221
sg75
(lp2228
g1396
asbag68
(g89
g70
NtRp2229
(dp2230
g73
(dp2231
g100
g101
ssg82
g2221
sg75
(lp2232
S':'
asbag68
(g89
g70
NtRp2233
(dp2234
g73
(dp2235
sg82
g2221
sg75
(lp2236
g68
(g69
g70
NtRp2237
(dp2238
g73
(dp2239
g81
I4
ssg82
g2233
sg75
(lp2240
g111
asbasbasbag68
(g84
g70
NtRp2241
(dp2242
g73
(dp2243
sg82
g2070
sg75
(lp2244
g68
(g89
g70
NtRp2245
(dp2246
g73
(dp2247
g93
g94
ssg82
g2241
sg75
(lp2248
g1634
asbag68
(g89
g70
NtRp2249
(dp2250
g73
(dp2251
g100
g101
ssg82
g2241
sg75
(lp2252
S':'
asbag68
(g89
g70
NtRp2253
(dp2254
g73
(dp2255
sg82
g2241
sg75
(lp2256
g68
(g69
g70
NtRp2257
(dp2258
g73
(dp2259
g81
I4
ssg82
g2253
sg75
(lp2260
g1647
asbasbasbag68
(g84
g70
NtRp2261
(dp2262
g73
(dp2263
sg82
g2070
sg75
(lp2264
g68
(g89
g70
NtRp2265
(dp2266
g73
(dp2267
g93
g94
ssg82
g2261
sg75
(lp2268
g1677
asbag68
(g89
g70
NtRp2269
(dp2270
g73
(dp2271
g100
g101
ssg82
g2261
sg75
(lp2272
S':'
asbag68
(g89
g70
NtRp2273
(dp2274
g73
(dp2275
sg82
g2261
sg75
(lp2276
g68
(g69
g70
NtRp2277
(dp2278
g73
(dp2279
g81
I4
ssg82
g2273
sg75
(lp2280
g68
(g77
g70
NtRp2281
(dp2282
g73
(dp2283
g81
I3
ssg82
Nsg75
(lp2284
g68
(g84
g70
NtRp2285
(dp2286
g73
(dp2287
sg82
g2281
sg75
(lp2288
g68
(g89
g70
NtRp2289
(dp2290
g73
(dp2291
sg82
g2285
sg75
(lp2292
g68
(g69
g70
NtRp2293
(dp2294
g73
(dp2295
g81
I3
ssg82
g2289
sg75
(lp2296
S'1'
asbasbasbag68
(g84
g70
NtRp2297
(dp2298
g73
(dp2299
sg82
g2281
sg75
(lp2300
g68
(g89
g70
NtRp2301
(dp2302
g73
(dp2303
sg82
g2297
sg75
(lp2304
g68
(g69
g70
NtRp2305
(dp2306
g73
(dp2307
g81
I3
ssg82
g2301
sg75
(lp2308
S'99'
p2309
asbasbasbag68
(g84
g70
NtRp2310
(dp2311
g73
(dp2312
sg82
g2281
sg75
(lp2313
g68
(g89
g70
NtRp2314
(dp2315
g73
(dp2316
sg82
g2310
sg75
(lp2317
g68
(g69
g70
NtRp2318
(dp2319
g73
(dp2320
g81
I3
ssg82
g2314
sg75
(lp2321
S'2'
asbasbasbag68
(g84
g70
NtRp2322
(dp2323
g73
(dp2324
sg82
g2281
sg75
(lp2325
g68
(g89
g70
NtRp2326
(dp2327
g73
(dp2328
sg82
g2322
sg75
(lp2329
g68
(g69
g70
NtRp2330
(dp2331
g73
(dp2332
g81
I3
ssg82
g2326
sg75
(lp2333
S'datetime.datetime(2011, 9, 26, 6, 55, 33)'
p2334
asbasbasbag68
(g84
g70
NtRp2335
(dp2336
g73
(dp2337
sg82
g2281
sg75
(lp2338
g68
(g89
g70
NtRp2339
(dp2340
g73
(dp2341
sg82
g2335
sg75
(lp2342
g68
(g69
g70
NtRp2343
(dp2344
g73
(dp2345
g81
I3
ssg82
g2339
sg75
(lp2346
g1756
asbasbasbasbasbasbasbasbasbasbasbag68
(g84
g70
NtRp2347
(dp2348
g73
(dp2349
sg82
g78
sg75
(lp2350
g68
(g89
g70
NtRp2351
(dp2352
g73
(dp2353
g93
g94
ssg82
g2347
sg75
(lp2354
S'is_https'
p2355
asbag68
(g89
g70
NtRp2356
(dp2357
g73
(dp2358
g100
g101
ssg82
g2347
sg75
(lp2359
S':'
asbag68
(g89
g70
NtRp2360
(dp2361
g73
(dp2362
sg82
g2347
sg75
(lp2363
g68
(g69
g70
NtRp2364
(dp2365
g73
(dp2366
g81
I5
ssg82
g2360
sg75
(lp2367
g111
asbasbasbag68
(g84
g70
NtRp2368
(dp2369
g73
(dp2370
sg82
g78
sg75
(lp2371
g68
(g89
g70
NtRp2372
(dp2373
g73
(dp2374
g93
g94
ssg82
g2368
sg75
(lp2375
S'is_local'
p2376
asbag68
(g89
g70
NtRp2377
(dp2378
g73
(dp2379
g100
g101
ssg82
g2368
sg75
(lp2380
S':'
asbag68
(g89
g70
NtRp2381
(dp2382
g73
(dp2383
sg82
g2368
sg75
(lp2384
g68
(g69
g70
NtRp2385
(dp2386
g73
(dp2387
g81
I5
ssg82
g2381
sg75
(lp2388
g1865
asbasbasbag68
(g84
g70
NtRp2389
(dp2390
g73
(dp2391
sg82
g78
sg75
(lp2392
g68
(g89
g70
NtRp2393
(dp2394
g73
(dp2395
g93
g94
ssg82
g2389
sg75
(lp2396
S'is_restful'
p2397
asbag68
(g89
g70
NtRp2398
(dp2399
g73
(dp2400
g100
g101
ssg82
g2389
sg75
(lp2401
S':'
asbag68
(g89
g70
NtRp2402
(dp2403
g73
(dp2404
sg82
g2389
sg75
(lp2405
g68
(g69
g70
NtRp2406
(dp2407
g73
(dp2408
g81
I5
ssg82
g2402
sg75
(lp2409
g111
asbasbasbag68
(g84
g70
NtRp2410
(dp2411
g73
(dp2412
sg82
g78
sg75
(lp2413
g68
(g89
g70
NtRp2414
(dp2415
g73
(dp2416
g93
g94
ssg82
g2410
sg75
(lp2417
S'now'
p2418
asbag68
(g89
g70
NtRp2419
(dp2420
g73
(dp2421
g100
g101
ssg82
g2410
sg75
(lp2422
S':'
asbag68
(g89
g70
NtRp2423
(dp2424
g73
(dp2425
sg82
g2410
sg75
(lp2426
g68
(g69
g70
NtRp2427
(dp2428
g73
(dp2429
g81
I5
ssg82
g2423
sg75
(lp2430
S'datetime.datetime(2011, 10, 24, 10, 51, 19, 572638)'
p2431
asbasbasbag68
(g84
g70
NtRp2432
(dp2433
g73
(dp2434
sg82
g78
sg75
(lp2435
g68
(g89
g70
NtRp2436
(dp2437
g73
(dp2438
g93
g94
ssg82
g2432
sg75
(lp2439
S'post_vars'
p2440
asbag68
(g89
g70
NtRp2441
(dp2442
g73
(dp2443
g100
g101
ssg82
g2432
sg75
(lp2444
S':'
asbag68
(g89
g70
NtRp2445
(dp2446
g73
(dp2447
sg82
g2432
sg75
(lp2448
g68
(g69
g70
NtRp2449
(dp2450
g73
(dp2451
g81
I5
ssg82
g2445
sg75
(lp2452
g68
(g77
g70
NtRp2453
(dp2454
g73
(dp2455
g81
I4
ssg82
Nsg75
(lp2456
sbasbasbasbag68
(g84
g70
NtRp2457
(dp2458
g73
(dp2459
sg82
g78
sg75
(lp2460
g68
(g89
g70
NtRp2461
(dp2462
g73
(dp2463
g93
g94
ssg82
g2457
sg75
(lp2464
S'raw_args'
p2465
asbag68
(g89
g70
NtRp2466
(dp2467
g73
(dp2468
g100
g101
ssg82
g2457
sg75
(lp2469
S':'
asbag68
(g89
g70
NtRp2470
(dp2471
g73
(dp2472
sg82
g2457
sg75
(lp2473
g68
(g69
g70
NtRp2474
(dp2475
g73
(dp2476
g81
I5
ssg82
g2470
sg75
(lp2477
S'2'
asbasbasbag68
(g84
g70
NtRp2478
(dp2479
g73
(dp2480
sg82
g78
sg75
(lp2481
g68
(g89
g70
NtRp2482
(dp2483
g73
(dp2484
g93
g94
ssg82
g2478
sg75
(lp2485
S'url'
p2486
asbag68
(g89
g70
NtRp2487
(dp2488
g73
(dp2489
g100
g101
ssg82
g2478
sg75
(lp2490
S':'
asbag68
(g89
g70
NtRp2491
(dp2492
g73
(dp2493
sg82
g2478
sg75
(lp2494
g68
(g69
g70
NtRp2495
(dp2496
g73
(dp2497
g81
I5
ssg82
g2491
sg75
(lp2498
S'/paideia/reporting/user/2'
p2499
asbasbasbag68
(g84
g70
NtRp2500
(dp2501
g73
(dp2502
sg82
g78
sg75
(lp2503
g68
(g89
g70
NtRp2504
(dp2505
g73
(dp2506
g93
g94
ssg82
g2500
sg75
(lp2507
S'utcnow'
p2508
asbag68
(g89
g70
NtRp2509
(dp2510
g73
(dp2511
g100
g101
ssg82
g2500
sg75
(lp2512
S':'
asbag68
(g89
g70
NtRp2513
(dp2514
g73
(dp2515
sg82
g2500
sg75
(lp2516
g68
(g69
g70
NtRp2517
(dp2518
g73
(dp2519
g81
I5
ssg82
g2513
sg75
(lp2520
S'datetime.datetime(2011, 10, 24, 14, 51, 19, 572700)'
p2521
asbasbasbag68
(g84
g70
NtRp2522
(dp2523
g73
(dp2524
sg82
g78
sg75
(lp2525
g68
(g89
g70
NtRp2526
(dp2527
g73
(dp2528
g93
g94
ssg82
g2522
sg75
(lp2529
S'uuid'
p2530
asbag68
(g89
g70
NtRp2531
(dp2532
g73
(dp2533
g100
g101
ssg82
g2522
sg75
(lp2534
S':'
asbag68
(g89
g70
NtRp2535
(dp2536
g73
(dp2537
sg82
g2522
sg75
(lp2538
g68
(g69
g70
NtRp2539
(dp2540
g73
(dp2541
g81
I5
ssg82
g2535
sg75
(lp2542
S'paideia/127.0.0.1.2011-10-24.10-51-19.d9b06e4b-1681-41ff-aa1c-9bc7acf6e6ef'
p2543
asbasbasbag68
(g84
g70
NtRp2544
(dp2545
g73
(dp2546
sg82
g78
sg75
(lp2547
g68
(g89
g70
NtRp2548
(dp2549
g73
(dp2550
g93
g94
ssg82
g2544
sg75
(lp2551
S'vars'
p2552
asbag68
(g89
g70
NtRp2553
(dp2554
g73
(dp2555
g100
g101
ssg82
g2544
sg75
(lp2556
S':'
asbag68
(g89
g70
NtRp2557
(dp2558
g73
(dp2559
sg82
g2544
sg75
(lp2560
g68
(g69
g70
NtRp2561
(dp2562
g73
(dp2563
g81
I5
ssg82
g2557
sg75
(lp2564
g68
(g77
g70
NtRp2565
(dp2566
g73
(dp2567
g81
I4
ssg82
Nsg75
(lp2568
sbasbasbasbag68
(g84
g70
NtRp2569
(dp2570
g73
(dp2571
sg82
g78
sg75
(lp2572
g68
(g89
g70
NtRp2573
(dp2574
g73
(dp2575
g93
g94
ssg82
g2569
sg75
(lp2576
S'wsgi'
p2577
asbag68
(g89
g70
NtRp2578
(dp2579
g73
(dp2580
g100
g101
ssg82
g2569
sg75
(lp2581
S':'
asbag68
(g89
g70
NtRp2582
(dp2583
g73
(dp2584
sg82
g2569
sg75
(lp2585
g68
(g69
g70
NtRp2586
(dp2587
g73
(dp2588
g81
I5
ssg82
g2582
sg75
(lp2589
g68
(g77
g70
NtRp2590
(dp2591
g73
(dp2592
g81
I4
ssg82
Nsg75
(lp2593
g68
(g84
g70
NtRp2594
(dp2595
g73
(dp2596
sg82
g2590
sg75
(lp2597
g68
(g89
g70
NtRp2598
(dp2599
g73
(dp2600
g93
g94
ssg82
g2594
sg75
(lp2601
S'environ'
p2602
asbag68
(g89
g70
NtRp2603
(dp2604
g73
(dp2605
g100
g101
ssg82
g2594
sg75
(lp2606
S':'
asbag68
(g89
g70
NtRp2607
(dp2608
g73
(dp2609
sg82
g2594
sg75
(lp2610
g68
(g69
g70
NtRp2611
(dp2612
g73
(dp2613
g81
I4
ssg82
g2607
sg75
(lp2614
g68
(g77
g70
NtRp2615
(dp2616
g73
(dp2617
g81
I3
ssg82
Nsg75
(lp2618
g68
(g84
g70
NtRp2619
(dp2620
g73
(dp2621
sg82
g2615
sg75
(lp2622
g68
(g89
g70
NtRp2623
(dp2624
g73
(dp2625
g93
g94
ssg82
g2619
sg75
(lp2626
S'HTTP_ACCEPT'
p2627
asbag68
(g89
g70
NtRp2628
(dp2629
g73
(dp2630
g100
g101
ssg82
g2619
sg75
(lp2631
S':'
asbag68
(g89
g70
NtRp2632
(dp2633
g73
(dp2634
sg82
g2619
sg75
(lp2635
g68
(g69
g70
NtRp2636
(dp2637
g73
(dp2638
g81
I3
ssg82
g2632
sg75
(lp2639
g1211
asbasbasbag68
(g84
g70
NtRp2640
(dp2641
g73
(dp2642
sg82
g2615
sg75
(lp2643
g68
(g89
g70
NtRp2644
(dp2645
g73
(dp2646
g93
g94
ssg82
g2640
sg75
(lp2647
S'HTTP_ACCEPT_ENCODING'
p2648
asbag68
(g89
g70
NtRp2649
(dp2650
g73
(dp2651
g100
g101
ssg82
g2640
sg75
(lp2652
S':'
asbag68
(g89
g70
NtRp2653
(dp2654
g73
(dp2655
sg82
g2640
sg75
(lp2656
g68
(g69
g70
NtRp2657
(dp2658
g73
(dp2659
g81
I3
ssg82
g2653
sg75
(lp2660
g1233
asbasbasbag68
(g84
g70
NtRp2661
(dp2662
g73
(dp2663
sg82
g2615
sg75
(lp2664
g68
(g89
g70
NtRp2665
(dp2666
g73
(dp2667
g93
g94
ssg82
g2661
sg75
(lp2668
S'HTTP_ACCEPT_LANGUAGE'
p2669
asbag68
(g89
g70
NtRp2670
(dp2671
g73
(dp2672
g100
g101
ssg82
g2661
sg75
(lp2673
S':'
asbag68
(g89
g70
NtRp2674
(dp2675
g73
(dp2676
sg82
g2661
sg75
(lp2677
g68
(g69
g70
NtRp2678
(dp2679
g73
(dp2680
g81
I3
ssg82
g2674
sg75
(lp2681
g1255
asbasbasbag68
(g84
g70
NtRp2682
(dp2683
g73
(dp2684
sg82
g2615
sg75
(lp2685
g68
(g89
g70
NtRp2686
(dp2687
g73
(dp2688
g93
g94
ssg82
g2682
sg75
(lp2689
S'HTTP_CACHE_CONTROL'
p2690
asbag68
(g89
g70
NtRp2691
(dp2692
g73
(dp2693
g100
g101
ssg82
g2682
sg75
(lp2694
S':'
asbag68
(g89
g70
NtRp2695
(dp2696
g73
(dp2697
sg82
g2682
sg75
(lp2698
g68
(g69
g70
NtRp2699
(dp2700
g73
(dp2701
g81
I3
ssg82
g2695
sg75
(lp2702
g1277
asbasbasbag68
(g84
g70
NtRp2703
(dp2704
g73
(dp2705
sg82
g2615
sg75
(lp2706
g68
(g89
g70
NtRp2707
(dp2708
g73
(dp2709
g93
g94
ssg82
g2703
sg75
(lp2710
S'HTTP_CONNECTION'
p2711
asbag68
(g89
g70
NtRp2712
(dp2713
g73
(dp2714
g100
g101
ssg82
g2703
sg75
(lp2715
S':'
asbag68
(g89
g70
NtRp2716
(dp2717
g73
(dp2718
sg82
g2703
sg75
(lp2719
g68
(g69
g70
NtRp2720
(dp2721
g73
(dp2722
g81
I3
ssg82
g2716
sg75
(lp2723
g1299
asbasbasbag68
(g84
g70
NtRp2724
(dp2725
g73
(dp2726
sg82
g2615
sg75
(lp2727
g68
(g89
g70
NtRp2728
(dp2729
g73
(dp2730
g93
g94
ssg82
g2724
sg75
(lp2731
S'HTTP_COOKIE'
p2732
asbag68
(g89
g70
NtRp2733
(dp2734
g73
(dp2735
g100
g101
ssg82
g2724
sg75
(lp2736
S':'
asbag68
(g89
g70
NtRp2737
(dp2738
g73
(dp2739
sg82
g2724
sg75
(lp2740
g68
(g69
g70
NtRp2741
(dp2742
g73
(dp2743
g81
I3
ssg82
g2737
sg75
(lp2744
g1321
asbasbasbag68
(g84
g70
NtRp2745
(dp2746
g73
(dp2747
sg82
g2615
sg75
(lp2748
g68
(g89
g70
NtRp2749
(dp2750
g73
(dp2751
g93
g94
ssg82
g2745
sg75
(lp2752
S'HTTP_HOST'
p2753
asbag68
(g89
g70
NtRp2754
(dp2755
g73
(dp2756
g100
g101
ssg82
g2745
sg75
(lp2757
S':'
asbag68
(g89
g70
NtRp2758
(dp2759
g73
(dp2760
sg82
g2745
sg75
(lp2761
g68
(g69
g70
NtRp2762
(dp2763
g73
(dp2764
g81
I3
ssg82
g2758
sg75
(lp2765
g1343
asbasbasbag68
(g84
g70
NtRp2766
(dp2767
g73
(dp2768
sg82
g2615
sg75
(lp2769
g68
(g89
g70
NtRp2770
(dp2771
g73
(dp2772
g93
g94
ssg82
g2766
sg75
(lp2773
S'HTTP_REFERER'
p2774
asbag68
(g89
g70
NtRp2775
(dp2776
g73
(dp2777
g100
g101
ssg82
g2766
sg75
(lp2778
S':'
asbag68
(g89
g70
NtRp2779
(dp2780
g73
(dp2781
sg82
g2766
sg75
(lp2782
g68
(g69
g70
NtRp2783
(dp2784
g73
(dp2785
g81
I3
ssg82
g2779
sg75
(lp2786
g1365
asbasbasbag68
(g84
g70
NtRp2787
(dp2788
g73
(dp2789
sg82
g2615
sg75
(lp2790
g68
(g89
g70
NtRp2791
(dp2792
g73
(dp2793
g93
g94
ssg82
g2787
sg75
(lp2794
S'HTTP_USER_AGENT'
p2795
asbag68
(g89
g70
NtRp2796
(dp2797
g73
(dp2798
g100
g101
ssg82
g2787
sg75
(lp2799
S':'
asbag68
(g89
g70
NtRp2800
(dp2801
g73
(dp2802
sg82
g2787
sg75
(lp2803
g68
(g69
g70
NtRp2804
(dp2805
g73
(dp2806
g81
I3
ssg82
g2800
sg75
(lp2807
g1387
asbasbasbag68
(g84
g70
NtRp2808
(dp2809
g73
(dp2810
sg82
g2615
sg75
(lp2811
g68
(g89
g70
NtRp2812
(dp2813
g73
(dp2814
g93
g94
ssg82
g2808
sg75
(lp2815
S'PATH_INFO'
p2816
asbag68
(g89
g70
NtRp2817
(dp2818
g73
(dp2819
g100
g101
ssg82
g2808
sg75
(lp2820
S':'
asbag68
(g89
g70
NtRp2821
(dp2822
g73
(dp2823
sg82
g2808
sg75
(lp2824
g68
(g69
g70
NtRp2825
(dp2826
g73
(dp2827
g81
I3
ssg82
g2821
sg75
(lp2828
g1430
asbasbasbag68
(g84
g70
NtRp2829
(dp2830
g73
(dp2831
sg82
g2615
sg75
(lp2832
g68
(g89
g70
NtRp2833
(dp2834
g73
(dp2835
g93
g94
ssg82
g2829
sg75
(lp2836
S'QUERY_STRING'
p2837
asbag68
(g89
g70
NtRp2838
(dp2839
g73
(dp2840
g100
g101
ssg82
g2829
sg75
(lp2841
S':'
asbag68
(g89
g70
NtRp2842
(dp2843
g73
(dp2844
sg82
g2829
sg75
(lp2845
g68
(g69
g70
NtRp2846
(dp2847
g73
(dp2848
g81
I3
ssg82
g2842
sg75
(lp2849
S''
asbasbasbag68
(g84
g70
NtRp2850
(dp2851
g73
(dp2852
sg82
g2615
sg75
(lp2853
g68
(g89
g70
NtRp2854
(dp2855
g73
(dp2856
g93
g94
ssg82
g2850
sg75
(lp2857
S'REMOTE_ADDR'
p2858
asbag68
(g89
g70
NtRp2859
(dp2860
g73
(dp2861
g100
g101
ssg82
g2850
sg75
(lp2862
S':'
asbag68
(g89
g70
NtRp2863
(dp2864
g73
(dp2865
sg82
g2850
sg75
(lp2866
g68
(g69
g70
NtRp2867
(dp2868
g73
(dp2869
g81
I3
ssg82
g2863
sg75
(lp2870
g213
asbasbasbag68
(g84
g70
NtRp2871
(dp2872
g73
(dp2873
sg82
g2615
sg75
(lp2874
g68
(g89
g70
NtRp2875
(dp2876
g73
(dp2877
g93
g94
ssg82
g2871
sg75
(lp2878
S'REMOTE_PORT'
p2879
asbag68
(g89
g70
NtRp2880
(dp2881
g73
(dp2882
g100
g101
ssg82
g2871
sg75
(lp2883
S':'
asbag68
(g89
g70
NtRp2884
(dp2885
g73
(dp2886
sg82
g2871
sg75
(lp2887
g68
(g69
g70
NtRp2888
(dp2889
g73
(dp2890
g81
I3
ssg82
g2884
sg75
(lp2891
g1494
asbasbasbag68
(g84
g70
NtRp2892
(dp2893
g73
(dp2894
sg82
g2615
sg75
(lp2895
g68
(g89
g70
NtRp2896
(dp2897
g73
(dp2898
g93
g94
ssg82
g2892
sg75
(lp2899
S'REQUEST_METHOD'
p2900
asbag68
(g89
g70
NtRp2901
(dp2902
g73
(dp2903
g100
g101
ssg82
g2892
sg75
(lp2904
S':'
asbag68
(g89
g70
NtRp2905
(dp2906
g73
(dp2907
sg82
g2892
sg75
(lp2908
g68
(g69
g70
NtRp2909
(dp2910
g73
(dp2911
g81
I3
ssg82
g2905
sg75
(lp2912
g1516
asbasbasbag68
(g84
g70
NtRp2913
(dp2914
g73
(dp2915
sg82
g2615
sg75
(lp2916
g68
(g89
g70
NtRp2917
(dp2918
g73
(dp2919
g93
g94
ssg82
g2913
sg75
(lp2920
S'SCRIPT_NAME'
p2921
asbag68
(g89
g70
NtRp2922
(dp2923
g73
(dp2924
g100
g101
ssg82
g2913
sg75
(lp2925
S':'
asbag68
(g89
g70
NtRp2926
(dp2927
g73
(dp2928
sg82
g2913
sg75
(lp2929
g68
(g69
g70
NtRp2930
(dp2931
g73
(dp2932
g81
I3
ssg82
g2926
sg75
(lp2933
S''
asbasbasbag68
(g84
g70
NtRp2934
(dp2935
g73
(dp2936
sg82
g2615
sg75
(lp2937
g68
(g89
g70
NtRp2938
(dp2939
g73
(dp2940
g93
g94
ssg82
g2934
sg75
(lp2941
S'SERVER_NAME'
p2942
asbag68
(g89
g70
NtRp2943
(dp2944
g73
(dp2945
g100
g101
ssg82
g2934
sg75
(lp2946
S':'
asbag68
(g89
g70
NtRp2947
(dp2948
g73
(dp2949
sg82
g2934
sg75
(lp2950
g68
(g69
g70
NtRp2951
(dp2952
g73
(dp2953
g81
I3
ssg82
g2947
sg75
(lp2954
g1559
asbasbasbag68
(g84
g70
NtRp2955
(dp2956
g73
(dp2957
sg82
g2615
sg75
(lp2958
g68
(g89
g70
NtRp2959
(dp2960
g73
(dp2961
g93
g94
ssg82
g2955
sg75
(lp2962
S'SERVER_PORT'
p2963
asbag68
(g89
g70
NtRp2964
(dp2965
g73
(dp2966
g100
g101
ssg82
g2955
sg75
(lp2967
S':'
asbag68
(g89
g70
NtRp2968
(dp2969
g73
(dp2970
sg82
g2955
sg75
(lp2971
g68
(g69
g70
NtRp2972
(dp2973
g73
(dp2974
g81
I3
ssg82
g2968
sg75
(lp2975
g1581
asbasbasbag68
(g84
g70
NtRp2976
(dp2977
g73
(dp2978
sg82
g2615
sg75
(lp2979
g68
(g89
g70
NtRp2980
(dp2981
g73
(dp2982
g93
g94
ssg82
g2976
sg75
(lp2983
S'SERVER_PROTOCOL'
p2984
asbag68
(g89
g70
NtRp2985
(dp2986
g73
(dp2987
g100
g101
ssg82
g2976
sg75
(lp2988
S':'
asbag68
(g89
g70
NtRp2989
(dp2990
g73
(dp2991
sg82
g2976
sg75
(lp2992
g68
(g69
g70
NtRp2993
(dp2994
g73
(dp2995
g81
I3
ssg82
g2989
sg75
(lp2996
g1603
asbasbasbag68
(g84
g70
NtRp2997
(dp2998
g73
(dp2999
sg82
g2615
sg75
(lp3000
g68
(g89
g70
NtRp3001
(dp3002
g73
(dp3003
g93
g94
ssg82
g2997
sg75
(lp3004
S'SERVER_SOFTWARE'
p3005
asbag68
(g89
g70
NtRp3006
(dp3007
g73
(dp3008
g100
g101
ssg82
g2997
sg75
(lp3009
S':'
asbag68
(g89
g70
NtRp3010
(dp3011
g73
(dp3012
sg82
g2997
sg75
(lp3013
g68
(g69
g70
NtRp3014
(dp3015
g73
(dp3016
g81
I3
ssg82
g3010
sg75
(lp3017
g1625
asbasbasbag68
(g84
g70
NtRp3018
(dp3019
g73
(dp3020
sg82
g2615
sg75
(lp3021
g68
(g89
g70
NtRp3022
(dp3023
g73
(dp3024
g93
g94
ssg82
g3018
sg75
(lp3025
S'wsgi.errors'
p3026
asbag68
(g89
g70
NtRp3027
(dp3028
g73
(dp3029
g100
g101
ssg82
g3018
sg75
(lp3030
S':'
asbag68
(g89
g70
NtRp3031
(dp3032
g73
(dp3033
sg82
g3018
sg75
(lp3034
g68
(g69
g70
NtRp3035
(dp3036
g73
(dp3037
g81
I3
ssg82
g3031
sg75
(lp3038
S"<open file '<stderr>', mode 'w' at 0x7f3c1e008270>"
p3039
asbasbasbag68
(g84
g70
NtRp3040
(dp3041
g73
(dp3042
sg82
g2615
sg75
(lp3043
g68
(g89
g70
NtRp3044
(dp3045
g73
(dp3046
g93
g94
ssg82
g3040
sg75
(lp3047
S'wsgi.file_wrapper'
p3048
asbag68
(g89
g70
NtRp3049
(dp3050
g73
(dp3051
g100
g101
ssg82
g3040
sg75
(lp3052
S':'
asbag68
(g89
g70
NtRp3053
(dp3054
g73
(dp3055
sg82
g3040
sg75
(lp3056
g68
(g69
g70
NtRp3057
(dp3058
g73
(dp3059
g81
I3
ssg82
g3053
sg75
(lp3060
S'<class wsgiref.util.FileWrapper at 0x240f7a0>'
p3061
asbasbasbag68
(g84
g70
NtRp3062
(dp3063
g73
(dp3064
sg82
g2615
sg75
(lp3065
g68
(g89
g70
NtRp3066
(dp3067
g73
(dp3068
g93
g94
ssg82
g3062
sg75
(lp3069
S'wsgi.input'
p3070
asbag68
(g89
g70
NtRp3071
(dp3072
g73
(dp3073
g100
g101
ssg82
g3062
sg75
(lp3074
S':'
asbag68
(g89
g70
NtRp3075
(dp3076
g73
(dp3077
sg82
g3062
sg75
(lp3078
g68
(g69
g70
NtRp3079
(dp3080
g73
(dp3081
g81
I3
ssg82
g3075
sg75
(lp3082
S'<cStringIO.StringO object at 0x4051b20>'
p3083
asbasbasbag68
(g84
g70
NtRp3084
(dp3085
g73
(dp3086
sg82
g2615
sg75
(lp3087
g68
(g89
g70
NtRp3088
(dp3089
g73
(dp3090
g93
g94
ssg82
g3084
sg75
(lp3091
S'wsgi.multiprocess'
p3092
asbag68
(g89
g70
NtRp3093
(dp3094
g73
(dp3095
g100
g101
ssg82
g3084
sg75
(lp3096
S':'
asbag68
(g89
g70
NtRp3097
(dp3098
g73
(dp3099
sg82
g3084
sg75
(lp3100
g68
(g69
g70
NtRp3101
(dp3102
g73
(dp3103
g81
I3
ssg82
g3097
sg75
(lp3104
g111
asbasbasbag68
(g84
g70
NtRp3105
(dp3106
g73
(dp3107
sg82
g2615
sg75
(lp3108
g68
(g89
g70
NtRp3109
(dp3110
g73
(dp3111
g93
g94
ssg82
g3105
sg75
(lp3112
S'wsgi.multithread'
p3113
asbag68
(g89
g70
NtRp3114
(dp3115
g73
(dp3116
g100
g101
ssg82
g3105
sg75
(lp3117
S':'
asbag68
(g89
g70
NtRp3118
(dp3119
g73
(dp3120
sg82
g3105
sg75
(lp3121
g68
(g69
g70
NtRp3122
(dp3123
g73
(dp3124
g81
I3
ssg82
g3118
sg75
(lp3125
g1865
asbasbasbag68
(g84
g70
NtRp3126
(dp3127
g73
(dp3128
sg82
g2615
sg75
(lp3129
g68
(g89
g70
NtRp3130
(dp3131
g73
(dp3132
g93
g94
ssg82
g3126
sg75
(lp3133
S'wsgi.run_once'
p3134
asbag68
(g89
g70
NtRp3135
(dp3136
g73
(dp3137
g100
g101
ssg82
g3126
sg75
(lp3138
S':'
asbag68
(g89
g70
NtRp3139
(dp3140
g73
(dp3141
sg82
g3126
sg75
(lp3142
g68
(g69
g70
NtRp3143
(dp3144
g73
(dp3145
g81
I3
ssg82
g3139
sg75
(lp3146
g111
asbasbasbag68
(g84
g70
NtRp3147
(dp3148
g73
(dp3149
sg82
g2615
sg75
(lp3150
g68
(g89
g70
NtRp3151
(dp3152
g73
(dp3153
g93
g94
ssg82
g3147
sg75
(lp3154
S'wsgi.url_scheme'
p3155
asbag68
(g89
g70
NtRp3156
(dp3157
g73
(dp3158
g100
g101
ssg82
g3147
sg75
(lp3159
S':'
asbag68
(g89
g70
NtRp3160
(dp3161
g73
(dp3162
sg82
g3147
sg75
(lp3163
g68
(g69
g70
NtRp3164
(dp3165
g73
(dp3166
g81
I3
ssg82
g3160
sg75
(lp3167
g1908
asbasbasbag68
(g84
g70
NtRp3168
(dp3169
g73
(dp3170
sg82
g2615
sg75
(lp3171
g68
(g89
g70
NtRp3172
(dp3173
g73
(dp3174
g93
g94
ssg82
g3168
sg75
(lp3175
S'wsgi.version'
p3176
asbag68
(g89
g70
NtRp3177
(dp3178
g73
(dp3179
g100
g101
ssg82
g3168
sg75
(lp3180
S':'
asbag68
(g89
g70
NtRp3181
(dp3182
g73
(dp3183
sg82
g3168
sg75
(lp3184
g68
(g69
g70
NtRp3185
(dp3186
g73
(dp3187
g81
I3
ssg82
g3181
sg75
(lp3188
S'1'
asbasbasbasbasbasbasbasbasbasbasbasbasbsS'frames'
p3189
(lp3190
(dp3191
S'file'
p3192
S'/home/ian/web2py/gluon/restricted.py'
p3193
sS'dump'
p3194
(dp3195
S'code'
p3196
S'"# coding: utf8\\n\\n@auth.requires_membership(role=\'...ent_cat4)\\n\\nresponse._vars=response._caller(user)\\n"'
p3197
sS'layer'
p3198
S"'/home/ian/web2py/applications/paideia/controllers/reporting.py'"
p3199
sS'global compile2'
p3200
S'<function compile2>'
p3201
sS'ccode'
p3202
S'undefined'
p3203
ssS'lnum'
p3204
I193
sS'lines'
p3205
(dp3206
I192
S'        else:'
p3207
sI193
S'            ccode = compile2(code,layer)'
p3208
sI194
S'        exec ccode in environment'
p3209
sI195
S'    except HTTP:'
p3210
sI196
S'        raise'
p3211
sI197
S'    except Exception, error:'
p3212
sI188
S"    environment['__file__'] = layer"
p3213
sI189
S'    try:'
p3214
sI190
S'        if type(code) == types.CodeType:'
p3215
sI191
S'            ccode = code'
p3216
ssS'call'
p3217
S'(code="# coding: utf8\\n\\n@auth.requires_membership(role=\'...ent_cat4)\\n\\nresponse._vars=response._caller(user)\\n", environment={\'A\': <class \'gluon.html.A\'>, \'Auth\': <class \'gluon.tools.Auth\'>, \'B\': <class \'gluon.html.B\'>, \'BEAUTIFY\': <class \'gluon.html.BEAUTIFY\'>, \'BODY\': <class \'gluon.html.BODY\'>, \'BR\': <class \'gluon.html.BR\'>, \'BUTTON\': <class \'gluon.html.BUTTON\'>, \'CAT\': <class \'gluon.html.CAT\'>, \'CENTER\': <class \'gluon.html.CENTER\'>, \'CLEANUP\': <class \'gluon.validators.CLEANUP\'>, ...}, layer=\'/home/ian/web2py/applications/paideia/controllers/reporting.py\')'
p3218
sS'func'
p3219
S'restricted'
p3220
sa(dp3221
g3192
S'/home/ian/web2py/gluon/restricted.py'
p3222
sg3194
(dp3223
S'builtincompile'
p3224
S'<built-in function compile>'
p3225
sS'code'
p3226
S'"# coding: utf8\\n\\n@auth.requires_membership(role=\'...ent_cat4)\\n\\nresponse._vars=response._caller(user)\\n"'
p3227
sS'code.rstrip'
p3228
S'<built-in method rstrip of str object>'
p3229
sS').replace'
p3230
g3203
sS'layer'
p3231
S"'/home/ian/web2py/applications/paideia/controllers/reporting.py'"
p3232
ssg3204
I179
sg3205
(dp3233
I174
S''
sI175
S'def compile2(code,layer):'
p3234
sI176
S'    """'
p3235
sI177
S"    The +'\\n' is necessary else compile fails when code ends in a comment."
p3236
sI178
S'    """'
p3237
sI179
S"    return compile(code.rstrip().replace('\\r\\n','\\n')+'\\n', layer, 'exec')"
p3238
sI180
S''
sI181
S"def restricted(code, environment=None, layer='Unknown'):"
p3239
sI182
S'    """'
p3240
sI183
S'    runs code in environment and returns the output. if an exception occurs'
p3241
ssg3217
S'(code="# coding: utf8\\n\\n@auth.requires_membership(role=\'...ent_cat4)\\n\\nresponse._vars=response._caller(user)\\n", layer=\'/home/ian/web2py/applications/paideia/controllers/reporting.py\')'
p3242
sg3219
S'compile2'
p3243
sasS'pyver'
p3244
S'Python 2.7.2+: /usr/bin/python2.7'
p3245
sS'session'
p3246
g68
(g69
g70
NtRp3247
(dp3248
g73
(dp3249
sg75
(lp3250
g68
(g77
g70
NtRp3251
(dp3252
g73
(dp3253
g81
I5
ssg82
Nsg75
(lp3254
g68
(g84
g70
NtRp3255
(dp3256
g73
(dp3257
sg82
g3251
sg75
(lp3258
g68
(g89
g70
NtRp3259
(dp3260
g73
(dp3261
g93
g94
ssg82
g3255
sg75
(lp3262
S'auth'
p3263
asbag68
(g89
g70
NtRp3264
(dp3265
g73
(dp3266
g100
g101
ssg82
g3255
sg75
(lp3267
S':'
asbag68
(g89
g70
NtRp3268
(dp3269
g73
(dp3270
sg82
g3255
sg75
(lp3271
g68
(g69
g70
NtRp3272
(dp3273
g73
(dp3274
g81
I5
ssg82
g3268
sg75
(lp3275
g68
(g77
g70
NtRp3276
(dp3277
g73
(dp3278
g81
I4
ssg82
Nsg75
(lp3279
g68
(g84
g70
NtRp3280
(dp3281
g73
(dp3282
sg82
g3276
sg75
(lp3283
g68
(g89
g70
NtRp3284
(dp3285
g73
(dp3286
g93
g94
ssg82
g3280
sg75
(lp3287
S'expiration'
p3288
asbag68
(g89
g70
NtRp3289
(dp3290
g73
(dp3291
g100
g101
ssg82
g3280
sg75
(lp3292
S':'
asbag68
(g89
g70
NtRp3293
(dp3294
g73
(dp3295
sg82
g3280
sg75
(lp3296
g68
(g69
g70
NtRp3297
(dp3298
g73
(dp3299
g81
I4
ssg82
g3293
sg75
(lp3300
S'2592000'
p3301
asbasbasbag68
(g84
g70
NtRp3302
(dp3303
g73
(dp3304
sg82
g3276
sg75
(lp3305
g68
(g89
g70
NtRp3306
(dp3307
g73
(dp3308
g93
g94
ssg82
g3302
sg75
(lp3309
S'hmac_key'
p3310
asbag68
(g89
g70
NtRp3311
(dp3312
g73
(dp3313
g100
g101
ssg82
g3302
sg75
(lp3314
S':'
asbag68
(g89
g70
NtRp3315
(dp3316
g73
(dp3317
sg82
g3302
sg75
(lp3318
g68
(g69
g70
NtRp3319
(dp3320
g73
(dp3321
g81
I4
ssg82
g3315
sg75
(lp3322
S'f9dfe4de-6412-4e25-a696-7ad8f1225b42'
p3323
asbasbasbag68
(g84
g70
NtRp3324
(dp3325
g73
(dp3326
sg82
g3276
sg75
(lp3327
g68
(g89
g70
NtRp3328
(dp3329
g73
(dp3330
g93
g94
ssg82
g3324
sg75
(lp3331
S'last_visit'
p3332
asbag68
(g89
g70
NtRp3333
(dp3334
g73
(dp3335
g100
g101
ssg82
g3324
sg75
(lp3336
S':'
asbag68
(g89
g70
NtRp3337
(dp3338
g73
(dp3339
sg82
g3324
sg75
(lp3340
g68
(g69
g70
NtRp3341
(dp3342
g73
(dp3343
g81
I4
ssg82
g3337
sg75
(lp3344
S'datetime.datetime(2011, 10, 24, 8, 51, 58, 741686)'
p3345
asbasbasbag68
(g84
g70
NtRp3346
(dp3347
g73
(dp3348
sg82
g3276
sg75
(lp3349
g68
(g89
g70
NtRp3350
(dp3351
g73
(dp3352
g93
g94
ssg82
g3346
sg75
(lp3353
S'remember'
p3354
asbag68
(g89
g70
NtRp3355
(dp3356
g73
(dp3357
g100
g101
ssg82
g3346
sg75
(lp3358
S':'
asbag68
(g89
g70
NtRp3359
(dp3360
g73
(dp3361
sg82
g3346
sg75
(lp3362
g68
(g69
g70
NtRp3363
(dp3364
g73
(dp3365
g81
I4
ssg82
g3359
sg75
(lp3366
g111
asbasbasbag68
(g84
g70
NtRp3367
(dp3368
g73
(dp3369
sg82
g3276
sg75
(lp3370
g68
(g89
g70
NtRp3371
(dp3372
g73
(dp3373
g93
g94
ssg82
g3367
sg75
(lp3374
S'user'
p3375
asbag68
(g89
g70
NtRp3376
(dp3377
g73
(dp3378
g100
g101
ssg82
g3367
sg75
(lp3379
S':'
asbag68
(g89
g70
NtRp3380
(dp3381
g73
(dp3382
sg82
g3367
sg75
(lp3383
g68
(g69
g70
NtRp3384
(dp3385
g73
(dp3386
g81
I4
ssg82
g3380
sg75
(lp3387
g68
(g77
g70
NtRp3388
(dp3389
g73
(dp3390
g81
I3
ssg82
Nsg75
(lp3391
g68
(g84
g70
NtRp3392
(dp3393
g73
(dp3394
sg82
g3388
sg75
(lp3395
g68
(g89
g70
NtRp3396
(dp3397
g73
(dp3398
g93
g94
ssg82
g3392
sg75
(lp3399
S'email'
p3400
asbag68
(g89
g70
NtRp3401
(dp3402
g73
(dp3403
g100
g101
ssg82
g3392
sg75
(lp3404
S':'
asbag68
(g89
g70
NtRp3405
(dp3406
g73
(dp3407
sg82
g3392
sg75
(lp3408
g68
(g69
g70
NtRp3409
(dp3410
g73
(dp3411
g81
I3
ssg82
g3405
sg75
(lp3412
S'scottianw@gmail.com'
p3413
asbasbasbag68
(g84
g70
NtRp3414
(dp3415
g73
(dp3416
sg82
g3388
sg75
(lp3417
g68
(g89
g70
NtRp3418
(dp3419
g73
(dp3420
g93
g94
ssg82
g3414
sg75
(lp3421
S'first_name'
p3422
asbag68
(g89
g70
NtRp3423
(dp3424
g73
(dp3425
g100
g101
ssg82
g3414
sg75
(lp3426
S':'
asbag68
(g89
g70
NtRp3427
(dp3428
g73
(dp3429
sg82
g3414
sg75
(lp3430
g68
(g69
g70
NtRp3431
(dp3432
g73
(dp3433
g81
I3
ssg82
g3427
sg75
(lp3434
S'Ian'
p3435
asbasbasbag68
(g84
g70
NtRp3436
(dp3437
g73
(dp3438
sg82
g3388
sg75
(lp3439
g68
(g89
g70
NtRp3440
(dp3441
g73
(dp3442
g93
g94
ssg82
g3436
sg75
(lp3443
S'id'
p3444
asbag68
(g89
g70
NtRp3445
(dp3446
g73
(dp3447
g100
g101
ssg82
g3436
sg75
(lp3448
S':'
asbag68
(g89
g70
NtRp3449
(dp3450
g73
(dp3451
sg82
g3436
sg75
(lp3452
g68
(g69
g70
NtRp3453
(dp3454
g73
(dp3455
g81
I3
ssg82
g3449
sg75
(lp3456
S'2'
asbasbasbag68
(g84
g70
NtRp3457
(dp3458
g73
(dp3459
sg82
g3388
sg75
(lp3460
g68
(g89
g70
NtRp3461
(dp3462
g73
(dp3463
g93
g94
ssg82
g3457
sg75
(lp3464
S'last_name'
p3465
asbag68
(g89
g70
NtRp3466
(dp3467
g73
(dp3468
g100
g101
ssg82
g3457
sg75
(lp3469
S':'
asbag68
(g89
g70
NtRp3470
(dp3471
g73
(dp3472
sg82
g3457
sg75
(lp3473
g68
(g69
g70
NtRp3474
(dp3475
g73
(dp3476
g81
I3
ssg82
g3470
sg75
(lp3477
S'Scott'
p3478
asbasbasbag68
(g84
g70
NtRp3479
(dp3480
g73
(dp3481
sg82
g3388
sg75
(lp3482
g68
(g89
g70
NtRp3483
(dp3484
g73
(dp3485
g93
g94
ssg82
g3479
sg75
(lp3486
S'password'
p3487
asbag68
(g89
g70
NtRp3488
(dp3489
g73
(dp3490
g100
g101
ssg82
g3479
sg75
(lp3491
S':'
asbag68
(g89
g70
NtRp3492
(dp3493
g73
(dp3494
sg82
g3479
sg75
(lp3495
g68
(g69
g70
NtRp3496
(dp3497
g73
(dp3498
g81
I3
ssg82
g3492
sg75
(lp3499
S'19738f1e9a2c8eaac81936a86bf608a1a6995e02f527fa31723cb88a2e513a1efae33471354a02805bf25ea2ea17a59c025a5fc8eca6b3bb2137bda74e538737'
p3500
asbasbasbag68
(g84
g70
NtRp3501
(dp3502
g73
(dp3503
sg82
g3388
sg75
(lp3504
g68
(g89
g70
NtRp3505
(dp3506
g73
(dp3507
g93
g94
ssg82
g3501
sg75
(lp3508
S'registration_key'
p3509
asbag68
(g89
g70
NtRp3510
(dp3511
g73
(dp3512
g100
g101
ssg82
g3501
sg75
(lp3513
S':'
asbag68
(g89
g70
NtRp3514
(dp3515
g73
(dp3516
sg82
g3501
sg75
(lp3517
g68
(g69
g70
NtRp3518
(dp3519
g73
(dp3520
g81
I3
ssg82
g3514
sg75
(lp3521
S''
asbasbasbag68
(g84
g70
NtRp3522
(dp3523
g73
(dp3524
sg82
g3388
sg75
(lp3525
g68
(g89
g70
NtRp3526
(dp3527
g73
(dp3528
g93
g94
ssg82
g3522
sg75
(lp3529
S'reset_password_key'
p3530
asbag68
(g89
g70
NtRp3531
(dp3532
g73
(dp3533
g100
g101
ssg82
g3522
sg75
(lp3534
S':'
asbag68
(g89
g70
NtRp3535
(dp3536
g73
(dp3537
sg82
g3522
sg75
(lp3538
g68
(g69
g70
NtRp3539
(dp3540
g73
(dp3541
g81
I3
ssg82
g3535
sg75
(lp3542
S''
asbasbasbasbasbasbasbasbasbasbasbag68
(g84
g70
NtRp3543
(dp3544
g73
(dp3545
sg82
g3251
sg75
(lp3546
g68
(g89
g70
NtRp3547
(dp3548
g73
(dp3549
g93
g94
ssg82
g3543
sg75
(lp3550
S'debug'
p3551
asbag68
(g89
g70
NtRp3552
(dp3553
g73
(dp3554
g100
g101
ssg82
g3543
sg75
(lp3555
S':'
asbag68
(g89
g70
NtRp3556
(dp3557
g73
(dp3558
sg82
g3543
sg75
(lp3559
g68
(g69
g70
NtRp3560
(dp3561
g73
(dp3562
g81
I5
ssg82
g3556
sg75
(lp3563
S'969'
p3564
asbasbasbag68
(g84
g70
NtRp3565
(dp3566
g73
(dp3567
sg82
g3251
sg75
(lp3568
g68
(g89
g70
NtRp3569
(dp3570
g73
(dp3571
g93
g94
ssg82
g3565
sg75
(lp3572
S'last_query'
p3573
asbag68
(g89
g70
NtRp3574
(dp3575
g73
(dp3576
g100
g101
ssg82
g3565
sg75
(lp3577
S':'
asbag68
(g89
g70
NtRp3578
(dp3579
g73
(dp3580
sg82
g3565
sg75
(lp3581
g68
(g69
g70
NtRp3582
(dp3583
g73
(dp3584
g81
I5
ssg82
g3578
sg75
(lp3585
S'db.auth_group.id>0'
p3586
asbasbasbasbasbsS'etype'
p3587
S"<type 'exceptions.SyntaxError'>"
p3588
sS'date'
p3589
S'Mon Oct 24 10:51:19 2011'
p3590
sS'response'
p3591
g68
(g69
g70
NtRp3592
(dp3593
g73
(dp3594
sg75
(lp3595
g68
(g77
g70
NtRp3596
(dp3597
g73
(dp3598
g81
I5
ssg82
Nsg75
(lp3599
g68
(g84
g70
NtRp3600
(dp3601
g73
(dp3602
sg82
g3596
sg75
(lp3603
g68
(g89
g70
NtRp3604
(dp3605
g73
(dp3606
g93
g94
ssg82
g3600
sg75
(lp3607
g178
asbag68
(g89
g70
NtRp3608
(dp3609
g73
(dp3610
g100
g101
ssg82
g3600
sg75
(lp3611
S':'
asbag68
(g89
g70
NtRp3612
(dp3613
g73
(dp3614
sg82
g3600
sg75
(lp3615
g68
(g69
g70
NtRp3616
(dp3617
g73
(dp3618
g81
I5
ssg82
g3612
sg75
(lp3619
S'<cStringIO.StringO object at 0x47abb90>'
p3620
asbasbasbag68
(g84
g70
NtRp3621
(dp3622
g73
(dp3623
sg82
g3596
sg75
(lp3624
g68
(g89
g70
NtRp3625
(dp3626
g73
(dp3627
g93
g94
ssg82
g3621
sg75
(lp3628
g244
asbag68
(g89
g70
NtRp3629
(dp3630
g73
(dp3631
g100
g101
ssg82
g3621
sg75
(lp3632
S':'
asbag68
(g89
g70
NtRp3633
(dp3634
g73
(dp3635
sg82
g3621
sg75
(lp3636
g68
(g69
g70
NtRp3637
(dp3638
g73
(dp3639
g81
I5
ssg82
g3633
sg75
(lp3640
g68
(g77
g70
NtRp3641
(dp3642
g73
(dp3643
g81
I4
ssg82
Nsg75
(lp3644
g68
(g84
g70
NtRp3645
(dp3646
g73
(dp3647
sg82
g3641
sg75
(lp3648
g68
(g89
g70
NtRp3649
(dp3650
g73
(dp3651
g93
g94
ssg82
g3645
sg75
(lp3652
S'session_id_paideia'
p3653
asbag68
(g89
g70
NtRp3654
(dp3655
g73
(dp3656
g100
g101
ssg82
g3645
sg75
(lp3657
S':'
asbag68
(g89
g70
NtRp3658
(dp3659
g73
(dp3660
sg82
g3645
sg75
(lp3661
g68
(g69
g70
NtRp3662
(dp3663
g73
(dp3664
g81
I4
ssg82
g3658
sg75
(lp3665
g68
(g77
g70
NtRp3666
(dp3667
g73
(dp3668
g81
I3
ssg82
Nsg75
(lp3669
g68
(g84
g70
NtRp3670
(dp3671
g73
(dp3672
sg82
g3666
sg75
(lp3673
g68
(g89
g70
NtRp3674
(dp3675
g73
(dp3676
g93
g94
ssg82
g3670
sg75
(lp3677
g294
asbag68
(g89
g70
NtRp3678
(dp3679
g73
(dp3680
g100
g101
ssg82
g3670
sg75
(lp3681
S':'
asbag68
(g89
g70
NtRp3682
(dp3683
g73
(dp3684
sg82
g3670
sg75
(lp3685
g68
(g69
g70
NtRp3686
(dp3687
g73
(dp3688
g81
I3
ssg82
g3682
sg75
(lp3689
S''
asbasbasbag68
(g84
g70
NtRp3690
(dp3691
g73
(dp3692
sg82
g3666
sg75
(lp3693
g68
(g89
g70
NtRp3694
(dp3695
g73
(dp3696
g93
g94
ssg82
g3690
sg75
(lp3697
g315
asbag68
(g89
g70
NtRp3698
(dp3699
g73
(dp3700
g100
g101
ssg82
g3690
sg75
(lp3701
S':'
asbag68
(g89
g70
NtRp3702
(dp3703
g73
(dp3704
sg82
g3690
sg75
(lp3705
g68
(g69
g70
NtRp3706
(dp3707
g73
(dp3708
g81
I3
ssg82
g3702
sg75
(lp3709
S''
asbasbasbag68
(g84
g70
NtRp3710
(dp3711
g73
(dp3712
sg82
g3666
sg75
(lp3713
g68
(g89
g70
NtRp3714
(dp3715
g73
(dp3716
g93
g94
ssg82
g3710
sg75
(lp3717
g336
asbag68
(g89
g70
NtRp3718
(dp3719
g73
(dp3720
g100
g101
ssg82
g3710
sg75
(lp3721
S':'
asbag68
(g89
g70
NtRp3722
(dp3723
g73
(dp3724
sg82
g3710
sg75
(lp3725
g68
(g69
g70
NtRp3726
(dp3727
g73
(dp3728
g81
I3
ssg82
g3722
sg75
(lp3729
S''
asbasbasbag68
(g84
g70
NtRp3730
(dp3731
g73
(dp3732
sg82
g3666
sg75
(lp3733
g68
(g89
g70
NtRp3734
(dp3735
g73
(dp3736
g93
g94
ssg82
g3730
sg75
(lp3737
g357
asbag68
(g89
g70
NtRp3738
(dp3739
g73
(dp3740
g100
g101
ssg82
g3730
sg75
(lp3741
S':'
asbag68
(g89
g70
NtRp3742
(dp3743
g73
(dp3744
sg82
g3730
sg75
(lp3745
g68
(g69
g70
NtRp3746
(dp3747
g73
(dp3748
g81
I3
ssg82
g3742
sg75
(lp3749
S''
asbasbasbag68
(g84
g70
NtRp3750
(dp3751
g73
(dp3752
sg82
g3666
sg75
(lp3753
g68
(g89
g70
NtRp3754
(dp3755
g73
(dp3756
g93
g94
ssg82
g3750
sg75
(lp3757
g378
asbag68
(g89
g70
NtRp3758
(dp3759
g73
(dp3760
g100
g101
ssg82
g3750
sg75
(lp3761
S':'
asbag68
(g89
g70
NtRp3762
(dp3763
g73
(dp3764
sg82
g3750
sg75
(lp3765
g68
(g69
g70
NtRp3766
(dp3767
g73
(dp3768
g81
I3
ssg82
g3762
sg75
(lp3769
S''
asbasbasbag68
(g84
g70
NtRp3770
(dp3771
g73
(dp3772
sg82
g3666
sg75
(lp3773
g68
(g89
g70
NtRp3774
(dp3775
g73
(dp3776
g93
g94
ssg82
g3770
sg75
(lp3777
g399
asbag68
(g89
g70
NtRp3778
(dp3779
g73
(dp3780
g100
g101
ssg82
g3770
sg75
(lp3781
S':'
asbag68
(g89
g70
NtRp3782
(dp3783
g73
(dp3784
sg82
g3770
sg75
(lp3785
g68
(g69
g70
NtRp3786
(dp3787
g73
(dp3788
g81
I3
ssg82
g3782
sg75
(lp3789
S'/'
asbasbasbag68
(g84
g70
NtRp3790
(dp3791
g73
(dp3792
sg82
g3666
sg75
(lp3793
g68
(g89
g70
NtRp3794
(dp3795
g73
(dp3796
g93
g94
ssg82
g3790
sg75
(lp3797
g420
asbag68
(g89
g70
NtRp3798
(dp3799
g73
(dp3800
g100
g101
ssg82
g3790
sg75
(lp3801
S':'
asbag68
(g89
g70
NtRp3802
(dp3803
g73
(dp3804
sg82
g3790
sg75
(lp3805
g68
(g69
g70
NtRp3806
(dp3807
g73
(dp3808
g81
I3
ssg82
g3802
sg75
(lp3809
S''
asbasbasbag68
(g84
g70
NtRp3810
(dp3811
g73
(dp3812
sg82
g3666
sg75
(lp3813
g68
(g89
g70
NtRp3814
(dp3815
g73
(dp3816
g93
g94
ssg82
g3810
sg75
(lp3817
g441
asbag68
(g89
g70
NtRp3818
(dp3819
g73
(dp3820
g100
g101
ssg82
g3810
sg75
(lp3821
S':'
asbag68
(g89
g70
NtRp3822
(dp3823
g73
(dp3824
sg82
g3810
sg75
(lp3825
g68
(g69
g70
NtRp3826
(dp3827
g73
(dp3828
g81
I3
ssg82
g3822
sg75
(lp3829
S''
asbasbasbasbasbasbasbasbasbasbasbag68
(g84
g70
NtRp3830
(dp3831
g73
(dp3832
sg82
g3596
sg75
(lp3833
g68
(g89
g70
NtRp3834
(dp3835
g73
(dp3836
g93
g94
ssg82
g3830
sg75
(lp3837
S'files'
p3838
asbag68
(g89
g70
NtRp3839
(dp3840
g73
(dp3841
g100
g101
ssg82
g3830
sg75
(lp3842
S':'
asbag68
(g89
g70
NtRp3843
(dp3844
g73
(dp3845
sg82
g3830
sg75
(lp3846
g68
(g69
g70
NtRp3847
(dp3848
g73
(dp3849
g81
I5
ssg82
g3843
sg75
(lp3850
g68
(g77
g70
NtRp3851
(dp3852
g73
(dp3853
g81
I4
ssg82
Nsg75
(lp3854
sbasbasbasbag68
(g84
g70
NtRp3855
(dp3856
g73
(dp3857
sg82
g3596
sg75
(lp3858
g68
(g89
g70
NtRp3859
(dp3860
g73
(dp3861
g93
g94
ssg82
g3855
sg75
(lp3862
S'flash'
p3863
asbag68
(g89
g70
NtRp3864
(dp3865
g73
(dp3866
g100
g101
ssg82
g3855
sg75
(lp3867
S':'
asbag68
(g89
g70
NtRp3868
(dp3869
g73
(dp3870
sg82
g3855
sg75
(lp3871
g68
(g69
g70
NtRp3872
(dp3873
g73
(dp3874
g81
I5
ssg82
g3868
sg75
(lp3875
S''
asbasbasbag68
(g84
g70
NtRp3876
(dp3877
g73
(dp3878
sg82
g3596
sg75
(lp3879
g68
(g89
g70
NtRp3880
(dp3881
g73
(dp3882
g93
g94
ssg82
g3876
sg75
(lp3883
S'generic_patterns'
p3884
asbag68
(g89
g70
NtRp3885
(dp3886
g73
(dp3887
g100
g101
ssg82
g3876
sg75
(lp3888
S':'
asbag68
(g89
g70
NtRp3889
(dp3890
g73
(dp3891
sg82
g3876
sg75
(lp3892
g68
(g69
g70
NtRp3893
(dp3894
g73
(dp3895
g81
I5
ssg82
g3889
sg75
(lp3896
g68
(g77
g70
NtRp3897
(dp3898
g73
(dp3899
g81
I4
ssg82
Nsg75
(lp3900
g68
(g84
g70
NtRp3901
(dp3902
g73
(dp3903
sg82
g3897
sg75
(lp3904
g68
(g89
g70
NtRp3905
(dp3906
g73
(dp3907
sg82
g3901
sg75
(lp3908
g68
(g69
g70
NtRp3909
(dp3910
g73
(dp3911
g81
I4
ssg82
g3905
sg75
(lp3912
S'*'
asbasbasbasbasbasbasbag68
(g84
g70
NtRp3913
(dp3914
g73
(dp3915
sg82
g3596
sg75
(lp3916
g68
(g89
g70
NtRp3917
(dp3918
g73
(dp3919
g93
g94
ssg82
g3913
sg75
(lp3920
S'headers'
p3921
asbag68
(g89
g70
NtRp3922
(dp3923
g73
(dp3924
g100
g101
ssg82
g3913
sg75
(lp3925
S':'
asbag68
(g89
g70
NtRp3926
(dp3927
g73
(dp3928
sg82
g3913
sg75
(lp3929
g68
(g69
g70
NtRp3930
(dp3931
g73
(dp3932
g81
I5
ssg82
g3926
sg75
(lp3933
g68
(g77
g70
NtRp3934
(dp3935
g73
(dp3936
g81
I4
ssg82
Nsg75
(lp3937
g68
(g84
g70
NtRp3938
(dp3939
g73
(dp3940
sg82
g3934
sg75
(lp3941
g68
(g89
g70
NtRp3942
(dp3943
g73
(dp3944
g93
g94
ssg82
g3938
sg75
(lp3945
S'Cache-Control'
p3946
asbag68
(g89
g70
NtRp3947
(dp3948
g73
(dp3949
g100
g101
ssg82
g3938
sg75
(lp3950
S':'
asbag68
(g89
g70
NtRp3951
(dp3952
g73
(dp3953
sg82
g3938
sg75
(lp3954
g68
(g69
g70
NtRp3955
(dp3956
g73
(dp3957
g81
I4
ssg82
g3951
sg75
(lp3958
S'no-store, no-cache, must-revalidate, post-check=0, pre-check=0'
p3959
asbasbasbag68
(g84
g70
NtRp3960
(dp3961
g73
(dp3962
sg82
g3934
sg75
(lp3963
g68
(g89
g70
NtRp3964
(dp3965
g73
(dp3966
g93
g94
ssg82
g3960
sg75
(lp3967
S'Content-Type'
p3968
asbag68
(g89
g70
NtRp3969
(dp3970
g73
(dp3971
g100
g101
ssg82
g3960
sg75
(lp3972
S':'
asbag68
(g89
g70
NtRp3973
(dp3974
g73
(dp3975
sg82
g3960
sg75
(lp3976
g68
(g69
g70
NtRp3977
(dp3978
g73
(dp3979
g81
I4
ssg82
g3973
sg75
(lp3980
S'text/html; charset=utf-8'
p3981
asbasbasbag68
(g84
g70
NtRp3982
(dp3983
g73
(dp3984
sg82
g3934
sg75
(lp3985
g68
(g89
g70
NtRp3986
(dp3987
g73
(dp3988
g93
g94
ssg82
g3982
sg75
(lp3989
S'Expires'
p3990
asbag68
(g89
g70
NtRp3991
(dp3992
g73
(dp3993
g100
g101
ssg82
g3982
sg75
(lp3994
S':'
asbag68
(g89
g70
NtRp3995
(dp3996
g73
(dp3997
sg82
g3982
sg75
(lp3998
g68
(g69
g70
NtRp3999
(dp4000
g73
(dp4001
g81
I4
ssg82
g3995
sg75
(lp4002
S'Mon, 24 Oct 2011 14:51:19 GMT'
p4003
asbasbasbag68
(g84
g70
NtRp4004
(dp4005
g73
(dp4006
sg82
g3934
sg75
(lp4007
g68
(g89
g70
NtRp4008
(dp4009
g73
(dp4010
g93
g94
ssg82
g4004
sg75
(lp4011
S'Pragma'
p4012
asbag68
(g89
g70
NtRp4013
(dp4014
g73
(dp4015
g100
g101
ssg82
g4004
sg75
(lp4016
S':'
asbag68
(g89
g70
NtRp4017
(dp4018
g73
(dp4019
sg82
g4004
sg75
(lp4020
g68
(g69
g70
NtRp4021
(dp4022
g73
(dp4023
g81
I4
ssg82
g4017
sg75
(lp4024
S'no-cache'
p4025
asbasbasbag68
(g84
g70
NtRp4026
(dp4027
g73
(dp4028
sg82
g3934
sg75
(lp4029
g68
(g89
g70
NtRp4030
(dp4031
g73
(dp4032
g93
g94
ssg82
g4026
sg75
(lp4033
S'X-Powered-By'
p4034
asbag68
(g89
g70
NtRp4035
(dp4036
g73
(dp4037
g100
g101
ssg82
g4026
sg75
(lp4038
S':'
asbag68
(g89
g70
NtRp4039
(dp4040
g73
(dp4041
sg82
g4026
sg75
(lp4042
g68
(g69
g70
NtRp4043
(dp4044
g73
(dp4045
g81
I4
ssg82
g4039
sg75
(lp4046
S'web2py'
p4047
asbasbasbasbasbasbasbag68
(g84
g70
NtRp4048
(dp4049
g73
(dp4050
sg82
g3596
sg75
(lp4051
g68
(g89
g70
NtRp4052
(dp4053
g73
(dp4054
g93
g94
ssg82
g4048
sg75
(lp4055
S'menu'
p4056
asbag68
(g89
g70
NtRp4057
(dp4058
g73
(dp4059
g100
g101
ssg82
g4048
sg75
(lp4060
S':'
asbag68
(g89
g70
NtRp4061
(dp4062
g73
(dp4063
sg82
g4048
sg75
(lp4064
g68
(g69
g70
NtRp4065
(dp4066
g73
(dp4067
g81
I5
ssg82
g4061
sg75
(lp4068
g68
(g77
g70
NtRp4069
(dp4070
g73
(dp4071
g81
I4
ssg82
Nsg75
(lp4072
g68
(g84
g70
NtRp4073
(dp4074
g73
(dp4075
sg82
g4069
sg75
(lp4076
g68
(g89
g70
NtRp4077
(dp4078
g73
(dp4079
sg82
g4073
sg75
(lp4080
g68
(g69
g70
NtRp4081
(dp4082
g73
(dp4083
g81
I4
ssg82
g4077
sg75
(lp4084
g68
(g77
g70
NtRp4085
(dp4086
g73
(dp4087
g81
I3
ssg82
Nsg75
(lp4088
g68
(g84
g70
NtRp4089
(dp4090
g73
(dp4091
sg82
g4085
sg75
(lp4092
g68
(g89
g70
NtRp4093
(dp4094
g73
(dp4095
sg82
g4089
sg75
(lp4096
g68
(g69
g70
NtRp4097
(dp4098
g73
(dp4099
g81
I3
ssg82
g4093
sg75
(lp4100
cgluon.languages
lazyT_unpickle
p4101
(S't\x04\x00\x00\x00Home'
tRp4102
asbasbasbag68
(g84
g70
NtRp4103
(dp4104
g73
(dp4105
sg82
g4085
sg75
(lp4106
g68
(g89
g70
NtRp4107
(dp4108
g73
(dp4109
sg82
g4103
sg75
(lp4110
g68
(g69
g70
NtRp4111
(dp4112
g73
(dp4113
g81
I3
ssg82
g4107
sg75
(lp4114
g111
asbasbasbag68
(g84
g70
NtRp4115
(dp4116
g73
(dp4117
sg82
g4085
sg75
(lp4118
g68
(g89
g70
NtRp4119
(dp4120
g73
(dp4121
sg82
g4115
sg75
(lp4122
g68
(g69
g70
NtRp4123
(dp4124
g73
(dp4125
g81
I3
ssg82
g4119
sg75
(lp4126
S'/paideia/default/index'
p4127
asbasbasbag68
(g84
g70
NtRp4128
(dp4129
g73
(dp4130
sg82
g4085
sg75
(lp4131
g68
(g89
g70
NtRp4132
(dp4133
g73
(dp4134
sg82
g4128
sg75
(lp4135
g68
(g69
g70
NtRp4136
(dp4137
g73
(dp4138
g81
I3
ssg82
g4132
sg75
(lp4139
g68
(g77
g70
NtRp4140
(dp4141
g73
(dp4142
g81
I2
ssg82
Nsg75
(lp4143
sbasbasbasbasbasbasbasbag68
(g84
g70
NtRp4144
(dp4145
g73
(dp4146
sg82
g4069
sg75
(lp4147
g68
(g89
g70
NtRp4148
(dp4149
g73
(dp4150
sg82
g4144
sg75
(lp4151
g68
(g69
g70
NtRp4152
(dp4153
g73
(dp4154
g81
I4
ssg82
g4148
sg75
(lp4155
g68
(g77
g70
NtRp4156
(dp4157
g73
(dp4158
g81
I3
ssg82
Nsg75
(lp4159
g68
(g84
g70
NtRp4160
(dp4161
g73
(dp4162
sg82
g4156
sg75
(lp4163
g68
(g89
g70
NtRp4164
(dp4165
g73
(dp4166
sg82
g4160
sg75
(lp4167
g68
(g69
g70
NtRp4168
(dp4169
g73
(dp4170
g81
I3
ssg82
g4164
sg75
(lp4171
g4101
(S't\x05\x00\x00\x00Admin'
tRp4172
asbasbasbag68
(g84
g70
NtRp4173
(dp4174
g73
(dp4175
sg82
g4156
sg75
(lp4176
g68
(g89
g70
NtRp4177
(dp4178
g73
(dp4179
sg82
g4173
sg75
(lp4180
g68
(g69
g70
NtRp4181
(dp4182
g73
(dp4183
g81
I3
ssg82
g4177
sg75
(lp4184
g111
asbasbasbag68
(g84
g70
NtRp4185
(dp4186
g73
(dp4187
sg82
g4156
sg75
(lp4188
g68
(g89
g70
NtRp4189
(dp4190
g73
(dp4191
sg82
g4185
sg75
(lp4192
g68
(g69
g70
NtRp4193
(dp4194
g73
(dp4195
g81
I3
ssg82
g4189
sg75
(lp4196
S'None'
p4197
asbasbasbag68
(g84
g70
NtRp4198
(dp4199
g73
(dp4200
sg82
g4156
sg75
(lp4201
g68
(g89
g70
NtRp4202
(dp4203
g73
(dp4204
sg82
g4198
sg75
(lp4205
g68
(g69
g70
NtRp4206
(dp4207
g73
(dp4208
g81
I3
ssg82
g4202
sg75
(lp4209
g68
(g77
g70
NtRp4210
(dp4211
g73
(dp4212
g81
I2
ssg82
Nsg75
(lp4213
g68
(g84
g70
NtRp4214
(dp4215
g73
(dp4216
sg82
g4210
sg75
(lp4217
g68
(g89
g70
NtRp4218
(dp4219
g73
(dp4220
sg82
g4214
sg75
(lp4221
g68
(g69
g70
NtRp4222
(dp4223
g73
(dp4224
g81
I2
ssg82
g4218
sg75
(lp4225
g68
(g77
g70
NtRp4226
(dp4227
g73
(dp4228
g81
I1
ssg82
Nsg75
(lp4229
g68
(g84
g70
NtRp4230
(dp4231
g73
(dp4232
sg82
g4226
sg75
(lp4233
g68
(g89
g70
NtRp4234
(dp4235
g73
(dp4236
sg82
g4230
sg75
(lp4237
g68
(g69
g70
NtRp4238
(dp4239
g73
(dp4240
g81
I1
ssg82
g4234
sg75
(lp4241
g4101
(S't\x06\x00\x00\x00Design'
tRp4242
asbasbasbag68
(g84
g70
NtRp4243
(dp4244
g73
(dp4245
sg82
g4226
sg75
(lp4246
g68
(g89
g70
NtRp4247
(dp4248
g73
(dp4249
sg82
g4243
sg75
(lp4250
g68
(g69
g70
NtRp4251
(dp4252
g73
(dp4253
g81
I1
ssg82
g4247
sg75
(lp4254
I00
asbasbasbag68
(g84
g70
NtRp4255
(dp4256
g73
(dp4257
sg82
g4226
sg75
(lp4258
g68
(g89
g70
NtRp4259
(dp4260
g73
(dp4261
sg82
g4255
sg75
(lp4262
g68
(g69
g70
NtRp4263
(dp4264
g73
(dp4265
g81
I1
ssg82
g4259
sg75
(lp4266
S'/admin/default/index'
p4267
asbasbasbasbasbasbasbag68
(g84
g70
NtRp4268
(dp4269
g73
(dp4270
sg82
g4210
sg75
(lp4271
g68
(g89
g70
NtRp4272
(dp4273
g73
(dp4274
sg82
g4268
sg75
(lp4275
g68
(g69
g70
NtRp4276
(dp4277
g73
(dp4278
g81
I2
ssg82
g4272
sg75
(lp4279
g68
(g77
g70
NtRp4280
(dp4281
g73
(dp4282
g81
I1
ssg82
Nsg75
(lp4283
g68
(g84
g70
NtRp4284
(dp4285
g73
(dp4286
sg82
g4280
sg75
(lp4287
g68
(g89
g70
NtRp4288
(dp4289
g73
(dp4290
sg82
g4284
sg75
(lp4291
g68
(g69
g70
NtRp4292
(dp4293
g73
(dp4294
g81
I1
ssg82
g4288
sg75
(lp4295
g4101
(S't\x08\x00\x00\x00Database'
tRp4296
asbasbasbag68
(g84
g70
NtRp4297
(dp4298
g73
(dp4299
sg82
g4280
sg75
(lp4300
g68
(g89
g70
NtRp4301
(dp4302
g73
(dp4303
sg82
g4297
sg75
(lp4304
g68
(g69
g70
NtRp4305
(dp4306
g73
(dp4307
g81
I1
ssg82
g4301
sg75
(lp4308
I00
asbasbasbag68
(g84
g70
NtRp4309
(dp4310
g73
(dp4311
sg82
g4280
sg75
(lp4312
g68
(g89
g70
NtRp4313
(dp4314
g73
(dp4315
sg82
g4309
sg75
(lp4316
g68
(g69
g70
NtRp4317
(dp4318
g73
(dp4319
g81
I1
ssg82
g4313
sg75
(lp4320
S'/paideia/appadmin/index'
p4321
asbasbasbasbasbasbasbag68
(g84
g70
NtRp4322
(dp4323
g73
(dp4324
sg82
g4210
sg75
(lp4325
g68
(g89
g70
NtRp4326
(dp4327
g73
(dp4328
sg82
g4322
sg75
(lp4329
g68
(g69
g70
NtRp4330
(dp4331
g73
(dp4332
g81
I2
ssg82
g4326
sg75
(lp4333
g68
(g77
g70
NtRp4334
(dp4335
g73
(dp4336
g81
I1
ssg82
Nsg75
(lp4337
g68
(g84
g70
NtRp4338
(dp4339
g73
(dp4340
sg82
g4334
sg75
(lp4341
g68
(g89
g70
NtRp4342
(dp4343
g73
(dp4344
sg82
g4338
sg75
(lp4345
g68
(g69
g70
NtRp4346
(dp4347
g73
(dp4348
g81
I1
ssg82
g4342
sg75
(lp4349
g4101
(S't\x05\x00\x00\x00Users'
tRp4350
asbasbasbag68
(g84
g70
NtRp4351
(dp4352
g73
(dp4353
sg82
g4334
sg75
(lp4354
g68
(g89
g70
NtRp4355
(dp4356
g73
(dp4357
sg82
g4351
sg75
(lp4358
g68
(g69
g70
NtRp4359
(dp4360
g73
(dp4361
g81
I1
ssg82
g4355
sg75
(lp4362
I00
asbasbasbag68
(g84
g70
NtRp4363
(dp4364
g73
(dp4365
sg82
g4334
sg75
(lp4366
g68
(g89
g70
NtRp4367
(dp4368
g73
(dp4369
sg82
g4363
sg75
(lp4370
g68
(g69
g70
NtRp4371
(dp4372
g73
(dp4373
g81
I1
ssg82
g4367
sg75
(lp4374
S'/paideia/listing/user'
p4375
asbasbasbasbasbasbasbag68
(g84
g70
NtRp4376
(dp4377
g73
(dp4378
sg82
g4210
sg75
(lp4379
g68
(g89
g70
NtRp4380
(dp4381
g73
(dp4382
sg82
g4376
sg75
(lp4383
g68
(g69
g70
NtRp4384
(dp4385
g73
(dp4386
g81
I2
ssg82
g4380
sg75
(lp4387
g68
(g77
g70
NtRp4388
(dp4389
g73
(dp4390
g81
I1
ssg82
Nsg75
(lp4391
g68
(g84
g70
NtRp4392
(dp4393
g73
(dp4394
sg82
g4388
sg75
(lp4395
g68
(g89
g70
NtRp4396
(dp4397
g73
(dp4398
sg82
g4392
sg75
(lp4399
g68
(g69
g70
NtRp4400
(dp4401
g73
(dp4402
g81
I1
ssg82
g4396
sg75
(lp4403
g4101
(S't\t\x00\x00\x00Questions'
tRp4404
asbasbasbag68
(g84
g70
NtRp4405
(dp4406
g73
(dp4407
sg82
g4388
sg75
(lp4408
g68
(g89
g70
NtRp4409
(dp4410
g73
(dp4411
sg82
g4405
sg75
(lp4412
g68
(g69
g70
NtRp4413
(dp4414
g73
(dp4415
g81
I1
ssg82
g4409
sg75
(lp4416
I00
asbasbasbag68
(g84
g70
NtRp4417
(dp4418
g73
(dp4419
sg82
g4388
sg75
(lp4420
g68
(g89
g70
NtRp4421
(dp4422
g73
(dp4423
sg82
g4417
sg75
(lp4424
g68
(g69
g70
NtRp4425
(dp4426
g73
(dp4427
g81
I1
ssg82
g4421
sg75
(lp4428
S'/paideia/listing/question'
p4429
asbasbasbasbasbasbasbag68
(g84
g70
NtRp4430
(dp4431
g73
(dp4432
sg82
g4210
sg75
(lp4433
g68
(g89
g70
NtRp4434
(dp4435
g73
(dp4436
sg82
g4430
sg75
(lp4437
g68
(g69
g70
NtRp4438
(dp4439
g73
(dp4440
g81
I2
ssg82
g4434
sg75
(lp4441
g68
(g77
g70
NtRp4442
(dp4443
g73
(dp4444
g81
I1
ssg82
Nsg75
(lp4445
g68
(g84
g70
NtRp4446
(dp4447
g73
(dp4448
sg82
g4442
sg75
(lp4449
g68
(g89
g70
NtRp4450
(dp4451
g73
(dp4452
sg82
g4446
sg75
(lp4453
g68
(g69
g70
NtRp4454
(dp4455
g73
(dp4456
g81
I1
ssg82
g4450
sg75
(lp4457
g4101
(S't\x07\x00\x00\x00Quizzes'
tRp4458
asbasbasbag68
(g84
g70
NtRp4459
(dp4460
g73
(dp4461
sg82
g4442
sg75
(lp4462
g68
(g89
g70
NtRp4463
(dp4464
g73
(dp4465
sg82
g4459
sg75
(lp4466
g68
(g69
g70
NtRp4467
(dp4468
g73
(dp4469
g81
I1
ssg82
g4463
sg75
(lp4470
I00
asbasbasbag68
(g84
g70
NtRp4471
(dp4472
g73
(dp4473
sg82
g4442
sg75
(lp4474
g68
(g89
g70
NtRp4475
(dp4476
g73
(dp4477
sg82
g4471
sg75
(lp4478
g68
(g69
g70
NtRp4479
(dp4480
g73
(dp4481
g81
I1
ssg82
g4475
sg75
(lp4482
S'/paideia/listing/quiz'
p4483
asbasbasbasbasbasbasbag68
(g84
g70
NtRp4484
(dp4485
g73
(dp4486
sg82
g4210
sg75
(lp4487
g68
(g89
g70
NtRp4488
(dp4489
g73
(dp4490
sg82
g4484
sg75
(lp4491
g68
(g69
g70
NtRp4492
(dp4493
g73
(dp4494
g81
I2
ssg82
g4488
sg75
(lp4495
g68
(g77
g70
NtRp4496
(dp4497
g73
(dp4498
g81
I1
ssg82
Nsg75
(lp4499
g68
(g84
g70
NtRp4500
(dp4501
g73
(dp4502
sg82
g4496
sg75
(lp4503
g68
(g89
g70
NtRp4504
(dp4505
g73
(dp4506
sg82
g4500
sg75
(lp4507
g68
(g69
g70
NtRp4508
(dp4509
g73
(dp4510
g81
I1
ssg82
g4504
sg75
(lp4511
g4101
(S't\x04\x00\x00\x00Tags'
tRp4512
asbasbasbag68
(g84
g70
NtRp4513
(dp4514
g73
(dp4515
sg82
g4496
sg75
(lp4516
g68
(g89
g70
NtRp4517
(dp4518
g73
(dp4519
sg82
g4513
sg75
(lp4520
g68
(g69
g70
NtRp4521
(dp4522
g73
(dp4523
g81
I1
ssg82
g4517
sg75
(lp4524
I00
asbasbasbag68
(g84
g70
NtRp4525
(dp4526
g73
(dp4527
sg82
g4496
sg75
(lp4528
g68
(g89
g70
NtRp4529
(dp4530
g73
(dp4531
sg82
g4525
sg75
(lp4532
g68
(g69
g70
NtRp4533
(dp4534
g73
(dp4535
g81
I1
ssg82
g4529
sg75
(lp4536
S'/paideia/listing/tag'
p4537
asbasbasbasbasbasbasbasbasbasbasbasbasbasbasbasbasbasbasbag68
(g84
g70
NtRp4538
(dp4539
g73
(dp4540
sg82
g3596
sg75
(lp4541
g68
(g89
g70
NtRp4542
(dp4543
g73
(dp4544
g93
g94
ssg82
g4538
sg75
(lp4545
S'meta'
p4546
asbag68
(g89
g70
NtRp4547
(dp4548
g73
(dp4549
g100
g101
ssg82
g4538
sg75
(lp4550
S':'
asbag68
(g89
g70
NtRp4551
(dp4552
g73
(dp4553
sg82
g4538
sg75
(lp4554
g68
(g69
g70
NtRp4555
(dp4556
g73
(dp4557
g81
I5
ssg82
g4551
sg75
(lp4558
g68
(g77
g70
NtRp4559
(dp4560
g73
(dp4561
g81
I4
ssg82
Nsg75
(lp4562
g68
(g84
g70
NtRp4563
(dp4564
g73
(dp4565
sg82
g4559
sg75
(lp4566
g68
(g89
g70
NtRp4567
(dp4568
g73
(dp4569
g93
g94
ssg82
g4563
sg75
(lp4570
S'author'
p4571
asbag68
(g89
g70
NtRp4572
(dp4573
g73
(dp4574
g100
g101
ssg82
g4563
sg75
(lp4575
S':'
asbag68
(g89
g70
NtRp4576
(dp4577
g73
(dp4578
sg82
g4563
sg75
(lp4579
g68
(g69
g70
NtRp4580
(dp4581
g73
(dp4582
g81
I4
ssg82
g4576
sg75
(lp4583
S'Ian W. Scott'
p4584
asbasbasbag68
(g84
g70
NtRp4585
(dp4586
g73
(dp4587
sg82
g4559
sg75
(lp4588
g68
(g89
g70
NtRp4589
(dp4590
g73
(dp4591
g93
g94
ssg82
g4585
sg75
(lp4592
S'copyright'
p4593
asbag68
(g89
g70
NtRp4594
(dp4595
g73
(dp4596
g100
g101
ssg82
g4585
sg75
(lp4597
S':'
asbag68
(g89
g70
NtRp4598
(dp4599
g73
(dp4600
sg82
g4585
sg75
(lp4601
g68
(g69
g70
NtRp4602
(dp4603
g73
(dp4604
g81
I4
ssg82
g4598
sg75
(lp4605
S'Copyright 2011'
p4606
asbasbasbag68
(g84
g70
NtRp4607
(dp4608
g73
(dp4609
sg82
g4559
sg75
(lp4610
g68
(g89
g70
NtRp4611
(dp4612
g73
(dp4613
g93
g94
ssg82
g4607
sg75
(lp4614
S'description'
p4615
asbag68
(g89
g70
NtRp4616
(dp4617
g73
(dp4618
g100
g101
ssg82
g4607
sg75
(lp4619
S':'
asbag68
(g89
g70
NtRp4620
(dp4621
g73
(dp4622
sg82
g4607
sg75
(lp4623
g68
(g69
g70
NtRp4624
(dp4625
g73
(dp4626
g81
I4
ssg82
g4620
sg75
(lp4627
S'An online space for learning New Testament Greek'
p4628
asbasbasbag68
(g84
g70
NtRp4629
(dp4630
g73
(dp4631
sg82
g4559
sg75
(lp4632
g68
(g89
g70
NtRp4633
(dp4634
g73
(dp4635
g93
g94
ssg82
g4629
sg75
(lp4636
S'generator'
p4637
asbag68
(g89
g70
NtRp4638
(dp4639
g73
(dp4640
g100
g101
ssg82
g4629
sg75
(lp4641
S':'
asbag68
(g89
g70
NtRp4642
(dp4643
g73
(dp4644
sg82
g4629
sg75
(lp4645
g68
(g69
g70
NtRp4646
(dp4647
g73
(dp4648
g81
I4
ssg82
g4642
sg75
(lp4649
S'Web2py Enterprise Framework'
p4650
asbasbasbag68
(g84
g70
NtRp4651
(dp4652
g73
(dp4653
sg82
g4559
sg75
(lp4654
g68
(g89
g70
NtRp4655
(dp4656
g73
(dp4657
g93
g94
ssg82
g4651
sg75
(lp4658
S'keywords'
p4659
asbag68
(g89
g70
NtRp4660
(dp4661
g73
(dp4662
g100
g101
ssg82
g4651
sg75
(lp4663
S':'
asbag68
(g89
g70
NtRp4664
(dp4665
g73
(dp4666
sg82
g4651
sg75
(lp4667
g68
(g69
g70
NtRp4668
(dp4669
g73
(dp4670
g81
I4
ssg82
g4664
sg75
(lp4671
S'Greek, koine, New Testament, language, education, learning'
p4672
asbasbasbasbasbasbasbag68
(g84
g70
NtRp4673
(dp4674
g73
(dp4675
sg82
g3596
sg75
(lp4676
g68
(g89
g70
NtRp4677
(dp4678
g73
(dp4679
g93
g94
ssg82
g4673
sg75
(lp4680
S'postprocessing'
p4681
asbag68
(g89
g70
NtRp4682
(dp4683
g73
(dp4684
g100
g101
ssg82
g4673
sg75
(lp4685
S':'
asbag68
(g89
g70
NtRp4686
(dp4687
g73
(dp4688
sg82
g4673
sg75
(lp4689
g68
(g69
g70
NtRp4690
(dp4691
g73
(dp4692
g81
I5
ssg82
g4686
sg75
(lp4693
g68
(g77
g70
NtRp4694
(dp4695
g73
(dp4696
g81
I4
ssg82
Nsg75
(lp4697
sbasbasbasbag68
(g84
g70
NtRp4698
(dp4699
g73
(dp4700
sg82
g3596
sg75
(lp4701
g68
(g89
g70
NtRp4702
(dp4703
g73
(dp4704
g93
g94
ssg82
g4698
sg75
(lp4705
S'session_file'
p4706
asbag68
(g89
g70
NtRp4707
(dp4708
g73
(dp4709
g100
g101
ssg82
g4698
sg75
(lp4710
S':'
asbag68
(g89
g70
NtRp4711
(dp4712
g73
(dp4713
sg82
g4698
sg75
(lp4714
g68
(g69
g70
NtRp4715
(dp4716
g73
(dp4717
g81
I5
ssg82
g4711
sg75
(lp4718
S"<open file '/home/ian/web2py/applications/paideia/sessions/127.0.0.1-38346cf4-0a63-4c64-88f4-8a75236eaea4', mode 'rb+' at 0x2bedd20>"
p4719
asbasbasbag68
(g84
g70
NtRp4720
(dp4721
g73
(dp4722
sg82
g3596
sg75
(lp4723
g68
(g89
g70
NtRp4724
(dp4725
g73
(dp4726
g93
g94
ssg82
g4720
sg75
(lp4727
S'session_filename'
p4728
asbag68
(g89
g70
NtRp4729
(dp4730
g73
(dp4731
g100
g101
ssg82
g4720
sg75
(lp4732
S':'
asbag68
(g89
g70
NtRp4733
(dp4734
g73
(dp4735
sg82
g4720
sg75
(lp4736
g68
(g69
g70
NtRp4737
(dp4738
g73
(dp4739
g81
I5
ssg82
g4733
sg75
(lp4740
S'/home/ian/web2py/applications/paideia/sessions/127.0.0.1-38346cf4-0a63-4c64-88f4-8a75236eaea4'
p4741
asbasbasbag68
(g84
g70
NtRp4742
(dp4743
g73
(dp4744
sg82
g3596
sg75
(lp4745
g68
(g89
g70
NtRp4746
(dp4747
g73
(dp4748
g93
g94
ssg82
g4742
sg75
(lp4749
S'session_id'
p4750
asbag68
(g89
g70
NtRp4751
(dp4752
g73
(dp4753
g100
g101
ssg82
g4742
sg75
(lp4754
S':'
asbag68
(g89
g70
NtRp4755
(dp4756
g73
(dp4757
sg82
g4742
sg75
(lp4758
g68
(g69
g70
NtRp4759
(dp4760
g73
(dp4761
g81
I5
ssg82
g4755
sg75
(lp4762
S'127.0.0.1-38346cf4-0a63-4c64-88f4-8a75236eaea4'
p4763
asbasbasbag68
(g84
g70
NtRp4764
(dp4765
g73
(dp4766
sg82
g3596
sg75
(lp4767
g68
(g89
g70
NtRp4768
(dp4769
g73
(dp4770
g93
g94
ssg82
g4764
sg75
(lp4771
S'session_id_name'
p4772
asbag68
(g89
g70
NtRp4773
(dp4774
g73
(dp4775
g100
g101
ssg82
g4764
sg75
(lp4776
S':'
asbag68
(g89
g70
NtRp4777
(dp4778
g73
(dp4779
sg82
g4764
sg75
(lp4780
g68
(g69
g70
NtRp4781
(dp4782
g73
(dp4783
g81
I5
ssg82
g4777
sg75
(lp4784
g3653
asbasbasbag68
(g84
g70
NtRp4785
(dp4786
g73
(dp4787
sg82
g3596
sg75
(lp4788
g68
(g89
g70
NtRp4789
(dp4790
g73
(dp4791
g93
g94
ssg82
g4785
sg75
(lp4792
S'session_locked'
p4793
asbag68
(g89
g70
NtRp4794
(dp4795
g73
(dp4796
g100
g101
ssg82
g4785
sg75
(lp4797
S':'
asbag68
(g89
g70
NtRp4798
(dp4799
g73
(dp4800
sg82
g4785
sg75
(lp4801
g68
(g69
g70
NtRp4802
(dp4803
g73
(dp4804
g81
I5
ssg82
g4798
sg75
(lp4805
g1865
asbasbasbag68
(g84
g70
NtRp4806
(dp4807
g73
(dp4808
sg82
g3596
sg75
(lp4809
g68
(g89
g70
NtRp4810
(dp4811
g73
(dp4812
g93
g94
ssg82
g4806
sg75
(lp4813
S'session_new'
p4814
asbag68
(g89
g70
NtRp4815
(dp4816
g73
(dp4817
g100
g101
ssg82
g4806
sg75
(lp4818
S':'
asbag68
(g89
g70
NtRp4819
(dp4820
g73
(dp4821
sg82
g4806
sg75
(lp4822
g68
(g69
g70
NtRp4823
(dp4824
g73
(dp4825
g81
I5
ssg82
g4819
sg75
(lp4826
g111
asbasbasbag68
(g84
g70
NtRp4827
(dp4828
g73
(dp4829
sg82
g3596
sg75
(lp4830
g68
(g89
g70
NtRp4831
(dp4832
g73
(dp4833
g93
g94
ssg82
g4827
sg75
(lp4834
S'status'
p4835
asbag68
(g89
g70
NtRp4836
(dp4837
g73
(dp4838
g100
g101
ssg82
g4827
sg75
(lp4839
S':'
asbag68
(g89
g70
NtRp4840
(dp4841
g73
(dp4842
sg82
g4827
sg75
(lp4843
g68
(g69
g70
NtRp4844
(dp4845
g73
(dp4846
g81
I5
ssg82
g4840
sg75
(lp4847
S'200'
p4848
asbasbasbag68
(g84
g70
NtRp4849
(dp4850
g73
(dp4851
sg82
g3596
sg75
(lp4852
g68
(g89
g70
NtRp4853
(dp4854
g73
(dp4855
g93
g94
ssg82
g4849
sg75
(lp4856
S'subtitle'
p4857
asbag68
(g89
g70
NtRp4858
(dp4859
g73
(dp4860
g100
g101
ssg82
g4849
sg75
(lp4861
S':'
asbag68
(g89
g70
NtRp4862
(dp4863
g73
(dp4864
sg82
g4849
sg75
(lp4865
g68
(g69
g70
NtRp4866
(dp4867
g73
(dp4868
g81
I5
ssg82
g4862
sg75
(lp4869
g4101
(S's0\x00\x00\x00An online space for learning New Testament Greek'
tRp4870
asbasbasbag68
(g84
g70
NtRp4871
(dp4872
g73
(dp4873
sg82
g3596
sg75
(lp4874
g68
(g89
g70
NtRp4875
(dp4876
g73
(dp4877
g93
g94
ssg82
g4871
sg75
(lp4878
S'title'
p4879
asbag68
(g89
g70
NtRp4880
(dp4881
g73
(dp4882
g100
g101
ssg82
g4871
sg75
(lp4883
S':'
asbag68
(g89
g70
NtRp4884
(dp4885
g73
(dp4886
sg82
g4871
sg75
(lp4887
g68
(g69
g70
NtRp4888
(dp4889
g73
(dp4890
g81
I5
ssg82
g4884
sg75
(lp4891
g133
asbasbasbag68
(g84
g70
NtRp4892
(dp4893
g73
(dp4894
sg82
g3596
sg75
(lp4895
g68
(g89
g70
NtRp4896
(dp4897
g73
(dp4898
g93
g94
ssg82
g4892
sg75
(lp4899
g2530
asbag68
(g89
g70
NtRp4900
(dp4901
g73
(dp4902
g100
g101
ssg82
g4892
sg75
(lp4903
S':'
asbag68
(g89
g70
NtRp4904
(dp4905
g73
(dp4906
sg82
g4892
sg75
(lp4907
g68
(g69
g70
NtRp4908
(dp4909
g73
(dp4910
g81
I5
ssg82
g4904
sg75
(lp4911
g2543
asbasbasbag68
(g84
g70
NtRp4912
(dp4913
g73
(dp4914
sg82
g3596
sg75
(lp4915
g68
(g89
g70
NtRp4916
(dp4917
g73
(dp4918
g93
g94
ssg82
g4912
sg75
(lp4919
S'view'
p4920
asbag68
(g89
g70
NtRp4921
(dp4922
g73
(dp4923
g100
g101
ssg82
g4912
sg75
(lp4924
S':'
asbag68
(g89
g70
NtRp4925
(dp4926
g73
(dp4927
sg82
g4912
sg75
(lp4928
g68
(g69
g70
NtRp4929
(dp4930
g73
(dp4931
g81
I5
ssg82
g4925
sg75
(lp4932
S'reporting/user.html'
p4933
asbasbasbasbasbsS'locals'
p4934
(dp4935
g3
S"'/home/ian/web2py/applications/paideia/controllers/reporting.py'"
p4936
sg5
S'"# coding: utf8\\n\\n@auth.requires_membership(role=\'...ent_cat4)\\n\\nresponse._vars=response._caller(user)\\n"'
p4937
sssS'traceback'
p4938
S'Traceback (most recent call last):\n  File "/home/ian/web2py/gluon/restricted.py", line 193, in restricted\n    ccode = compile2(code,layer)\n  File "/home/ian/web2py/gluon/restricted.py", line 179, in compile2\n    return compile(code.rstrip().replace(\'\\r\\n\',\'\\n\')+\'\\n\', layer, \'exec\')\n  File "/home/ian/web2py/applications/paideia/controllers/reporting.py", line 13\n    @auth.requires_membership(role=\'administrators\' | role=\'user_\'+request.args[0])\n                                                          ^\nSyntaxError: invalid syntax\n'
p4939
s.