(dp1
S'output'
p2
S''
sS'layer'
p3
S'/home/ian/web2py/applications/paideia/models/paideia_stats.py'
p4
sS'code'
p5
S'import calendar, datetime\n\nclass paideia_stats:\n    # calculates stats for paideia student performance\n    Name = "paideia_stats"\n    \n    \n    def __init__(self, user_id):\n        """\n        Collects and returns student performance statistics based on scores earned on attempted questions.\n\n        This function returns the following attributes:\n        score_avg -- Straightforward average of scores, presented as a percentage.\n        """\n        self.user_id = user_id\n        try:\n            attempts = db(db.attempt_log.name == self.user_id).select()\n            s=db.attempt_log.score.sum()\n            row = db(db.attempt_log.name == self.user_id).select(s).first()\n            answer = row[s]\n            self.score_avg = round(answer/len(attempts)*100, 1)\n        except:\n            self.score_avg = "Can\'t calculate average"\n\nclass paideia_timestats:\n    def __init__(self, user_id):\n        """\n        Collects and returns student performance statistics based on question categories and time relationships between the present, the last successful attempt, and the last unsuccessful attempt.\n\n        This function returns the vollowing attributes:\n        total_len -- The total number of questions that have been attempted by the current student\n        total_cat1 -- Total number of questions attempted that are currently in category 1\n        total_cat2 -- Total number of questions attempted that are currently in category 2\n        total_cat3 --  Total number of questions attempted that are currently in category 3\n        total_cat4 --  Total number of questions attempted that are currently in category 4\n        percent_cat1 -- Percentage of questions attempted that are currently in category 1\n        percent_cat2 -- Percentage of questions attempted that are currently in category 2\n        percent_cat3 -- Percentage of questions attempted that are currently in category 3\n        percent_cat4 -- Percentage of questions attempted that are currently in category 4\n        """\n\n        # get statistics for different classes of questions\n        self.user_id = user_id\n        the_records = db(db.question_records.name == self.user_id).select()\n        self.total_len = float(len(the_records))        \n        try:\n            cat1 = db((db.question_records.name == self.user_id) & (db.question_records.category == 1)).select()\n            self.total_cat1 = len(cat1)\n            self.percent_cat1 = round((int(self.total_cat1)/self.total_len)*100, 1)\n        except:\n            self.total_cat1 = "Can\'t calculate number"\n            self.percent_cat1 = ""\n        try:\n            cat2 = db((db.question_records.name == self.user_id) & (db.question_records.category == 2)).select()\n            self.total_cat2 = len(cat2)\n            self.percent_cat2 = round((int(self.total_cat2)/self.total_len)*100, 1)\n        except:\n            self.total_cat2 = "Can\'t calculate number"\n            self.percent_cat2 = ""\n        try:\n            cat3 = db((db.question_records.name == self.user_id) & (db.question_records.category == 3)).select()\n            self.total_cat3 = len(cat3)\n            self.percent_cat3 = round((int(self.total_cat3)/self.total_len)*100, 1)\n        except:\n            self.total_cat3 = "Can\'t calculate number"\n            self.percent_cat3 = ""\n        try:\n            cat4 = db((db.question_records.name == self.user_id) & (db.question_records.category == 4)).select()\n            self.total_cat4 = len(cat4)\n            self.percent_cat4 = round((int(self.total_cat4)/self.total_len)*100, 1)\n        except:\n            self.total_cat4 = "Can\'t calculate number"\n            self.percent_cat4 = ""\n\nclass paideia_weeklycount:\n    def __init__(self, user_id):\n        """\n        Collect and return the number of questions attempted per day and per week\n\n        returns the following variables:\n        dateset -- a list of tuples, each of which contains three values: month, first day of week, number attempted\n        """\n        self.user_id = user_id\n        logs = db(db.attempt_log.name == self.user_id).select(db.attempt_log.date_attempted)\n\n        loglist = {}\n\n        for log in logs:\n            if log.date_attempted in loglist:\n                loglist[log.date_attempted] += 1\n            else:\n                loglist[log.date_attempted] = 1\n\n        nms = calendar.month_name\n        this_year = datetime.date.today().year\n        self.dateset = {}\n        for month in range(1,12):\n            mc = calendar.monthcalendar(this_year, month)\n            m = nms[month]\n            for week in mc:\n                w = week[0]\n                for k, v in loglist.items():\n                    if k.month == month and k.day in week:\n                        if m in self.dateset:\n                            if w in self.dateset[m]:\n                                d = self.dateset[m]\n                                d[w] += v \n                        else:\n                            self.dateset[m] = {w = v}\n        session.debug = self.dateset'
p6
sS'snapshot'
p7
(dp8
S'exception'
p9
(dp10
S'__getslice__'
p11
S"<method-wrapper '__getslice__' of exceptions.SyntaxError object>"
p12
sS'text'
p13
S"'                            self.dateset[m] = {w = v}\\n'"
p14
sS'__str__'
p15
S"<method-wrapper '__str__' of exceptions.SyntaxError object>"
p16
sS'__reduce__'
p17
S'<built-in method __reduce__ of exceptions.SyntaxError object>'
p18
sS'__dict__'
p19
S'{}'
p20
sS'__sizeof__'
p21
S'<built-in method __sizeof__ of exceptions.SyntaxError object>'
p22
sS'__init__'
p23
S"<method-wrapper '__init__' of exceptions.SyntaxError object>"
p24
sS'__setattr__'
p25
S"<method-wrapper '__setattr__' of exceptions.SyntaxError object>"
p26
sS'__reduce_ex__'
p27
S'<built-in method __reduce_ex__ of exceptions.SyntaxError object>'
p28
sS'__new__'
p29
S'<built-in method __new__ of type object>'
p30
sS'__format__'
p31
S'<built-in method __format__ of exceptions.SyntaxError object>'
p32
sS'__class__'
p33
S"<type 'exceptions.SyntaxError'>"
p34
sS'filename'
p35
S"'/home/ian/web2py/applications/paideia/models/paideia_stats.py'"
p36
sS'lineno'
p37
S'109'
p38
sS'msg'
p39
S"'invalid syntax'"
p40
sS'__doc__'
p41
S"'Invalid syntax.'"
p42
sS'__getitem__'
p43
S"<method-wrapper '__getitem__' of exceptions.SyntaxError object>"
p44
sS'__setstate__'
p45
S'<built-in method __setstate__ of exceptions.SyntaxError object>'
p46
sS'__getattribute__'
p47
S"<method-wrapper '__getattribute__' of exceptions.SyntaxError object>"
p48
sS'print_file_and_line'
p49
S'None'
p50
sS'args'
p51
S"('invalid syntax', ('/home/ian/web2py/applications/paideia/models/paideia_stats.py', 109, 50, '                            self.dateset[m] = {w = v}\\n'))"
p52
sS'__subclasshook__'
p53
S'<built-in method __subclasshook__ of type object>'
p54
sS'offset'
p55
S'50'
p56
sS'__unicode__'
p57
S'<built-in method __unicode__ of exceptions.SyntaxError object>'
p58
sS'__delattr__'
p59
S"<method-wrapper '__delattr__' of exceptions.SyntaxError object>"
p60
sS'__repr__'
p61
S"<method-wrapper '__repr__' of exceptions.SyntaxError object>"
p62
sS'__hash__'
p63
S"<method-wrapper '__hash__' of exceptions.SyntaxError object>"
p64
ssS'evalue'
p65
S'invalid syntax (paideia_stats.py, line 109)'
p66
sS'request'
p67
ccopy_reg
_reconstructor
p68
(cgluon.html
BEAUTIFY
p69
c__builtin__
object
p70
NtRp71
(dp72
S'attributes'
p73
(dp74
sS'components'
p75
(lp76
g68
(cgluon.html
TABLE
p77
g70
NtRp78
(dp79
g73
(dp80
S'level'
p81
I5
ssS'parent'
p82
Nsg75
(lp83
g68
(cgluon.html
TR
p84
g70
NtRp85
(dp86
g73
(dp87
sg82
g78
sg75
(lp88
g68
(cgluon.html
TD
p89
g70
NtRp90
(dp91
g73
(dp92
S'_style'
p93
S'font-weight:bold;'
p94
ssg82
g85
sg75
(lp95
S'ajax'
p96
asbag68
(g89
g70
NtRp97
(dp98
g73
(dp99
S'_valign'
p100
S'top'
p101
ssg82
g85
sg75
(lp102
S':'
asbag68
(g89
g70
NtRp103
(dp104
g73
(dp105
sg82
g85
sg75
(lp106
g68
(g69
g70
NtRp107
(dp108
g73
(dp109
g81
I5
ssg82
g103
sg75
(lp110
S'False'
p111
asbasbasbag68
(g84
g70
NtRp112
(dp113
g73
(dp114
sg82
g78
sg75
(lp115
g68
(g89
g70
NtRp116
(dp117
g73
(dp118
g93
g94
ssg82
g112
sg75
(lp119
S'application'
p120
asbag68
(g89
g70
NtRp121
(dp122
g73
(dp123
g100
g101
ssg82
g112
sg75
(lp124
S':'
asbag68
(g89
g70
NtRp125
(dp126
g73
(dp127
sg82
g112
sg75
(lp128
g68
(g69
g70
NtRp129
(dp130
g73
(dp131
g81
I5
ssg82
g125
sg75
(lp132
S'paideia'
p133
asbasbasbag68
(g84
g70
NtRp134
(dp135
g73
(dp136
sg82
g78
sg75
(lp137
g68
(g89
g70
NtRp138
(dp139
g73
(dp140
g93
g94
ssg82
g134
sg75
(lp141
g51
asbag68
(g89
g70
NtRp142
(dp143
g73
(dp144
g100
g101
ssg82
g134
sg75
(lp145
S':'
asbag68
(g89
g70
NtRp146
(dp147
g73
(dp148
sg82
g134
sg75
(lp149
g68
(g69
g70
NtRp150
(dp151
g73
(dp152
g81
I5
ssg82
g146
sg75
(lp153
g68
(g77
g70
NtRp154
(dp155
g73
(dp156
g81
I4
ssg82
Nsg75
(lp157
g68
(g84
g70
NtRp158
(dp159
g73
(dp160
sg82
g154
sg75
(lp161
g68
(g89
g70
NtRp162
(dp163
g73
(dp164
sg82
g158
sg75
(lp165
g68
(g69
g70
NtRp166
(dp167
g73
(dp168
g81
I4
ssg82
g162
sg75
(lp169
S'profile'
p170
asbasbasbasbasbasbasbag68
(g84
g70
NtRp171
(dp172
g73
(dp173
sg82
g78
sg75
(lp174
g68
(g89
g70
NtRp175
(dp176
g73
(dp177
g93
g94
ssg82
g171
sg75
(lp178
S'body'
p179
asbag68
(g89
g70
NtRp180
(dp181
g73
(dp182
g100
g101
ssg82
g171
sg75
(lp183
S':'
asbag68
(g89
g70
NtRp184
(dp185
g73
(dp186
sg82
g171
sg75
(lp187
g68
(g69
g70
NtRp188
(dp189
g73
(dp190
g81
I5
ssg82
g184
sg75
(lp191
S'<cStringIO.StringO object at 0x35806f8>'
p192
asbasbasbag68
(g84
g70
NtRp193
(dp194
g73
(dp195
sg82
g78
sg75
(lp196
g68
(g89
g70
NtRp197
(dp198
g73
(dp199
g93
g94
ssg82
g193
sg75
(lp200
S'client'
p201
asbag68
(g89
g70
NtRp202
(dp203
g73
(dp204
g100
g101
ssg82
g193
sg75
(lp205
S':'
asbag68
(g89
g70
NtRp206
(dp207
g73
(dp208
sg82
g193
sg75
(lp209
g68
(g69
g70
NtRp210
(dp211
g73
(dp212
g81
I5
ssg82
g206
sg75
(lp213
S'127.0.0.1'
p214
asbasbasbag68
(g84
g70
NtRp215
(dp216
g73
(dp217
sg82
g78
sg75
(lp218
g68
(g89
g70
NtRp219
(dp220
g73
(dp221
g93
g94
ssg82
g215
sg75
(lp222
S'controller'
p223
asbag68
(g89
g70
NtRp224
(dp225
g73
(dp226
g100
g101
ssg82
g215
sg75
(lp227
S':'
asbag68
(g89
g70
NtRp228
(dp229
g73
(dp230
sg82
g215
sg75
(lp231
g68
(g69
g70
NtRp232
(dp233
g73
(dp234
g81
I5
ssg82
g228
sg75
(lp235
S'default'
p236
asbasbasbag68
(g84
g70
NtRp237
(dp238
g73
(dp239
sg82
g78
sg75
(lp240
g68
(g89
g70
NtRp241
(dp242
g73
(dp243
g93
g94
ssg82
g237
sg75
(lp244
S'cookies'
p245
asbag68
(g89
g70
NtRp246
(dp247
g73
(dp248
g100
g101
ssg82
g237
sg75
(lp249
S':'
asbag68
(g89
g70
NtRp250
(dp251
g73
(dp252
sg82
g237
sg75
(lp253
g68
(g69
g70
NtRp254
(dp255
g73
(dp256
g81
I5
ssg82
g250
sg75
(lp257
g68
(g77
g70
NtRp258
(dp259
g73
(dp260
g81
I4
ssg82
Nsg75
(lp261
g68
(g84
g70
NtRp262
(dp263
g73
(dp264
sg82
g258
sg75
(lp265
g68
(g89
g70
NtRp266
(dp267
g73
(dp268
g93
g94
ssg82
g262
sg75
(lp269
S'session_id_admin'
p270
asbag68
(g89
g70
NtRp271
(dp272
g73
(dp273
g100
g101
ssg82
g262
sg75
(lp274
S':'
asbag68
(g89
g70
NtRp275
(dp276
g73
(dp277
sg82
g262
sg75
(lp278
g68
(g69
g70
NtRp279
(dp280
g73
(dp281
g81
I4
ssg82
g275
sg75
(lp282
g68
(g77
g70
NtRp283
(dp284
g73
(dp285
g81
I3
ssg82
Nsg75
(lp286
g68
(g84
g70
NtRp287
(dp288
g73
(dp289
sg82
g283
sg75
(lp290
g68
(g89
g70
NtRp291
(dp292
g73
(dp293
g93
g94
ssg82
g287
sg75
(lp294
S'comment'
p295
asbag68
(g89
g70
NtRp296
(dp297
g73
(dp298
g100
g101
ssg82
g287
sg75
(lp299
S':'
asbag68
(g89
g70
NtRp300
(dp301
g73
(dp302
sg82
g287
sg75
(lp303
g68
(g69
g70
NtRp304
(dp305
g73
(dp306
g81
I3
ssg82
g300
sg75
(lp307
S''
asbasbasbag68
(g84
g70
NtRp308
(dp309
g73
(dp310
sg82
g283
sg75
(lp311
g68
(g89
g70
NtRp312
(dp313
g73
(dp314
g93
g94
ssg82
g308
sg75
(lp315
S'domain'
p316
asbag68
(g89
g70
NtRp317
(dp318
g73
(dp319
g100
g101
ssg82
g308
sg75
(lp320
S':'
asbag68
(g89
g70
NtRp321
(dp322
g73
(dp323
sg82
g308
sg75
(lp324
g68
(g69
g70
NtRp325
(dp326
g73
(dp327
g81
I3
ssg82
g321
sg75
(lp328
S''
asbasbasbag68
(g84
g70
NtRp329
(dp330
g73
(dp331
sg82
g283
sg75
(lp332
g68
(g89
g70
NtRp333
(dp334
g73
(dp335
g93
g94
ssg82
g329
sg75
(lp336
S'expires'
p337
asbag68
(g89
g70
NtRp338
(dp339
g73
(dp340
g100
g101
ssg82
g329
sg75
(lp341
S':'
asbag68
(g89
g70
NtRp342
(dp343
g73
(dp344
sg82
g329
sg75
(lp345
g68
(g69
g70
NtRp346
(dp347
g73
(dp348
g81
I3
ssg82
g342
sg75
(lp349
S''
asbasbasbag68
(g84
g70
NtRp350
(dp351
g73
(dp352
sg82
g283
sg75
(lp353
g68
(g89
g70
NtRp354
(dp355
g73
(dp356
g93
g94
ssg82
g350
sg75
(lp357
S'httponly'
p358
asbag68
(g89
g70
NtRp359
(dp360
g73
(dp361
g100
g101
ssg82
g350
sg75
(lp362
S':'
asbag68
(g89
g70
NtRp363
(dp364
g73
(dp365
sg82
g350
sg75
(lp366
g68
(g69
g70
NtRp367
(dp368
g73
(dp369
g81
I3
ssg82
g363
sg75
(lp370
S''
asbasbasbag68
(g84
g70
NtRp371
(dp372
g73
(dp373
sg82
g283
sg75
(lp374
g68
(g89
g70
NtRp375
(dp376
g73
(dp377
g93
g94
ssg82
g371
sg75
(lp378
S'max-age'
p379
asbag68
(g89
g70
NtRp380
(dp381
g73
(dp382
g100
g101
ssg82
g371
sg75
(lp383
S':'
asbag68
(g89
g70
NtRp384
(dp385
g73
(dp386
sg82
g371
sg75
(lp387
g68
(g69
g70
NtRp388
(dp389
g73
(dp390
g81
I3
ssg82
g384
sg75
(lp391
S''
asbasbasbag68
(g84
g70
NtRp392
(dp393
g73
(dp394
sg82
g283
sg75
(lp395
g68
(g89
g70
NtRp396
(dp397
g73
(dp398
g93
g94
ssg82
g392
sg75
(lp399
S'path'
p400
asbag68
(g89
g70
NtRp401
(dp402
g73
(dp403
g100
g101
ssg82
g392
sg75
(lp404
S':'
asbag68
(g89
g70
NtRp405
(dp406
g73
(dp407
sg82
g392
sg75
(lp408
g68
(g69
g70
NtRp409
(dp410
g73
(dp411
g81
I3
ssg82
g405
sg75
(lp412
S''
asbasbasbag68
(g84
g70
NtRp413
(dp414
g73
(dp415
sg82
g283
sg75
(lp416
g68
(g89
g70
NtRp417
(dp418
g73
(dp419
g93
g94
ssg82
g413
sg75
(lp420
S'secure'
p421
asbag68
(g89
g70
NtRp422
(dp423
g73
(dp424
g100
g101
ssg82
g413
sg75
(lp425
S':'
asbag68
(g89
g70
NtRp426
(dp427
g73
(dp428
sg82
g413
sg75
(lp429
g68
(g69
g70
NtRp430
(dp431
g73
(dp432
g81
I3
ssg82
g426
sg75
(lp433
S''
asbasbasbag68
(g84
g70
NtRp434
(dp435
g73
(dp436
sg82
g283
sg75
(lp437
g68
(g89
g70
NtRp438
(dp439
g73
(dp440
g93
g94
ssg82
g434
sg75
(lp441
S'version'
p442
asbag68
(g89
g70
NtRp443
(dp444
g73
(dp445
g100
g101
ssg82
g434
sg75
(lp446
S':'
asbag68
(g89
g70
NtRp447
(dp448
g73
(dp449
sg82
g434
sg75
(lp450
g68
(g69
g70
NtRp451
(dp452
g73
(dp453
g81
I3
ssg82
g447
sg75
(lp454
S''
asbasbasbasbasbasbasbag68
(g84
g70
NtRp455
(dp456
g73
(dp457
sg82
g258
sg75
(lp458
g68
(g89
g70
NtRp459
(dp460
g73
(dp461
g93
g94
ssg82
g455
sg75
(lp462
S'session_id_paideia'
p463
asbag68
(g89
g70
NtRp464
(dp465
g73
(dp466
g100
g101
ssg82
g455
sg75
(lp467
S':'
asbag68
(g89
g70
NtRp468
(dp469
g73
(dp470
sg82
g455
sg75
(lp471
g68
(g69
g70
NtRp472
(dp473
g73
(dp474
g81
I4
ssg82
g468
sg75
(lp475
g68
(g77
g70
NtRp476
(dp477
g73
(dp478
g81
I3
ssg82
Nsg75
(lp479
g68
(g84
g70
NtRp480
(dp481
g73
(dp482
sg82
g476
sg75
(lp483
g68
(g89
g70
NtRp484
(dp485
g73
(dp486
g93
g94
ssg82
g480
sg75
(lp487
g295
asbag68
(g89
g70
NtRp488
(dp489
g73
(dp490
g100
g101
ssg82
g480
sg75
(lp491
S':'
asbag68
(g89
g70
NtRp492
(dp493
g73
(dp494
sg82
g480
sg75
(lp495
g68
(g69
g70
NtRp496
(dp497
g73
(dp498
g81
I3
ssg82
g492
sg75
(lp499
S''
asbasbasbag68
(g84
g70
NtRp500
(dp501
g73
(dp502
sg82
g476
sg75
(lp503
g68
(g89
g70
NtRp504
(dp505
g73
(dp506
g93
g94
ssg82
g500
sg75
(lp507
g316
asbag68
(g89
g70
NtRp508
(dp509
g73
(dp510
g100
g101
ssg82
g500
sg75
(lp511
S':'
asbag68
(g89
g70
NtRp512
(dp513
g73
(dp514
sg82
g500
sg75
(lp515
g68
(g69
g70
NtRp516
(dp517
g73
(dp518
g81
I3
ssg82
g512
sg75
(lp519
S''
asbasbasbag68
(g84
g70
NtRp520
(dp521
g73
(dp522
sg82
g476
sg75
(lp523
g68
(g89
g70
NtRp524
(dp525
g73
(dp526
g93
g94
ssg82
g520
sg75
(lp527
g337
asbag68
(g89
g70
NtRp528
(dp529
g73
(dp530
g100
g101
ssg82
g520
sg75
(lp531
S':'
asbag68
(g89
g70
NtRp532
(dp533
g73
(dp534
sg82
g520
sg75
(lp535
g68
(g69
g70
NtRp536
(dp537
g73
(dp538
g81
I3
ssg82
g532
sg75
(lp539
S''
asbasbasbag68
(g84
g70
NtRp540
(dp541
g73
(dp542
sg82
g476
sg75
(lp543
g68
(g89
g70
NtRp544
(dp545
g73
(dp546
g93
g94
ssg82
g540
sg75
(lp547
g358
asbag68
(g89
g70
NtRp548
(dp549
g73
(dp550
g100
g101
ssg82
g540
sg75
(lp551
S':'
asbag68
(g89
g70
NtRp552
(dp553
g73
(dp554
sg82
g540
sg75
(lp555
g68
(g69
g70
NtRp556
(dp557
g73
(dp558
g81
I3
ssg82
g552
sg75
(lp559
S''
asbasbasbag68
(g84
g70
NtRp560
(dp561
g73
(dp562
sg82
g476
sg75
(lp563
g68
(g89
g70
NtRp564
(dp565
g73
(dp566
g93
g94
ssg82
g560
sg75
(lp567
g379
asbag68
(g89
g70
NtRp568
(dp569
g73
(dp570
g100
g101
ssg82
g560
sg75
(lp571
S':'
asbag68
(g89
g70
NtRp572
(dp573
g73
(dp574
sg82
g560
sg75
(lp575
g68
(g69
g70
NtRp576
(dp577
g73
(dp578
g81
I3
ssg82
g572
sg75
(lp579
S''
asbasbasbag68
(g84
g70
NtRp580
(dp581
g73
(dp582
sg82
g476
sg75
(lp583
g68
(g89
g70
NtRp584
(dp585
g73
(dp586
g93
g94
ssg82
g580
sg75
(lp587
g400
asbag68
(g89
g70
NtRp588
(dp589
g73
(dp590
g100
g101
ssg82
g580
sg75
(lp591
S':'
asbag68
(g89
g70
NtRp592
(dp593
g73
(dp594
sg82
g580
sg75
(lp595
g68
(g69
g70
NtRp596
(dp597
g73
(dp598
g81
I3
ssg82
g592
sg75
(lp599
S''
asbasbasbag68
(g84
g70
NtRp600
(dp601
g73
(dp602
sg82
g476
sg75
(lp603
g68
(g89
g70
NtRp604
(dp605
g73
(dp606
g93
g94
ssg82
g600
sg75
(lp607
g421
asbag68
(g89
g70
NtRp608
(dp609
g73
(dp610
g100
g101
ssg82
g600
sg75
(lp611
S':'
asbag68
(g89
g70
NtRp612
(dp613
g73
(dp614
sg82
g600
sg75
(lp615
g68
(g69
g70
NtRp616
(dp617
g73
(dp618
g81
I3
ssg82
g612
sg75
(lp619
S''
asbasbasbag68
(g84
g70
NtRp620
(dp621
g73
(dp622
sg82
g476
sg75
(lp623
g68
(g89
g70
NtRp624
(dp625
g73
(dp626
g93
g94
ssg82
g620
sg75
(lp627
g442
asbag68
(g89
g70
NtRp628
(dp629
g73
(dp630
g100
g101
ssg82
g620
sg75
(lp631
S':'
asbag68
(g89
g70
NtRp632
(dp633
g73
(dp634
sg82
g620
sg75
(lp635
g68
(g69
g70
NtRp636
(dp637
g73
(dp638
g81
I3
ssg82
g632
sg75
(lp639
S''
asbasbasbasbasbasbasbag68
(g84
g70
NtRp640
(dp641
g73
(dp642
sg82
g258
sg75
(lp643
g68
(g89
g70
NtRp644
(dp645
g73
(dp646
g93
g94
ssg82
g640
sg75
(lp647
S'session_id_welcome'
p648
asbag68
(g89
g70
NtRp649
(dp650
g73
(dp651
g100
g101
ssg82
g640
sg75
(lp652
S':'
asbag68
(g89
g70
NtRp653
(dp654
g73
(dp655
sg82
g640
sg75
(lp656
g68
(g69
g70
NtRp657
(dp658
g73
(dp659
g81
I4
ssg82
g653
sg75
(lp660
g68
(g77
g70
NtRp661
(dp662
g73
(dp663
g81
I3
ssg82
Nsg75
(lp664
g68
(g84
g70
NtRp665
(dp666
g73
(dp667
sg82
g661
sg75
(lp668
g68
(g89
g70
NtRp669
(dp670
g73
(dp671
g93
g94
ssg82
g665
sg75
(lp672
g295
asbag68
(g89
g70
NtRp673
(dp674
g73
(dp675
g100
g101
ssg82
g665
sg75
(lp676
S':'
asbag68
(g89
g70
NtRp677
(dp678
g73
(dp679
sg82
g665
sg75
(lp680
g68
(g69
g70
NtRp681
(dp682
g73
(dp683
g81
I3
ssg82
g677
sg75
(lp684
S''
asbasbasbag68
(g84
g70
NtRp685
(dp686
g73
(dp687
sg82
g661
sg75
(lp688
g68
(g89
g70
NtRp689
(dp690
g73
(dp691
g93
g94
ssg82
g685
sg75
(lp692
g316
asbag68
(g89
g70
NtRp693
(dp694
g73
(dp695
g100
g101
ssg82
g685
sg75
(lp696
S':'
asbag68
(g89
g70
NtRp697
(dp698
g73
(dp699
sg82
g685
sg75
(lp700
g68
(g69
g70
NtRp701
(dp702
g73
(dp703
g81
I3
ssg82
g697
sg75
(lp704
S''
asbasbasbag68
(g84
g70
NtRp705
(dp706
g73
(dp707
sg82
g661
sg75
(lp708
g68
(g89
g70
NtRp709
(dp710
g73
(dp711
g93
g94
ssg82
g705
sg75
(lp712
g337
asbag68
(g89
g70
NtRp713
(dp714
g73
(dp715
g100
g101
ssg82
g705
sg75
(lp716
S':'
asbag68
(g89
g70
NtRp717
(dp718
g73
(dp719
sg82
g705
sg75
(lp720
g68
(g69
g70
NtRp721
(dp722
g73
(dp723
g81
I3
ssg82
g717
sg75
(lp724
S''
asbasbasbag68
(g84
g70
NtRp725
(dp726
g73
(dp727
sg82
g661
sg75
(lp728
g68
(g89
g70
NtRp729
(dp730
g73
(dp731
g93
g94
ssg82
g725
sg75
(lp732
g358
asbag68
(g89
g70
NtRp733
(dp734
g73
(dp735
g100
g101
ssg82
g725
sg75
(lp736
S':'
asbag68
(g89
g70
NtRp737
(dp738
g73
(dp739
sg82
g725
sg75
(lp740
g68
(g69
g70
NtRp741
(dp742
g73
(dp743
g81
I3
ssg82
g737
sg75
(lp744
S''
asbasbasbag68
(g84
g70
NtRp745
(dp746
g73
(dp747
sg82
g661
sg75
(lp748
g68
(g89
g70
NtRp749
(dp750
g73
(dp751
g93
g94
ssg82
g745
sg75
(lp752
g379
asbag68
(g89
g70
NtRp753
(dp754
g73
(dp755
g100
g101
ssg82
g745
sg75
(lp756
S':'
asbag68
(g89
g70
NtRp757
(dp758
g73
(dp759
sg82
g745
sg75
(lp760
g68
(g69
g70
NtRp761
(dp762
g73
(dp763
g81
I3
ssg82
g757
sg75
(lp764
S''
asbasbasbag68
(g84
g70
NtRp765
(dp766
g73
(dp767
sg82
g661
sg75
(lp768
g68
(g89
g70
NtRp769
(dp770
g73
(dp771
g93
g94
ssg82
g765
sg75
(lp772
g400
asbag68
(g89
g70
NtRp773
(dp774
g73
(dp775
g100
g101
ssg82
g765
sg75
(lp776
S':'
asbag68
(g89
g70
NtRp777
(dp778
g73
(dp779
sg82
g765
sg75
(lp780
g68
(g69
g70
NtRp781
(dp782
g73
(dp783
g81
I3
ssg82
g777
sg75
(lp784
S''
asbasbasbag68
(g84
g70
NtRp785
(dp786
g73
(dp787
sg82
g661
sg75
(lp788
g68
(g89
g70
NtRp789
(dp790
g73
(dp791
g93
g94
ssg82
g785
sg75
(lp792
g421
asbag68
(g89
g70
NtRp793
(dp794
g73
(dp795
g100
g101
ssg82
g785
sg75
(lp796
S':'
asbag68
(g89
g70
NtRp797
(dp798
g73
(dp799
sg82
g785
sg75
(lp800
g68
(g69
g70
NtRp801
(dp802
g73
(dp803
g81
I3
ssg82
g797
sg75
(lp804
S''
asbasbasbag68
(g84
g70
NtRp805
(dp806
g73
(dp807
sg82
g661
sg75
(lp808
g68
(g89
g70
NtRp809
(dp810
g73
(dp811
g93
g94
ssg82
g805
sg75
(lp812
g442
asbag68
(g89
g70
NtRp813
(dp814
g73
(dp815
g100
g101
ssg82
g805
sg75
(lp816
S':'
asbag68
(g89
g70
NtRp817
(dp818
g73
(dp819
sg82
g805
sg75
(lp820
g68
(g69
g70
NtRp821
(dp822
g73
(dp823
g81
I3
ssg82
g817
sg75
(lp824
S''
asbasbasbasbasbasbasbasbasbasbasbag68
(g84
g70
NtRp825
(dp826
g73
(dp827
sg82
g78
sg75
(lp828
g68
(g89
g70
NtRp829
(dp830
g73
(dp831
g93
g94
ssg82
g825
sg75
(lp832
S'env'
p833
asbag68
(g89
g70
NtRp834
(dp835
g73
(dp836
g100
g101
ssg82
g825
sg75
(lp837
S':'
asbag68
(g89
g70
NtRp838
(dp839
g73
(dp840
sg82
g825
sg75
(lp841
g68
(g69
g70
NtRp842
(dp843
g73
(dp844
g81
I5
ssg82
g838
sg75
(lp845
g68
(g77
g70
NtRp846
(dp847
g73
(dp848
g81
I4
ssg82
Nsg75
(lp849
g68
(g84
g70
NtRp850
(dp851
g73
(dp852
sg82
g846
sg75
(lp853
g68
(g89
g70
NtRp854
(dp855
g73
(dp856
g93
g94
ssg82
g850
sg75
(lp857
S'app_folders'
p858
asbag68
(g89
g70
NtRp859
(dp860
g73
(dp861
g100
g101
ssg82
g850
sg75
(lp862
S':'
asbag68
(g89
g70
NtRp863
(dp864
g73
(dp865
sg82
g850
sg75
(lp866
g68
(g69
g70
NtRp867
(dp868
g73
(dp869
g81
I4
ssg82
g863
sg75
(lp870
S"set(['/home/ian/web2py/applications/welcome/', '/home/ian/web2py/applications/paideia/', '/home/ian/web2py/applications/admin/'])"
p871
asbasbasbag68
(g84
g70
NtRp872
(dp873
g73
(dp874
sg82
g846
sg75
(lp875
g68
(g89
g70
NtRp876
(dp877
g73
(dp878
g93
g94
ssg82
g872
sg75
(lp879
S'applications_parent'
p880
asbag68
(g89
g70
NtRp881
(dp882
g73
(dp883
g100
g101
ssg82
g872
sg75
(lp884
S':'
asbag68
(g89
g70
NtRp885
(dp886
g73
(dp887
sg82
g872
sg75
(lp888
g68
(g69
g70
NtRp889
(dp890
g73
(dp891
g81
I4
ssg82
g885
sg75
(lp892
S'/home/ian/web2py'
p893
asbasbasbag68
(g84
g70
NtRp894
(dp895
g73
(dp896
sg82
g846
sg75
(lp897
g68
(g89
g70
NtRp898
(dp899
g73
(dp900
g93
g94
ssg82
g894
sg75
(lp901
S'cmd_args'
p902
asbag68
(g89
g70
NtRp903
(dp904
g73
(dp905
g100
g101
ssg82
g894
sg75
(lp906
S':'
asbag68
(g89
g70
NtRp907
(dp908
g73
(dp909
sg82
g894
sg75
(lp910
g68
(g69
g70
NtRp911
(dp912
g73
(dp913
g81
I4
ssg82
g907
sg75
(lp914
g68
(g77
g70
NtRp915
(dp916
g73
(dp917
g81
I3
ssg82
Nsg75
(lp918
sbasbasbasbag68
(g84
g70
NtRp919
(dp920
g73
(dp921
sg82
g846
sg75
(lp922
g68
(g89
g70
NtRp923
(dp924
g73
(dp925
g93
g94
ssg82
g919
sg75
(lp926
S'cmd_options'
p927
asbag68
(g89
g70
NtRp928
(dp929
g73
(dp930
g100
g101
ssg82
g919
sg75
(lp931
S':'
asbag68
(g89
g70
NtRp932
(dp933
g73
(dp934
sg82
g919
sg75
(lp935
g68
(g69
g70
NtRp936
(dp937
g73
(dp938
g81
I4
ssg82
g932
sg75
(lp939
S"<Values at 0x2d547e8: {'verbose': False, 'ip': '127.0.0.1', 'shutdown_timeout': 5, 'taskbar': False, 'nocron': False, 'pid_filename': 'httpserver.pid', 'maxthreads': None, 'softcron': False, 'server_name': 'Ariel-ubuntu', 'bpython': False, 'nogui': False, 'port': 8000, 'extcron': False, 'debuglevel': 30, 'test': None, 'folder': '/home/ian/web2py', 'config': '', 'import_models': False, 'winservice': '', 'shell': None, 'run': '', 'log_filename': 'httpserver.log', 'args': [''], 'ssl_ca_certificate': None, 'scheduler': None, 'profiler_filename': None, 'ssl_private_key': '', 'password': '<ask>', 'request_queue_size': 5, 'ssl_certificate': '', 'cronjob': False, 'plain': False, 'quiet': False, 'interfaces': None, 'minthreads': None, 'timeout': 10, 'numthreads': None, 'nobanner': False}>"
p940
asbasbasbag68
(g84
g70
NtRp941
(dp942
g73
(dp943
sg82
g846
sg75
(lp944
g68
(g89
g70
NtRp945
(dp946
g73
(dp947
g93
g94
ssg82
g941
sg75
(lp948
S'db_sessions'
p949
asbag68
(g89
g70
NtRp950
(dp951
g73
(dp952
g100
g101
ssg82
g941
sg75
(lp953
S':'
asbag68
(g89
g70
NtRp954
(dp955
g73
(dp956
sg82
g941
sg75
(lp957
g68
(g69
g70
NtRp958
(dp959
g73
(dp960
g81
I4
ssg82
g954
sg75
(lp961
S'set([])'
p962
asbasbasbag68
(g84
g70
NtRp963
(dp964
g73
(dp965
sg82
g846
sg75
(lp966
g68
(g89
g70
NtRp967
(dp968
g73
(dp969
g93
g94
ssg82
g963
sg75
(lp970
S'debugging'
p971
asbag68
(g89
g70
NtRp972
(dp973
g73
(dp974
g100
g101
ssg82
g963
sg75
(lp975
S':'
asbag68
(g89
g70
NtRp976
(dp977
g73
(dp978
sg82
g963
sg75
(lp979
g68
(g69
g70
NtRp980
(dp981
g73
(dp982
g81
I4
ssg82
g976
sg75
(lp983
g111
asbasbasbag68
(g84
g70
NtRp984
(dp985
g73
(dp986
sg82
g846
sg75
(lp987
g68
(g89
g70
NtRp988
(dp989
g73
(dp990
g93
g94
ssg82
g984
sg75
(lp991
S'gluon_parent'
p992
asbag68
(g89
g70
NtRp993
(dp994
g73
(dp995
g100
g101
ssg82
g984
sg75
(lp996
S':'
asbag68
(g89
g70
NtRp997
(dp998
g73
(dp999
sg82
g984
sg75
(lp1000
g68
(g69
g70
NtRp1001
(dp1002
g73
(dp1003
g81
I4
ssg82
g997
sg75
(lp1004
S'/home/ian/web2py'
p1005
asbasbasbag68
(g84
g70
NtRp1006
(dp1007
g73
(dp1008
sg82
g846
sg75
(lp1009
g68
(g89
g70
NtRp1010
(dp1011
g73
(dp1012
g93
g94
ssg82
g1006
sg75
(lp1013
S'http_accept'
p1014
asbag68
(g89
g70
NtRp1015
(dp1016
g73
(dp1017
g100
g101
ssg82
g1006
sg75
(lp1018
S':'
asbag68
(g89
g70
NtRp1019
(dp1020
g73
(dp1021
sg82
g1006
sg75
(lp1022
g68
(g69
g70
NtRp1023
(dp1024
g73
(dp1025
g81
I4
ssg82
g1019
sg75
(lp1026
S'text/html,application/xhtml+xml,application/xml;q=0.9,*/*;q=0.8'
p1027
asbasbasbag68
(g84
g70
NtRp1028
(dp1029
g73
(dp1030
sg82
g846
sg75
(lp1031
g68
(g89
g70
NtRp1032
(dp1033
g73
(dp1034
g93
g94
ssg82
g1028
sg75
(lp1035
S'http_accept_charset'
p1036
asbag68
(g89
g70
NtRp1037
(dp1038
g73
(dp1039
g100
g101
ssg82
g1028
sg75
(lp1040
S':'
asbag68
(g89
g70
NtRp1041
(dp1042
g73
(dp1043
sg82
g1028
sg75
(lp1044
g68
(g69
g70
NtRp1045
(dp1046
g73
(dp1047
g81
I4
ssg82
g1041
sg75
(lp1048
S'ISO-8859-1,utf-8;q=0.7,*;q=0.7'
p1049
asbasbasbag68
(g84
g70
NtRp1050
(dp1051
g73
(dp1052
sg82
g846
sg75
(lp1053
g68
(g89
g70
NtRp1054
(dp1055
g73
(dp1056
g93
g94
ssg82
g1050
sg75
(lp1057
S'http_accept_encoding'
p1058
asbag68
(g89
g70
NtRp1059
(dp1060
g73
(dp1061
g100
g101
ssg82
g1050
sg75
(lp1062
S':'
asbag68
(g89
g70
NtRp1063
(dp1064
g73
(dp1065
sg82
g1050
sg75
(lp1066
g68
(g69
g70
NtRp1067
(dp1068
g73
(dp1069
g81
I4
ssg82
g1063
sg75
(lp1070
S'gzip, deflate'
p1071
asbasbasbag68
(g84
g70
NtRp1072
(dp1073
g73
(dp1074
sg82
g846
sg75
(lp1075
g68
(g89
g70
NtRp1076
(dp1077
g73
(dp1078
g93
g94
ssg82
g1072
sg75
(lp1079
S'http_accept_language'
p1080
asbag68
(g89
g70
NtRp1081
(dp1082
g73
(dp1083
g100
g101
ssg82
g1072
sg75
(lp1084
S':'
asbag68
(g89
g70
NtRp1085
(dp1086
g73
(dp1087
sg82
g1072
sg75
(lp1088
g68
(g69
g70
NtRp1089
(dp1090
g73
(dp1091
g81
I4
ssg82
g1085
sg75
(lp1092
S'en-us,en;q=0.5'
p1093
asbasbasbag68
(g84
g70
NtRp1094
(dp1095
g73
(dp1096
sg82
g846
sg75
(lp1097
g68
(g89
g70
NtRp1098
(dp1099
g73
(dp1100
g93
g94
ssg82
g1094
sg75
(lp1101
S'http_cache_control'
p1102
asbag68
(g89
g70
NtRp1103
(dp1104
g73
(dp1105
g100
g101
ssg82
g1094
sg75
(lp1106
S':'
asbag68
(g89
g70
NtRp1107
(dp1108
g73
(dp1109
sg82
g1094
sg75
(lp1110
g68
(g69
g70
NtRp1111
(dp1112
g73
(dp1113
g81
I4
ssg82
g1107
sg75
(lp1114
S'max-age=0'
p1115
asbasbasbag68
(g84
g70
NtRp1116
(dp1117
g73
(dp1118
sg82
g846
sg75
(lp1119
g68
(g89
g70
NtRp1120
(dp1121
g73
(dp1122
g93
g94
ssg82
g1116
sg75
(lp1123
S'http_connection'
p1124
asbag68
(g89
g70
NtRp1125
(dp1126
g73
(dp1127
g100
g101
ssg82
g1116
sg75
(lp1128
S':'
asbag68
(g89
g70
NtRp1129
(dp1130
g73
(dp1131
sg82
g1116
sg75
(lp1132
g68
(g69
g70
NtRp1133
(dp1134
g73
(dp1135
g81
I4
ssg82
g1129
sg75
(lp1136
S'keep-alive'
p1137
asbasbasbag68
(g84
g70
NtRp1138
(dp1139
g73
(dp1140
sg82
g846
sg75
(lp1141
g68
(g89
g70
NtRp1142
(dp1143
g73
(dp1144
g93
g94
ssg82
g1138
sg75
(lp1145
S'http_cookie'
p1146
asbag68
(g89
g70
NtRp1147
(dp1148
g73
(dp1149
g100
g101
ssg82
g1138
sg75
(lp1150
S':'
asbag68
(g89
g70
NtRp1151
(dp1152
g73
(dp1153
sg82
g1138
sg75
(lp1154
g68
(g69
g70
NtRp1155
(dp1156
g73
(dp1157
g81
I4
ssg82
g1151
sg75
(lp1158
S'session_id_welcome=127.0.0.1-c123768c-9073-4c51-811c-42d74758e697; session_id_paideia=127.0.0.1-ffa8df2d-8bd1-4ec7-a9ad-81acc652c8b3; session_id_admin=127.0.0.1-017d5657-ea8c-499b-8f9a-5141686803d8'
p1159
asbasbasbag68
(g84
g70
NtRp1160
(dp1161
g73
(dp1162
sg82
g846
sg75
(lp1163
g68
(g89
g70
NtRp1164
(dp1165
g73
(dp1166
g93
g94
ssg82
g1160
sg75
(lp1167
S'http_host'
p1168
asbag68
(g89
g70
NtRp1169
(dp1170
g73
(dp1171
g100
g101
ssg82
g1160
sg75
(lp1172
S':'
asbag68
(g89
g70
NtRp1173
(dp1174
g73
(dp1175
sg82
g1160
sg75
(lp1176
g68
(g69
g70
NtRp1177
(dp1178
g73
(dp1179
g81
I4
ssg82
g1173
sg75
(lp1180
S'127.0.0.1:8000'
p1181
asbasbasbag68
(g84
g70
NtRp1182
(dp1183
g73
(dp1184
sg82
g846
sg75
(lp1185
g68
(g89
g70
NtRp1186
(dp1187
g73
(dp1188
g93
g94
ssg82
g1182
sg75
(lp1189
S'http_referer'
p1190
asbag68
(g89
g70
NtRp1191
(dp1192
g73
(dp1193
g100
g101
ssg82
g1182
sg75
(lp1194
S':'
asbag68
(g89
g70
NtRp1195
(dp1196
g73
(dp1197
sg82
g1182
sg75
(lp1198
g68
(g69
g70
NtRp1199
(dp1200
g73
(dp1201
g81
I4
ssg82
g1195
sg75
(lp1202
S'http://127.0.0.1:8000/paideia/default/index'
p1203
asbasbasbag68
(g84
g70
NtRp1204
(dp1205
g73
(dp1206
sg82
g846
sg75
(lp1207
g68
(g89
g70
NtRp1208
(dp1209
g73
(dp1210
g93
g94
ssg82
g1204
sg75
(lp1211
S'http_user_agent'
p1212
asbag68
(g89
g70
NtRp1213
(dp1214
g73
(dp1215
g100
g101
ssg82
g1204
sg75
(lp1216
S':'
asbag68
(g89
g70
NtRp1217
(dp1218
g73
(dp1219
sg82
g1204
sg75
(lp1220
g68
(g69
g70
NtRp1221
(dp1222
g73
(dp1223
g81
I4
ssg82
g1217
sg75
(lp1224
S'Mozilla/5.0 (X11; Linux x86_64; rv:7.0.1) Gecko/20100101 Firefox/7.0.1'
p1225
asbasbasbag68
(g84
g70
NtRp1226
(dp1227
g73
(dp1228
sg82
g846
sg75
(lp1229
g68
(g89
g70
NtRp1230
(dp1231
g73
(dp1232
g93
g94
ssg82
g1226
sg75
(lp1233
S'is_jython'
p1234
asbag68
(g89
g70
NtRp1235
(dp1236
g73
(dp1237
g100
g101
ssg82
g1226
sg75
(lp1238
S':'
asbag68
(g89
g70
NtRp1239
(dp1240
g73
(dp1241
sg82
g1226
sg75
(lp1242
g68
(g69
g70
NtRp1243
(dp1244
g73
(dp1245
g81
I4
ssg82
g1239
sg75
(lp1246
g111
asbasbasbag68
(g84
g70
NtRp1247
(dp1248
g73
(dp1249
sg82
g846
sg75
(lp1250
g68
(g89
g70
NtRp1251
(dp1252
g73
(dp1253
g93
g94
ssg82
g1247
sg75
(lp1254
S'path_info'
p1255
asbag68
(g89
g70
NtRp1256
(dp1257
g73
(dp1258
g100
g101
ssg82
g1247
sg75
(lp1259
S':'
asbag68
(g89
g70
NtRp1260
(dp1261
g73
(dp1262
sg82
g1247
sg75
(lp1263
g68
(g69
g70
NtRp1264
(dp1265
g73
(dp1266
g81
I4
ssg82
g1260
sg75
(lp1267
S'/paideia/default/user/profile'
p1268
asbasbasbag68
(g84
g70
NtRp1269
(dp1270
g73
(dp1271
sg82
g846
sg75
(lp1272
g68
(g89
g70
NtRp1273
(dp1274
g73
(dp1275
g93
g94
ssg82
g1269
sg75
(lp1276
S'query_string'
p1277
asbag68
(g89
g70
NtRp1278
(dp1279
g73
(dp1280
g100
g101
ssg82
g1269
sg75
(lp1281
S':'
asbag68
(g89
g70
NtRp1282
(dp1283
g73
(dp1284
sg82
g1269
sg75
(lp1285
g68
(g69
g70
NtRp1286
(dp1287
g73
(dp1288
g81
I4
ssg82
g1282
sg75
(lp1289
S''
asbasbasbag68
(g84
g70
NtRp1290
(dp1291
g73
(dp1292
sg82
g846
sg75
(lp1293
g68
(g89
g70
NtRp1294
(dp1295
g73
(dp1296
g93
g94
ssg82
g1290
sg75
(lp1297
S'remote_addr'
p1298
asbag68
(g89
g70
NtRp1299
(dp1300
g73
(dp1301
g100
g101
ssg82
g1290
sg75
(lp1302
S':'
asbag68
(g89
g70
NtRp1303
(dp1304
g73
(dp1305
sg82
g1290
sg75
(lp1306
g68
(g69
g70
NtRp1307
(dp1308
g73
(dp1309
g81
I4
ssg82
g1303
sg75
(lp1310
g214
asbasbasbag68
(g84
g70
NtRp1311
(dp1312
g73
(dp1313
sg82
g846
sg75
(lp1314
g68
(g89
g70
NtRp1315
(dp1316
g73
(dp1317
g93
g94
ssg82
g1311
sg75
(lp1318
S'remote_port'
p1319
asbag68
(g89
g70
NtRp1320
(dp1321
g73
(dp1322
g100
g101
ssg82
g1311
sg75
(lp1323
S':'
asbag68
(g89
g70
NtRp1324
(dp1325
g73
(dp1326
sg82
g1311
sg75
(lp1327
g68
(g69
g70
NtRp1328
(dp1329
g73
(dp1330
g81
I4
ssg82
g1324
sg75
(lp1331
S'49525'
p1332
asbasbasbag68
(g84
g70
NtRp1333
(dp1334
g73
(dp1335
sg82
g846
sg75
(lp1336
g68
(g89
g70
NtRp1337
(dp1338
g73
(dp1339
g93
g94
ssg82
g1333
sg75
(lp1340
S'request_method'
p1341
asbag68
(g89
g70
NtRp1342
(dp1343
g73
(dp1344
g100
g101
ssg82
g1333
sg75
(lp1345
S':'
asbag68
(g89
g70
NtRp1346
(dp1347
g73
(dp1348
sg82
g1333
sg75
(lp1349
g68
(g69
g70
NtRp1350
(dp1351
g73
(dp1352
g81
I4
ssg82
g1346
sg75
(lp1353
S'GET'
p1354
asbasbasbag68
(g84
g70
NtRp1355
(dp1356
g73
(dp1357
sg82
g846
sg75
(lp1358
g68
(g89
g70
NtRp1359
(dp1360
g73
(dp1361
g93
g94
ssg82
g1355
sg75
(lp1362
S'script_name'
p1363
asbag68
(g89
g70
NtRp1364
(dp1365
g73
(dp1366
g100
g101
ssg82
g1355
sg75
(lp1367
S':'
asbag68
(g89
g70
NtRp1368
(dp1369
g73
(dp1370
sg82
g1355
sg75
(lp1371
g68
(g69
g70
NtRp1372
(dp1373
g73
(dp1374
g81
I4
ssg82
g1368
sg75
(lp1375
S''
asbasbasbag68
(g84
g70
NtRp1376
(dp1377
g73
(dp1378
sg82
g846
sg75
(lp1379
g68
(g89
g70
NtRp1380
(dp1381
g73
(dp1382
g93
g94
ssg82
g1376
sg75
(lp1383
S'server_name'
p1384
asbag68
(g89
g70
NtRp1385
(dp1386
g73
(dp1387
g100
g101
ssg82
g1376
sg75
(lp1388
S':'
asbag68
(g89
g70
NtRp1389
(dp1390
g73
(dp1391
sg82
g1376
sg75
(lp1392
g68
(g69
g70
NtRp1393
(dp1394
g73
(dp1395
g81
I4
ssg82
g1389
sg75
(lp1396
S'Ariel-ubuntu'
p1397
asbasbasbag68
(g84
g70
NtRp1398
(dp1399
g73
(dp1400
sg82
g846
sg75
(lp1401
g68
(g89
g70
NtRp1402
(dp1403
g73
(dp1404
g93
g94
ssg82
g1398
sg75
(lp1405
S'server_port'
p1406
asbag68
(g89
g70
NtRp1407
(dp1408
g73
(dp1409
g100
g101
ssg82
g1398
sg75
(lp1410
S':'
asbag68
(g89
g70
NtRp1411
(dp1412
g73
(dp1413
sg82
g1398
sg75
(lp1414
g68
(g69
g70
NtRp1415
(dp1416
g73
(dp1417
g81
I4
ssg82
g1411
sg75
(lp1418
S'8000'
p1419
asbasbasbag68
(g84
g70
NtRp1420
(dp1421
g73
(dp1422
sg82
g846
sg75
(lp1423
g68
(g89
g70
NtRp1424
(dp1425
g73
(dp1426
g93
g94
ssg82
g1420
sg75
(lp1427
S'server_protocol'
p1428
asbag68
(g89
g70
NtRp1429
(dp1430
g73
(dp1431
g100
g101
ssg82
g1420
sg75
(lp1432
S':'
asbag68
(g89
g70
NtRp1433
(dp1434
g73
(dp1435
sg82
g1420
sg75
(lp1436
g68
(g69
g70
NtRp1437
(dp1438
g73
(dp1439
g81
I4
ssg82
g1433
sg75
(lp1440
S'HTTP/1.1'
p1441
asbasbasbag68
(g84
g70
NtRp1442
(dp1443
g73
(dp1444
sg82
g846
sg75
(lp1445
g68
(g89
g70
NtRp1446
(dp1447
g73
(dp1448
g93
g94
ssg82
g1442
sg75
(lp1449
S'server_software'
p1450
asbag68
(g89
g70
NtRp1451
(dp1452
g73
(dp1453
g100
g101
ssg82
g1442
sg75
(lp1454
S':'
asbag68
(g89
g70
NtRp1455
(dp1456
g73
(dp1457
sg82
g1442
sg75
(lp1458
g68
(g69
g70
NtRp1459
(dp1460
g73
(dp1461
g81
I4
ssg82
g1455
sg75
(lp1462
S'Rocket 1.2.4'
p1463
asbasbasbag68
(g84
g70
NtRp1464
(dp1465
g73
(dp1466
sg82
g846
sg75
(lp1467
g68
(g89
g70
NtRp1468
(dp1469
g73
(dp1470
g93
g94
ssg82
g1464
sg75
(lp1471
S'web2py_crontype'
p1472
asbag68
(g89
g70
NtRp1473
(dp1474
g73
(dp1475
g100
g101
ssg82
g1464
sg75
(lp1476
S':'
asbag68
(g89
g70
NtRp1477
(dp1478
g73
(dp1479
sg82
g1464
sg75
(lp1480
g68
(g69
g70
NtRp1481
(dp1482
g73
(dp1483
g81
I4
ssg82
g1477
sg75
(lp1484
S'hard'
p1485
asbasbasbag68
(g84
g70
NtRp1486
(dp1487
g73
(dp1488
sg82
g846
sg75
(lp1489
g68
(g89
g70
NtRp1490
(dp1491
g73
(dp1492
g93
g94
ssg82
g1486
sg75
(lp1493
S'web2py_path'
p1494
asbag68
(g89
g70
NtRp1495
(dp1496
g73
(dp1497
g100
g101
ssg82
g1486
sg75
(lp1498
S':'
asbag68
(g89
g70
NtRp1499
(dp1500
g73
(dp1501
sg82
g1486
sg75
(lp1502
g68
(g69
g70
NtRp1503
(dp1504
g73
(dp1505
g81
I4
ssg82
g1499
sg75
(lp1506
g893
asbasbasbag68
(g84
g70
NtRp1507
(dp1508
g73
(dp1509
sg82
g846
sg75
(lp1510
g68
(g89
g70
NtRp1511
(dp1512
g73
(dp1513
g93
g94
ssg82
g1507
sg75
(lp1514
S'web2py_version'
p1515
asbag68
(g89
g70
NtRp1516
(dp1517
g73
(dp1518
g100
g101
ssg82
g1507
sg75
(lp1519
S':'
asbag68
(g89
g70
NtRp1520
(dp1521
g73
(dp1522
sg82
g1507
sg75
(lp1523
g68
(g69
g70
NtRp1524
(dp1525
g73
(dp1526
g81
I4
ssg82
g1520
sg75
(lp1527
g68
(g77
g70
NtRp1528
(dp1529
g73
(dp1530
g81
I3
ssg82
Nsg75
(lp1531
g68
(g84
g70
NtRp1532
(dp1533
g73
(dp1534
sg82
g1528
sg75
(lp1535
g68
(g89
g70
NtRp1536
(dp1537
g73
(dp1538
sg82
g1532
sg75
(lp1539
g68
(g69
g70
NtRp1540
(dp1541
g73
(dp1542
g81
I3
ssg82
g1536
sg75
(lp1543
S'1'
asbasbasbag68
(g84
g70
NtRp1544
(dp1545
g73
(dp1546
sg82
g1528
sg75
(lp1547
g68
(g89
g70
NtRp1548
(dp1549
g73
(dp1550
sg82
g1544
sg75
(lp1551
g68
(g69
g70
NtRp1552
(dp1553
g73
(dp1554
g81
I3
ssg82
g1548
sg75
(lp1555
S'99'
p1556
asbasbasbag68
(g84
g70
NtRp1557
(dp1558
g73
(dp1559
sg82
g1528
sg75
(lp1560
g68
(g89
g70
NtRp1561
(dp1562
g73
(dp1563
sg82
g1557
sg75
(lp1564
g68
(g69
g70
NtRp1565
(dp1566
g73
(dp1567
g81
I3
ssg82
g1561
sg75
(lp1568
S'2'
asbasbasbag68
(g84
g70
NtRp1569
(dp1570
g73
(dp1571
sg82
g1528
sg75
(lp1572
g68
(g89
g70
NtRp1573
(dp1574
g73
(dp1575
sg82
g1569
sg75
(lp1576
g68
(g69
g70
NtRp1577
(dp1578
g73
(dp1579
g81
I3
ssg82
g1573
sg75
(lp1580
S'datetime.datetime(2011, 9, 26, 6, 55, 33)'
p1581
asbasbasbag68
(g84
g70
NtRp1582
(dp1583
g73
(dp1584
sg82
g1528
sg75
(lp1585
g68
(g89
g70
NtRp1586
(dp1587
g73
(dp1588
sg82
g1582
sg75
(lp1589
g68
(g69
g70
NtRp1590
(dp1591
g73
(dp1592
g81
I3
ssg82
g1586
sg75
(lp1593
S'stable'
p1594
asbasbasbasbasbasbasbag68
(g84
g70
NtRp1595
(dp1596
g73
(dp1597
sg82
g846
sg75
(lp1598
g68
(g89
g70
NtRp1599
(dp1600
g73
(dp1601
g93
g94
ssg82
g1595
sg75
(lp1602
S'wsgi_errors'
p1603
asbag68
(g89
g70
NtRp1604
(dp1605
g73
(dp1606
g100
g101
ssg82
g1595
sg75
(lp1607
S':'
asbag68
(g89
g70
NtRp1608
(dp1609
g73
(dp1610
sg82
g1595
sg75
(lp1611
g68
(g69
g70
NtRp1612
(dp1613
g73
(dp1614
g81
I4
ssg82
g1608
sg75
(lp1615
S"<open file '<stderr>', mode 'w' at 0x7fc61c754270>"
p1616
asbasbasbag68
(g84
g70
NtRp1617
(dp1618
g73
(dp1619
sg82
g846
sg75
(lp1620
g68
(g89
g70
NtRp1621
(dp1622
g73
(dp1623
g93
g94
ssg82
g1617
sg75
(lp1624
S'wsgi_file_wrapper'
p1625
asbag68
(g89
g70
NtRp1626
(dp1627
g73
(dp1628
g100
g101
ssg82
g1617
sg75
(lp1629
S':'
asbag68
(g89
g70
NtRp1630
(dp1631
g73
(dp1632
sg82
g1617
sg75
(lp1633
g68
(g69
g70
NtRp1634
(dp1635
g73
(dp1636
g81
I4
ssg82
g1630
sg75
(lp1637
S'<class wsgiref.util.FileWrapper at 0x2c1d808>'
p1638
asbasbasbag68
(g84
g70
NtRp1639
(dp1640
g73
(dp1641
sg82
g846
sg75
(lp1642
g68
(g89
g70
NtRp1643
(dp1644
g73
(dp1645
g93
g94
ssg82
g1639
sg75
(lp1646
S'wsgi_input'
p1647
asbag68
(g89
g70
NtRp1648
(dp1649
g73
(dp1650
g100
g101
ssg82
g1639
sg75
(lp1651
S':'
asbag68
(g89
g70
NtRp1652
(dp1653
g73
(dp1654
sg82
g1639
sg75
(lp1655
g68
(g69
g70
NtRp1656
(dp1657
g73
(dp1658
g81
I4
ssg82
g1652
sg75
(lp1659
S'<socket._fileobject object at 0x3f77e50>'
p1660
asbasbasbag68
(g84
g70
NtRp1661
(dp1662
g73
(dp1663
sg82
g846
sg75
(lp1664
g68
(g89
g70
NtRp1665
(dp1666
g73
(dp1667
g93
g94
ssg82
g1661
sg75
(lp1668
S'wsgi_multiprocess'
p1669
asbag68
(g89
g70
NtRp1670
(dp1671
g73
(dp1672
g100
g101
ssg82
g1661
sg75
(lp1673
S':'
asbag68
(g89
g70
NtRp1674
(dp1675
g73
(dp1676
sg82
g1661
sg75
(lp1677
g68
(g69
g70
NtRp1678
(dp1679
g73
(dp1680
g81
I4
ssg82
g1674
sg75
(lp1681
g111
asbasbasbag68
(g84
g70
NtRp1682
(dp1683
g73
(dp1684
sg82
g846
sg75
(lp1685
g68
(g89
g70
NtRp1686
(dp1687
g73
(dp1688
g93
g94
ssg82
g1682
sg75
(lp1689
S'wsgi_multithread'
p1690
asbag68
(g89
g70
NtRp1691
(dp1692
g73
(dp1693
g100
g101
ssg82
g1682
sg75
(lp1694
S':'
asbag68
(g89
g70
NtRp1695
(dp1696
g73
(dp1697
sg82
g1682
sg75
(lp1698
g68
(g69
g70
NtRp1699
(dp1700
g73
(dp1701
g81
I4
ssg82
g1695
sg75
(lp1702
S'True'
p1703
asbasbasbag68
(g84
g70
NtRp1704
(dp1705
g73
(dp1706
sg82
g846
sg75
(lp1707
g68
(g89
g70
NtRp1708
(dp1709
g73
(dp1710
g93
g94
ssg82
g1704
sg75
(lp1711
S'wsgi_run_once'
p1712
asbag68
(g89
g70
NtRp1713
(dp1714
g73
(dp1715
g100
g101
ssg82
g1704
sg75
(lp1716
S':'
asbag68
(g89
g70
NtRp1717
(dp1718
g73
(dp1719
sg82
g1704
sg75
(lp1720
g68
(g69
g70
NtRp1721
(dp1722
g73
(dp1723
g81
I4
ssg82
g1717
sg75
(lp1724
g111
asbasbasbag68
(g84
g70
NtRp1725
(dp1726
g73
(dp1727
sg82
g846
sg75
(lp1728
g68
(g89
g70
NtRp1729
(dp1730
g73
(dp1731
g93
g94
ssg82
g1725
sg75
(lp1732
S'wsgi_url_scheme'
p1733
asbag68
(g89
g70
NtRp1734
(dp1735
g73
(dp1736
g100
g101
ssg82
g1725
sg75
(lp1737
S':'
asbag68
(g89
g70
NtRp1738
(dp1739
g73
(dp1740
sg82
g1725
sg75
(lp1741
g68
(g69
g70
NtRp1742
(dp1743
g73
(dp1744
g81
I4
ssg82
g1738
sg75
(lp1745
S'http'
p1746
asbasbasbag68
(g84
g70
NtRp1747
(dp1748
g73
(dp1749
sg82
g846
sg75
(lp1750
g68
(g89
g70
NtRp1751
(dp1752
g73
(dp1753
g93
g94
ssg82
g1747
sg75
(lp1754
S'wsgi_version'
p1755
asbag68
(g89
g70
NtRp1756
(dp1757
g73
(dp1758
g100
g101
ssg82
g1747
sg75
(lp1759
S':'
asbag68
(g89
g70
NtRp1760
(dp1761
g73
(dp1762
sg82
g1747
sg75
(lp1763
g68
(g69
g70
NtRp1764
(dp1765
g73
(dp1766
g81
I4
ssg82
g1760
sg75
(lp1767
g68
(g77
g70
NtRp1768
(dp1769
g73
(dp1770
g81
I3
ssg82
Nsg75
(lp1771
g68
(g84
g70
NtRp1772
(dp1773
g73
(dp1774
sg82
g1768
sg75
(lp1775
g68
(g89
g70
NtRp1776
(dp1777
g73
(dp1778
sg82
g1772
sg75
(lp1779
g68
(g69
g70
NtRp1780
(dp1781
g73
(dp1782
g81
I3
ssg82
g1776
sg75
(lp1783
S'1'
asbasbasbag68
(g84
g70
NtRp1784
(dp1785
g73
(dp1786
sg82
g1768
sg75
(lp1787
g68
(g89
g70
NtRp1788
(dp1789
g73
(dp1790
sg82
g1784
sg75
(lp1791
g68
(g69
g70
NtRp1792
(dp1793
g73
(dp1794
g81
I3
ssg82
g1788
sg75
(lp1795
S'0'
asbasbasbasbasbasbasbasbasbasbasbag68
(g84
g70
NtRp1796
(dp1797
g73
(dp1798
sg82
g78
sg75
(lp1799
g68
(g89
g70
NtRp1800
(dp1801
g73
(dp1802
g93
g94
ssg82
g1796
sg75
(lp1803
S'extension'
p1804
asbag68
(g89
g70
NtRp1805
(dp1806
g73
(dp1807
g100
g101
ssg82
g1796
sg75
(lp1808
S':'
asbag68
(g89
g70
NtRp1809
(dp1810
g73
(dp1811
sg82
g1796
sg75
(lp1812
g68
(g69
g70
NtRp1813
(dp1814
g73
(dp1815
g81
I5
ssg82
g1809
sg75
(lp1816
S'html'
p1817
asbasbasbag68
(g84
g70
NtRp1818
(dp1819
g73
(dp1820
sg82
g78
sg75
(lp1821
g68
(g89
g70
NtRp1822
(dp1823
g73
(dp1824
g93
g94
ssg82
g1818
sg75
(lp1825
S'folder'
p1826
asbag68
(g89
g70
NtRp1827
(dp1828
g73
(dp1829
g100
g101
ssg82
g1818
sg75
(lp1830
S':'
asbag68
(g89
g70
NtRp1831
(dp1832
g73
(dp1833
sg82
g1818
sg75
(lp1834
g68
(g69
g70
NtRp1835
(dp1836
g73
(dp1837
g81
I5
ssg82
g1831
sg75
(lp1838
S'/home/ian/web2py/applications/paideia/'
p1839
asbasbasbag68
(g84
g70
NtRp1840
(dp1841
g73
(dp1842
sg82
g78
sg75
(lp1843
g68
(g89
g70
NtRp1844
(dp1845
g73
(dp1846
g93
g94
ssg82
g1840
sg75
(lp1847
S'function'
p1848
asbag68
(g89
g70
NtRp1849
(dp1850
g73
(dp1851
g100
g101
ssg82
g1840
sg75
(lp1852
S':'
asbag68
(g89
g70
NtRp1853
(dp1854
g73
(dp1855
sg82
g1840
sg75
(lp1856
g68
(g69
g70
NtRp1857
(dp1858
g73
(dp1859
g81
I5
ssg82
g1853
sg75
(lp1860
S'user'
p1861
asbasbasbag68
(g84
g70
NtRp1862
(dp1863
g73
(dp1864
sg82
g78
sg75
(lp1865
g68
(g89
g70
NtRp1866
(dp1867
g73
(dp1868
g93
g94
ssg82
g1862
sg75
(lp1869
S'get_vars'
p1870
asbag68
(g89
g70
NtRp1871
(dp1872
g73
(dp1873
g100
g101
ssg82
g1862
sg75
(lp1874
S':'
asbag68
(g89
g70
NtRp1875
(dp1876
g73
(dp1877
sg82
g1862
sg75
(lp1878
g68
(g69
g70
NtRp1879
(dp1880
g73
(dp1881
g81
I5
ssg82
g1875
sg75
(lp1882
g68
(g77
g70
NtRp1883
(dp1884
g73
(dp1885
g81
I4
ssg82
Nsg75
(lp1886
sbasbasbasbag68
(g84
g70
NtRp1887
(dp1888
g73
(dp1889
sg82
g78
sg75
(lp1890
g68
(g89
g70
NtRp1891
(dp1892
g73
(dp1893
g93
g94
ssg82
g1887
sg75
(lp1894
S'global_settings'
p1895
asbag68
(g89
g70
NtRp1896
(dp1897
g73
(dp1898
g100
g101
ssg82
g1887
sg75
(lp1899
S':'
asbag68
(g89
g70
NtRp1900
(dp1901
g73
(dp1902
sg82
g1887
sg75
(lp1903
g68
(g69
g70
NtRp1904
(dp1905
g73
(dp1906
g81
I5
ssg82
g1900
sg75
(lp1907
g68
(g77
g70
NtRp1908
(dp1909
g73
(dp1910
g81
I4
ssg82
Nsg75
(lp1911
g68
(g84
g70
NtRp1912
(dp1913
g73
(dp1914
sg82
g1908
sg75
(lp1915
g68
(g89
g70
NtRp1916
(dp1917
g73
(dp1918
g93
g94
ssg82
g1912
sg75
(lp1919
g858
asbag68
(g89
g70
NtRp1920
(dp1921
g73
(dp1922
g100
g101
ssg82
g1912
sg75
(lp1923
S':'
asbag68
(g89
g70
NtRp1924
(dp1925
g73
(dp1926
sg82
g1912
sg75
(lp1927
g68
(g69
g70
NtRp1928
(dp1929
g73
(dp1930
g81
I4
ssg82
g1924
sg75
(lp1931
S"set(['/home/ian/web2py/applications/welcome/', '/home/ian/web2py/applications/paideia/', '/home/ian/web2py/applications/admin/'])"
p1932
asbasbasbag68
(g84
g70
NtRp1933
(dp1934
g73
(dp1935
sg82
g1908
sg75
(lp1936
g68
(g89
g70
NtRp1937
(dp1938
g73
(dp1939
g93
g94
ssg82
g1933
sg75
(lp1940
g880
asbag68
(g89
g70
NtRp1941
(dp1942
g73
(dp1943
g100
g101
ssg82
g1933
sg75
(lp1944
S':'
asbag68
(g89
g70
NtRp1945
(dp1946
g73
(dp1947
sg82
g1933
sg75
(lp1948
g68
(g69
g70
NtRp1949
(dp1950
g73
(dp1951
g81
I4
ssg82
g1945
sg75
(lp1952
g893
asbasbasbag68
(g84
g70
NtRp1953
(dp1954
g73
(dp1955
sg82
g1908
sg75
(lp1956
g68
(g89
g70
NtRp1957
(dp1958
g73
(dp1959
g93
g94
ssg82
g1953
sg75
(lp1960
g902
asbag68
(g89
g70
NtRp1961
(dp1962
g73
(dp1963
g100
g101
ssg82
g1953
sg75
(lp1964
S':'
asbag68
(g89
g70
NtRp1965
(dp1966
g73
(dp1967
sg82
g1953
sg75
(lp1968
g68
(g69
g70
NtRp1969
(dp1970
g73
(dp1971
g81
I4
ssg82
g1965
sg75
(lp1972
g68
(g77
g70
NtRp1973
(dp1974
g73
(dp1975
g81
I3
ssg82
Nsg75
(lp1976
sbasbasbasbag68
(g84
g70
NtRp1977
(dp1978
g73
(dp1979
sg82
g1908
sg75
(lp1980
g68
(g89
g70
NtRp1981
(dp1982
g73
(dp1983
g93
g94
ssg82
g1977
sg75
(lp1984
g927
asbag68
(g89
g70
NtRp1985
(dp1986
g73
(dp1987
g100
g101
ssg82
g1977
sg75
(lp1988
S':'
asbag68
(g89
g70
NtRp1989
(dp1990
g73
(dp1991
sg82
g1977
sg75
(lp1992
g68
(g69
g70
NtRp1993
(dp1994
g73
(dp1995
g81
I4
ssg82
g1989
sg75
(lp1996
S"<Values at 0x2d547e8: {'verbose': False, 'ip': '127.0.0.1', 'shutdown_timeout': 5, 'taskbar': False, 'nocron': False, 'pid_filename': 'httpserver.pid', 'maxthreads': None, 'softcron': False, 'server_name': 'Ariel-ubuntu', 'bpython': False, 'nogui': False, 'port': 8000, 'extcron': False, 'debuglevel': 30, 'test': None, 'folder': '/home/ian/web2py', 'config': '', 'import_models': False, 'winservice': '', 'shell': None, 'run': '', 'log_filename': 'httpserver.log', 'args': [''], 'ssl_ca_certificate': None, 'scheduler': None, 'profiler_filename': None, 'ssl_private_key': '', 'password': '<ask>', 'request_queue_size': 5, 'ssl_certificate': '', 'cronjob': False, 'plain': False, 'quiet': False, 'interfaces': None, 'minthreads': None, 'timeout': 10, 'numthreads': None, 'nobanner': False}>"
p1997
asbasbasbag68
(g84
g70
NtRp1998
(dp1999
g73
(dp2000
sg82
g1908
sg75
(lp2001
g68
(g89
g70
NtRp2002
(dp2003
g73
(dp2004
g93
g94
ssg82
g1998
sg75
(lp2005
g949
asbag68
(g89
g70
NtRp2006
(dp2007
g73
(dp2008
g100
g101
ssg82
g1998
sg75
(lp2009
S':'
asbag68
(g89
g70
NtRp2010
(dp2011
g73
(dp2012
sg82
g1998
sg75
(lp2013
g68
(g69
g70
NtRp2014
(dp2015
g73
(dp2016
g81
I4
ssg82
g2010
sg75
(lp2017
S'set([])'
p2018
asbasbasbag68
(g84
g70
NtRp2019
(dp2020
g73
(dp2021
sg82
g1908
sg75
(lp2022
g68
(g89
g70
NtRp2023
(dp2024
g73
(dp2025
g93
g94
ssg82
g2019
sg75
(lp2026
g971
asbag68
(g89
g70
NtRp2027
(dp2028
g73
(dp2029
g100
g101
ssg82
g2019
sg75
(lp2030
S':'
asbag68
(g89
g70
NtRp2031
(dp2032
g73
(dp2033
sg82
g2019
sg75
(lp2034
g68
(g69
g70
NtRp2035
(dp2036
g73
(dp2037
g81
I4
ssg82
g2031
sg75
(lp2038
g111
asbasbasbag68
(g84
g70
NtRp2039
(dp2040
g73
(dp2041
sg82
g1908
sg75
(lp2042
g68
(g89
g70
NtRp2043
(dp2044
g73
(dp2045
g93
g94
ssg82
g2039
sg75
(lp2046
g992
asbag68
(g89
g70
NtRp2047
(dp2048
g73
(dp2049
g100
g101
ssg82
g2039
sg75
(lp2050
S':'
asbag68
(g89
g70
NtRp2051
(dp2052
g73
(dp2053
sg82
g2039
sg75
(lp2054
g68
(g69
g70
NtRp2055
(dp2056
g73
(dp2057
g81
I4
ssg82
g2051
sg75
(lp2058
g1005
asbasbasbag68
(g84
g70
NtRp2059
(dp2060
g73
(dp2061
sg82
g1908
sg75
(lp2062
g68
(g89
g70
NtRp2063
(dp2064
g73
(dp2065
g93
g94
ssg82
g2059
sg75
(lp2066
g1234
asbag68
(g89
g70
NtRp2067
(dp2068
g73
(dp2069
g100
g101
ssg82
g2059
sg75
(lp2070
S':'
asbag68
(g89
g70
NtRp2071
(dp2072
g73
(dp2073
sg82
g2059
sg75
(lp2074
g68
(g69
g70
NtRp2075
(dp2076
g73
(dp2077
g81
I4
ssg82
g2071
sg75
(lp2078
g111
asbasbasbag68
(g84
g70
NtRp2079
(dp2080
g73
(dp2081
sg82
g1908
sg75
(lp2082
g68
(g89
g70
NtRp2083
(dp2084
g73
(dp2085
g93
g94
ssg82
g2079
sg75
(lp2086
g1472
asbag68
(g89
g70
NtRp2087
(dp2088
g73
(dp2089
g100
g101
ssg82
g2079
sg75
(lp2090
S':'
asbag68
(g89
g70
NtRp2091
(dp2092
g73
(dp2093
sg82
g2079
sg75
(lp2094
g68
(g69
g70
NtRp2095
(dp2096
g73
(dp2097
g81
I4
ssg82
g2091
sg75
(lp2098
g1485
asbasbasbag68
(g84
g70
NtRp2099
(dp2100
g73
(dp2101
sg82
g1908
sg75
(lp2102
g68
(g89
g70
NtRp2103
(dp2104
g73
(dp2105
g93
g94
ssg82
g2099
sg75
(lp2106
g1515
asbag68
(g89
g70
NtRp2107
(dp2108
g73
(dp2109
g100
g101
ssg82
g2099
sg75
(lp2110
S':'
asbag68
(g89
g70
NtRp2111
(dp2112
g73
(dp2113
sg82
g2099
sg75
(lp2114
g68
(g69
g70
NtRp2115
(dp2116
g73
(dp2117
g81
I4
ssg82
g2111
sg75
(lp2118
g68
(g77
g70
NtRp2119
(dp2120
g73
(dp2121
g81
I3
ssg82
Nsg75
(lp2122
g68
(g84
g70
NtRp2123
(dp2124
g73
(dp2125
sg82
g2119
sg75
(lp2126
g68
(g89
g70
NtRp2127
(dp2128
g73
(dp2129
sg82
g2123
sg75
(lp2130
g68
(g69
g70
NtRp2131
(dp2132
g73
(dp2133
g81
I3
ssg82
g2127
sg75
(lp2134
S'1'
asbasbasbag68
(g84
g70
NtRp2135
(dp2136
g73
(dp2137
sg82
g2119
sg75
(lp2138
g68
(g89
g70
NtRp2139
(dp2140
g73
(dp2141
sg82
g2135
sg75
(lp2142
g68
(g69
g70
NtRp2143
(dp2144
g73
(dp2145
g81
I3
ssg82
g2139
sg75
(lp2146
S'99'
p2147
asbasbasbag68
(g84
g70
NtRp2148
(dp2149
g73
(dp2150
sg82
g2119
sg75
(lp2151
g68
(g89
g70
NtRp2152
(dp2153
g73
(dp2154
sg82
g2148
sg75
(lp2155
g68
(g69
g70
NtRp2156
(dp2157
g73
(dp2158
g81
I3
ssg82
g2152
sg75
(lp2159
S'2'
asbasbasbag68
(g84
g70
NtRp2160
(dp2161
g73
(dp2162
sg82
g2119
sg75
(lp2163
g68
(g89
g70
NtRp2164
(dp2165
g73
(dp2166
sg82
g2160
sg75
(lp2167
g68
(g69
g70
NtRp2168
(dp2169
g73
(dp2170
g81
I3
ssg82
g2164
sg75
(lp2171
S'datetime.datetime(2011, 9, 26, 6, 55, 33)'
p2172
asbasbasbag68
(g84
g70
NtRp2173
(dp2174
g73
(dp2175
sg82
g2119
sg75
(lp2176
g68
(g89
g70
NtRp2177
(dp2178
g73
(dp2179
sg82
g2173
sg75
(lp2180
g68
(g69
g70
NtRp2181
(dp2182
g73
(dp2183
g81
I3
ssg82
g2177
sg75
(lp2184
g1594
asbasbasbasbasbasbasbasbasbasbasbag68
(g84
g70
NtRp2185
(dp2186
g73
(dp2187
sg82
g78
sg75
(lp2188
g68
(g89
g70
NtRp2189
(dp2190
g73
(dp2191
g93
g94
ssg82
g2185
sg75
(lp2192
S'is_https'
p2193
asbag68
(g89
g70
NtRp2194
(dp2195
g73
(dp2196
g100
g101
ssg82
g2185
sg75
(lp2197
S':'
asbag68
(g89
g70
NtRp2198
(dp2199
g73
(dp2200
sg82
g2185
sg75
(lp2201
g68
(g69
g70
NtRp2202
(dp2203
g73
(dp2204
g81
I5
ssg82
g2198
sg75
(lp2205
g111
asbasbasbag68
(g84
g70
NtRp2206
(dp2207
g73
(dp2208
sg82
g78
sg75
(lp2209
g68
(g89
g70
NtRp2210
(dp2211
g73
(dp2212
g93
g94
ssg82
g2206
sg75
(lp2213
S'is_local'
p2214
asbag68
(g89
g70
NtRp2215
(dp2216
g73
(dp2217
g100
g101
ssg82
g2206
sg75
(lp2218
S':'
asbag68
(g89
g70
NtRp2219
(dp2220
g73
(dp2221
sg82
g2206
sg75
(lp2222
g68
(g69
g70
NtRp2223
(dp2224
g73
(dp2225
g81
I5
ssg82
g2219
sg75
(lp2226
g1703
asbasbasbag68
(g84
g70
NtRp2227
(dp2228
g73
(dp2229
sg82
g78
sg75
(lp2230
g68
(g89
g70
NtRp2231
(dp2232
g73
(dp2233
g93
g94
ssg82
g2227
sg75
(lp2234
S'is_restful'
p2235
asbag68
(g89
g70
NtRp2236
(dp2237
g73
(dp2238
g100
g101
ssg82
g2227
sg75
(lp2239
S':'
asbag68
(g89
g70
NtRp2240
(dp2241
g73
(dp2242
sg82
g2227
sg75
(lp2243
g68
(g69
g70
NtRp2244
(dp2245
g73
(dp2246
g81
I5
ssg82
g2240
sg75
(lp2247
g111
asbasbasbag68
(g84
g70
NtRp2248
(dp2249
g73
(dp2250
sg82
g78
sg75
(lp2251
g68
(g89
g70
NtRp2252
(dp2253
g73
(dp2254
g93
g94
ssg82
g2248
sg75
(lp2255
S'now'
p2256
asbag68
(g89
g70
NtRp2257
(dp2258
g73
(dp2259
g100
g101
ssg82
g2248
sg75
(lp2260
S':'
asbag68
(g89
g70
NtRp2261
(dp2262
g73
(dp2263
sg82
g2248
sg75
(lp2264
g68
(g69
g70
NtRp2265
(dp2266
g73
(dp2267
g81
I5
ssg82
g2261
sg75
(lp2268
S'datetime.datetime(2011, 10, 28, 19, 22, 31, 411094)'
p2269
asbasbasbag68
(g84
g70
NtRp2270
(dp2271
g73
(dp2272
sg82
g78
sg75
(lp2273
g68
(g89
g70
NtRp2274
(dp2275
g73
(dp2276
g93
g94
ssg82
g2270
sg75
(lp2277
S'post_vars'
p2278
asbag68
(g89
g70
NtRp2279
(dp2280
g73
(dp2281
g100
g101
ssg82
g2270
sg75
(lp2282
S':'
asbag68
(g89
g70
NtRp2283
(dp2284
g73
(dp2285
sg82
g2270
sg75
(lp2286
g68
(g69
g70
NtRp2287
(dp2288
g73
(dp2289
g81
I5
ssg82
g2283
sg75
(lp2290
g68
(g77
g70
NtRp2291
(dp2292
g73
(dp2293
g81
I4
ssg82
Nsg75
(lp2294
sbasbasbasbag68
(g84
g70
NtRp2295
(dp2296
g73
(dp2297
sg82
g78
sg75
(lp2298
g68
(g89
g70
NtRp2299
(dp2300
g73
(dp2301
g93
g94
ssg82
g2295
sg75
(lp2302
S'raw_args'
p2303
asbag68
(g89
g70
NtRp2304
(dp2305
g73
(dp2306
g100
g101
ssg82
g2295
sg75
(lp2307
S':'
asbag68
(g89
g70
NtRp2308
(dp2309
g73
(dp2310
sg82
g2295
sg75
(lp2311
g68
(g69
g70
NtRp2312
(dp2313
g73
(dp2314
g81
I5
ssg82
g2308
sg75
(lp2315
g170
asbasbasbag68
(g84
g70
NtRp2316
(dp2317
g73
(dp2318
sg82
g78
sg75
(lp2319
g68
(g89
g70
NtRp2320
(dp2321
g73
(dp2322
g93
g94
ssg82
g2316
sg75
(lp2323
S'url'
p2324
asbag68
(g89
g70
NtRp2325
(dp2326
g73
(dp2327
g100
g101
ssg82
g2316
sg75
(lp2328
S':'
asbag68
(g89
g70
NtRp2329
(dp2330
g73
(dp2331
sg82
g2316
sg75
(lp2332
g68
(g69
g70
NtRp2333
(dp2334
g73
(dp2335
g81
I5
ssg82
g2329
sg75
(lp2336
S'/paideia/default/user/profile'
p2337
asbasbasbag68
(g84
g70
NtRp2338
(dp2339
g73
(dp2340
sg82
g78
sg75
(lp2341
g68
(g89
g70
NtRp2342
(dp2343
g73
(dp2344
g93
g94
ssg82
g2338
sg75
(lp2345
S'utcnow'
p2346
asbag68
(g89
g70
NtRp2347
(dp2348
g73
(dp2349
g100
g101
ssg82
g2338
sg75
(lp2350
S':'
asbag68
(g89
g70
NtRp2351
(dp2352
g73
(dp2353
sg82
g2338
sg75
(lp2354
g68
(g69
g70
NtRp2355
(dp2356
g73
(dp2357
g81
I5
ssg82
g2351
sg75
(lp2358
S'datetime.datetime(2011, 10, 28, 23, 22, 31, 411156)'
p2359
asbasbasbag68
(g84
g70
NtRp2360
(dp2361
g73
(dp2362
sg82
g78
sg75
(lp2363
g68
(g89
g70
NtRp2364
(dp2365
g73
(dp2366
g93
g94
ssg82
g2360
sg75
(lp2367
S'uuid'
p2368
asbag68
(g89
g70
NtRp2369
(dp2370
g73
(dp2371
g100
g101
ssg82
g2360
sg75
(lp2372
S':'
asbag68
(g89
g70
NtRp2373
(dp2374
g73
(dp2375
sg82
g2360
sg75
(lp2376
g68
(g69
g70
NtRp2377
(dp2378
g73
(dp2379
g81
I5
ssg82
g2373
sg75
(lp2380
S'paideia/127.0.0.1.2011-10-28.19-22-31.0b2721a6-f35b-4526-a502-6a335e2611a7'
p2381
asbasbasbag68
(g84
g70
NtRp2382
(dp2383
g73
(dp2384
sg82
g78
sg75
(lp2385
g68
(g89
g70
NtRp2386
(dp2387
g73
(dp2388
g93
g94
ssg82
g2382
sg75
(lp2389
S'vars'
p2390
asbag68
(g89
g70
NtRp2391
(dp2392
g73
(dp2393
g100
g101
ssg82
g2382
sg75
(lp2394
S':'
asbag68
(g89
g70
NtRp2395
(dp2396
g73
(dp2397
sg82
g2382
sg75
(lp2398
g68
(g69
g70
NtRp2399
(dp2400
g73
(dp2401
g81
I5
ssg82
g2395
sg75
(lp2402
g68
(g77
g70
NtRp2403
(dp2404
g73
(dp2405
g81
I4
ssg82
Nsg75
(lp2406
sbasbasbasbag68
(g84
g70
NtRp2407
(dp2408
g73
(dp2409
sg82
g78
sg75
(lp2410
g68
(g89
g70
NtRp2411
(dp2412
g73
(dp2413
g93
g94
ssg82
g2407
sg75
(lp2414
S'wsgi'
p2415
asbag68
(g89
g70
NtRp2416
(dp2417
g73
(dp2418
g100
g101
ssg82
g2407
sg75
(lp2419
S':'
asbag68
(g89
g70
NtRp2420
(dp2421
g73
(dp2422
sg82
g2407
sg75
(lp2423
g68
(g69
g70
NtRp2424
(dp2425
g73
(dp2426
g81
I5
ssg82
g2420
sg75
(lp2427
g68
(g77
g70
NtRp2428
(dp2429
g73
(dp2430
g81
I4
ssg82
Nsg75
(lp2431
g68
(g84
g70
NtRp2432
(dp2433
g73
(dp2434
sg82
g2428
sg75
(lp2435
g68
(g89
g70
NtRp2436
(dp2437
g73
(dp2438
g93
g94
ssg82
g2432
sg75
(lp2439
S'environ'
p2440
asbag68
(g89
g70
NtRp2441
(dp2442
g73
(dp2443
g100
g101
ssg82
g2432
sg75
(lp2444
S':'
asbag68
(g89
g70
NtRp2445
(dp2446
g73
(dp2447
sg82
g2432
sg75
(lp2448
g68
(g69
g70
NtRp2449
(dp2450
g73
(dp2451
g81
I4
ssg82
g2445
sg75
(lp2452
g68
(g77
g70
NtRp2453
(dp2454
g73
(dp2455
g81
I3
ssg82
Nsg75
(lp2456
g68
(g84
g70
NtRp2457
(dp2458
g73
(dp2459
sg82
g2453
sg75
(lp2460
g68
(g89
g70
NtRp2461
(dp2462
g73
(dp2463
g93
g94
ssg82
g2457
sg75
(lp2464
S'HTTP_ACCEPT'
p2465
asbag68
(g89
g70
NtRp2466
(dp2467
g73
(dp2468
g100
g101
ssg82
g2457
sg75
(lp2469
S':'
asbag68
(g89
g70
NtRp2470
(dp2471
g73
(dp2472
sg82
g2457
sg75
(lp2473
g68
(g69
g70
NtRp2474
(dp2475
g73
(dp2476
g81
I3
ssg82
g2470
sg75
(lp2477
g1027
asbasbasbag68
(g84
g70
NtRp2478
(dp2479
g73
(dp2480
sg82
g2453
sg75
(lp2481
g68
(g89
g70
NtRp2482
(dp2483
g73
(dp2484
g93
g94
ssg82
g2478
sg75
(lp2485
S'HTTP_ACCEPT_CHARSET'
p2486
asbag68
(g89
g70
NtRp2487
(dp2488
g73
(dp2489
g100
g101
ssg82
g2478
sg75
(lp2490
S':'
asbag68
(g89
g70
NtRp2491
(dp2492
g73
(dp2493
sg82
g2478
sg75
(lp2494
g68
(g69
g70
NtRp2495
(dp2496
g73
(dp2497
g81
I3
ssg82
g2491
sg75
(lp2498
g1049
asbasbasbag68
(g84
g70
NtRp2499
(dp2500
g73
(dp2501
sg82
g2453
sg75
(lp2502
g68
(g89
g70
NtRp2503
(dp2504
g73
(dp2505
g93
g94
ssg82
g2499
sg75
(lp2506
S'HTTP_ACCEPT_ENCODING'
p2507
asbag68
(g89
g70
NtRp2508
(dp2509
g73
(dp2510
g100
g101
ssg82
g2499
sg75
(lp2511
S':'
asbag68
(g89
g70
NtRp2512
(dp2513
g73
(dp2514
sg82
g2499
sg75
(lp2515
g68
(g69
g70
NtRp2516
(dp2517
g73
(dp2518
g81
I3
ssg82
g2512
sg75
(lp2519
g1071
asbasbasbag68
(g84
g70
NtRp2520
(dp2521
g73
(dp2522
sg82
g2453
sg75
(lp2523
g68
(g89
g70
NtRp2524
(dp2525
g73
(dp2526
g93
g94
ssg82
g2520
sg75
(lp2527
S'HTTP_ACCEPT_LANGUAGE'
p2528
asbag68
(g89
g70
NtRp2529
(dp2530
g73
(dp2531
g100
g101
ssg82
g2520
sg75
(lp2532
S':'
asbag68
(g89
g70
NtRp2533
(dp2534
g73
(dp2535
sg82
g2520
sg75
(lp2536
g68
(g69
g70
NtRp2537
(dp2538
g73
(dp2539
g81
I3
ssg82
g2533
sg75
(lp2540
g1093
asbasbasbag68
(g84
g70
NtRp2541
(dp2542
g73
(dp2543
sg82
g2453
sg75
(lp2544
g68
(g89
g70
NtRp2545
(dp2546
g73
(dp2547
g93
g94
ssg82
g2541
sg75
(lp2548
S'HTTP_CACHE_CONTROL'
p2549
asbag68
(g89
g70
NtRp2550
(dp2551
g73
(dp2552
g100
g101
ssg82
g2541
sg75
(lp2553
S':'
asbag68
(g89
g70
NtRp2554
(dp2555
g73
(dp2556
sg82
g2541
sg75
(lp2557
g68
(g69
g70
NtRp2558
(dp2559
g73
(dp2560
g81
I3
ssg82
g2554
sg75
(lp2561
g1115
asbasbasbag68
(g84
g70
NtRp2562
(dp2563
g73
(dp2564
sg82
g2453
sg75
(lp2565
g68
(g89
g70
NtRp2566
(dp2567
g73
(dp2568
g93
g94
ssg82
g2562
sg75
(lp2569
S'HTTP_CONNECTION'
p2570
asbag68
(g89
g70
NtRp2571
(dp2572
g73
(dp2573
g100
g101
ssg82
g2562
sg75
(lp2574
S':'
asbag68
(g89
g70
NtRp2575
(dp2576
g73
(dp2577
sg82
g2562
sg75
(lp2578
g68
(g69
g70
NtRp2579
(dp2580
g73
(dp2581
g81
I3
ssg82
g2575
sg75
(lp2582
g1137
asbasbasbag68
(g84
g70
NtRp2583
(dp2584
g73
(dp2585
sg82
g2453
sg75
(lp2586
g68
(g89
g70
NtRp2587
(dp2588
g73
(dp2589
g93
g94
ssg82
g2583
sg75
(lp2590
S'HTTP_COOKIE'
p2591
asbag68
(g89
g70
NtRp2592
(dp2593
g73
(dp2594
g100
g101
ssg82
g2583
sg75
(lp2595
S':'
asbag68
(g89
g70
NtRp2596
(dp2597
g73
(dp2598
sg82
g2583
sg75
(lp2599
g68
(g69
g70
NtRp2600
(dp2601
g73
(dp2602
g81
I3
ssg82
g2596
sg75
(lp2603
g1159
asbasbasbag68
(g84
g70
NtRp2604
(dp2605
g73
(dp2606
sg82
g2453
sg75
(lp2607
g68
(g89
g70
NtRp2608
(dp2609
g73
(dp2610
g93
g94
ssg82
g2604
sg75
(lp2611
S'HTTP_HOST'
p2612
asbag68
(g89
g70
NtRp2613
(dp2614
g73
(dp2615
g100
g101
ssg82
g2604
sg75
(lp2616
S':'
asbag68
(g89
g70
NtRp2617
(dp2618
g73
(dp2619
sg82
g2604
sg75
(lp2620
g68
(g69
g70
NtRp2621
(dp2622
g73
(dp2623
g81
I3
ssg82
g2617
sg75
(lp2624
g1181
asbasbasbag68
(g84
g70
NtRp2625
(dp2626
g73
(dp2627
sg82
g2453
sg75
(lp2628
g68
(g89
g70
NtRp2629
(dp2630
g73
(dp2631
g93
g94
ssg82
g2625
sg75
(lp2632
S'HTTP_REFERER'
p2633
asbag68
(g89
g70
NtRp2634
(dp2635
g73
(dp2636
g100
g101
ssg82
g2625
sg75
(lp2637
S':'
asbag68
(g89
g70
NtRp2638
(dp2639
g73
(dp2640
sg82
g2625
sg75
(lp2641
g68
(g69
g70
NtRp2642
(dp2643
g73
(dp2644
g81
I3
ssg82
g2638
sg75
(lp2645
g1203
asbasbasbag68
(g84
g70
NtRp2646
(dp2647
g73
(dp2648
sg82
g2453
sg75
(lp2649
g68
(g89
g70
NtRp2650
(dp2651
g73
(dp2652
g93
g94
ssg82
g2646
sg75
(lp2653
S'HTTP_USER_AGENT'
p2654
asbag68
(g89
g70
NtRp2655
(dp2656
g73
(dp2657
g100
g101
ssg82
g2646
sg75
(lp2658
S':'
asbag68
(g89
g70
NtRp2659
(dp2660
g73
(dp2661
sg82
g2646
sg75
(lp2662
g68
(g69
g70
NtRp2663
(dp2664
g73
(dp2665
g81
I3
ssg82
g2659
sg75
(lp2666
g1225
asbasbasbag68
(g84
g70
NtRp2667
(dp2668
g73
(dp2669
sg82
g2453
sg75
(lp2670
g68
(g89
g70
NtRp2671
(dp2672
g73
(dp2673
g93
g94
ssg82
g2667
sg75
(lp2674
S'PATH_INFO'
p2675
asbag68
(g89
g70
NtRp2676
(dp2677
g73
(dp2678
g100
g101
ssg82
g2667
sg75
(lp2679
S':'
asbag68
(g89
g70
NtRp2680
(dp2681
g73
(dp2682
sg82
g2667
sg75
(lp2683
g68
(g69
g70
NtRp2684
(dp2685
g73
(dp2686
g81
I3
ssg82
g2680
sg75
(lp2687
g1268
asbasbasbag68
(g84
g70
NtRp2688
(dp2689
g73
(dp2690
sg82
g2453
sg75
(lp2691
g68
(g89
g70
NtRp2692
(dp2693
g73
(dp2694
g93
g94
ssg82
g2688
sg75
(lp2695
S'QUERY_STRING'
p2696
asbag68
(g89
g70
NtRp2697
(dp2698
g73
(dp2699
g100
g101
ssg82
g2688
sg75
(lp2700
S':'
asbag68
(g89
g70
NtRp2701
(dp2702
g73
(dp2703
sg82
g2688
sg75
(lp2704
g68
(g69
g70
NtRp2705
(dp2706
g73
(dp2707
g81
I3
ssg82
g2701
sg75
(lp2708
S''
asbasbasbag68
(g84
g70
NtRp2709
(dp2710
g73
(dp2711
sg82
g2453
sg75
(lp2712
g68
(g89
g70
NtRp2713
(dp2714
g73
(dp2715
g93
g94
ssg82
g2709
sg75
(lp2716
S'REMOTE_ADDR'
p2717
asbag68
(g89
g70
NtRp2718
(dp2719
g73
(dp2720
g100
g101
ssg82
g2709
sg75
(lp2721
S':'
asbag68
(g89
g70
NtRp2722
(dp2723
g73
(dp2724
sg82
g2709
sg75
(lp2725
g68
(g69
g70
NtRp2726
(dp2727
g73
(dp2728
g81
I3
ssg82
g2722
sg75
(lp2729
g214
asbasbasbag68
(g84
g70
NtRp2730
(dp2731
g73
(dp2732
sg82
g2453
sg75
(lp2733
g68
(g89
g70
NtRp2734
(dp2735
g73
(dp2736
g93
g94
ssg82
g2730
sg75
(lp2737
S'REMOTE_PORT'
p2738
asbag68
(g89
g70
NtRp2739
(dp2740
g73
(dp2741
g100
g101
ssg82
g2730
sg75
(lp2742
S':'
asbag68
(g89
g70
NtRp2743
(dp2744
g73
(dp2745
sg82
g2730
sg75
(lp2746
g68
(g69
g70
NtRp2747
(dp2748
g73
(dp2749
g81
I3
ssg82
g2743
sg75
(lp2750
g1332
asbasbasbag68
(g84
g70
NtRp2751
(dp2752
g73
(dp2753
sg82
g2453
sg75
(lp2754
g68
(g89
g70
NtRp2755
(dp2756
g73
(dp2757
g93
g94
ssg82
g2751
sg75
(lp2758
S'REQUEST_METHOD'
p2759
asbag68
(g89
g70
NtRp2760
(dp2761
g73
(dp2762
g100
g101
ssg82
g2751
sg75
(lp2763
S':'
asbag68
(g89
g70
NtRp2764
(dp2765
g73
(dp2766
sg82
g2751
sg75
(lp2767
g68
(g69
g70
NtRp2768
(dp2769
g73
(dp2770
g81
I3
ssg82
g2764
sg75
(lp2771
g1354
asbasbasbag68
(g84
g70
NtRp2772
(dp2773
g73
(dp2774
sg82
g2453
sg75
(lp2775
g68
(g89
g70
NtRp2776
(dp2777
g73
(dp2778
g93
g94
ssg82
g2772
sg75
(lp2779
S'SCRIPT_NAME'
p2780
asbag68
(g89
g70
NtRp2781
(dp2782
g73
(dp2783
g100
g101
ssg82
g2772
sg75
(lp2784
S':'
asbag68
(g89
g70
NtRp2785
(dp2786
g73
(dp2787
sg82
g2772
sg75
(lp2788
g68
(g69
g70
NtRp2789
(dp2790
g73
(dp2791
g81
I3
ssg82
g2785
sg75
(lp2792
S''
asbasbasbag68
(g84
g70
NtRp2793
(dp2794
g73
(dp2795
sg82
g2453
sg75
(lp2796
g68
(g89
g70
NtRp2797
(dp2798
g73
(dp2799
g93
g94
ssg82
g2793
sg75
(lp2800
S'SERVER_NAME'
p2801
asbag68
(g89
g70
NtRp2802
(dp2803
g73
(dp2804
g100
g101
ssg82
g2793
sg75
(lp2805
S':'
asbag68
(g89
g70
NtRp2806
(dp2807
g73
(dp2808
sg82
g2793
sg75
(lp2809
g68
(g69
g70
NtRp2810
(dp2811
g73
(dp2812
g81
I3
ssg82
g2806
sg75
(lp2813
g1397
asbasbasbag68
(g84
g70
NtRp2814
(dp2815
g73
(dp2816
sg82
g2453
sg75
(lp2817
g68
(g89
g70
NtRp2818
(dp2819
g73
(dp2820
g93
g94
ssg82
g2814
sg75
(lp2821
S'SERVER_PORT'
p2822
asbag68
(g89
g70
NtRp2823
(dp2824
g73
(dp2825
g100
g101
ssg82
g2814
sg75
(lp2826
S':'
asbag68
(g89
g70
NtRp2827
(dp2828
g73
(dp2829
sg82
g2814
sg75
(lp2830
g68
(g69
g70
NtRp2831
(dp2832
g73
(dp2833
g81
I3
ssg82
g2827
sg75
(lp2834
g1419
asbasbasbag68
(g84
g70
NtRp2835
(dp2836
g73
(dp2837
sg82
g2453
sg75
(lp2838
g68
(g89
g70
NtRp2839
(dp2840
g73
(dp2841
g93
g94
ssg82
g2835
sg75
(lp2842
S'SERVER_PROTOCOL'
p2843
asbag68
(g89
g70
NtRp2844
(dp2845
g73
(dp2846
g100
g101
ssg82
g2835
sg75
(lp2847
S':'
asbag68
(g89
g70
NtRp2848
(dp2849
g73
(dp2850
sg82
g2835
sg75
(lp2851
g68
(g69
g70
NtRp2852
(dp2853
g73
(dp2854
g81
I3
ssg82
g2848
sg75
(lp2855
g1441
asbasbasbag68
(g84
g70
NtRp2856
(dp2857
g73
(dp2858
sg82
g2453
sg75
(lp2859
g68
(g89
g70
NtRp2860
(dp2861
g73
(dp2862
g93
g94
ssg82
g2856
sg75
(lp2863
S'SERVER_SOFTWARE'
p2864
asbag68
(g89
g70
NtRp2865
(dp2866
g73
(dp2867
g100
g101
ssg82
g2856
sg75
(lp2868
S':'
asbag68
(g89
g70
NtRp2869
(dp2870
g73
(dp2871
sg82
g2856
sg75
(lp2872
g68
(g69
g70
NtRp2873
(dp2874
g73
(dp2875
g81
I3
ssg82
g2869
sg75
(lp2876
g1463
asbasbasbag68
(g84
g70
NtRp2877
(dp2878
g73
(dp2879
sg82
g2453
sg75
(lp2880
g68
(g89
g70
NtRp2881
(dp2882
g73
(dp2883
g93
g94
ssg82
g2877
sg75
(lp2884
S'wsgi.errors'
p2885
asbag68
(g89
g70
NtRp2886
(dp2887
g73
(dp2888
g100
g101
ssg82
g2877
sg75
(lp2889
S':'
asbag68
(g89
g70
NtRp2890
(dp2891
g73
(dp2892
sg82
g2877
sg75
(lp2893
g68
(g69
g70
NtRp2894
(dp2895
g73
(dp2896
g81
I3
ssg82
g2890
sg75
(lp2897
S"<open file '<stderr>', mode 'w' at 0x7fc61c754270>"
p2898
asbasbasbag68
(g84
g70
NtRp2899
(dp2900
g73
(dp2901
sg82
g2453
sg75
(lp2902
g68
(g89
g70
NtRp2903
(dp2904
g73
(dp2905
g93
g94
ssg82
g2899
sg75
(lp2906
S'wsgi.file_wrapper'
p2907
asbag68
(g89
g70
NtRp2908
(dp2909
g73
(dp2910
g100
g101
ssg82
g2899
sg75
(lp2911
S':'
asbag68
(g89
g70
NtRp2912
(dp2913
g73
(dp2914
sg82
g2899
sg75
(lp2915
g68
(g69
g70
NtRp2916
(dp2917
g73
(dp2918
g81
I3
ssg82
g2912
sg75
(lp2919
S'<class wsgiref.util.FileWrapper at 0x2c1d808>'
p2920
asbasbasbag68
(g84
g70
NtRp2921
(dp2922
g73
(dp2923
sg82
g2453
sg75
(lp2924
g68
(g89
g70
NtRp2925
(dp2926
g73
(dp2927
g93
g94
ssg82
g2921
sg75
(lp2928
S'wsgi.input'
p2929
asbag68
(g89
g70
NtRp2930
(dp2931
g73
(dp2932
g100
g101
ssg82
g2921
sg75
(lp2933
S':'
asbag68
(g89
g70
NtRp2934
(dp2935
g73
(dp2936
sg82
g2921
sg75
(lp2937
g68
(g69
g70
NtRp2938
(dp2939
g73
(dp2940
g81
I3
ssg82
g2934
sg75
(lp2941
S'<cStringIO.StringO object at 0x35806f8>'
p2942
asbasbasbag68
(g84
g70
NtRp2943
(dp2944
g73
(dp2945
sg82
g2453
sg75
(lp2946
g68
(g89
g70
NtRp2947
(dp2948
g73
(dp2949
g93
g94
ssg82
g2943
sg75
(lp2950
S'wsgi.multiprocess'
p2951
asbag68
(g89
g70
NtRp2952
(dp2953
g73
(dp2954
g100
g101
ssg82
g2943
sg75
(lp2955
S':'
asbag68
(g89
g70
NtRp2956
(dp2957
g73
(dp2958
sg82
g2943
sg75
(lp2959
g68
(g69
g70
NtRp2960
(dp2961
g73
(dp2962
g81
I3
ssg82
g2956
sg75
(lp2963
g111
asbasbasbag68
(g84
g70
NtRp2964
(dp2965
g73
(dp2966
sg82
g2453
sg75
(lp2967
g68
(g89
g70
NtRp2968
(dp2969
g73
(dp2970
g93
g94
ssg82
g2964
sg75
(lp2971
S'wsgi.multithread'
p2972
asbag68
(g89
g70
NtRp2973
(dp2974
g73
(dp2975
g100
g101
ssg82
g2964
sg75
(lp2976
S':'
asbag68
(g89
g70
NtRp2977
(dp2978
g73
(dp2979
sg82
g2964
sg75
(lp2980
g68
(g69
g70
NtRp2981
(dp2982
g73
(dp2983
g81
I3
ssg82
g2977
sg75
(lp2984
g1703
asbasbasbag68
(g84
g70
NtRp2985
(dp2986
g73
(dp2987
sg82
g2453
sg75
(lp2988
g68
(g89
g70
NtRp2989
(dp2990
g73
(dp2991
g93
g94
ssg82
g2985
sg75
(lp2992
S'wsgi.run_once'
p2993
asbag68
(g89
g70
NtRp2994
(dp2995
g73
(dp2996
g100
g101
ssg82
g2985
sg75
(lp2997
S':'
asbag68
(g89
g70
NtRp2998
(dp2999
g73
(dp3000
sg82
g2985
sg75
(lp3001
g68
(g69
g70
NtRp3002
(dp3003
g73
(dp3004
g81
I3
ssg82
g2998
sg75
(lp3005
g111
asbasbasbag68
(g84
g70
NtRp3006
(dp3007
g73
(dp3008
sg82
g2453
sg75
(lp3009
g68
(g89
g70
NtRp3010
(dp3011
g73
(dp3012
g93
g94
ssg82
g3006
sg75
(lp3013
S'wsgi.url_scheme'
p3014
asbag68
(g89
g70
NtRp3015
(dp3016
g73
(dp3017
g100
g101
ssg82
g3006
sg75
(lp3018
S':'
asbag68
(g89
g70
NtRp3019
(dp3020
g73
(dp3021
sg82
g3006
sg75
(lp3022
g68
(g69
g70
NtRp3023
(dp3024
g73
(dp3025
g81
I3
ssg82
g3019
sg75
(lp3026
g1746
asbasbasbag68
(g84
g70
NtRp3027
(dp3028
g73
(dp3029
sg82
g2453
sg75
(lp3030
g68
(g89
g70
NtRp3031
(dp3032
g73
(dp3033
g93
g94
ssg82
g3027
sg75
(lp3034
S'wsgi.version'
p3035
asbag68
(g89
g70
NtRp3036
(dp3037
g73
(dp3038
g100
g101
ssg82
g3027
sg75
(lp3039
S':'
asbag68
(g89
g70
NtRp3040
(dp3041
g73
(dp3042
sg82
g3027
sg75
(lp3043
g68
(g69
g70
NtRp3044
(dp3045
g73
(dp3046
g81
I3
ssg82
g3040
sg75
(lp3047
S'1'
asbasbasbasbasbasbasbasbasbasbasbasbasbsS'frames'
p3048
(lp3049
(dp3050
S'file'
p3051
S'/home/ian/web2py/gluon/restricted.py'
p3052
sS'dump'
p3053
(dp3054
S'code'
p3055
S"'import calendar, datetime\\n\\nclass paideia_stats:\\n...m] = {w = v}\\n        session.debug = self.dateset'"
p3056
sS'layer'
p3057
S"'/home/ian/web2py/applications/paideia/models/paideia_stats.py'"
p3058
sS'global compile2'
p3059
S'<function compile2>'
p3060
sS'ccode'
p3061
S'undefined'
p3062
ssS'lnum'
p3063
I193
sS'lines'
p3064
(dp3065
I192
S'        else:'
p3066
sI193
S'            ccode = compile2(code,layer)'
p3067
sI194
S'        exec ccode in environment'
p3068
sI195
S'    except HTTP:'
p3069
sI196
S'        raise'
p3070
sI197
S'    except Exception, error:'
p3071
sI188
S"    environment['__file__'] = layer"
p3072
sI189
S'    try:'
p3073
sI190
S'        if type(code) == types.CodeType:'
p3074
sI191
S'            ccode = code'
p3075
ssS'call'
p3076
S"(code='import calendar, datetime\\n\\nclass paideia_stats:\\n...m] = {w = v}\\n        session.debug = self.dateset', environment={'A': <class 'gluon.html.A'>, 'Auth': <class 'gluon.tools.Auth'>, 'B': <class 'gluon.html.B'>, 'BEAUTIFY': <class 'gluon.html.BEAUTIFY'>, 'BODY': <class 'gluon.html.BODY'>, 'BR': <class 'gluon.html.BR'>, 'BUTTON': <class 'gluon.html.BUTTON'>, 'CAT': <class 'gluon.html.CAT'>, 'CENTER': <class 'gluon.html.CENTER'>, 'CLEANUP': <class 'gluon.validators.CLEANUP'>, ...}, layer='/home/ian/web2py/applications/paideia/models/paideia_stats.py')"
p3077
sS'func'
p3078
S'restricted'
p3079
sa(dp3080
g3051
S'/home/ian/web2py/gluon/restricted.py'
p3081
sg3053
(dp3082
S'builtincompile'
p3083
S'<built-in function compile>'
p3084
sS'code'
p3085
S"'import calendar, datetime\\n\\nclass paideia_stats:\\n...m] = {w = v}\\n        session.debug = self.dateset'"
p3086
sS'code.rstrip'
p3087
S'<built-in method rstrip of str object>'
p3088
sS').replace'
p3089
g3062
sS'layer'
p3090
S"'/home/ian/web2py/applications/paideia/models/paideia_stats.py'"
p3091
ssg3063
I179
sg3064
(dp3092
I174
S''
sI175
S'def compile2(code,layer):'
p3093
sI176
S'    """'
p3094
sI177
S"    The +'\\n' is necessary else compile fails when code ends in a comment."
p3095
sI178
S'    """'
p3096
sI179
S"    return compile(code.rstrip().replace('\\r\\n','\\n')+'\\n', layer, 'exec')"
p3097
sI180
S''
sI181
S"def restricted(code, environment=None, layer='Unknown'):"
p3098
sI182
S'    """'
p3099
sI183
S'    runs code in environment and returns the output. if an exception occurs'
p3100
ssg3076
S"(code='import calendar, datetime\\n\\nclass paideia_stats:\\n...m] = {w = v}\\n        session.debug = self.dateset', layer='/home/ian/web2py/applications/paideia/models/paideia_stats.py')"
p3101
sg3078
S'compile2'
p3102
sasS'pyver'
p3103
S'Python 2.7.2+: /usr/bin/python2.7'
p3104
sS'session'
p3105
g68
(g69
g70
NtRp3106
(dp3107
g73
(dp3108
sg75
(lp3109
g68
(g77
g70
NtRp3110
(dp3111
g73
(dp3112
g81
I5
ssg82
Nsg75
(lp3113
g68
(g84
g70
NtRp3114
(dp3115
g73
(dp3116
sg82
g3110
sg75
(lp3117
g68
(g89
g70
NtRp3118
(dp3119
g73
(dp3120
g93
g94
ssg82
g3114
sg75
(lp3121
S'auth'
p3122
asbag68
(g89
g70
NtRp3123
(dp3124
g73
(dp3125
g100
g101
ssg82
g3114
sg75
(lp3126
S':'
asbag68
(g89
g70
NtRp3127
(dp3128
g73
(dp3129
sg82
g3114
sg75
(lp3130
g68
(g69
g70
NtRp3131
(dp3132
g73
(dp3133
g81
I5
ssg82
g3127
sg75
(lp3134
g68
(g77
g70
NtRp3135
(dp3136
g73
(dp3137
g81
I4
ssg82
Nsg75
(lp3138
g68
(g84
g70
NtRp3139
(dp3140
g73
(dp3141
sg82
g3135
sg75
(lp3142
g68
(g89
g70
NtRp3143
(dp3144
g73
(dp3145
g93
g94
ssg82
g3139
sg75
(lp3146
S'expiration'
p3147
asbag68
(g89
g70
NtRp3148
(dp3149
g73
(dp3150
g100
g101
ssg82
g3139
sg75
(lp3151
S':'
asbag68
(g89
g70
NtRp3152
(dp3153
g73
(dp3154
sg82
g3139
sg75
(lp3155
g68
(g69
g70
NtRp3156
(dp3157
g73
(dp3158
g81
I4
ssg82
g3152
sg75
(lp3159
S'2592000'
p3160
asbasbasbag68
(g84
g70
NtRp3161
(dp3162
g73
(dp3163
sg82
g3135
sg75
(lp3164
g68
(g89
g70
NtRp3165
(dp3166
g73
(dp3167
g93
g94
ssg82
g3161
sg75
(lp3168
S'hmac_key'
p3169
asbag68
(g89
g70
NtRp3170
(dp3171
g73
(dp3172
g100
g101
ssg82
g3161
sg75
(lp3173
S':'
asbag68
(g89
g70
NtRp3174
(dp3175
g73
(dp3176
sg82
g3161
sg75
(lp3177
g68
(g69
g70
NtRp3178
(dp3179
g73
(dp3180
g81
I4
ssg82
g3174
sg75
(lp3181
S'62452646-3c14-4294-8321-0c697a202698'
p3182
asbasbasbag68
(g84
g70
NtRp3183
(dp3184
g73
(dp3185
sg82
g3135
sg75
(lp3186
g68
(g89
g70
NtRp3187
(dp3188
g73
(dp3189
g93
g94
ssg82
g3183
sg75
(lp3190
S'last_visit'
p3191
asbag68
(g89
g70
NtRp3192
(dp3193
g73
(dp3194
g100
g101
ssg82
g3183
sg75
(lp3195
S':'
asbag68
(g89
g70
NtRp3196
(dp3197
g73
(dp3198
sg82
g3183
sg75
(lp3199
g68
(g69
g70
NtRp3200
(dp3201
g73
(dp3202
g81
I4
ssg82
g3196
sg75
(lp3203
S'datetime.datetime(2011, 10, 28, 17, 29, 51, 129474)'
p3204
asbasbasbag68
(g84
g70
NtRp3205
(dp3206
g73
(dp3207
sg82
g3135
sg75
(lp3208
g68
(g89
g70
NtRp3209
(dp3210
g73
(dp3211
g93
g94
ssg82
g3205
sg75
(lp3212
S'remember'
p3213
asbag68
(g89
g70
NtRp3214
(dp3215
g73
(dp3216
g100
g101
ssg82
g3205
sg75
(lp3217
S':'
asbag68
(g89
g70
NtRp3218
(dp3219
g73
(dp3220
sg82
g3205
sg75
(lp3221
g68
(g69
g70
NtRp3222
(dp3223
g73
(dp3224
g81
I4
ssg82
g3218
sg75
(lp3225
g111
asbasbasbag68
(g84
g70
NtRp3226
(dp3227
g73
(dp3228
sg82
g3135
sg75
(lp3229
g68
(g89
g70
NtRp3230
(dp3231
g73
(dp3232
g93
g94
ssg82
g3226
sg75
(lp3233
S'user'
p3234
asbag68
(g89
g70
NtRp3235
(dp3236
g73
(dp3237
g100
g101
ssg82
g3226
sg75
(lp3238
S':'
asbag68
(g89
g70
NtRp3239
(dp3240
g73
(dp3241
sg82
g3226
sg75
(lp3242
g68
(g69
g70
NtRp3243
(dp3244
g73
(dp3245
g81
I4
ssg82
g3239
sg75
(lp3246
g68
(g77
g70
NtRp3247
(dp3248
g73
(dp3249
g81
I3
ssg82
Nsg75
(lp3250
g68
(g84
g70
NtRp3251
(dp3252
g73
(dp3253
sg82
g3247
sg75
(lp3254
g68
(g89
g70
NtRp3255
(dp3256
g73
(dp3257
g93
g94
ssg82
g3251
sg75
(lp3258
S'email'
p3259
asbag68
(g89
g70
NtRp3260
(dp3261
g73
(dp3262
g100
g101
ssg82
g3251
sg75
(lp3263
S':'
asbag68
(g89
g70
NtRp3264
(dp3265
g73
(dp3266
sg82
g3251
sg75
(lp3267
g68
(g69
g70
NtRp3268
(dp3269
g73
(dp3270
g81
I3
ssg82
g3264
sg75
(lp3271
S'scottianw@gmail.com'
p3272
asbasbasbag68
(g84
g70
NtRp3273
(dp3274
g73
(dp3275
sg82
g3247
sg75
(lp3276
g68
(g89
g70
NtRp3277
(dp3278
g73
(dp3279
g93
g94
ssg82
g3273
sg75
(lp3280
S'first_name'
p3281
asbag68
(g89
g70
NtRp3282
(dp3283
g73
(dp3284
g100
g101
ssg82
g3273
sg75
(lp3285
S':'
asbag68
(g89
g70
NtRp3286
(dp3287
g73
(dp3288
sg82
g3273
sg75
(lp3289
g68
(g69
g70
NtRp3290
(dp3291
g73
(dp3292
g81
I3
ssg82
g3286
sg75
(lp3293
S'Ian'
p3294
asbasbasbag68
(g84
g70
NtRp3295
(dp3296
g73
(dp3297
sg82
g3247
sg75
(lp3298
g68
(g89
g70
NtRp3299
(dp3300
g73
(dp3301
g93
g94
ssg82
g3295
sg75
(lp3302
S'id'
p3303
asbag68
(g89
g70
NtRp3304
(dp3305
g73
(dp3306
g100
g101
ssg82
g3295
sg75
(lp3307
S':'
asbag68
(g89
g70
NtRp3308
(dp3309
g73
(dp3310
sg82
g3295
sg75
(lp3311
g68
(g69
g70
NtRp3312
(dp3313
g73
(dp3314
g81
I3
ssg82
g3308
sg75
(lp3315
S'2'
asbasbasbag68
(g84
g70
NtRp3316
(dp3317
g73
(dp3318
sg82
g3247
sg75
(lp3319
g68
(g89
g70
NtRp3320
(dp3321
g73
(dp3322
g93
g94
ssg82
g3316
sg75
(lp3323
S'last_name'
p3324
asbag68
(g89
g70
NtRp3325
(dp3326
g73
(dp3327
g100
g101
ssg82
g3316
sg75
(lp3328
S':'
asbag68
(g89
g70
NtRp3329
(dp3330
g73
(dp3331
sg82
g3316
sg75
(lp3332
g68
(g69
g70
NtRp3333
(dp3334
g73
(dp3335
g81
I3
ssg82
g3329
sg75
(lp3336
S'Scott'
p3337
asbasbasbag68
(g84
g70
NtRp3338
(dp3339
g73
(dp3340
sg82
g3247
sg75
(lp3341
g68
(g89
g70
NtRp3342
(dp3343
g73
(dp3344
g93
g94
ssg82
g3338
sg75
(lp3345
S'password'
p3346
asbag68
(g89
g70
NtRp3347
(dp3348
g73
(dp3349
g100
g101
ssg82
g3338
sg75
(lp3350
S':'
asbag68
(g89
g70
NtRp3351
(dp3352
g73
(dp3353
sg82
g3338
sg75
(lp3354
g68
(g69
g70
NtRp3355
(dp3356
g73
(dp3357
g81
I3
ssg82
g3351
sg75
(lp3358
S'19738f1e9a2c8eaac81936a86bf608a1a6995e02f527fa31723cb88a2e513a1efae33471354a02805bf25ea2ea17a59c025a5fc8eca6b3bb2137bda74e538737'
p3359
asbasbasbag68
(g84
g70
NtRp3360
(dp3361
g73
(dp3362
sg82
g3247
sg75
(lp3363
g68
(g89
g70
NtRp3364
(dp3365
g73
(dp3366
g93
g94
ssg82
g3360
sg75
(lp3367
S'registration_key'
p3368
asbag68
(g89
g70
NtRp3369
(dp3370
g73
(dp3371
g100
g101
ssg82
g3360
sg75
(lp3372
S':'
asbag68
(g89
g70
NtRp3373
(dp3374
g73
(dp3375
sg82
g3360
sg75
(lp3376
g68
(g69
g70
NtRp3377
(dp3378
g73
(dp3379
g81
I3
ssg82
g3373
sg75
(lp3380
S''
asbasbasbag68
(g84
g70
NtRp3381
(dp3382
g73
(dp3383
sg82
g3247
sg75
(lp3384
g68
(g89
g70
NtRp3385
(dp3386
g73
(dp3387
g93
g94
ssg82
g3381
sg75
(lp3388
S'reset_password_key'
p3389
asbag68
(g89
g70
NtRp3390
(dp3391
g73
(dp3392
g100
g101
ssg82
g3381
sg75
(lp3393
S':'
asbag68
(g89
g70
NtRp3394
(dp3395
g73
(dp3396
sg82
g3381
sg75
(lp3397
g68
(g69
g70
NtRp3398
(dp3399
g73
(dp3400
g81
I3
ssg82
g3394
sg75
(lp3401
S''
asbasbasbasbasbasbasbasbasbasbasbag68
(g84
g70
NtRp3402
(dp3403
g73
(dp3404
sg82
g3110
sg75
(lp3405
g68
(g89
g70
NtRp3406
(dp3407
g73
(dp3408
g93
g94
ssg82
g3402
sg75
(lp3409
S'debug'
p3410
asbag68
(g89
g70
NtRp3411
(dp3412
g73
(dp3413
g100
g101
ssg82
g3402
sg75
(lp3414
S':'
asbag68
(g89
g70
NtRp3415
(dp3416
g73
(dp3417
sg82
g3402
sg75
(lp3418
g68
(g69
g70
NtRp3419
(dp3420
g73
(dp3421
g81
I5
ssg82
g3415
sg75
(lp3422
g68
(g77
g70
NtRp3423
(dp3424
g73
(dp3425
g81
I4
ssg82
Nsg75
(lp3426
g68
(g84
g70
NtRp3427
(dp3428
g73
(dp3429
sg82
g3423
sg75
(lp3430
g68
(g89
g70
NtRp3431
(dp3432
g73
(dp3433
g93
g94
ssg82
g3427
sg75
(lp3434
S'10'
p3435
asbag68
(g89
g70
NtRp3436
(dp3437
g73
(dp3438
g100
g101
ssg82
g3427
sg75
(lp3439
S':'
asbag68
(g89
g70
NtRp3440
(dp3441
g73
(dp3442
sg82
g3427
sg75
(lp3443
g68
(g69
g70
NtRp3444
(dp3445
g73
(dp3446
g81
I4
ssg82
g3440
sg75
(lp3447
g68
(g77
g70
NtRp3448
(dp3449
g73
(dp3450
g81
I3
ssg82
Nsg75
(lp3451
g68
(g84
g70
NtRp3452
(dp3453
g73
(dp3454
sg82
g3448
sg75
(lp3455
g68
(g89
g70
NtRp3456
(dp3457
g73
(dp3458
g93
g94
ssg82
g3452
sg75
(lp3459
S'the_count'
p3460
asbag68
(g89
g70
NtRp3461
(dp3462
g73
(dp3463
g100
g101
ssg82
g3452
sg75
(lp3464
S':'
asbag68
(g89
g70
NtRp3465
(dp3466
g73
(dp3467
sg82
g3452
sg75
(lp3468
g68
(g69
g70
NtRp3469
(dp3470
g73
(dp3471
g81
I3
ssg82
g3465
sg75
(lp3472
S'1'
asbasbasbag68
(g84
g70
NtRp3473
(dp3474
g73
(dp3475
sg82
g3448
sg75
(lp3476
g68
(g89
g70
NtRp3477
(dp3478
g73
(dp3479
g93
g94
ssg82
g3473
sg75
(lp3480
S'the_month'
p3481
asbag68
(g89
g70
NtRp3482
(dp3483
g73
(dp3484
g100
g101
ssg82
g3473
sg75
(lp3485
S':'
asbag68
(g89
g70
NtRp3486
(dp3487
g73
(dp3488
sg82
g3473
sg75
(lp3489
g68
(g69
g70
NtRp3490
(dp3491
g73
(dp3492
g81
I3
ssg82
g3486
sg75
(lp3493
S'October'
p3494
asbasbasbag68
(g84
g70
NtRp3495
(dp3496
g73
(dp3497
sg82
g3448
sg75
(lp3498
g68
(g89
g70
NtRp3499
(dp3500
g73
(dp3501
g93
g94
ssg82
g3495
sg75
(lp3502
S'the_week'
p3503
asbag68
(g89
g70
NtRp3504
(dp3505
g73
(dp3506
g100
g101
ssg82
g3495
sg75
(lp3507
S':'
asbag68
(g89
g70
NtRp3508
(dp3509
g73
(dp3510
sg82
g3495
sg75
(lp3511
g68
(g69
g70
NtRp3512
(dp3513
g73
(dp3514
g81
I3
ssg82
g3508
sg75
(lp3515
S'24'
p3516
asbasbasbasbasbasbasbasbasbasbasbasbasbsS'etype'
p3517
S"<type 'exceptions.SyntaxError'>"
p3518
sS'date'
p3519
S'Fri Oct 28 19:22:31 2011'
p3520
sS'response'
p3521
g68
(g69
g70
NtRp3522
(dp3523
g73
(dp3524
sg75
(lp3525
g68
(g77
g70
NtRp3526
(dp3527
g73
(dp3528
g81
I5
ssg82
Nsg75
(lp3529
g68
(g84
g70
NtRp3530
(dp3531
g73
(dp3532
sg82
g3526
sg75
(lp3533
g68
(g89
g70
NtRp3534
(dp3535
g73
(dp3536
g93
g94
ssg82
g3530
sg75
(lp3537
g179
asbag68
(g89
g70
NtRp3538
(dp3539
g73
(dp3540
g100
g101
ssg82
g3530
sg75
(lp3541
S':'
asbag68
(g89
g70
NtRp3542
(dp3543
g73
(dp3544
sg82
g3530
sg75
(lp3545
g68
(g69
g70
NtRp3546
(dp3547
g73
(dp3548
g81
I5
ssg82
g3542
sg75
(lp3549
S'<cStringIO.StringO object at 0x328e960>'
p3550
asbasbasbag68
(g84
g70
NtRp3551
(dp3552
g73
(dp3553
sg82
g3526
sg75
(lp3554
g68
(g89
g70
NtRp3555
(dp3556
g73
(dp3557
g93
g94
ssg82
g3551
sg75
(lp3558
g245
asbag68
(g89
g70
NtRp3559
(dp3560
g73
(dp3561
g100
g101
ssg82
g3551
sg75
(lp3562
S':'
asbag68
(g89
g70
NtRp3563
(dp3564
g73
(dp3565
sg82
g3551
sg75
(lp3566
g68
(g69
g70
NtRp3567
(dp3568
g73
(dp3569
g81
I5
ssg82
g3563
sg75
(lp3570
g68
(g77
g70
NtRp3571
(dp3572
g73
(dp3573
g81
I4
ssg82
Nsg75
(lp3574
g68
(g84
g70
NtRp3575
(dp3576
g73
(dp3577
sg82
g3571
sg75
(lp3578
g68
(g89
g70
NtRp3579
(dp3580
g73
(dp3581
g93
g94
ssg82
g3575
sg75
(lp3582
S'session_id_paideia'
p3583
asbag68
(g89
g70
NtRp3584
(dp3585
g73
(dp3586
g100
g101
ssg82
g3575
sg75
(lp3587
S':'
asbag68
(g89
g70
NtRp3588
(dp3589
g73
(dp3590
sg82
g3575
sg75
(lp3591
g68
(g69
g70
NtRp3592
(dp3593
g73
(dp3594
g81
I4
ssg82
g3588
sg75
(lp3595
g68
(g77
g70
NtRp3596
(dp3597
g73
(dp3598
g81
I3
ssg82
Nsg75
(lp3599
g68
(g84
g70
NtRp3600
(dp3601
g73
(dp3602
sg82
g3596
sg75
(lp3603
g68
(g89
g70
NtRp3604
(dp3605
g73
(dp3606
g93
g94
ssg82
g3600
sg75
(lp3607
g295
asbag68
(g89
g70
NtRp3608
(dp3609
g73
(dp3610
g100
g101
ssg82
g3600
sg75
(lp3611
S':'
asbag68
(g89
g70
NtRp3612
(dp3613
g73
(dp3614
sg82
g3600
sg75
(lp3615
g68
(g69
g70
NtRp3616
(dp3617
g73
(dp3618
g81
I3
ssg82
g3612
sg75
(lp3619
S''
asbasbasbag68
(g84
g70
NtRp3620
(dp3621
g73
(dp3622
sg82
g3596
sg75
(lp3623
g68
(g89
g70
NtRp3624
(dp3625
g73
(dp3626
g93
g94
ssg82
g3620
sg75
(lp3627
g316
asbag68
(g89
g70
NtRp3628
(dp3629
g73
(dp3630
g100
g101
ssg82
g3620
sg75
(lp3631
S':'
asbag68
(g89
g70
NtRp3632
(dp3633
g73
(dp3634
sg82
g3620
sg75
(lp3635
g68
(g69
g70
NtRp3636
(dp3637
g73
(dp3638
g81
I3
ssg82
g3632
sg75
(lp3639
S''
asbasbasbag68
(g84
g70
NtRp3640
(dp3641
g73
(dp3642
sg82
g3596
sg75
(lp3643
g68
(g89
g70
NtRp3644
(dp3645
g73
(dp3646
g93
g94
ssg82
g3640
sg75
(lp3647
g337
asbag68
(g89
g70
NtRp3648
(dp3649
g73
(dp3650
g100
g101
ssg82
g3640
sg75
(lp3651
S':'
asbag68
(g89
g70
NtRp3652
(dp3653
g73
(dp3654
sg82
g3640
sg75
(lp3655
g68
(g69
g70
NtRp3656
(dp3657
g73
(dp3658
g81
I3
ssg82
g3652
sg75
(lp3659
S''
asbasbasbag68
(g84
g70
NtRp3660
(dp3661
g73
(dp3662
sg82
g3596
sg75
(lp3663
g68
(g89
g70
NtRp3664
(dp3665
g73
(dp3666
g93
g94
ssg82
g3660
sg75
(lp3667
g358
asbag68
(g89
g70
NtRp3668
(dp3669
g73
(dp3670
g100
g101
ssg82
g3660
sg75
(lp3671
S':'
asbag68
(g89
g70
NtRp3672
(dp3673
g73
(dp3674
sg82
g3660
sg75
(lp3675
g68
(g69
g70
NtRp3676
(dp3677
g73
(dp3678
g81
I3
ssg82
g3672
sg75
(lp3679
S''
asbasbasbag68
(g84
g70
NtRp3680
(dp3681
g73
(dp3682
sg82
g3596
sg75
(lp3683
g68
(g89
g70
NtRp3684
(dp3685
g73
(dp3686
g93
g94
ssg82
g3680
sg75
(lp3687
g379
asbag68
(g89
g70
NtRp3688
(dp3689
g73
(dp3690
g100
g101
ssg82
g3680
sg75
(lp3691
S':'
asbag68
(g89
g70
NtRp3692
(dp3693
g73
(dp3694
sg82
g3680
sg75
(lp3695
g68
(g69
g70
NtRp3696
(dp3697
g73
(dp3698
g81
I3
ssg82
g3692
sg75
(lp3699
S''
asbasbasbag68
(g84
g70
NtRp3700
(dp3701
g73
(dp3702
sg82
g3596
sg75
(lp3703
g68
(g89
g70
NtRp3704
(dp3705
g73
(dp3706
g93
g94
ssg82
g3700
sg75
(lp3707
g400
asbag68
(g89
g70
NtRp3708
(dp3709
g73
(dp3710
g100
g101
ssg82
g3700
sg75
(lp3711
S':'
asbag68
(g89
g70
NtRp3712
(dp3713
g73
(dp3714
sg82
g3700
sg75
(lp3715
g68
(g69
g70
NtRp3716
(dp3717
g73
(dp3718
g81
I3
ssg82
g3712
sg75
(lp3719
S'/'
asbasbasbag68
(g84
g70
NtRp3720
(dp3721
g73
(dp3722
sg82
g3596
sg75
(lp3723
g68
(g89
g70
NtRp3724
(dp3725
g73
(dp3726
g93
g94
ssg82
g3720
sg75
(lp3727
g421
asbag68
(g89
g70
NtRp3728
(dp3729
g73
(dp3730
g100
g101
ssg82
g3720
sg75
(lp3731
S':'
asbag68
(g89
g70
NtRp3732
(dp3733
g73
(dp3734
sg82
g3720
sg75
(lp3735
g68
(g69
g70
NtRp3736
(dp3737
g73
(dp3738
g81
I3
ssg82
g3732
sg75
(lp3739
S''
asbasbasbag68
(g84
g70
NtRp3740
(dp3741
g73
(dp3742
sg82
g3596
sg75
(lp3743
g68
(g89
g70
NtRp3744
(dp3745
g73
(dp3746
g93
g94
ssg82
g3740
sg75
(lp3747
g442
asbag68
(g89
g70
NtRp3748
(dp3749
g73
(dp3750
g100
g101
ssg82
g3740
sg75
(lp3751
S':'
asbag68
(g89
g70
NtRp3752
(dp3753
g73
(dp3754
sg82
g3740
sg75
(lp3755
g68
(g69
g70
NtRp3756
(dp3757
g73
(dp3758
g81
I3
ssg82
g3752
sg75
(lp3759
S''
asbasbasbasbasbasbasbasbasbasbasbag68
(g84
g70
NtRp3760
(dp3761
g73
(dp3762
sg82
g3526
sg75
(lp3763
g68
(g89
g70
NtRp3764
(dp3765
g73
(dp3766
g93
g94
ssg82
g3760
sg75
(lp3767
S'files'
p3768
asbag68
(g89
g70
NtRp3769
(dp3770
g73
(dp3771
g100
g101
ssg82
g3760
sg75
(lp3772
S':'
asbag68
(g89
g70
NtRp3773
(dp3774
g73
(dp3775
sg82
g3760
sg75
(lp3776
g68
(g69
g70
NtRp3777
(dp3778
g73
(dp3779
g81
I5
ssg82
g3773
sg75
(lp3780
g68
(g77
g70
NtRp3781
(dp3782
g73
(dp3783
g81
I4
ssg82
Nsg75
(lp3784
sbasbasbasbag68
(g84
g70
NtRp3785
(dp3786
g73
(dp3787
sg82
g3526
sg75
(lp3788
g68
(g89
g70
NtRp3789
(dp3790
g73
(dp3791
g93
g94
ssg82
g3785
sg75
(lp3792
S'flash'
p3793
asbag68
(g89
g70
NtRp3794
(dp3795
g73
(dp3796
g100
g101
ssg82
g3785
sg75
(lp3797
S':'
asbag68
(g89
g70
NtRp3798
(dp3799
g73
(dp3800
sg82
g3785
sg75
(lp3801
g68
(g69
g70
NtRp3802
(dp3803
g73
(dp3804
g81
I5
ssg82
g3798
sg75
(lp3805
S''
asbasbasbag68
(g84
g70
NtRp3806
(dp3807
g73
(dp3808
sg82
g3526
sg75
(lp3809
g68
(g89
g70
NtRp3810
(dp3811
g73
(dp3812
g93
g94
ssg82
g3806
sg75
(lp3813
S'generic_patterns'
p3814
asbag68
(g89
g70
NtRp3815
(dp3816
g73
(dp3817
g100
g101
ssg82
g3806
sg75
(lp3818
S':'
asbag68
(g89
g70
NtRp3819
(dp3820
g73
(dp3821
sg82
g3806
sg75
(lp3822
g68
(g69
g70
NtRp3823
(dp3824
g73
(dp3825
g81
I5
ssg82
g3819
sg75
(lp3826
g68
(g77
g70
NtRp3827
(dp3828
g73
(dp3829
g81
I4
ssg82
Nsg75
(lp3830
g68
(g84
g70
NtRp3831
(dp3832
g73
(dp3833
sg82
g3827
sg75
(lp3834
g68
(g89
g70
NtRp3835
(dp3836
g73
(dp3837
sg82
g3831
sg75
(lp3838
g68
(g69
g70
NtRp3839
(dp3840
g73
(dp3841
g81
I4
ssg82
g3835
sg75
(lp3842
S'*'
asbasbasbasbasbasbasbag68
(g84
g70
NtRp3843
(dp3844
g73
(dp3845
sg82
g3526
sg75
(lp3846
g68
(g89
g70
NtRp3847
(dp3848
g73
(dp3849
g93
g94
ssg82
g3843
sg75
(lp3850
S'headers'
p3851
asbag68
(g89
g70
NtRp3852
(dp3853
g73
(dp3854
g100
g101
ssg82
g3843
sg75
(lp3855
S':'
asbag68
(g89
g70
NtRp3856
(dp3857
g73
(dp3858
sg82
g3843
sg75
(lp3859
g68
(g69
g70
NtRp3860
(dp3861
g73
(dp3862
g81
I5
ssg82
g3856
sg75
(lp3863
g68
(g77
g70
NtRp3864
(dp3865
g73
(dp3866
g81
I4
ssg82
Nsg75
(lp3867
g68
(g84
g70
NtRp3868
(dp3869
g73
(dp3870
sg82
g3864
sg75
(lp3871
g68
(g89
g70
NtRp3872
(dp3873
g73
(dp3874
g93
g94
ssg82
g3868
sg75
(lp3875
S'Cache-Control'
p3876
asbag68
(g89
g70
NtRp3877
(dp3878
g73
(dp3879
g100
g101
ssg82
g3868
sg75
(lp3880
S':'
asbag68
(g89
g70
NtRp3881
(dp3882
g73
(dp3883
sg82
g3868
sg75
(lp3884
g68
(g69
g70
NtRp3885
(dp3886
g73
(dp3887
g81
I4
ssg82
g3881
sg75
(lp3888
S'no-store, no-cache, must-revalidate, post-check=0, pre-check=0'
p3889
asbasbasbag68
(g84
g70
NtRp3890
(dp3891
g73
(dp3892
sg82
g3864
sg75
(lp3893
g68
(g89
g70
NtRp3894
(dp3895
g73
(dp3896
g93
g94
ssg82
g3890
sg75
(lp3897
S'Content-Type'
p3898
asbag68
(g89
g70
NtRp3899
(dp3900
g73
(dp3901
g100
g101
ssg82
g3890
sg75
(lp3902
S':'
asbag68
(g89
g70
NtRp3903
(dp3904
g73
(dp3905
sg82
g3890
sg75
(lp3906
g68
(g69
g70
NtRp3907
(dp3908
g73
(dp3909
g81
I4
ssg82
g3903
sg75
(lp3910
S'text/html; charset=utf-8'
p3911
asbasbasbag68
(g84
g70
NtRp3912
(dp3913
g73
(dp3914
sg82
g3864
sg75
(lp3915
g68
(g89
g70
NtRp3916
(dp3917
g73
(dp3918
g93
g94
ssg82
g3912
sg75
(lp3919
S'Expires'
p3920
asbag68
(g89
g70
NtRp3921
(dp3922
g73
(dp3923
g100
g101
ssg82
g3912
sg75
(lp3924
S':'
asbag68
(g89
g70
NtRp3925
(dp3926
g73
(dp3927
sg82
g3912
sg75
(lp3928
g68
(g69
g70
NtRp3929
(dp3930
g73
(dp3931
g81
I4
ssg82
g3925
sg75
(lp3932
S'Fri, 28 Oct 2011 23:22:31 GMT'
p3933
asbasbasbag68
(g84
g70
NtRp3934
(dp3935
g73
(dp3936
sg82
g3864
sg75
(lp3937
g68
(g89
g70
NtRp3938
(dp3939
g73
(dp3940
g93
g94
ssg82
g3934
sg75
(lp3941
S'Pragma'
p3942
asbag68
(g89
g70
NtRp3943
(dp3944
g73
(dp3945
g100
g101
ssg82
g3934
sg75
(lp3946
S':'
asbag68
(g89
g70
NtRp3947
(dp3948
g73
(dp3949
sg82
g3934
sg75
(lp3950
g68
(g69
g70
NtRp3951
(dp3952
g73
(dp3953
g81
I4
ssg82
g3947
sg75
(lp3954
S'no-cache'
p3955
asbasbasbag68
(g84
g70
NtRp3956
(dp3957
g73
(dp3958
sg82
g3864
sg75
(lp3959
g68
(g89
g70
NtRp3960
(dp3961
g73
(dp3962
g93
g94
ssg82
g3956
sg75
(lp3963
S'X-Powered-By'
p3964
asbag68
(g89
g70
NtRp3965
(dp3966
g73
(dp3967
g100
g101
ssg82
g3956
sg75
(lp3968
S':'
asbag68
(g89
g70
NtRp3969
(dp3970
g73
(dp3971
sg82
g3956
sg75
(lp3972
g68
(g69
g70
NtRp3973
(dp3974
g73
(dp3975
g81
I4
ssg82
g3969
sg75
(lp3976
S'web2py'
p3977
asbasbasbasbasbasbasbag68
(g84
g70
NtRp3978
(dp3979
g73
(dp3980
sg82
g3526
sg75
(lp3981
g68
(g89
g70
NtRp3982
(dp3983
g73
(dp3984
g93
g94
ssg82
g3978
sg75
(lp3985
S'menu'
p3986
asbag68
(g89
g70
NtRp3987
(dp3988
g73
(dp3989
g100
g101
ssg82
g3978
sg75
(lp3990
S':'
asbag68
(g89
g70
NtRp3991
(dp3992
g73
(dp3993
sg82
g3978
sg75
(lp3994
g68
(g69
g70
NtRp3995
(dp3996
g73
(dp3997
g81
I5
ssg82
g3991
sg75
(lp3998
g68
(g77
g70
NtRp3999
(dp4000
g73
(dp4001
g81
I4
ssg82
Nsg75
(lp4002
g68
(g84
g70
NtRp4003
(dp4004
g73
(dp4005
sg82
g3999
sg75
(lp4006
g68
(g89
g70
NtRp4007
(dp4008
g73
(dp4009
sg82
g4003
sg75
(lp4010
g68
(g69
g70
NtRp4011
(dp4012
g73
(dp4013
g81
I4
ssg82
g4007
sg75
(lp4014
g68
(g77
g70
NtRp4015
(dp4016
g73
(dp4017
g81
I3
ssg82
Nsg75
(lp4018
g68
(g84
g70
NtRp4019
(dp4020
g73
(dp4021
sg82
g4015
sg75
(lp4022
g68
(g89
g70
NtRp4023
(dp4024
g73
(dp4025
sg82
g4019
sg75
(lp4026
g68
(g69
g70
NtRp4027
(dp4028
g73
(dp4029
g81
I3
ssg82
g4023
sg75
(lp4030
cgluon.languages
lazyT_unpickle
p4031
(S't\x04\x00\x00\x00Home'
tRp4032
asbasbasbag68
(g84
g70
NtRp4033
(dp4034
g73
(dp4035
sg82
g4015
sg75
(lp4036
g68
(g89
g70
NtRp4037
(dp4038
g73
(dp4039
sg82
g4033
sg75
(lp4040
g68
(g69
g70
NtRp4041
(dp4042
g73
(dp4043
g81
I3
ssg82
g4037
sg75
(lp4044
g111
asbasbasbag68
(g84
g70
NtRp4045
(dp4046
g73
(dp4047
sg82
g4015
sg75
(lp4048
g68
(g89
g70
NtRp4049
(dp4050
g73
(dp4051
sg82
g4045
sg75
(lp4052
g68
(g69
g70
NtRp4053
(dp4054
g73
(dp4055
g81
I3
ssg82
g4049
sg75
(lp4056
S'/paideia/default/index'
p4057
asbasbasbag68
(g84
g70
NtRp4058
(dp4059
g73
(dp4060
sg82
g4015
sg75
(lp4061
g68
(g89
g70
NtRp4062
(dp4063
g73
(dp4064
sg82
g4058
sg75
(lp4065
g68
(g69
g70
NtRp4066
(dp4067
g73
(dp4068
g81
I3
ssg82
g4062
sg75
(lp4069
g68
(g77
g70
NtRp4070
(dp4071
g73
(dp4072
g81
I2
ssg82
Nsg75
(lp4073
sbasbasbasbasbasbasbasbag68
(g84
g70
NtRp4074
(dp4075
g73
(dp4076
sg82
g3999
sg75
(lp4077
g68
(g89
g70
NtRp4078
(dp4079
g73
(dp4080
sg82
g4074
sg75
(lp4081
g68
(g69
g70
NtRp4082
(dp4083
g73
(dp4084
g81
I4
ssg82
g4078
sg75
(lp4085
g68
(g77
g70
NtRp4086
(dp4087
g73
(dp4088
g81
I3
ssg82
Nsg75
(lp4089
g68
(g84
g70
NtRp4090
(dp4091
g73
(dp4092
sg82
g4086
sg75
(lp4093
g68
(g89
g70
NtRp4094
(dp4095
g73
(dp4096
sg82
g4090
sg75
(lp4097
g68
(g69
g70
NtRp4098
(dp4099
g73
(dp4100
g81
I3
ssg82
g4094
sg75
(lp4101
g4031
(S't\x05\x00\x00\x00Admin'
tRp4102
asbasbasbag68
(g84
g70
NtRp4103
(dp4104
g73
(dp4105
sg82
g4086
sg75
(lp4106
g68
(g89
g70
NtRp4107
(dp4108
g73
(dp4109
sg82
g4103
sg75
(lp4110
g68
(g69
g70
NtRp4111
(dp4112
g73
(dp4113
g81
I3
ssg82
g4107
sg75
(lp4114
g111
asbasbasbag68
(g84
g70
NtRp4115
(dp4116
g73
(dp4117
sg82
g4086
sg75
(lp4118
g68
(g89
g70
NtRp4119
(dp4120
g73
(dp4121
sg82
g4115
sg75
(lp4122
g68
(g69
g70
NtRp4123
(dp4124
g73
(dp4125
g81
I3
ssg82
g4119
sg75
(lp4126
S'None'
p4127
asbasbasbag68
(g84
g70
NtRp4128
(dp4129
g73
(dp4130
sg82
g4086
sg75
(lp4131
g68
(g89
g70
NtRp4132
(dp4133
g73
(dp4134
sg82
g4128
sg75
(lp4135
g68
(g69
g70
NtRp4136
(dp4137
g73
(dp4138
g81
I3
ssg82
g4132
sg75
(lp4139
g68
(g77
g70
NtRp4140
(dp4141
g73
(dp4142
g81
I2
ssg82
Nsg75
(lp4143
g68
(g84
g70
NtRp4144
(dp4145
g73
(dp4146
sg82
g4140
sg75
(lp4147
g68
(g89
g70
NtRp4148
(dp4149
g73
(dp4150
sg82
g4144
sg75
(lp4151
g68
(g69
g70
NtRp4152
(dp4153
g73
(dp4154
g81
I2
ssg82
g4148
sg75
(lp4155
g68
(g77
g70
NtRp4156
(dp4157
g73
(dp4158
g81
I1
ssg82
Nsg75
(lp4159
g68
(g84
g70
NtRp4160
(dp4161
g73
(dp4162
sg82
g4156
sg75
(lp4163
g68
(g89
g70
NtRp4164
(dp4165
g73
(dp4166
sg82
g4160
sg75
(lp4167
g68
(g69
g70
NtRp4168
(dp4169
g73
(dp4170
g81
I1
ssg82
g4164
sg75
(lp4171
g4031
(S't\x06\x00\x00\x00Design'
tRp4172
asbasbasbag68
(g84
g70
NtRp4173
(dp4174
g73
(dp4175
sg82
g4156
sg75
(lp4176
g68
(g89
g70
NtRp4177
(dp4178
g73
(dp4179
sg82
g4173
sg75
(lp4180
g68
(g69
g70
NtRp4181
(dp4182
g73
(dp4183
g81
I1
ssg82
g4177
sg75
(lp4184
I00
asbasbasbag68
(g84
g70
NtRp4185
(dp4186
g73
(dp4187
sg82
g4156
sg75
(lp4188
g68
(g89
g70
NtRp4189
(dp4190
g73
(dp4191
sg82
g4185
sg75
(lp4192
g68
(g69
g70
NtRp4193
(dp4194
g73
(dp4195
g81
I1
ssg82
g4189
sg75
(lp4196
S'/admin/default/index'
p4197
asbasbasbasbasbasbasbag68
(g84
g70
NtRp4198
(dp4199
g73
(dp4200
sg82
g4140
sg75
(lp4201
g68
(g89
g70
NtRp4202
(dp4203
g73
(dp4204
sg82
g4198
sg75
(lp4205
g68
(g69
g70
NtRp4206
(dp4207
g73
(dp4208
g81
I2
ssg82
g4202
sg75
(lp4209
g68
(g77
g70
NtRp4210
(dp4211
g73
(dp4212
g81
I1
ssg82
Nsg75
(lp4213
g68
(g84
g70
NtRp4214
(dp4215
g73
(dp4216
sg82
g4210
sg75
(lp4217
g68
(g89
g70
NtRp4218
(dp4219
g73
(dp4220
sg82
g4214
sg75
(lp4221
g68
(g69
g70
NtRp4222
(dp4223
g73
(dp4224
g81
I1
ssg82
g4218
sg75
(lp4225
g4031
(S't\x08\x00\x00\x00Database'
tRp4226
asbasbasbag68
(g84
g70
NtRp4227
(dp4228
g73
(dp4229
sg82
g4210
sg75
(lp4230
g68
(g89
g70
NtRp4231
(dp4232
g73
(dp4233
sg82
g4227
sg75
(lp4234
g68
(g69
g70
NtRp4235
(dp4236
g73
(dp4237
g81
I1
ssg82
g4231
sg75
(lp4238
I00
asbasbasbag68
(g84
g70
NtRp4239
(dp4240
g73
(dp4241
sg82
g4210
sg75
(lp4242
g68
(g89
g70
NtRp4243
(dp4244
g73
(dp4245
sg82
g4239
sg75
(lp4246
g68
(g69
g70
NtRp4247
(dp4248
g73
(dp4249
g81
I1
ssg82
g4243
sg75
(lp4250
S'/paideia/appadmin/index'
p4251
asbasbasbasbasbasbasbag68
(g84
g70
NtRp4252
(dp4253
g73
(dp4254
sg82
g4140
sg75
(lp4255
g68
(g89
g70
NtRp4256
(dp4257
g73
(dp4258
sg82
g4252
sg75
(lp4259
g68
(g69
g70
NtRp4260
(dp4261
g73
(dp4262
g81
I2
ssg82
g4256
sg75
(lp4263
g68
(g77
g70
NtRp4264
(dp4265
g73
(dp4266
g81
I1
ssg82
Nsg75
(lp4267
g68
(g84
g70
NtRp4268
(dp4269
g73
(dp4270
sg82
g4264
sg75
(lp4271
g68
(g89
g70
NtRp4272
(dp4273
g73
(dp4274
sg82
g4268
sg75
(lp4275
g68
(g69
g70
NtRp4276
(dp4277
g73
(dp4278
g81
I1
ssg82
g4272
sg75
(lp4279
g4031
(S't\x05\x00\x00\x00Users'
tRp4280
asbasbasbag68
(g84
g70
NtRp4281
(dp4282
g73
(dp4283
sg82
g4264
sg75
(lp4284
g68
(g89
g70
NtRp4285
(dp4286
g73
(dp4287
sg82
g4281
sg75
(lp4288
g68
(g69
g70
NtRp4289
(dp4290
g73
(dp4291
g81
I1
ssg82
g4285
sg75
(lp4292
I00
asbasbasbag68
(g84
g70
NtRp4293
(dp4294
g73
(dp4295
sg82
g4264
sg75
(lp4296
g68
(g89
g70
NtRp4297
(dp4298
g73
(dp4299
sg82
g4293
sg75
(lp4300
g68
(g69
g70
NtRp4301
(dp4302
g73
(dp4303
g81
I1
ssg82
g4297
sg75
(lp4304
S'/paideia/listing/user'
p4305
asbasbasbasbasbasbasbag68
(g84
g70
NtRp4306
(dp4307
g73
(dp4308
sg82
g4140
sg75
(lp4309
g68
(g89
g70
NtRp4310
(dp4311
g73
(dp4312
sg82
g4306
sg75
(lp4313
g68
(g69
g70
NtRp4314
(dp4315
g73
(dp4316
g81
I2
ssg82
g4310
sg75
(lp4317
g68
(g77
g70
NtRp4318
(dp4319
g73
(dp4320
g81
I1
ssg82
Nsg75
(lp4321
g68
(g84
g70
NtRp4322
(dp4323
g73
(dp4324
sg82
g4318
sg75
(lp4325
g68
(g89
g70
NtRp4326
(dp4327
g73
(dp4328
sg82
g4322
sg75
(lp4329
g68
(g69
g70
NtRp4330
(dp4331
g73
(dp4332
g81
I1
ssg82
g4326
sg75
(lp4333
g4031
(S't\t\x00\x00\x00Questions'
tRp4334
asbasbasbag68
(g84
g70
NtRp4335
(dp4336
g73
(dp4337
sg82
g4318
sg75
(lp4338
g68
(g89
g70
NtRp4339
(dp4340
g73
(dp4341
sg82
g4335
sg75
(lp4342
g68
(g69
g70
NtRp4343
(dp4344
g73
(dp4345
g81
I1
ssg82
g4339
sg75
(lp4346
I00
asbasbasbag68
(g84
g70
NtRp4347
(dp4348
g73
(dp4349
sg82
g4318
sg75
(lp4350
g68
(g89
g70
NtRp4351
(dp4352
g73
(dp4353
sg82
g4347
sg75
(lp4354
g68
(g69
g70
NtRp4355
(dp4356
g73
(dp4357
g81
I1
ssg82
g4351
sg75
(lp4358
S'/paideia/listing/question'
p4359
asbasbasbasbasbasbasbag68
(g84
g70
NtRp4360
(dp4361
g73
(dp4362
sg82
g4140
sg75
(lp4363
g68
(g89
g70
NtRp4364
(dp4365
g73
(dp4366
sg82
g4360
sg75
(lp4367
g68
(g69
g70
NtRp4368
(dp4369
g73
(dp4370
g81
I2
ssg82
g4364
sg75
(lp4371
g68
(g77
g70
NtRp4372
(dp4373
g73
(dp4374
g81
I1
ssg82
Nsg75
(lp4375
g68
(g84
g70
NtRp4376
(dp4377
g73
(dp4378
sg82
g4372
sg75
(lp4379
g68
(g89
g70
NtRp4380
(dp4381
g73
(dp4382
sg82
g4376
sg75
(lp4383
g68
(g69
g70
NtRp4384
(dp4385
g73
(dp4386
g81
I1
ssg82
g4380
sg75
(lp4387
g4031
(S't\x07\x00\x00\x00Quizzes'
tRp4388
asbasbasbag68
(g84
g70
NtRp4389
(dp4390
g73
(dp4391
sg82
g4372
sg75
(lp4392
g68
(g89
g70
NtRp4393
(dp4394
g73
(dp4395
sg82
g4389
sg75
(lp4396
g68
(g69
g70
NtRp4397
(dp4398
g73
(dp4399
g81
I1
ssg82
g4393
sg75
(lp4400
I00
asbasbasbag68
(g84
g70
NtRp4401
(dp4402
g73
(dp4403
sg82
g4372
sg75
(lp4404
g68
(g89
g70
NtRp4405
(dp4406
g73
(dp4407
sg82
g4401
sg75
(lp4408
g68
(g69
g70
NtRp4409
(dp4410
g73
(dp4411
g81
I1
ssg82
g4405
sg75
(lp4412
S'/paideia/listing/quiz'
p4413
asbasbasbasbasbasbasbag68
(g84
g70
NtRp4414
(dp4415
g73
(dp4416
sg82
g4140
sg75
(lp4417
g68
(g89
g70
NtRp4418
(dp4419
g73
(dp4420
sg82
g4414
sg75
(lp4421
g68
(g69
g70
NtRp4422
(dp4423
g73
(dp4424
g81
I2
ssg82
g4418
sg75
(lp4425
g68
(g77
g70
NtRp4426
(dp4427
g73
(dp4428
g81
I1
ssg82
Nsg75
(lp4429
g68
(g84
g70
NtRp4430
(dp4431
g73
(dp4432
sg82
g4426
sg75
(lp4433
g68
(g89
g70
NtRp4434
(dp4435
g73
(dp4436
sg82
g4430
sg75
(lp4437
g68
(g69
g70
NtRp4438
(dp4439
g73
(dp4440
g81
I1
ssg82
g4434
sg75
(lp4441
g4031
(S't\x04\x00\x00\x00Tags'
tRp4442
asbasbasbag68
(g84
g70
NtRp4443
(dp4444
g73
(dp4445
sg82
g4426
sg75
(lp4446
g68
(g89
g70
NtRp4447
(dp4448
g73
(dp4449
sg82
g4443
sg75
(lp4450
g68
(g69
g70
NtRp4451
(dp4452
g73
(dp4453
g81
I1
ssg82
g4447
sg75
(lp4454
I00
asbasbasbag68
(g84
g70
NtRp4455
(dp4456
g73
(dp4457
sg82
g4426
sg75
(lp4458
g68
(g89
g70
NtRp4459
(dp4460
g73
(dp4461
sg82
g4455
sg75
(lp4462
g68
(g69
g70
NtRp4463
(dp4464
g73
(dp4465
g81
I1
ssg82
g4459
sg75
(lp4466
S'/paideia/listing/tag'
p4467
asbasbasbasbasbasbasbasbasbasbasbasbasbasbasbasbasbasbasbag68
(g84
g70
NtRp4468
(dp4469
g73
(dp4470
sg82
g3526
sg75
(lp4471
g68
(g89
g70
NtRp4472
(dp4473
g73
(dp4474
g93
g94
ssg82
g4468
sg75
(lp4475
S'meta'
p4476
asbag68
(g89
g70
NtRp4477
(dp4478
g73
(dp4479
g100
g101
ssg82
g4468
sg75
(lp4480
S':'
asbag68
(g89
g70
NtRp4481
(dp4482
g73
(dp4483
sg82
g4468
sg75
(lp4484
g68
(g69
g70
NtRp4485
(dp4486
g73
(dp4487
g81
I5
ssg82
g4481
sg75
(lp4488
g68
(g77
g70
NtRp4489
(dp4490
g73
(dp4491
g81
I4
ssg82
Nsg75
(lp4492
g68
(g84
g70
NtRp4493
(dp4494
g73
(dp4495
sg82
g4489
sg75
(lp4496
g68
(g89
g70
NtRp4497
(dp4498
g73
(dp4499
g93
g94
ssg82
g4493
sg75
(lp4500
S'author'
p4501
asbag68
(g89
g70
NtRp4502
(dp4503
g73
(dp4504
g100
g101
ssg82
g4493
sg75
(lp4505
S':'
asbag68
(g89
g70
NtRp4506
(dp4507
g73
(dp4508
sg82
g4493
sg75
(lp4509
g68
(g69
g70
NtRp4510
(dp4511
g73
(dp4512
g81
I4
ssg82
g4506
sg75
(lp4513
S'Ian W. Scott'
p4514
asbasbasbag68
(g84
g70
NtRp4515
(dp4516
g73
(dp4517
sg82
g4489
sg75
(lp4518
g68
(g89
g70
NtRp4519
(dp4520
g73
(dp4521
g93
g94
ssg82
g4515
sg75
(lp4522
S'copyright'
p4523
asbag68
(g89
g70
NtRp4524
(dp4525
g73
(dp4526
g100
g101
ssg82
g4515
sg75
(lp4527
S':'
asbag68
(g89
g70
NtRp4528
(dp4529
g73
(dp4530
sg82
g4515
sg75
(lp4531
g68
(g69
g70
NtRp4532
(dp4533
g73
(dp4534
g81
I4
ssg82
g4528
sg75
(lp4535
S'Copyright 2011'
p4536
asbasbasbag68
(g84
g70
NtRp4537
(dp4538
g73
(dp4539
sg82
g4489
sg75
(lp4540
g68
(g89
g70
NtRp4541
(dp4542
g73
(dp4543
g93
g94
ssg82
g4537
sg75
(lp4544
S'description'
p4545
asbag68
(g89
g70
NtRp4546
(dp4547
g73
(dp4548
g100
g101
ssg82
g4537
sg75
(lp4549
S':'
asbag68
(g89
g70
NtRp4550
(dp4551
g73
(dp4552
sg82
g4537
sg75
(lp4553
g68
(g69
g70
NtRp4554
(dp4555
g73
(dp4556
g81
I4
ssg82
g4550
sg75
(lp4557
S'An online space for learning New Testament Greek'
p4558
asbasbasbag68
(g84
g70
NtRp4559
(dp4560
g73
(dp4561
sg82
g4489
sg75
(lp4562
g68
(g89
g70
NtRp4563
(dp4564
g73
(dp4565
g93
g94
ssg82
g4559
sg75
(lp4566
S'generator'
p4567
asbag68
(g89
g70
NtRp4568
(dp4569
g73
(dp4570
g100
g101
ssg82
g4559
sg75
(lp4571
S':'
asbag68
(g89
g70
NtRp4572
(dp4573
g73
(dp4574
sg82
g4559
sg75
(lp4575
g68
(g69
g70
NtRp4576
(dp4577
g73
(dp4578
g81
I4
ssg82
g4572
sg75
(lp4579
S'Web2py Enterprise Framework'
p4580
asbasbasbag68
(g84
g70
NtRp4581
(dp4582
g73
(dp4583
sg82
g4489
sg75
(lp4584
g68
(g89
g70
NtRp4585
(dp4586
g73
(dp4587
g93
g94
ssg82
g4581
sg75
(lp4588
S'keywords'
p4589
asbag68
(g89
g70
NtRp4590
(dp4591
g73
(dp4592
g100
g101
ssg82
g4581
sg75
(lp4593
S':'
asbag68
(g89
g70
NtRp4594
(dp4595
g73
(dp4596
sg82
g4581
sg75
(lp4597
g68
(g69
g70
NtRp4598
(dp4599
g73
(dp4600
g81
I4
ssg82
g4594
sg75
(lp4601
S'Greek, koine, New Testament, language, education, learning'
p4602
asbasbasbasbasbasbasbag68
(g84
g70
NtRp4603
(dp4604
g73
(dp4605
sg82
g3526
sg75
(lp4606
g68
(g89
g70
NtRp4607
(dp4608
g73
(dp4609
g93
g94
ssg82
g4603
sg75
(lp4610
S'postprocessing'
p4611
asbag68
(g89
g70
NtRp4612
(dp4613
g73
(dp4614
g100
g101
ssg82
g4603
sg75
(lp4615
S':'
asbag68
(g89
g70
NtRp4616
(dp4617
g73
(dp4618
sg82
g4603
sg75
(lp4619
g68
(g69
g70
NtRp4620
(dp4621
g73
(dp4622
g81
I5
ssg82
g4616
sg75
(lp4623
g68
(g77
g70
NtRp4624
(dp4625
g73
(dp4626
g81
I4
ssg82
Nsg75
(lp4627
sbasbasbasbag68
(g84
g70
NtRp4628
(dp4629
g73
(dp4630
sg82
g3526
sg75
(lp4631
g68
(g89
g70
NtRp4632
(dp4633
g73
(dp4634
g93
g94
ssg82
g4628
sg75
(lp4635
S'session_file'
p4636
asbag68
(g89
g70
NtRp4637
(dp4638
g73
(dp4639
g100
g101
ssg82
g4628
sg75
(lp4640
S':'
asbag68
(g89
g70
NtRp4641
(dp4642
g73
(dp4643
sg82
g4628
sg75
(lp4644
g68
(g69
g70
NtRp4645
(dp4646
g73
(dp4647
g81
I5
ssg82
g4641
sg75
(lp4648
S"<open file '/home/ian/web2py/applications/paideia/sessions/127.0.0.1-ffa8df2d-8bd1-4ec7-a9ad-81acc652c8b3', mode 'rb+' at 0x337a660>"
p4649
asbasbasbag68
(g84
g70
NtRp4650
(dp4651
g73
(dp4652
sg82
g3526
sg75
(lp4653
g68
(g89
g70
NtRp4654
(dp4655
g73
(dp4656
g93
g94
ssg82
g4650
sg75
(lp4657
S'session_filename'
p4658
asbag68
(g89
g70
NtRp4659
(dp4660
g73
(dp4661
g100
g101
ssg82
g4650
sg75
(lp4662
S':'
asbag68
(g89
g70
NtRp4663
(dp4664
g73
(dp4665
sg82
g4650
sg75
(lp4666
g68
(g69
g70
NtRp4667
(dp4668
g73
(dp4669
g81
I5
ssg82
g4663
sg75
(lp4670
S'/home/ian/web2py/applications/paideia/sessions/127.0.0.1-ffa8df2d-8bd1-4ec7-a9ad-81acc652c8b3'
p4671
asbasbasbag68
(g84
g70
NtRp4672
(dp4673
g73
(dp4674
sg82
g3526
sg75
(lp4675
g68
(g89
g70
NtRp4676
(dp4677
g73
(dp4678
g93
g94
ssg82
g4672
sg75
(lp4679
S'session_id'
p4680
asbag68
(g89
g70
NtRp4681
(dp4682
g73
(dp4683
g100
g101
ssg82
g4672
sg75
(lp4684
S':'
asbag68
(g89
g70
NtRp4685
(dp4686
g73
(dp4687
sg82
g4672
sg75
(lp4688
g68
(g69
g70
NtRp4689
(dp4690
g73
(dp4691
g81
I5
ssg82
g4685
sg75
(lp4692
S'127.0.0.1-ffa8df2d-8bd1-4ec7-a9ad-81acc652c8b3'
p4693
asbasbasbag68
(g84
g70
NtRp4694
(dp4695
g73
(dp4696
sg82
g3526
sg75
(lp4697
g68
(g89
g70
NtRp4698
(dp4699
g73
(dp4700
g93
g94
ssg82
g4694
sg75
(lp4701
S'session_id_name'
p4702
asbag68
(g89
g70
NtRp4703
(dp4704
g73
(dp4705
g100
g101
ssg82
g4694
sg75
(lp4706
S':'
asbag68
(g89
g70
NtRp4707
(dp4708
g73
(dp4709
sg82
g4694
sg75
(lp4710
g68
(g69
g70
NtRp4711
(dp4712
g73
(dp4713
g81
I5
ssg82
g4707
sg75
(lp4714
g3583
asbasbasbag68
(g84
g70
NtRp4715
(dp4716
g73
(dp4717
sg82
g3526
sg75
(lp4718
g68
(g89
g70
NtRp4719
(dp4720
g73
(dp4721
g93
g94
ssg82
g4715
sg75
(lp4722
S'session_locked'
p4723
asbag68
(g89
g70
NtRp4724
(dp4725
g73
(dp4726
g100
g101
ssg82
g4715
sg75
(lp4727
S':'
asbag68
(g89
g70
NtRp4728
(dp4729
g73
(dp4730
sg82
g4715
sg75
(lp4731
g68
(g69
g70
NtRp4732
(dp4733
g73
(dp4734
g81
I5
ssg82
g4728
sg75
(lp4735
g1703
asbasbasbag68
(g84
g70
NtRp4736
(dp4737
g73
(dp4738
sg82
g3526
sg75
(lp4739
g68
(g89
g70
NtRp4740
(dp4741
g73
(dp4742
g93
g94
ssg82
g4736
sg75
(lp4743
S'session_new'
p4744
asbag68
(g89
g70
NtRp4745
(dp4746
g73
(dp4747
g100
g101
ssg82
g4736
sg75
(lp4748
S':'
asbag68
(g89
g70
NtRp4749
(dp4750
g73
(dp4751
sg82
g4736
sg75
(lp4752
g68
(g69
g70
NtRp4753
(dp4754
g73
(dp4755
g81
I5
ssg82
g4749
sg75
(lp4756
g111
asbasbasbag68
(g84
g70
NtRp4757
(dp4758
g73
(dp4759
sg82
g3526
sg75
(lp4760
g68
(g89
g70
NtRp4761
(dp4762
g73
(dp4763
g93
g94
ssg82
g4757
sg75
(lp4764
S'status'
p4765
asbag68
(g89
g70
NtRp4766
(dp4767
g73
(dp4768
g100
g101
ssg82
g4757
sg75
(lp4769
S':'
asbag68
(g89
g70
NtRp4770
(dp4771
g73
(dp4772
sg82
g4757
sg75
(lp4773
g68
(g69
g70
NtRp4774
(dp4775
g73
(dp4776
g81
I5
ssg82
g4770
sg75
(lp4777
S'200'
p4778
asbasbasbag68
(g84
g70
NtRp4779
(dp4780
g73
(dp4781
sg82
g3526
sg75
(lp4782
g68
(g89
g70
NtRp4783
(dp4784
g73
(dp4785
g93
g94
ssg82
g4779
sg75
(lp4786
S'subtitle'
p4787
asbag68
(g89
g70
NtRp4788
(dp4789
g73
(dp4790
g100
g101
ssg82
g4779
sg75
(lp4791
S':'
asbag68
(g89
g70
NtRp4792
(dp4793
g73
(dp4794
sg82
g4779
sg75
(lp4795
g68
(g69
g70
NtRp4796
(dp4797
g73
(dp4798
g81
I5
ssg82
g4792
sg75
(lp4799
g4031
(S's0\x00\x00\x00An online space for learning New Testament Greek'
tRp4800
asbasbasbag68
(g84
g70
NtRp4801
(dp4802
g73
(dp4803
sg82
g3526
sg75
(lp4804
g68
(g89
g70
NtRp4805
(dp4806
g73
(dp4807
g93
g94
ssg82
g4801
sg75
(lp4808
S'title'
p4809
asbag68
(g89
g70
NtRp4810
(dp4811
g73
(dp4812
g100
g101
ssg82
g4801
sg75
(lp4813
S':'
asbag68
(g89
g70
NtRp4814
(dp4815
g73
(dp4816
sg82
g4801
sg75
(lp4817
g68
(g69
g70
NtRp4818
(dp4819
g73
(dp4820
g81
I5
ssg82
g4814
sg75
(lp4821
g133
asbasbasbag68
(g84
g70
NtRp4822
(dp4823
g73
(dp4824
sg82
g3526
sg75
(lp4825
g68
(g89
g70
NtRp4826
(dp4827
g73
(dp4828
g93
g94
ssg82
g4822
sg75
(lp4829
g2368
asbag68
(g89
g70
NtRp4830
(dp4831
g73
(dp4832
g100
g101
ssg82
g4822
sg75
(lp4833
S':'
asbag68
(g89
g70
NtRp4834
(dp4835
g73
(dp4836
sg82
g4822
sg75
(lp4837
g68
(g69
g70
NtRp4838
(dp4839
g73
(dp4840
g81
I5
ssg82
g4834
sg75
(lp4841
g2381
asbasbasbag68
(g84
g70
NtRp4842
(dp4843
g73
(dp4844
sg82
g3526
sg75
(lp4845
g68
(g89
g70
NtRp4846
(dp4847
g73
(dp4848
g93
g94
ssg82
g4842
sg75
(lp4849
S'view'
p4850
asbag68
(g89
g70
NtRp4851
(dp4852
g73
(dp4853
g100
g101
ssg82
g4842
sg75
(lp4854
S':'
asbag68
(g89
g70
NtRp4855
(dp4856
g73
(dp4857
sg82
g4842
sg75
(lp4858
g68
(g69
g70
NtRp4859
(dp4860
g73
(dp4861
g81
I5
ssg82
g4855
sg75
(lp4862
S'default/user.html'
p4863
asbasbasbasbasbsS'locals'
p4864
(dp4865
g3
S"'/home/ian/web2py/applications/paideia/models/paideia_stats.py'"
p4866
sg5
S"'import calendar, datetime\\n\\nclass paideia_stats:\\n...m] = {w = v}\\n        session.debug = self.dateset'"
p4867
sssS'traceback'
p4868
S'Traceback (most recent call last):\n  File "/home/ian/web2py/gluon/restricted.py", line 193, in restricted\n    ccode = compile2(code,layer)\n  File "/home/ian/web2py/gluon/restricted.py", line 179, in compile2\n    return compile(code.rstrip().replace(\'\\r\\n\',\'\\n\')+\'\\n\', layer, \'exec\')\n  File "/home/ian/web2py/applications/paideia/models/paideia_stats.py", line 109\n    self.dateset[m] = {w = v}\n                         ^\nSyntaxError: invalid syntax\n'
p4869
s.