(dp1
S'output'
p2
S"<type 'exceptions.TypeError'> list indices must be integers, not Row"
p3
sS'layer'
p4
S'/home/iscott/web/web2py/applications/paideia/controllers/exploring.py'
p5
sS'code'
p6
S'# coding: utf8\nfrom paideia_exploring import path, tag, step, counter, map\nfrom paideia_questions import question\nimport pprint\n\ndef stepreply():\n    #see whether answer matches any of the three answer fields\n    q = question()\n    the_eval = q.evalq()\n\n    #build response to user\n    if session.eval == \'correct\':\n        the_reply = "Right. \xce\x9a\xce\xac\xce\xbb\xce\xb7."\n    elif session.eval == \'partial\':\n        the_reply = "\xce\x9f\xe1\xbd\x90 \xce\xba\xce\xac\xce\xba\xce\xbf\xcf\x82. You\'re close."\n    else:\n        the_reply = "Incorrect. Try again!"\n\n    #add a record for this attempt in db.attempt_log\n    db.attempt_log.insert(question=session.q_ID, score=q.score, quiz=session.path_id)\n\n    return dict(reply=the_reply, answer=session.readable_answer, raw_answer=session.answer, score=session.score)\n\ndef patherror():\n    if request.args(1) == \'unknown\':\n        db.q_bugs.insert(question=session.qID, a_submitted=request.vars.answer)\n        #TODO: fix problem with changing column name for status\n        #db(db.questions.id==session.qID).update(qqq_status=1);\n    if request.args(1) == \'regex\':\n        db.q_bugs.insert(question=session.qID, a_submitted=request.vars.answer)\n        #db(db.questions.id==session.qID).update(qqq_status=1);\n    message = "Oops! Something about that question confused me, and I\'m not sure whether your answer was right. Let\'s try another one."\n    button = A(\'continue\', _href=URL(\'index\', args=[\'ask\']), _class=\'button-green-grad next_q\', cid=request.cid)\n    #don\'t include this question in counting the number attempted\n    session.q_counter -= 1\n\n    return dict(message=message, button=button)\n\ndef clear_session():\n    if response.vars and \'session_var\' in response.vars:\n        session_vars = response.vars[\'session_var\']\n    else:\n        session_vars = \'all\'\n    path = paideia_path()\n    path.clear_session(session_vars)\n    print \'clearing session vars: \', session_vars\n    print session\n\n@auth.requires_login()\ndef index():\n    """\n    Main method for presenting various states of the user interface. \n    The states are determined by the first url argument. Processed \n    initially by the view in views/exploring/index.html. The #page \n    region is then refreshed via ajax using the view in views/\n    exploring/index.load\n\n    user must be logged in to access this controller. Otherwise s/he \n    will be redirected to the default login form.\n    """\n\n    print \'====================================================\'\n    print \'new state in controller exploring/index\', datetime.datetime.utcnow()\n    #check to see whether this user session has been initialized\n    if not session.tagset:\n        print \'\\ninitializing new user session\'\n        #categorize paths for today\n        t = tag()\n        session.tagset = t.categorize_tags()\n        print \'stored categorized tags in session.tagset\'\n        #re-activate paths that weren\'t finished during last session\n        p = path()\n        session.active_paths = p.find_unfinished()\n        print \'restored unfinished paths to session.active_paths\'\n\n    #when user begins exploring (also default) present map\n    if (request.args(0) == \'start\') or (not request.args):\n        print \'\\nstart state\'\n        m = map()\n        \'\\n returned to controller exploring/index:\'\n\n        return dict(locs=m.locs, map_image=m.image)\n\n    #after user selects quiz (or \'next question\')\n    elif request.args(0) == \'ask\':\n        print \'\\nask state\'\n        p = path()\n        p_result = p.pick()\n        pid = p_result[\'path\'].id\n        sid = p_result[\'step\']\n        print \'\\nreturned to controller exploring/index:\'\n        print \'path \', pid, \'; step \', sid\n        s = step(sid)\n        return s.ask()\n\n    #after submitting response\n    elif request.args(0) == \'reply\':\n        print \'\\nreply state\'\n        return s.reply()\n\n    #if user response results in an error\n    elif request.args(0) == \'error\':\n        print \'\\nerror state\'\n        return patherror()\n\nresponse._vars=response._caller(index)\n'
p7
sS'snapshot'
p8
(dp9
S'exception'
p10
(dp11
S'__hash__'
p12
S"<method-wrapper '__hash__' of exceptions.TypeError object>"
p13
sS'__setattr__'
p14
S"<method-wrapper '__setattr__' of exceptions.TypeError object>"
p15
sS'__reduce_ex__'
p16
S'<built-in method __reduce_ex__ of exceptions.TypeError object>'
p17
sS'__getslice__'
p18
S"<method-wrapper '__getslice__' of exceptions.TypeError object>"
p19
sS'__getitem__'
p20
S"<method-wrapper '__getitem__' of exceptions.TypeError object>"
p21
sS'__setstate__'
p22
S'<built-in method __setstate__ of exceptions.TypeError object>'
p23
sS'__reduce__'
p24
S'<built-in method __reduce__ of exceptions.TypeError object>'
p25
sS'__str__'
p26
S"<method-wrapper '__str__' of exceptions.TypeError object>"
p27
sS'__format__'
p28
S'<built-in method __format__ of exceptions.TypeError object>'
p29
sS'__getattribute__'
p30
S"<method-wrapper '__getattribute__' of exceptions.TypeError object>"
p31
sS'__class__'
p32
S"<type 'exceptions.TypeError'>"
p33
sS'__unicode__'
p34
S'<built-in method __unicode__ of exceptions.TypeError object>'
p35
sS'__delattr__'
p36
S"<method-wrapper '__delattr__' of exceptions.TypeError object>"
p37
sS'__subclasshook__'
p38
S'<built-in method __subclasshook__ of type object>'
p39
sS'__repr__'
p40
S"<method-wrapper '__repr__' of exceptions.TypeError object>"
p41
sS'args'
p42
S"('list indices must be integers, not Row',)"
p43
sS'__dict__'
p44
S'{}'
p45
sS'__sizeof__'
p46
S'<built-in method __sizeof__ of exceptions.TypeError object>'
p47
sS'__doc__'
p48
S"'Inappropriate argument type.'"
p49
sS'__init__'
p50
S"<method-wrapper '__init__' of exceptions.TypeError object>"
p51
sS'__new__'
p52
S'<built-in method __new__ of type object>'
p53
ssS'evalue'
p54
S'list indices must be integers, not Row'
p55
sS'request'
p56
ccopy_reg
_reconstructor
p57
(cgluon.html
BEAUTIFY
p58
c__builtin__
object
p59
NtRp60
(dp61
S'attributes'
p62
(dp63
sS'components'
p64
(lp65
g57
(cgluon.html
TABLE
p66
g59
NtRp67
(dp68
g62
(dp69
S'level'
p70
I5
ssS'parent'
p71
Nsg64
(lp72
g57
(cgluon.html
TR
p73
g59
NtRp74
(dp75
g62
(dp76
sg71
g67
sg64
(lp77
g57
(cgluon.html
TD
p78
g59
NtRp79
(dp80
g62
(dp81
S'_style'
p82
S'font-weight:bold;vertical-align:top'
p83
ssg71
g74
sg64
(lp84
S'ajax'
p85
asbag57
(g78
g59
NtRp86
(dp87
g62
(dp88
S'_valign'
p89
S'top'
p90
ssg71
g74
sg64
(lp91
S':'
asbag57
(g78
g59
NtRp92
(dp93
g62
(dp94
sg71
g74
sg64
(lp95
g57
(g58
g59
NtRp96
(dp97
g62
(dp98
g70
I5
ssg71
g92
sg64
(lp99
S'True'
p100
asbasbasbag57
(g73
g59
NtRp101
(dp102
g62
(dp103
sg71
g67
sg64
(lp104
g57
(g78
g59
NtRp105
(dp106
g62
(dp107
g82
g83
ssg71
g101
sg64
(lp108
S'application'
p109
asbag57
(g78
g59
NtRp110
(dp111
g62
(dp112
g89
g90
ssg71
g101
sg64
(lp113
S':'
asbag57
(g78
g59
NtRp114
(dp115
g62
(dp116
sg71
g101
sg64
(lp117
g57
(g58
g59
NtRp118
(dp119
g62
(dp120
g70
I5
ssg71
g114
sg64
(lp121
S'paideia'
p122
asbasbasbag57
(g73
g59
NtRp123
(dp124
g62
(dp125
sg71
g67
sg64
(lp126
g57
(g78
g59
NtRp127
(dp128
g62
(dp129
g82
g83
ssg71
g123
sg64
(lp130
g42
asbag57
(g78
g59
NtRp131
(dp132
g62
(dp133
g89
g90
ssg71
g123
sg64
(lp134
S':'
asbag57
(g78
g59
NtRp135
(dp136
g62
(dp137
sg71
g123
sg64
(lp138
g57
(g58
g59
NtRp139
(dp140
g62
(dp141
g70
I5
ssg71
g135
sg64
(lp142
g57
(g66
g59
NtRp143
(dp144
g62
(dp145
g70
I4
ssg71
Nsg64
(lp146
g57
(g73
g59
NtRp147
(dp148
g62
(dp149
sg71
g143
sg64
(lp150
g57
(g78
g59
NtRp151
(dp152
g62
(dp153
sg71
g147
sg64
(lp154
g57
(g58
g59
NtRp155
(dp156
g62
(dp157
g70
I4
ssg71
g151
sg64
(lp158
S'ask'
p159
asbasbasbasbasbasbasbag57
(g73
g59
NtRp160
(dp161
g62
(dp162
sg71
g67
sg64
(lp163
g57
(g78
g59
NtRp164
(dp165
g62
(dp166
g82
g83
ssg71
g160
sg64
(lp167
S'body'
p168
asbag57
(g78
g59
NtRp169
(dp170
g62
(dp171
g89
g90
ssg71
g160
sg64
(lp172
S':'
asbag57
(g78
g59
NtRp173
(dp174
g62
(dp175
sg71
g160
sg64
(lp176
g57
(g58
g59
NtRp177
(dp178
g62
(dp179
g70
I5
ssg71
g173
sg64
(lp180
S'<cStringIO.StringO object at 0x936f6c0>'
p181
asbasbasbag57
(g73
g59
NtRp182
(dp183
g62
(dp184
sg71
g67
sg64
(lp185
g57
(g78
g59
NtRp186
(dp187
g62
(dp188
g82
g83
ssg71
g182
sg64
(lp189
S'cid'
p190
asbag57
(g78
g59
NtRp191
(dp192
g62
(dp193
g89
g90
ssg71
g182
sg64
(lp194
S':'
asbag57
(g78
g59
NtRp195
(dp196
g62
(dp197
sg71
g182
sg64
(lp198
g57
(g58
g59
NtRp199
(dp200
g62
(dp201
g70
I5
ssg71
g195
sg64
(lp202
S'page'
p203
asbasbasbag57
(g73
g59
NtRp204
(dp205
g62
(dp206
sg71
g67
sg64
(lp207
g57
(g78
g59
NtRp208
(dp209
g62
(dp210
g82
g83
ssg71
g204
sg64
(lp211
S'client'
p212
asbag57
(g78
g59
NtRp213
(dp214
g62
(dp215
g89
g90
ssg71
g204
sg64
(lp216
S':'
asbag57
(g78
g59
NtRp217
(dp218
g62
(dp219
sg71
g204
sg64
(lp220
g57
(g58
g59
NtRp221
(dp222
g62
(dp223
g70
I5
ssg71
g217
sg64
(lp224
S'127.0.0.1'
p225
asbasbasbag57
(g73
g59
NtRp226
(dp227
g62
(dp228
sg71
g67
sg64
(lp229
g57
(g78
g59
NtRp230
(dp231
g62
(dp232
g82
g83
ssg71
g226
sg64
(lp233
S'controller'
p234
asbag57
(g78
g59
NtRp235
(dp236
g62
(dp237
g89
g90
ssg71
g226
sg64
(lp238
S':'
asbag57
(g78
g59
NtRp239
(dp240
g62
(dp241
sg71
g226
sg64
(lp242
g57
(g58
g59
NtRp243
(dp244
g62
(dp245
g70
I5
ssg71
g239
sg64
(lp246
S'exploring'
p247
asbasbasbag57
(g73
g59
NtRp248
(dp249
g62
(dp250
sg71
g67
sg64
(lp251
g57
(g78
g59
NtRp252
(dp253
g62
(dp254
g82
g83
ssg71
g248
sg64
(lp255
S'cookies'
p256
asbag57
(g78
g59
NtRp257
(dp258
g62
(dp259
g89
g90
ssg71
g248
sg64
(lp260
S':'
asbag57
(g78
g59
NtRp261
(dp262
g62
(dp263
sg71
g248
sg64
(lp264
g57
(g58
g59
NtRp265
(dp266
g62
(dp267
g70
I5
ssg71
g261
sg64
(lp268
g57
(g66
g59
NtRp269
(dp270
g62
(dp271
g70
I4
ssg71
Nsg64
(lp272
g57
(g73
g59
NtRp273
(dp274
g62
(dp275
sg71
g269
sg64
(lp276
g57
(g78
g59
NtRp277
(dp278
g62
(dp279
g82
g83
ssg71
g273
sg64
(lp280
S'session_id_admin'
p281
asbag57
(g78
g59
NtRp282
(dp283
g62
(dp284
g89
g90
ssg71
g273
sg64
(lp285
S':'
asbag57
(g78
g59
NtRp286
(dp287
g62
(dp288
sg71
g273
sg64
(lp289
g57
(g58
g59
NtRp290
(dp291
g62
(dp292
g70
I4
ssg71
g286
sg64
(lp293
g57
(g66
g59
NtRp294
(dp295
g62
(dp296
g70
I3
ssg71
Nsg64
(lp297
g57
(g73
g59
NtRp298
(dp299
g62
(dp300
sg71
g294
sg64
(lp301
g57
(g78
g59
NtRp302
(dp303
g62
(dp304
g82
g83
ssg71
g298
sg64
(lp305
S'comment'
p306
asbag57
(g78
g59
NtRp307
(dp308
g62
(dp309
g89
g90
ssg71
g298
sg64
(lp310
S':'
asbag57
(g78
g59
NtRp311
(dp312
g62
(dp313
sg71
g298
sg64
(lp314
g57
(g58
g59
NtRp315
(dp316
g62
(dp317
g70
I3
ssg71
g311
sg64
(lp318
S''
asbasbasbag57
(g73
g59
NtRp319
(dp320
g62
(dp321
sg71
g294
sg64
(lp322
g57
(g78
g59
NtRp323
(dp324
g62
(dp325
g82
g83
ssg71
g319
sg64
(lp326
S'domain'
p327
asbag57
(g78
g59
NtRp328
(dp329
g62
(dp330
g89
g90
ssg71
g319
sg64
(lp331
S':'
asbag57
(g78
g59
NtRp332
(dp333
g62
(dp334
sg71
g319
sg64
(lp335
g57
(g58
g59
NtRp336
(dp337
g62
(dp338
g70
I3
ssg71
g332
sg64
(lp339
S''
asbasbasbag57
(g73
g59
NtRp340
(dp341
g62
(dp342
sg71
g294
sg64
(lp343
g57
(g78
g59
NtRp344
(dp345
g62
(dp346
g82
g83
ssg71
g340
sg64
(lp347
S'expires'
p348
asbag57
(g78
g59
NtRp349
(dp350
g62
(dp351
g89
g90
ssg71
g340
sg64
(lp352
S':'
asbag57
(g78
g59
NtRp353
(dp354
g62
(dp355
sg71
g340
sg64
(lp356
g57
(g58
g59
NtRp357
(dp358
g62
(dp359
g70
I3
ssg71
g353
sg64
(lp360
S''
asbasbasbag57
(g73
g59
NtRp361
(dp362
g62
(dp363
sg71
g294
sg64
(lp364
g57
(g78
g59
NtRp365
(dp366
g62
(dp367
g82
g83
ssg71
g361
sg64
(lp368
S'httponly'
p369
asbag57
(g78
g59
NtRp370
(dp371
g62
(dp372
g89
g90
ssg71
g361
sg64
(lp373
S':'
asbag57
(g78
g59
NtRp374
(dp375
g62
(dp376
sg71
g361
sg64
(lp377
g57
(g58
g59
NtRp378
(dp379
g62
(dp380
g70
I3
ssg71
g374
sg64
(lp381
S''
asbasbasbag57
(g73
g59
NtRp382
(dp383
g62
(dp384
sg71
g294
sg64
(lp385
g57
(g78
g59
NtRp386
(dp387
g62
(dp388
g82
g83
ssg71
g382
sg64
(lp389
S'max-age'
p390
asbag57
(g78
g59
NtRp391
(dp392
g62
(dp393
g89
g90
ssg71
g382
sg64
(lp394
S':'
asbag57
(g78
g59
NtRp395
(dp396
g62
(dp397
sg71
g382
sg64
(lp398
g57
(g58
g59
NtRp399
(dp400
g62
(dp401
g70
I3
ssg71
g395
sg64
(lp402
S''
asbasbasbag57
(g73
g59
NtRp403
(dp404
g62
(dp405
sg71
g294
sg64
(lp406
g57
(g78
g59
NtRp407
(dp408
g62
(dp409
g82
g83
ssg71
g403
sg64
(lp410
S'path'
p411
asbag57
(g78
g59
NtRp412
(dp413
g62
(dp414
g89
g90
ssg71
g403
sg64
(lp415
S':'
asbag57
(g78
g59
NtRp416
(dp417
g62
(dp418
sg71
g403
sg64
(lp419
g57
(g58
g59
NtRp420
(dp421
g62
(dp422
g70
I3
ssg71
g416
sg64
(lp423
S''
asbasbasbag57
(g73
g59
NtRp424
(dp425
g62
(dp426
sg71
g294
sg64
(lp427
g57
(g78
g59
NtRp428
(dp429
g62
(dp430
g82
g83
ssg71
g424
sg64
(lp431
S'secure'
p432
asbag57
(g78
g59
NtRp433
(dp434
g62
(dp435
g89
g90
ssg71
g424
sg64
(lp436
S':'
asbag57
(g78
g59
NtRp437
(dp438
g62
(dp439
sg71
g424
sg64
(lp440
g57
(g58
g59
NtRp441
(dp442
g62
(dp443
g70
I3
ssg71
g437
sg64
(lp444
S''
asbasbasbag57
(g73
g59
NtRp445
(dp446
g62
(dp447
sg71
g294
sg64
(lp448
g57
(g78
g59
NtRp449
(dp450
g62
(dp451
g82
g83
ssg71
g445
sg64
(lp452
S'version'
p453
asbag57
(g78
g59
NtRp454
(dp455
g62
(dp456
g89
g90
ssg71
g445
sg64
(lp457
S':'
asbag57
(g78
g59
NtRp458
(dp459
g62
(dp460
sg71
g445
sg64
(lp461
g57
(g58
g59
NtRp462
(dp463
g62
(dp464
g70
I3
ssg71
g458
sg64
(lp465
S''
asbasbasbasbasbasbasbag57
(g73
g59
NtRp466
(dp467
g62
(dp468
sg71
g269
sg64
(lp469
g57
(g78
g59
NtRp470
(dp471
g62
(dp472
g82
g83
ssg71
g466
sg64
(lp473
S'session_id_paideia'
p474
asbag57
(g78
g59
NtRp475
(dp476
g62
(dp477
g89
g90
ssg71
g466
sg64
(lp478
S':'
asbag57
(g78
g59
NtRp479
(dp480
g62
(dp481
sg71
g466
sg64
(lp482
g57
(g58
g59
NtRp483
(dp484
g62
(dp485
g70
I4
ssg71
g479
sg64
(lp486
g57
(g66
g59
NtRp487
(dp488
g62
(dp489
g70
I3
ssg71
Nsg64
(lp490
g57
(g73
g59
NtRp491
(dp492
g62
(dp493
sg71
g487
sg64
(lp494
g57
(g78
g59
NtRp495
(dp496
g62
(dp497
g82
g83
ssg71
g491
sg64
(lp498
g306
asbag57
(g78
g59
NtRp499
(dp500
g62
(dp501
g89
g90
ssg71
g491
sg64
(lp502
S':'
asbag57
(g78
g59
NtRp503
(dp504
g62
(dp505
sg71
g491
sg64
(lp506
g57
(g58
g59
NtRp507
(dp508
g62
(dp509
g70
I3
ssg71
g503
sg64
(lp510
S''
asbasbasbag57
(g73
g59
NtRp511
(dp512
g62
(dp513
sg71
g487
sg64
(lp514
g57
(g78
g59
NtRp515
(dp516
g62
(dp517
g82
g83
ssg71
g511
sg64
(lp518
g327
asbag57
(g78
g59
NtRp519
(dp520
g62
(dp521
g89
g90
ssg71
g511
sg64
(lp522
S':'
asbag57
(g78
g59
NtRp523
(dp524
g62
(dp525
sg71
g511
sg64
(lp526
g57
(g58
g59
NtRp527
(dp528
g62
(dp529
g70
I3
ssg71
g523
sg64
(lp530
S''
asbasbasbag57
(g73
g59
NtRp531
(dp532
g62
(dp533
sg71
g487
sg64
(lp534
g57
(g78
g59
NtRp535
(dp536
g62
(dp537
g82
g83
ssg71
g531
sg64
(lp538
g348
asbag57
(g78
g59
NtRp539
(dp540
g62
(dp541
g89
g90
ssg71
g531
sg64
(lp542
S':'
asbag57
(g78
g59
NtRp543
(dp544
g62
(dp545
sg71
g531
sg64
(lp546
g57
(g58
g59
NtRp547
(dp548
g62
(dp549
g70
I3
ssg71
g543
sg64
(lp550
S''
asbasbasbag57
(g73
g59
NtRp551
(dp552
g62
(dp553
sg71
g487
sg64
(lp554
g57
(g78
g59
NtRp555
(dp556
g62
(dp557
g82
g83
ssg71
g551
sg64
(lp558
g369
asbag57
(g78
g59
NtRp559
(dp560
g62
(dp561
g89
g90
ssg71
g551
sg64
(lp562
S':'
asbag57
(g78
g59
NtRp563
(dp564
g62
(dp565
sg71
g551
sg64
(lp566
g57
(g58
g59
NtRp567
(dp568
g62
(dp569
g70
I3
ssg71
g563
sg64
(lp570
S''
asbasbasbag57
(g73
g59
NtRp571
(dp572
g62
(dp573
sg71
g487
sg64
(lp574
g57
(g78
g59
NtRp575
(dp576
g62
(dp577
g82
g83
ssg71
g571
sg64
(lp578
g390
asbag57
(g78
g59
NtRp579
(dp580
g62
(dp581
g89
g90
ssg71
g571
sg64
(lp582
S':'
asbag57
(g78
g59
NtRp583
(dp584
g62
(dp585
sg71
g571
sg64
(lp586
g57
(g58
g59
NtRp587
(dp588
g62
(dp589
g70
I3
ssg71
g583
sg64
(lp590
S''
asbasbasbag57
(g73
g59
NtRp591
(dp592
g62
(dp593
sg71
g487
sg64
(lp594
g57
(g78
g59
NtRp595
(dp596
g62
(dp597
g82
g83
ssg71
g591
sg64
(lp598
g411
asbag57
(g78
g59
NtRp599
(dp600
g62
(dp601
g89
g90
ssg71
g591
sg64
(lp602
S':'
asbag57
(g78
g59
NtRp603
(dp604
g62
(dp605
sg71
g591
sg64
(lp606
g57
(g58
g59
NtRp607
(dp608
g62
(dp609
g70
I3
ssg71
g603
sg64
(lp610
S''
asbasbasbag57
(g73
g59
NtRp611
(dp612
g62
(dp613
sg71
g487
sg64
(lp614
g57
(g78
g59
NtRp615
(dp616
g62
(dp617
g82
g83
ssg71
g611
sg64
(lp618
g432
asbag57
(g78
g59
NtRp619
(dp620
g62
(dp621
g89
g90
ssg71
g611
sg64
(lp622
S':'
asbag57
(g78
g59
NtRp623
(dp624
g62
(dp625
sg71
g611
sg64
(lp626
g57
(g58
g59
NtRp627
(dp628
g62
(dp629
g70
I3
ssg71
g623
sg64
(lp630
S''
asbasbasbag57
(g73
g59
NtRp631
(dp632
g62
(dp633
sg71
g487
sg64
(lp634
g57
(g78
g59
NtRp635
(dp636
g62
(dp637
g82
g83
ssg71
g631
sg64
(lp638
g453
asbag57
(g78
g59
NtRp639
(dp640
g62
(dp641
g89
g90
ssg71
g631
sg64
(lp642
S':'
asbag57
(g78
g59
NtRp643
(dp644
g62
(dp645
sg71
g631
sg64
(lp646
g57
(g58
g59
NtRp647
(dp648
g62
(dp649
g70
I3
ssg71
g643
sg64
(lp650
S''
asbasbasbasbasbasbasbag57
(g73
g59
NtRp651
(dp652
g62
(dp653
sg71
g269
sg64
(lp654
g57
(g78
g59
NtRp655
(dp656
g62
(dp657
g82
g83
ssg71
g651
sg64
(lp658
S'session_id_welcome'
p659
asbag57
(g78
g59
NtRp660
(dp661
g62
(dp662
g89
g90
ssg71
g651
sg64
(lp663
S':'
asbag57
(g78
g59
NtRp664
(dp665
g62
(dp666
sg71
g651
sg64
(lp667
g57
(g58
g59
NtRp668
(dp669
g62
(dp670
g70
I4
ssg71
g664
sg64
(lp671
g57
(g66
g59
NtRp672
(dp673
g62
(dp674
g70
I3
ssg71
Nsg64
(lp675
g57
(g73
g59
NtRp676
(dp677
g62
(dp678
sg71
g672
sg64
(lp679
g57
(g78
g59
NtRp680
(dp681
g62
(dp682
g82
g83
ssg71
g676
sg64
(lp683
g306
asbag57
(g78
g59
NtRp684
(dp685
g62
(dp686
g89
g90
ssg71
g676
sg64
(lp687
S':'
asbag57
(g78
g59
NtRp688
(dp689
g62
(dp690
sg71
g676
sg64
(lp691
g57
(g58
g59
NtRp692
(dp693
g62
(dp694
g70
I3
ssg71
g688
sg64
(lp695
S''
asbasbasbag57
(g73
g59
NtRp696
(dp697
g62
(dp698
sg71
g672
sg64
(lp699
g57
(g78
g59
NtRp700
(dp701
g62
(dp702
g82
g83
ssg71
g696
sg64
(lp703
g327
asbag57
(g78
g59
NtRp704
(dp705
g62
(dp706
g89
g90
ssg71
g696
sg64
(lp707
S':'
asbag57
(g78
g59
NtRp708
(dp709
g62
(dp710
sg71
g696
sg64
(lp711
g57
(g58
g59
NtRp712
(dp713
g62
(dp714
g70
I3
ssg71
g708
sg64
(lp715
S''
asbasbasbag57
(g73
g59
NtRp716
(dp717
g62
(dp718
sg71
g672
sg64
(lp719
g57
(g78
g59
NtRp720
(dp721
g62
(dp722
g82
g83
ssg71
g716
sg64
(lp723
g348
asbag57
(g78
g59
NtRp724
(dp725
g62
(dp726
g89
g90
ssg71
g716
sg64
(lp727
S':'
asbag57
(g78
g59
NtRp728
(dp729
g62
(dp730
sg71
g716
sg64
(lp731
g57
(g58
g59
NtRp732
(dp733
g62
(dp734
g70
I3
ssg71
g728
sg64
(lp735
S''
asbasbasbag57
(g73
g59
NtRp736
(dp737
g62
(dp738
sg71
g672
sg64
(lp739
g57
(g78
g59
NtRp740
(dp741
g62
(dp742
g82
g83
ssg71
g736
sg64
(lp743
g369
asbag57
(g78
g59
NtRp744
(dp745
g62
(dp746
g89
g90
ssg71
g736
sg64
(lp747
S':'
asbag57
(g78
g59
NtRp748
(dp749
g62
(dp750
sg71
g736
sg64
(lp751
g57
(g58
g59
NtRp752
(dp753
g62
(dp754
g70
I3
ssg71
g748
sg64
(lp755
S''
asbasbasbag57
(g73
g59
NtRp756
(dp757
g62
(dp758
sg71
g672
sg64
(lp759
g57
(g78
g59
NtRp760
(dp761
g62
(dp762
g82
g83
ssg71
g756
sg64
(lp763
g390
asbag57
(g78
g59
NtRp764
(dp765
g62
(dp766
g89
g90
ssg71
g756
sg64
(lp767
S':'
asbag57
(g78
g59
NtRp768
(dp769
g62
(dp770
sg71
g756
sg64
(lp771
g57
(g58
g59
NtRp772
(dp773
g62
(dp774
g70
I3
ssg71
g768
sg64
(lp775
S''
asbasbasbag57
(g73
g59
NtRp776
(dp777
g62
(dp778
sg71
g672
sg64
(lp779
g57
(g78
g59
NtRp780
(dp781
g62
(dp782
g82
g83
ssg71
g776
sg64
(lp783
g411
asbag57
(g78
g59
NtRp784
(dp785
g62
(dp786
g89
g90
ssg71
g776
sg64
(lp787
S':'
asbag57
(g78
g59
NtRp788
(dp789
g62
(dp790
sg71
g776
sg64
(lp791
g57
(g58
g59
NtRp792
(dp793
g62
(dp794
g70
I3
ssg71
g788
sg64
(lp795
S''
asbasbasbag57
(g73
g59
NtRp796
(dp797
g62
(dp798
sg71
g672
sg64
(lp799
g57
(g78
g59
NtRp800
(dp801
g62
(dp802
g82
g83
ssg71
g796
sg64
(lp803
g432
asbag57
(g78
g59
NtRp804
(dp805
g62
(dp806
g89
g90
ssg71
g796
sg64
(lp807
S':'
asbag57
(g78
g59
NtRp808
(dp809
g62
(dp810
sg71
g796
sg64
(lp811
g57
(g58
g59
NtRp812
(dp813
g62
(dp814
g70
I3
ssg71
g808
sg64
(lp815
S''
asbasbasbag57
(g73
g59
NtRp816
(dp817
g62
(dp818
sg71
g672
sg64
(lp819
g57
(g78
g59
NtRp820
(dp821
g62
(dp822
g82
g83
ssg71
g816
sg64
(lp823
g453
asbag57
(g78
g59
NtRp824
(dp825
g62
(dp826
g89
g90
ssg71
g816
sg64
(lp827
S':'
asbag57
(g78
g59
NtRp828
(dp829
g62
(dp830
sg71
g816
sg64
(lp831
g57
(g58
g59
NtRp832
(dp833
g62
(dp834
g70
I3
ssg71
g828
sg64
(lp835
S''
asbasbasbasbasbasbasbasbasbasbasbag57
(g73
g59
NtRp836
(dp837
g62
(dp838
sg71
g67
sg64
(lp839
g57
(g78
g59
NtRp840
(dp841
g62
(dp842
g82
g83
ssg71
g836
sg64
(lp843
S'env'
p844
asbag57
(g78
g59
NtRp845
(dp846
g62
(dp847
g89
g90
ssg71
g836
sg64
(lp848
S':'
asbag57
(g78
g59
NtRp849
(dp850
g62
(dp851
sg71
g836
sg64
(lp852
g57
(g58
g59
NtRp853
(dp854
g62
(dp855
g70
I5
ssg71
g849
sg64
(lp856
g57
(g66
g59
NtRp857
(dp858
g62
(dp859
g70
I4
ssg71
Nsg64
(lp860
g57
(g73
g59
NtRp861
(dp862
g62
(dp863
sg71
g857
sg64
(lp864
g57
(g78
g59
NtRp865
(dp866
g62
(dp867
g82
g83
ssg71
g861
sg64
(lp868
S'app_folders'
p869
asbag57
(g78
g59
NtRp870
(dp871
g62
(dp872
g89
g90
ssg71
g861
sg64
(lp873
S':'
asbag57
(g78
g59
NtRp874
(dp875
g62
(dp876
sg71
g861
sg64
(lp877
g57
(g58
g59
NtRp878
(dp879
g62
(dp880
g70
I4
ssg71
g874
sg64
(lp881
S"set(['/home/iscott/web/web2py/applications/paideia/', '/home/iscott/web/web2py/applications/admin/', '/home/iscott/web/web2py/applications/welcome/'])"
p882
asbasbasbag57
(g73
g59
NtRp883
(dp884
g62
(dp885
sg71
g857
sg64
(lp886
g57
(g78
g59
NtRp887
(dp888
g62
(dp889
g82
g83
ssg71
g883
sg64
(lp890
S'applications_parent'
p891
asbag57
(g78
g59
NtRp892
(dp893
g62
(dp894
g89
g90
ssg71
g883
sg64
(lp895
S':'
asbag57
(g78
g59
NtRp896
(dp897
g62
(dp898
sg71
g883
sg64
(lp899
g57
(g58
g59
NtRp900
(dp901
g62
(dp902
g70
I4
ssg71
g896
sg64
(lp903
S'/home/iscott/web/web2py'
p904
asbasbasbag57
(g73
g59
NtRp905
(dp906
g62
(dp907
sg71
g857
sg64
(lp908
g57
(g78
g59
NtRp909
(dp910
g62
(dp911
g82
g83
ssg71
g905
sg64
(lp912
S'cmd_args'
p913
asbag57
(g78
g59
NtRp914
(dp915
g62
(dp916
g89
g90
ssg71
g905
sg64
(lp917
S':'
asbag57
(g78
g59
NtRp918
(dp919
g62
(dp920
sg71
g905
sg64
(lp921
g57
(g58
g59
NtRp922
(dp923
g62
(dp924
g70
I4
ssg71
g918
sg64
(lp925
g57
(g66
g59
NtRp926
(dp927
g62
(dp928
g70
I3
ssg71
Nsg64
(lp929
sbasbasbasbag57
(g73
g59
NtRp930
(dp931
g62
(dp932
sg71
g857
sg64
(lp933
g57
(g78
g59
NtRp934
(dp935
g62
(dp936
g82
g83
ssg71
g930
sg64
(lp937
S'cmd_options'
p938
asbag57
(g78
g59
NtRp939
(dp940
g62
(dp941
g89
g90
ssg71
g930
sg64
(lp942
S':'
asbag57
(g78
g59
NtRp943
(dp944
g62
(dp945
sg71
g930
sg64
(lp946
g57
(g58
g59
NtRp947
(dp948
g62
(dp949
g70
I4
ssg71
g943
sg64
(lp950
S"<Values at 0x8b1eb8c: {'verbose': False, 'ip': '127.0.0.1', 'shutdown_timeout': 5, 'taskbar': False, 'nocron': False, 'pid_filename': 'httpserver.pid', 'maxthreads': None, 'softcron': False, 'server_name': 'ubuntu', 'bpython': False, 'nogui': False, 'port': 8000, 'extcron': False, 'debuglevel': 30, 'test': None, 'folder': '/home/iscott/web/web2py', 'config': '', 'import_models': False, 'winservice': '', 'shell': None, 'run': '', 'log_filename': 'httpserver.log', 'args': [''], 'socket_timeout': 1, 'ssl_ca_certificate': None, 'scheduler': None, 'profiler_filename': None, 'ssl_private_key': '', 'password': '<ask>', 'request_queue_size': 5, 'ssl_certificate': '', 'cronjob': False, 'numthreads': None, 'quiet': False, 'interfaces': None, 'minthreads': None, 'timeout': 10, 'plain': False, 'nobanner': False}>"
p951
asbasbasbag57
(g73
g59
NtRp952
(dp953
g62
(dp954
sg71
g857
sg64
(lp955
g57
(g78
g59
NtRp956
(dp957
g62
(dp958
g82
g83
ssg71
g952
sg64
(lp959
S'db_sessions'
p960
asbag57
(g78
g59
NtRp961
(dp962
g62
(dp963
g89
g90
ssg71
g952
sg64
(lp964
S':'
asbag57
(g78
g59
NtRp965
(dp966
g62
(dp967
sg71
g952
sg64
(lp968
g57
(g58
g59
NtRp969
(dp970
g62
(dp971
g70
I4
ssg71
g965
sg64
(lp972
S'set([])'
p973
asbasbasbag57
(g73
g59
NtRp974
(dp975
g62
(dp976
sg71
g857
sg64
(lp977
g57
(g78
g59
NtRp978
(dp979
g62
(dp980
g82
g83
ssg71
g974
sg64
(lp981
S'debugging'
p982
asbag57
(g78
g59
NtRp983
(dp984
g62
(dp985
g89
g90
ssg71
g974
sg64
(lp986
S':'
asbag57
(g78
g59
NtRp987
(dp988
g62
(dp989
sg71
g974
sg64
(lp990
g57
(g58
g59
NtRp991
(dp992
g62
(dp993
g70
I4
ssg71
g987
sg64
(lp994
S'False'
p995
asbasbasbag57
(g73
g59
NtRp996
(dp997
g62
(dp998
sg71
g857
sg64
(lp999
g57
(g78
g59
NtRp1000
(dp1001
g62
(dp1002
g82
g83
ssg71
g996
sg64
(lp1003
S'gluon_parent'
p1004
asbag57
(g78
g59
NtRp1005
(dp1006
g62
(dp1007
g89
g90
ssg71
g996
sg64
(lp1008
S':'
asbag57
(g78
g59
NtRp1009
(dp1010
g62
(dp1011
sg71
g996
sg64
(lp1012
g57
(g58
g59
NtRp1013
(dp1014
g62
(dp1015
g70
I4
ssg71
g1009
sg64
(lp1016
S'/home/iscott/web/web2py'
p1017
asbasbasbag57
(g73
g59
NtRp1018
(dp1019
g62
(dp1020
sg71
g857
sg64
(lp1021
g57
(g78
g59
NtRp1022
(dp1023
g62
(dp1024
g82
g83
ssg71
g1018
sg64
(lp1025
S'http_accept'
p1026
asbag57
(g78
g59
NtRp1027
(dp1028
g62
(dp1029
g89
g90
ssg71
g1018
sg64
(lp1030
S':'
asbag57
(g78
g59
NtRp1031
(dp1032
g62
(dp1033
sg71
g1018
sg64
(lp1034
g57
(g58
g59
NtRp1035
(dp1036
g62
(dp1037
g70
I4
ssg71
g1031
sg64
(lp1038
S'*/*'
p1039
asbasbasbag57
(g73
g59
NtRp1040
(dp1041
g62
(dp1042
sg71
g857
sg64
(lp1043
g57
(g78
g59
NtRp1044
(dp1045
g62
(dp1046
g82
g83
ssg71
g1040
sg64
(lp1047
S'http_accept_encoding'
p1048
asbag57
(g78
g59
NtRp1049
(dp1050
g62
(dp1051
g89
g90
ssg71
g1040
sg64
(lp1052
S':'
asbag57
(g78
g59
NtRp1053
(dp1054
g62
(dp1055
sg71
g1040
sg64
(lp1056
g57
(g58
g59
NtRp1057
(dp1058
g62
(dp1059
g70
I4
ssg71
g1053
sg64
(lp1060
S'gzip, deflate'
p1061
asbasbasbag57
(g73
g59
NtRp1062
(dp1063
g62
(dp1064
sg71
g857
sg64
(lp1065
g57
(g78
g59
NtRp1066
(dp1067
g62
(dp1068
g82
g83
ssg71
g1062
sg64
(lp1069
S'http_accept_language'
p1070
asbag57
(g78
g59
NtRp1071
(dp1072
g62
(dp1073
g89
g90
ssg71
g1062
sg64
(lp1074
S':'
asbag57
(g78
g59
NtRp1075
(dp1076
g62
(dp1077
sg71
g1062
sg64
(lp1078
g57
(g58
g59
NtRp1079
(dp1080
g62
(dp1081
g70
I4
ssg71
g1075
sg64
(lp1082
S'en-us,en;q=0.5'
p1083
asbasbasbag57
(g73
g59
NtRp1084
(dp1085
g62
(dp1086
sg71
g857
sg64
(lp1087
g57
(g78
g59
NtRp1088
(dp1089
g62
(dp1090
g82
g83
ssg71
g1084
sg64
(lp1091
S'http_connection'
p1092
asbag57
(g78
g59
NtRp1093
(dp1094
g62
(dp1095
g89
g90
ssg71
g1084
sg64
(lp1096
S':'
asbag57
(g78
g59
NtRp1097
(dp1098
g62
(dp1099
sg71
g1084
sg64
(lp1100
g57
(g58
g59
NtRp1101
(dp1102
g62
(dp1103
g70
I4
ssg71
g1097
sg64
(lp1104
S'keep-alive'
p1105
asbasbasbag57
(g73
g59
NtRp1106
(dp1107
g62
(dp1108
sg71
g857
sg64
(lp1109
g57
(g78
g59
NtRp1110
(dp1111
g62
(dp1112
g82
g83
ssg71
g1106
sg64
(lp1113
S'http_cookie'
p1114
asbag57
(g78
g59
NtRp1115
(dp1116
g62
(dp1117
g89
g90
ssg71
g1106
sg64
(lp1118
S':'
asbag57
(g78
g59
NtRp1119
(dp1120
g62
(dp1121
sg71
g1106
sg64
(lp1122
g57
(g58
g59
NtRp1123
(dp1124
g62
(dp1125
g70
I4
ssg71
g1119
sg64
(lp1126
S'session_id_paideia=127.0.0.1-2edda130-d654-4b0f-a819-06652e443aa6; session_id_welcome=127.0.0.1-a66cd4db-834c-4b8d-ab32-5e8ad2ac8802; session_id_admin=127.0.0.1-cba88c58-0135-486a-a06a-f88bc7972275'
p1127
asbasbasbag57
(g73
g59
NtRp1128
(dp1129
g62
(dp1130
sg71
g857
sg64
(lp1131
g57
(g78
g59
NtRp1132
(dp1133
g62
(dp1134
g82
g83
ssg71
g1128
sg64
(lp1135
S'http_host'
p1136
asbag57
(g78
g59
NtRp1137
(dp1138
g62
(dp1139
g89
g90
ssg71
g1128
sg64
(lp1140
S':'
asbag57
(g78
g59
NtRp1141
(dp1142
g62
(dp1143
sg71
g1128
sg64
(lp1144
g57
(g58
g59
NtRp1145
(dp1146
g62
(dp1147
g70
I4
ssg71
g1141
sg64
(lp1148
S'127.0.0.1:8000'
p1149
asbasbasbag57
(g73
g59
NtRp1150
(dp1151
g62
(dp1152
sg71
g857
sg64
(lp1153
g57
(g78
g59
NtRp1154
(dp1155
g62
(dp1156
g82
g83
ssg71
g1150
sg64
(lp1157
S'http_referer'
p1158
asbag57
(g78
g59
NtRp1159
(dp1160
g62
(dp1161
g89
g90
ssg71
g1150
sg64
(lp1162
S':'
asbag57
(g78
g59
NtRp1163
(dp1164
g62
(dp1165
sg71
g1150
sg64
(lp1166
g57
(g58
g59
NtRp1167
(dp1168
g62
(dp1169
g70
I4
ssg71
g1163
sg64
(lp1170
S'http://127.0.0.1:8000/paideia/exploring/index'
p1171
asbasbasbag57
(g73
g59
NtRp1172
(dp1173
g62
(dp1174
sg71
g857
sg64
(lp1175
g57
(g78
g59
NtRp1176
(dp1177
g62
(dp1178
g82
g83
ssg71
g1172
sg64
(lp1179
S'http_user_agent'
p1180
asbag57
(g78
g59
NtRp1181
(dp1182
g62
(dp1183
g89
g90
ssg71
g1172
sg64
(lp1184
S':'
asbag57
(g78
g59
NtRp1185
(dp1186
g62
(dp1187
sg71
g1172
sg64
(lp1188
g57
(g58
g59
NtRp1189
(dp1190
g62
(dp1191
g70
I4
ssg71
g1185
sg64
(lp1192
S'Mozilla/5.0 (X11; Ubuntu; Linux i686; rv:11.0) Gecko/20100101 Firefox/11.0 openid'
p1193
asbasbasbag57
(g73
g59
NtRp1194
(dp1195
g62
(dp1196
sg71
g857
sg64
(lp1197
g57
(g78
g59
NtRp1198
(dp1199
g62
(dp1200
g82
g83
ssg71
g1194
sg64
(lp1201
S'http_web2py_component_element'
p1202
asbag57
(g78
g59
NtRp1203
(dp1204
g62
(dp1205
g89
g90
ssg71
g1194
sg64
(lp1206
S':'
asbag57
(g78
g59
NtRp1207
(dp1208
g62
(dp1209
sg71
g1194
sg64
(lp1210
g57
(g58
g59
NtRp1211
(dp1212
g62
(dp1213
g70
I4
ssg71
g1207
sg64
(lp1214
g203
asbasbasbag57
(g73
g59
NtRp1215
(dp1216
g62
(dp1217
sg71
g857
sg64
(lp1218
g57
(g78
g59
NtRp1219
(dp1220
g62
(dp1221
g82
g83
ssg71
g1215
sg64
(lp1222
S'http_web2py_component_location'
p1223
asbag57
(g78
g59
NtRp1224
(dp1225
g62
(dp1226
g89
g90
ssg71
g1215
sg64
(lp1227
S':'
asbag57
(g78
g59
NtRp1228
(dp1229
g62
(dp1230
sg71
g1215
sg64
(lp1231
g57
(g58
g59
NtRp1232
(dp1233
g62
(dp1234
g70
I4
ssg71
g1228
sg64
(lp1235
S'http://127.0.0.1:8000/paideia/exploring/index'
p1236
asbasbasbag57
(g73
g59
NtRp1237
(dp1238
g62
(dp1239
sg71
g857
sg64
(lp1240
g57
(g78
g59
NtRp1241
(dp1242
g62
(dp1243
g82
g83
ssg71
g1237
sg64
(lp1244
S'http_x_requested_with'
p1245
asbag57
(g78
g59
NtRp1246
(dp1247
g62
(dp1248
g89
g90
ssg71
g1237
sg64
(lp1249
S':'
asbag57
(g78
g59
NtRp1250
(dp1251
g62
(dp1252
sg71
g1237
sg64
(lp1253
g57
(g58
g59
NtRp1254
(dp1255
g62
(dp1256
g70
I4
ssg71
g1250
sg64
(lp1257
S'XMLHttpRequest'
p1258
asbasbasbag57
(g73
g59
NtRp1259
(dp1260
g62
(dp1261
sg71
g857
sg64
(lp1262
g57
(g78
g59
NtRp1263
(dp1264
g62
(dp1265
g82
g83
ssg71
g1259
sg64
(lp1266
S'is_jython'
p1267
asbag57
(g78
g59
NtRp1268
(dp1269
g62
(dp1270
g89
g90
ssg71
g1259
sg64
(lp1271
S':'
asbag57
(g78
g59
NtRp1272
(dp1273
g62
(dp1274
sg71
g1259
sg64
(lp1275
g57
(g58
g59
NtRp1276
(dp1277
g62
(dp1278
g70
I4
ssg71
g1272
sg64
(lp1279
g995
asbasbasbag57
(g73
g59
NtRp1280
(dp1281
g62
(dp1282
sg71
g857
sg64
(lp1283
g57
(g78
g59
NtRp1284
(dp1285
g62
(dp1286
g82
g83
ssg71
g1280
sg64
(lp1287
S'is_pypy'
p1288
asbag57
(g78
g59
NtRp1289
(dp1290
g62
(dp1291
g89
g90
ssg71
g1280
sg64
(lp1292
S':'
asbag57
(g78
g59
NtRp1293
(dp1294
g62
(dp1295
sg71
g1280
sg64
(lp1296
g57
(g58
g59
NtRp1297
(dp1298
g62
(dp1299
g70
I4
ssg71
g1293
sg64
(lp1300
g995
asbasbasbag57
(g73
g59
NtRp1301
(dp1302
g62
(dp1303
sg71
g857
sg64
(lp1304
g57
(g78
g59
NtRp1305
(dp1306
g62
(dp1307
g82
g83
ssg71
g1301
sg64
(lp1308
S'path_info'
p1309
asbag57
(g78
g59
NtRp1310
(dp1311
g62
(dp1312
g89
g90
ssg71
g1301
sg64
(lp1313
S':'
asbag57
(g78
g59
NtRp1314
(dp1315
g62
(dp1316
sg71
g1301
sg64
(lp1317
g57
(g58
g59
NtRp1318
(dp1319
g62
(dp1320
g70
I4
ssg71
g1314
sg64
(lp1321
S'/paideia/exploring/index.load/ask'
p1322
asbasbasbag57
(g73
g59
NtRp1323
(dp1324
g62
(dp1325
sg71
g857
sg64
(lp1326
g57
(g78
g59
NtRp1327
(dp1328
g62
(dp1329
g82
g83
ssg71
g1323
sg64
(lp1330
S'query_string'
p1331
asbag57
(g78
g59
NtRp1332
(dp1333
g62
(dp1334
g89
g90
ssg71
g1323
sg64
(lp1335
S':'
asbag57
(g78
g59
NtRp1336
(dp1337
g62
(dp1338
sg71
g1323
sg64
(lp1339
g57
(g58
g59
NtRp1340
(dp1341
g62
(dp1342
g70
I4
ssg71
g1336
sg64
(lp1343
S'loc=domusA'
p1344
asbasbasbag57
(g73
g59
NtRp1345
(dp1346
g62
(dp1347
sg71
g857
sg64
(lp1348
g57
(g78
g59
NtRp1349
(dp1350
g62
(dp1351
g82
g83
ssg71
g1345
sg64
(lp1352
S'remote_addr'
p1353
asbag57
(g78
g59
NtRp1354
(dp1355
g62
(dp1356
g89
g90
ssg71
g1345
sg64
(lp1357
S':'
asbag57
(g78
g59
NtRp1358
(dp1359
g62
(dp1360
sg71
g1345
sg64
(lp1361
g57
(g58
g59
NtRp1362
(dp1363
g62
(dp1364
g70
I4
ssg71
g1358
sg64
(lp1365
g225
asbasbasbag57
(g73
g59
NtRp1366
(dp1367
g62
(dp1368
sg71
g857
sg64
(lp1369
g57
(g78
g59
NtRp1370
(dp1371
g62
(dp1372
g82
g83
ssg71
g1366
sg64
(lp1373
S'remote_port'
p1374
asbag57
(g78
g59
NtRp1375
(dp1376
g62
(dp1377
g89
g90
ssg71
g1366
sg64
(lp1378
S':'
asbag57
(g78
g59
NtRp1379
(dp1380
g62
(dp1381
sg71
g1366
sg64
(lp1382
g57
(g58
g59
NtRp1383
(dp1384
g62
(dp1385
g70
I4
ssg71
g1379
sg64
(lp1386
S'53852'
p1387
asbasbasbag57
(g73
g59
NtRp1388
(dp1389
g62
(dp1390
sg71
g857
sg64
(lp1391
g57
(g78
g59
NtRp1392
(dp1393
g62
(dp1394
g82
g83
ssg71
g1388
sg64
(lp1395
S'request_method'
p1396
asbag57
(g78
g59
NtRp1397
(dp1398
g62
(dp1399
g89
g90
ssg71
g1388
sg64
(lp1400
S':'
asbag57
(g78
g59
NtRp1401
(dp1402
g62
(dp1403
sg71
g1388
sg64
(lp1404
g57
(g58
g59
NtRp1405
(dp1406
g62
(dp1407
g70
I4
ssg71
g1401
sg64
(lp1408
S'GET'
p1409
asbasbasbag57
(g73
g59
NtRp1410
(dp1411
g62
(dp1412
sg71
g857
sg64
(lp1413
g57
(g78
g59
NtRp1414
(dp1415
g62
(dp1416
g82
g83
ssg71
g1410
sg64
(lp1417
S'script_name'
p1418
asbag57
(g78
g59
NtRp1419
(dp1420
g62
(dp1421
g89
g90
ssg71
g1410
sg64
(lp1422
S':'
asbag57
(g78
g59
NtRp1423
(dp1424
g62
(dp1425
sg71
g1410
sg64
(lp1426
g57
(g58
g59
NtRp1427
(dp1428
g62
(dp1429
g70
I4
ssg71
g1423
sg64
(lp1430
S''
asbasbasbag57
(g73
g59
NtRp1431
(dp1432
g62
(dp1433
sg71
g857
sg64
(lp1434
g57
(g78
g59
NtRp1435
(dp1436
g62
(dp1437
g82
g83
ssg71
g1431
sg64
(lp1438
S'server_name'
p1439
asbag57
(g78
g59
NtRp1440
(dp1441
g62
(dp1442
g89
g90
ssg71
g1431
sg64
(lp1443
S':'
asbag57
(g78
g59
NtRp1444
(dp1445
g62
(dp1446
sg71
g1431
sg64
(lp1447
g57
(g58
g59
NtRp1448
(dp1449
g62
(dp1450
g70
I4
ssg71
g1444
sg64
(lp1451
S'ubuntu'
p1452
asbasbasbag57
(g73
g59
NtRp1453
(dp1454
g62
(dp1455
sg71
g857
sg64
(lp1456
g57
(g78
g59
NtRp1457
(dp1458
g62
(dp1459
g82
g83
ssg71
g1453
sg64
(lp1460
S'server_port'
p1461
asbag57
(g78
g59
NtRp1462
(dp1463
g62
(dp1464
g89
g90
ssg71
g1453
sg64
(lp1465
S':'
asbag57
(g78
g59
NtRp1466
(dp1467
g62
(dp1468
sg71
g1453
sg64
(lp1469
g57
(g58
g59
NtRp1470
(dp1471
g62
(dp1472
g70
I4
ssg71
g1466
sg64
(lp1473
S'8000'
p1474
asbasbasbag57
(g73
g59
NtRp1475
(dp1476
g62
(dp1477
sg71
g857
sg64
(lp1478
g57
(g78
g59
NtRp1479
(dp1480
g62
(dp1481
g82
g83
ssg71
g1475
sg64
(lp1482
S'server_protocol'
p1483
asbag57
(g78
g59
NtRp1484
(dp1485
g62
(dp1486
g89
g90
ssg71
g1475
sg64
(lp1487
S':'
asbag57
(g78
g59
NtRp1488
(dp1489
g62
(dp1490
sg71
g1475
sg64
(lp1491
g57
(g58
g59
NtRp1492
(dp1493
g62
(dp1494
g70
I4
ssg71
g1488
sg64
(lp1495
S'HTTP/1.1'
p1496
asbasbasbag57
(g73
g59
NtRp1497
(dp1498
g62
(dp1499
sg71
g857
sg64
(lp1500
g57
(g78
g59
NtRp1501
(dp1502
g62
(dp1503
g82
g83
ssg71
g1497
sg64
(lp1504
S'server_software'
p1505
asbag57
(g78
g59
NtRp1506
(dp1507
g62
(dp1508
g89
g90
ssg71
g1497
sg64
(lp1509
S':'
asbag57
(g78
g59
NtRp1510
(dp1511
g62
(dp1512
sg71
g1497
sg64
(lp1513
g57
(g58
g59
NtRp1514
(dp1515
g62
(dp1516
g70
I4
ssg71
g1510
sg64
(lp1517
S'Rocket 1.2.4'
p1518
asbasbasbag57
(g73
g59
NtRp1519
(dp1520
g62
(dp1521
sg71
g857
sg64
(lp1522
g57
(g78
g59
NtRp1523
(dp1524
g62
(dp1525
g82
g83
ssg71
g1519
sg64
(lp1526
S'web2py_crontype'
p1527
asbag57
(g78
g59
NtRp1528
(dp1529
g62
(dp1530
g89
g90
ssg71
g1519
sg64
(lp1531
S':'
asbag57
(g78
g59
NtRp1532
(dp1533
g62
(dp1534
sg71
g1519
sg64
(lp1535
g57
(g58
g59
NtRp1536
(dp1537
g62
(dp1538
g70
I4
ssg71
g1532
sg64
(lp1539
S'hard'
p1540
asbasbasbag57
(g73
g59
NtRp1541
(dp1542
g62
(dp1543
sg71
g857
sg64
(lp1544
g57
(g78
g59
NtRp1545
(dp1546
g62
(dp1547
g82
g83
ssg71
g1541
sg64
(lp1548
S'web2py_path'
p1549
asbag57
(g78
g59
NtRp1550
(dp1551
g62
(dp1552
g89
g90
ssg71
g1541
sg64
(lp1553
S':'
asbag57
(g78
g59
NtRp1554
(dp1555
g62
(dp1556
sg71
g1541
sg64
(lp1557
g57
(g58
g59
NtRp1558
(dp1559
g62
(dp1560
g70
I4
ssg71
g1554
sg64
(lp1561
g904
asbasbasbag57
(g73
g59
NtRp1562
(dp1563
g62
(dp1564
sg71
g857
sg64
(lp1565
g57
(g78
g59
NtRp1566
(dp1567
g62
(dp1568
g82
g83
ssg71
g1562
sg64
(lp1569
S'web2py_version'
p1570
asbag57
(g78
g59
NtRp1571
(dp1572
g62
(dp1573
g89
g90
ssg71
g1562
sg64
(lp1574
S':'
asbag57
(g78
g59
NtRp1575
(dp1576
g62
(dp1577
sg71
g1562
sg64
(lp1578
g57
(g58
g59
NtRp1579
(dp1580
g62
(dp1581
g70
I4
ssg71
g1575
sg64
(lp1582
g57
(g66
g59
NtRp1583
(dp1584
g62
(dp1585
g70
I3
ssg71
Nsg64
(lp1586
g57
(g73
g59
NtRp1587
(dp1588
g62
(dp1589
sg71
g1583
sg64
(lp1590
g57
(g78
g59
NtRp1591
(dp1592
g62
(dp1593
sg71
g1587
sg64
(lp1594
g57
(g58
g59
NtRp1595
(dp1596
g62
(dp1597
g70
I3
ssg71
g1591
sg64
(lp1598
S'1'
asbasbasbag57
(g73
g59
NtRp1599
(dp1600
g62
(dp1601
sg71
g1583
sg64
(lp1602
g57
(g78
g59
NtRp1603
(dp1604
g62
(dp1605
sg71
g1599
sg64
(lp1606
g57
(g58
g59
NtRp1607
(dp1608
g62
(dp1609
g70
I3
ssg71
g1603
sg64
(lp1610
S'99'
p1611
asbasbasbag57
(g73
g59
NtRp1612
(dp1613
g62
(dp1614
sg71
g1583
sg64
(lp1615
g57
(g78
g59
NtRp1616
(dp1617
g62
(dp1618
sg71
g1612
sg64
(lp1619
g57
(g58
g59
NtRp1620
(dp1621
g62
(dp1622
g70
I3
ssg71
g1616
sg64
(lp1623
S'4'
asbasbasbag57
(g73
g59
NtRp1624
(dp1625
g62
(dp1626
sg71
g1583
sg64
(lp1627
g57
(g78
g59
NtRp1628
(dp1629
g62
(dp1630
sg71
g1624
sg64
(lp1631
g57
(g58
g59
NtRp1632
(dp1633
g62
(dp1634
g70
I3
ssg71
g1628
sg64
(lp1635
S'datetime.datetime(2011, 12, 14, 14, 46, 14)'
p1636
asbasbasbag57
(g73
g59
NtRp1637
(dp1638
g62
(dp1639
sg71
g1583
sg64
(lp1640
g57
(g78
g59
NtRp1641
(dp1642
g62
(dp1643
sg71
g1637
sg64
(lp1644
g57
(g58
g59
NtRp1645
(dp1646
g62
(dp1647
g70
I3
ssg71
g1641
sg64
(lp1648
S'stable'
p1649
asbasbasbasbasbasbasbag57
(g73
g59
NtRp1650
(dp1651
g62
(dp1652
sg71
g857
sg64
(lp1653
g57
(g78
g59
NtRp1654
(dp1655
g62
(dp1656
g82
g83
ssg71
g1650
sg64
(lp1657
S'wsgi_errors'
p1658
asbag57
(g78
g59
NtRp1659
(dp1660
g62
(dp1661
g89
g90
ssg71
g1650
sg64
(lp1662
S':'
asbag57
(g78
g59
NtRp1663
(dp1664
g62
(dp1665
sg71
g1650
sg64
(lp1666
g57
(g58
g59
NtRp1667
(dp1668
g62
(dp1669
g70
I4
ssg71
g1663
sg64
(lp1670
S"<open file '<stderr>', mode 'w' at 0xb77030d0>"
p1671
asbasbasbag57
(g73
g59
NtRp1672
(dp1673
g62
(dp1674
sg71
g857
sg64
(lp1675
g57
(g78
g59
NtRp1676
(dp1677
g62
(dp1678
g82
g83
ssg71
g1672
sg64
(lp1679
S'wsgi_file_wrapper'
p1680
asbag57
(g78
g59
NtRp1681
(dp1682
g62
(dp1683
g89
g90
ssg71
g1672
sg64
(lp1684
S':'
asbag57
(g78
g59
NtRp1685
(dp1686
g62
(dp1687
sg71
g1672
sg64
(lp1688
g57
(g58
g59
NtRp1689
(dp1690
g62
(dp1691
g70
I4
ssg71
g1685
sg64
(lp1692
S'<class wsgiref.util.FileWrapper at 0x8a6720c>'
p1693
asbasbasbag57
(g73
g59
NtRp1694
(dp1695
g62
(dp1696
sg71
g857
sg64
(lp1697
g57
(g78
g59
NtRp1698
(dp1699
g62
(dp1700
g82
g83
ssg71
g1694
sg64
(lp1701
S'wsgi_input'
p1702
asbag57
(g78
g59
NtRp1703
(dp1704
g62
(dp1705
g89
g90
ssg71
g1694
sg64
(lp1706
S':'
asbag57
(g78
g59
NtRp1707
(dp1708
g62
(dp1709
sg71
g1694
sg64
(lp1710
g57
(g58
g59
NtRp1711
(dp1712
g62
(dp1713
g70
I4
ssg71
g1707
sg64
(lp1714
S'<socket._fileobject object at 0x999cdac>'
p1715
asbasbasbag57
(g73
g59
NtRp1716
(dp1717
g62
(dp1718
sg71
g857
sg64
(lp1719
g57
(g78
g59
NtRp1720
(dp1721
g62
(dp1722
g82
g83
ssg71
g1716
sg64
(lp1723
S'wsgi_multiprocess'
p1724
asbag57
(g78
g59
NtRp1725
(dp1726
g62
(dp1727
g89
g90
ssg71
g1716
sg64
(lp1728
S':'
asbag57
(g78
g59
NtRp1729
(dp1730
g62
(dp1731
sg71
g1716
sg64
(lp1732
g57
(g58
g59
NtRp1733
(dp1734
g62
(dp1735
g70
I4
ssg71
g1729
sg64
(lp1736
g995
asbasbasbag57
(g73
g59
NtRp1737
(dp1738
g62
(dp1739
sg71
g857
sg64
(lp1740
g57
(g78
g59
NtRp1741
(dp1742
g62
(dp1743
g82
g83
ssg71
g1737
sg64
(lp1744
S'wsgi_multithread'
p1745
asbag57
(g78
g59
NtRp1746
(dp1747
g62
(dp1748
g89
g90
ssg71
g1737
sg64
(lp1749
S':'
asbag57
(g78
g59
NtRp1750
(dp1751
g62
(dp1752
sg71
g1737
sg64
(lp1753
g57
(g58
g59
NtRp1754
(dp1755
g62
(dp1756
g70
I4
ssg71
g1750
sg64
(lp1757
g100
asbasbasbag57
(g73
g59
NtRp1758
(dp1759
g62
(dp1760
sg71
g857
sg64
(lp1761
g57
(g78
g59
NtRp1762
(dp1763
g62
(dp1764
g82
g83
ssg71
g1758
sg64
(lp1765
S'wsgi_run_once'
p1766
asbag57
(g78
g59
NtRp1767
(dp1768
g62
(dp1769
g89
g90
ssg71
g1758
sg64
(lp1770
S':'
asbag57
(g78
g59
NtRp1771
(dp1772
g62
(dp1773
sg71
g1758
sg64
(lp1774
g57
(g58
g59
NtRp1775
(dp1776
g62
(dp1777
g70
I4
ssg71
g1771
sg64
(lp1778
g995
asbasbasbag57
(g73
g59
NtRp1779
(dp1780
g62
(dp1781
sg71
g857
sg64
(lp1782
g57
(g78
g59
NtRp1783
(dp1784
g62
(dp1785
g82
g83
ssg71
g1779
sg64
(lp1786
S'wsgi_url_scheme'
p1787
asbag57
(g78
g59
NtRp1788
(dp1789
g62
(dp1790
g89
g90
ssg71
g1779
sg64
(lp1791
S':'
asbag57
(g78
g59
NtRp1792
(dp1793
g62
(dp1794
sg71
g1779
sg64
(lp1795
g57
(g58
g59
NtRp1796
(dp1797
g62
(dp1798
g70
I4
ssg71
g1792
sg64
(lp1799
S'http'
p1800
asbasbasbag57
(g73
g59
NtRp1801
(dp1802
g62
(dp1803
sg71
g857
sg64
(lp1804
g57
(g78
g59
NtRp1805
(dp1806
g62
(dp1807
g82
g83
ssg71
g1801
sg64
(lp1808
S'wsgi_version'
p1809
asbag57
(g78
g59
NtRp1810
(dp1811
g62
(dp1812
g89
g90
ssg71
g1801
sg64
(lp1813
S':'
asbag57
(g78
g59
NtRp1814
(dp1815
g62
(dp1816
sg71
g1801
sg64
(lp1817
g57
(g58
g59
NtRp1818
(dp1819
g62
(dp1820
g70
I4
ssg71
g1814
sg64
(lp1821
g57
(g66
g59
NtRp1822
(dp1823
g62
(dp1824
g70
I3
ssg71
Nsg64
(lp1825
g57
(g73
g59
NtRp1826
(dp1827
g62
(dp1828
sg71
g1822
sg64
(lp1829
g57
(g78
g59
NtRp1830
(dp1831
g62
(dp1832
sg71
g1826
sg64
(lp1833
g57
(g58
g59
NtRp1834
(dp1835
g62
(dp1836
g70
I3
ssg71
g1830
sg64
(lp1837
S'1'
asbasbasbag57
(g73
g59
NtRp1838
(dp1839
g62
(dp1840
sg71
g1822
sg64
(lp1841
g57
(g78
g59
NtRp1842
(dp1843
g62
(dp1844
sg71
g1838
sg64
(lp1845
g57
(g58
g59
NtRp1846
(dp1847
g62
(dp1848
g70
I3
ssg71
g1842
sg64
(lp1849
S'0'
asbasbasbasbasbasbasbasbasbasbasbag57
(g73
g59
NtRp1850
(dp1851
g62
(dp1852
sg71
g67
sg64
(lp1853
g57
(g78
g59
NtRp1854
(dp1855
g62
(dp1856
g82
g83
ssg71
g1850
sg64
(lp1857
S'extension'
p1858
asbag57
(g78
g59
NtRp1859
(dp1860
g62
(dp1861
g89
g90
ssg71
g1850
sg64
(lp1862
S':'
asbag57
(g78
g59
NtRp1863
(dp1864
g62
(dp1865
sg71
g1850
sg64
(lp1866
g57
(g58
g59
NtRp1867
(dp1868
g62
(dp1869
g70
I5
ssg71
g1863
sg64
(lp1870
S'load'
p1871
asbasbasbag57
(g73
g59
NtRp1872
(dp1873
g62
(dp1874
sg71
g67
sg64
(lp1875
g57
(g78
g59
NtRp1876
(dp1877
g62
(dp1878
g82
g83
ssg71
g1872
sg64
(lp1879
S'folder'
p1880
asbag57
(g78
g59
NtRp1881
(dp1882
g62
(dp1883
g89
g90
ssg71
g1872
sg64
(lp1884
S':'
asbag57
(g78
g59
NtRp1885
(dp1886
g62
(dp1887
sg71
g1872
sg64
(lp1888
g57
(g58
g59
NtRp1889
(dp1890
g62
(dp1891
g70
I5
ssg71
g1885
sg64
(lp1892
S'/home/iscott/web/web2py/applications/paideia/'
p1893
asbasbasbag57
(g73
g59
NtRp1894
(dp1895
g62
(dp1896
sg71
g67
sg64
(lp1897
g57
(g78
g59
NtRp1898
(dp1899
g62
(dp1900
g82
g83
ssg71
g1894
sg64
(lp1901
S'function'
p1902
asbag57
(g78
g59
NtRp1903
(dp1904
g62
(dp1905
g89
g90
ssg71
g1894
sg64
(lp1906
S':'
asbag57
(g78
g59
NtRp1907
(dp1908
g62
(dp1909
sg71
g1894
sg64
(lp1910
g57
(g58
g59
NtRp1911
(dp1912
g62
(dp1913
g70
I5
ssg71
g1907
sg64
(lp1914
S'index'
p1915
asbasbasbag57
(g73
g59
NtRp1916
(dp1917
g62
(dp1918
sg71
g67
sg64
(lp1919
g57
(g78
g59
NtRp1920
(dp1921
g62
(dp1922
g82
g83
ssg71
g1916
sg64
(lp1923
S'get_vars'
p1924
asbag57
(g78
g59
NtRp1925
(dp1926
g62
(dp1927
g89
g90
ssg71
g1916
sg64
(lp1928
S':'
asbag57
(g78
g59
NtRp1929
(dp1930
g62
(dp1931
sg71
g1916
sg64
(lp1932
g57
(g58
g59
NtRp1933
(dp1934
g62
(dp1935
g70
I5
ssg71
g1929
sg64
(lp1936
g57
(g66
g59
NtRp1937
(dp1938
g62
(dp1939
g70
I4
ssg71
Nsg64
(lp1940
g57
(g73
g59
NtRp1941
(dp1942
g62
(dp1943
sg71
g1937
sg64
(lp1944
g57
(g78
g59
NtRp1945
(dp1946
g62
(dp1947
g82
g83
ssg71
g1941
sg64
(lp1948
S'loc'
p1949
asbag57
(g78
g59
NtRp1950
(dp1951
g62
(dp1952
g89
g90
ssg71
g1941
sg64
(lp1953
S':'
asbag57
(g78
g59
NtRp1954
(dp1955
g62
(dp1956
sg71
g1941
sg64
(lp1957
g57
(g58
g59
NtRp1958
(dp1959
g62
(dp1960
g70
I4
ssg71
g1954
sg64
(lp1961
S'domusA'
p1962
asbasbasbasbasbasbasbag57
(g73
g59
NtRp1963
(dp1964
g62
(dp1965
sg71
g67
sg64
(lp1966
g57
(g78
g59
NtRp1967
(dp1968
g62
(dp1969
g82
g83
ssg71
g1963
sg64
(lp1970
S'global_settings'
p1971
asbag57
(g78
g59
NtRp1972
(dp1973
g62
(dp1974
g89
g90
ssg71
g1963
sg64
(lp1975
S':'
asbag57
(g78
g59
NtRp1976
(dp1977
g62
(dp1978
sg71
g1963
sg64
(lp1979
g57
(g58
g59
NtRp1980
(dp1981
g62
(dp1982
g70
I5
ssg71
g1976
sg64
(lp1983
g57
(g66
g59
NtRp1984
(dp1985
g62
(dp1986
g70
I4
ssg71
Nsg64
(lp1987
g57
(g73
g59
NtRp1988
(dp1989
g62
(dp1990
sg71
g1984
sg64
(lp1991
g57
(g78
g59
NtRp1992
(dp1993
g62
(dp1994
g82
g83
ssg71
g1988
sg64
(lp1995
g869
asbag57
(g78
g59
NtRp1996
(dp1997
g62
(dp1998
g89
g90
ssg71
g1988
sg64
(lp1999
S':'
asbag57
(g78
g59
NtRp2000
(dp2001
g62
(dp2002
sg71
g1988
sg64
(lp2003
g57
(g58
g59
NtRp2004
(dp2005
g62
(dp2006
g70
I4
ssg71
g2000
sg64
(lp2007
S"set(['/home/iscott/web/web2py/applications/paideia/', '/home/iscott/web/web2py/applications/admin/', '/home/iscott/web/web2py/applications/welcome/'])"
p2008
asbasbasbag57
(g73
g59
NtRp2009
(dp2010
g62
(dp2011
sg71
g1984
sg64
(lp2012
g57
(g78
g59
NtRp2013
(dp2014
g62
(dp2015
g82
g83
ssg71
g2009
sg64
(lp2016
g891
asbag57
(g78
g59
NtRp2017
(dp2018
g62
(dp2019
g89
g90
ssg71
g2009
sg64
(lp2020
S':'
asbag57
(g78
g59
NtRp2021
(dp2022
g62
(dp2023
sg71
g2009
sg64
(lp2024
g57
(g58
g59
NtRp2025
(dp2026
g62
(dp2027
g70
I4
ssg71
g2021
sg64
(lp2028
g904
asbasbasbag57
(g73
g59
NtRp2029
(dp2030
g62
(dp2031
sg71
g1984
sg64
(lp2032
g57
(g78
g59
NtRp2033
(dp2034
g62
(dp2035
g82
g83
ssg71
g2029
sg64
(lp2036
g913
asbag57
(g78
g59
NtRp2037
(dp2038
g62
(dp2039
g89
g90
ssg71
g2029
sg64
(lp2040
S':'
asbag57
(g78
g59
NtRp2041
(dp2042
g62
(dp2043
sg71
g2029
sg64
(lp2044
g57
(g58
g59
NtRp2045
(dp2046
g62
(dp2047
g70
I4
ssg71
g2041
sg64
(lp2048
g57
(g66
g59
NtRp2049
(dp2050
g62
(dp2051
g70
I3
ssg71
Nsg64
(lp2052
sbasbasbasbag57
(g73
g59
NtRp2053
(dp2054
g62
(dp2055
sg71
g1984
sg64
(lp2056
g57
(g78
g59
NtRp2057
(dp2058
g62
(dp2059
g82
g83
ssg71
g2053
sg64
(lp2060
g938
asbag57
(g78
g59
NtRp2061
(dp2062
g62
(dp2063
g89
g90
ssg71
g2053
sg64
(lp2064
S':'
asbag57
(g78
g59
NtRp2065
(dp2066
g62
(dp2067
sg71
g2053
sg64
(lp2068
g57
(g58
g59
NtRp2069
(dp2070
g62
(dp2071
g70
I4
ssg71
g2065
sg64
(lp2072
S"<Values at 0x8b1eb8c: {'verbose': False, 'ip': '127.0.0.1', 'shutdown_timeout': 5, 'taskbar': False, 'nocron': False, 'pid_filename': 'httpserver.pid', 'maxthreads': None, 'softcron': False, 'server_name': 'ubuntu', 'bpython': False, 'nogui': False, 'port': 8000, 'extcron': False, 'debuglevel': 30, 'test': None, 'folder': '/home/iscott/web/web2py', 'config': '', 'import_models': False, 'winservice': '', 'shell': None, 'run': '', 'log_filename': 'httpserver.log', 'args': [''], 'socket_timeout': 1, 'ssl_ca_certificate': None, 'scheduler': None, 'profiler_filename': None, 'ssl_private_key': '', 'password': '<ask>', 'request_queue_size': 5, 'ssl_certificate': '', 'cronjob': False, 'numthreads': None, 'quiet': False, 'interfaces': None, 'minthreads': None, 'timeout': 10, 'plain': False, 'nobanner': False}>"
p2073
asbasbasbag57
(g73
g59
NtRp2074
(dp2075
g62
(dp2076
sg71
g1984
sg64
(lp2077
g57
(g78
g59
NtRp2078
(dp2079
g62
(dp2080
g82
g83
ssg71
g2074
sg64
(lp2081
g960
asbag57
(g78
g59
NtRp2082
(dp2083
g62
(dp2084
g89
g90
ssg71
g2074
sg64
(lp2085
S':'
asbag57
(g78
g59
NtRp2086
(dp2087
g62
(dp2088
sg71
g2074
sg64
(lp2089
g57
(g58
g59
NtRp2090
(dp2091
g62
(dp2092
g70
I4
ssg71
g2086
sg64
(lp2093
S'set([])'
p2094
asbasbasbag57
(g73
g59
NtRp2095
(dp2096
g62
(dp2097
sg71
g1984
sg64
(lp2098
g57
(g78
g59
NtRp2099
(dp2100
g62
(dp2101
g82
g83
ssg71
g2095
sg64
(lp2102
g982
asbag57
(g78
g59
NtRp2103
(dp2104
g62
(dp2105
g89
g90
ssg71
g2095
sg64
(lp2106
S':'
asbag57
(g78
g59
NtRp2107
(dp2108
g62
(dp2109
sg71
g2095
sg64
(lp2110
g57
(g58
g59
NtRp2111
(dp2112
g62
(dp2113
g70
I4
ssg71
g2107
sg64
(lp2114
g995
asbasbasbag57
(g73
g59
NtRp2115
(dp2116
g62
(dp2117
sg71
g1984
sg64
(lp2118
g57
(g78
g59
NtRp2119
(dp2120
g62
(dp2121
g82
g83
ssg71
g2115
sg64
(lp2122
g1004
asbag57
(g78
g59
NtRp2123
(dp2124
g62
(dp2125
g89
g90
ssg71
g2115
sg64
(lp2126
S':'
asbag57
(g78
g59
NtRp2127
(dp2128
g62
(dp2129
sg71
g2115
sg64
(lp2130
g57
(g58
g59
NtRp2131
(dp2132
g62
(dp2133
g70
I4
ssg71
g2127
sg64
(lp2134
g1017
asbasbasbag57
(g73
g59
NtRp2135
(dp2136
g62
(dp2137
sg71
g1984
sg64
(lp2138
g57
(g78
g59
NtRp2139
(dp2140
g62
(dp2141
g82
g83
ssg71
g2135
sg64
(lp2142
g1267
asbag57
(g78
g59
NtRp2143
(dp2144
g62
(dp2145
g89
g90
ssg71
g2135
sg64
(lp2146
S':'
asbag57
(g78
g59
NtRp2147
(dp2148
g62
(dp2149
sg71
g2135
sg64
(lp2150
g57
(g58
g59
NtRp2151
(dp2152
g62
(dp2153
g70
I4
ssg71
g2147
sg64
(lp2154
g995
asbasbasbag57
(g73
g59
NtRp2155
(dp2156
g62
(dp2157
sg71
g1984
sg64
(lp2158
g57
(g78
g59
NtRp2159
(dp2160
g62
(dp2161
g82
g83
ssg71
g2155
sg64
(lp2162
g1288
asbag57
(g78
g59
NtRp2163
(dp2164
g62
(dp2165
g89
g90
ssg71
g2155
sg64
(lp2166
S':'
asbag57
(g78
g59
NtRp2167
(dp2168
g62
(dp2169
sg71
g2155
sg64
(lp2170
g57
(g58
g59
NtRp2171
(dp2172
g62
(dp2173
g70
I4
ssg71
g2167
sg64
(lp2174
g995
asbasbasbag57
(g73
g59
NtRp2175
(dp2176
g62
(dp2177
sg71
g1984
sg64
(lp2178
g57
(g78
g59
NtRp2179
(dp2180
g62
(dp2181
g82
g83
ssg71
g2175
sg64
(lp2182
g1527
asbag57
(g78
g59
NtRp2183
(dp2184
g62
(dp2185
g89
g90
ssg71
g2175
sg64
(lp2186
S':'
asbag57
(g78
g59
NtRp2187
(dp2188
g62
(dp2189
sg71
g2175
sg64
(lp2190
g57
(g58
g59
NtRp2191
(dp2192
g62
(dp2193
g70
I4
ssg71
g2187
sg64
(lp2194
g1540
asbasbasbag57
(g73
g59
NtRp2195
(dp2196
g62
(dp2197
sg71
g1984
sg64
(lp2198
g57
(g78
g59
NtRp2199
(dp2200
g62
(dp2201
g82
g83
ssg71
g2195
sg64
(lp2202
g1570
asbag57
(g78
g59
NtRp2203
(dp2204
g62
(dp2205
g89
g90
ssg71
g2195
sg64
(lp2206
S':'
asbag57
(g78
g59
NtRp2207
(dp2208
g62
(dp2209
sg71
g2195
sg64
(lp2210
g57
(g58
g59
NtRp2211
(dp2212
g62
(dp2213
g70
I4
ssg71
g2207
sg64
(lp2214
g57
(g66
g59
NtRp2215
(dp2216
g62
(dp2217
g70
I3
ssg71
Nsg64
(lp2218
g57
(g73
g59
NtRp2219
(dp2220
g62
(dp2221
sg71
g2215
sg64
(lp2222
g57
(g78
g59
NtRp2223
(dp2224
g62
(dp2225
sg71
g2219
sg64
(lp2226
g57
(g58
g59
NtRp2227
(dp2228
g62
(dp2229
g70
I3
ssg71
g2223
sg64
(lp2230
S'1'
asbasbasbag57
(g73
g59
NtRp2231
(dp2232
g62
(dp2233
sg71
g2215
sg64
(lp2234
g57
(g78
g59
NtRp2235
(dp2236
g62
(dp2237
sg71
g2231
sg64
(lp2238
g57
(g58
g59
NtRp2239
(dp2240
g62
(dp2241
g70
I3
ssg71
g2235
sg64
(lp2242
S'99'
p2243
asbasbasbag57
(g73
g59
NtRp2244
(dp2245
g62
(dp2246
sg71
g2215
sg64
(lp2247
g57
(g78
g59
NtRp2248
(dp2249
g62
(dp2250
sg71
g2244
sg64
(lp2251
g57
(g58
g59
NtRp2252
(dp2253
g62
(dp2254
g70
I3
ssg71
g2248
sg64
(lp2255
S'4'
asbasbasbag57
(g73
g59
NtRp2256
(dp2257
g62
(dp2258
sg71
g2215
sg64
(lp2259
g57
(g78
g59
NtRp2260
(dp2261
g62
(dp2262
sg71
g2256
sg64
(lp2263
g57
(g58
g59
NtRp2264
(dp2265
g62
(dp2266
g70
I3
ssg71
g2260
sg64
(lp2267
S'datetime.datetime(2011, 12, 14, 14, 46, 14)'
p2268
asbasbasbag57
(g73
g59
NtRp2269
(dp2270
g62
(dp2271
sg71
g2215
sg64
(lp2272
g57
(g78
g59
NtRp2273
(dp2274
g62
(dp2275
sg71
g2269
sg64
(lp2276
g57
(g58
g59
NtRp2277
(dp2278
g62
(dp2279
g70
I3
ssg71
g2273
sg64
(lp2280
g1649
asbasbasbasbasbasbasbasbasbasbasbag57
(g73
g59
NtRp2281
(dp2282
g62
(dp2283
sg71
g67
sg64
(lp2284
g57
(g78
g59
NtRp2285
(dp2286
g62
(dp2287
g82
g83
ssg71
g2281
sg64
(lp2288
S'is_https'
p2289
asbag57
(g78
g59
NtRp2290
(dp2291
g62
(dp2292
g89
g90
ssg71
g2281
sg64
(lp2293
S':'
asbag57
(g78
g59
NtRp2294
(dp2295
g62
(dp2296
sg71
g2281
sg64
(lp2297
g57
(g58
g59
NtRp2298
(dp2299
g62
(dp2300
g70
I5
ssg71
g2294
sg64
(lp2301
g995
asbasbasbag57
(g73
g59
NtRp2302
(dp2303
g62
(dp2304
sg71
g67
sg64
(lp2305
g57
(g78
g59
NtRp2306
(dp2307
g62
(dp2308
g82
g83
ssg71
g2302
sg64
(lp2309
S'is_local'
p2310
asbag57
(g78
g59
NtRp2311
(dp2312
g62
(dp2313
g89
g90
ssg71
g2302
sg64
(lp2314
S':'
asbag57
(g78
g59
NtRp2315
(dp2316
g62
(dp2317
sg71
g2302
sg64
(lp2318
g57
(g58
g59
NtRp2319
(dp2320
g62
(dp2321
g70
I5
ssg71
g2315
sg64
(lp2322
g100
asbasbasbag57
(g73
g59
NtRp2323
(dp2324
g62
(dp2325
sg71
g67
sg64
(lp2326
g57
(g78
g59
NtRp2327
(dp2328
g62
(dp2329
g82
g83
ssg71
g2323
sg64
(lp2330
S'is_restful'
p2331
asbag57
(g78
g59
NtRp2332
(dp2333
g62
(dp2334
g89
g90
ssg71
g2323
sg64
(lp2335
S':'
asbag57
(g78
g59
NtRp2336
(dp2337
g62
(dp2338
sg71
g2323
sg64
(lp2339
g57
(g58
g59
NtRp2340
(dp2341
g62
(dp2342
g70
I5
ssg71
g2336
sg64
(lp2343
g995
asbasbasbag57
(g73
g59
NtRp2344
(dp2345
g62
(dp2346
sg71
g67
sg64
(lp2347
g57
(g78
g59
NtRp2348
(dp2349
g62
(dp2350
g82
g83
ssg71
g2344
sg64
(lp2351
S'now'
p2352
asbag57
(g78
g59
NtRp2353
(dp2354
g62
(dp2355
g89
g90
ssg71
g2344
sg64
(lp2356
S':'
asbag57
(g78
g59
NtRp2357
(dp2358
g62
(dp2359
sg71
g2344
sg64
(lp2360
g57
(g58
g59
NtRp2361
(dp2362
g62
(dp2363
g70
I5
ssg71
g2357
sg64
(lp2364
S'datetime.datetime(2012, 3, 20, 14, 48, 20, 126226)'
p2365
asbasbasbag57
(g73
g59
NtRp2366
(dp2367
g62
(dp2368
sg71
g67
sg64
(lp2369
g57
(g78
g59
NtRp2370
(dp2371
g62
(dp2372
g82
g83
ssg71
g2366
sg64
(lp2373
S'post_vars'
p2374
asbag57
(g78
g59
NtRp2375
(dp2376
g62
(dp2377
g89
g90
ssg71
g2366
sg64
(lp2378
S':'
asbag57
(g78
g59
NtRp2379
(dp2380
g62
(dp2381
sg71
g2366
sg64
(lp2382
g57
(g58
g59
NtRp2383
(dp2384
g62
(dp2385
g70
I5
ssg71
g2379
sg64
(lp2386
g57
(g66
g59
NtRp2387
(dp2388
g62
(dp2389
g70
I4
ssg71
Nsg64
(lp2390
sbasbasbasbag57
(g73
g59
NtRp2391
(dp2392
g62
(dp2393
sg71
g67
sg64
(lp2394
g57
(g78
g59
NtRp2395
(dp2396
g62
(dp2397
g82
g83
ssg71
g2391
sg64
(lp2398
S'raw_args'
p2399
asbag57
(g78
g59
NtRp2400
(dp2401
g62
(dp2402
g89
g90
ssg71
g2391
sg64
(lp2403
S':'
asbag57
(g78
g59
NtRp2404
(dp2405
g62
(dp2406
sg71
g2391
sg64
(lp2407
g57
(g58
g59
NtRp2408
(dp2409
g62
(dp2410
g70
I5
ssg71
g2404
sg64
(lp2411
g159
asbasbasbag57
(g73
g59
NtRp2412
(dp2413
g62
(dp2414
sg71
g67
sg64
(lp2415
g57
(g78
g59
NtRp2416
(dp2417
g62
(dp2418
g82
g83
ssg71
g2412
sg64
(lp2419
S'raw_extension'
p2420
asbag57
(g78
g59
NtRp2421
(dp2422
g62
(dp2423
g89
g90
ssg71
g2412
sg64
(lp2424
S':'
asbag57
(g78
g59
NtRp2425
(dp2426
g62
(dp2427
sg71
g2412
sg64
(lp2428
g57
(g58
g59
NtRp2429
(dp2430
g62
(dp2431
g70
I5
ssg71
g2425
sg64
(lp2432
g1871
asbasbasbag57
(g73
g59
NtRp2433
(dp2434
g62
(dp2435
sg71
g67
sg64
(lp2436
g57
(g78
g59
NtRp2437
(dp2438
g62
(dp2439
g82
g83
ssg71
g2433
sg64
(lp2440
S'url'
p2441
asbag57
(g78
g59
NtRp2442
(dp2443
g62
(dp2444
g89
g90
ssg71
g2433
sg64
(lp2445
S':'
asbag57
(g78
g59
NtRp2446
(dp2447
g62
(dp2448
sg71
g2433
sg64
(lp2449
g57
(g58
g59
NtRp2450
(dp2451
g62
(dp2452
g70
I5
ssg71
g2446
sg64
(lp2453
S'/paideia/exploring/index.load/ask'
p2454
asbasbasbag57
(g73
g59
NtRp2455
(dp2456
g62
(dp2457
sg71
g67
sg64
(lp2458
g57
(g78
g59
NtRp2459
(dp2460
g62
(dp2461
g82
g83
ssg71
g2455
sg64
(lp2462
S'utcnow'
p2463
asbag57
(g78
g59
NtRp2464
(dp2465
g62
(dp2466
g89
g90
ssg71
g2455
sg64
(lp2467
S':'
asbag57
(g78
g59
NtRp2468
(dp2469
g62
(dp2470
sg71
g2455
sg64
(lp2471
g57
(g58
g59
NtRp2472
(dp2473
g62
(dp2474
g70
I5
ssg71
g2468
sg64
(lp2475
S'datetime.datetime(2012, 3, 20, 18, 48, 20, 126256)'
p2476
asbasbasbag57
(g73
g59
NtRp2477
(dp2478
g62
(dp2479
sg71
g67
sg64
(lp2480
g57
(g78
g59
NtRp2481
(dp2482
g62
(dp2483
g82
g83
ssg71
g2477
sg64
(lp2484
S'uuid'
p2485
asbag57
(g78
g59
NtRp2486
(dp2487
g62
(dp2488
g89
g90
ssg71
g2477
sg64
(lp2489
S':'
asbag57
(g78
g59
NtRp2490
(dp2491
g62
(dp2492
sg71
g2477
sg64
(lp2493
g57
(g58
g59
NtRp2494
(dp2495
g62
(dp2496
g70
I5
ssg71
g2490
sg64
(lp2497
S'paideia/127.0.0.1.2012-03-20.14-48-20.9a719140-fcec-49c1-8595-c29ba7033449'
p2498
asbasbasbag57
(g73
g59
NtRp2499
(dp2500
g62
(dp2501
sg71
g67
sg64
(lp2502
g57
(g78
g59
NtRp2503
(dp2504
g62
(dp2505
g82
g83
ssg71
g2499
sg64
(lp2506
S'vars'
p2507
asbag57
(g78
g59
NtRp2508
(dp2509
g62
(dp2510
g89
g90
ssg71
g2499
sg64
(lp2511
S':'
asbag57
(g78
g59
NtRp2512
(dp2513
g62
(dp2514
sg71
g2499
sg64
(lp2515
g57
(g58
g59
NtRp2516
(dp2517
g62
(dp2518
g70
I5
ssg71
g2512
sg64
(lp2519
g57
(g66
g59
NtRp2520
(dp2521
g62
(dp2522
g70
I4
ssg71
Nsg64
(lp2523
g57
(g73
g59
NtRp2524
(dp2525
g62
(dp2526
sg71
g2520
sg64
(lp2527
g57
(g78
g59
NtRp2528
(dp2529
g62
(dp2530
g82
g83
ssg71
g2524
sg64
(lp2531
g1949
asbag57
(g78
g59
NtRp2532
(dp2533
g62
(dp2534
g89
g90
ssg71
g2524
sg64
(lp2535
S':'
asbag57
(g78
g59
NtRp2536
(dp2537
g62
(dp2538
sg71
g2524
sg64
(lp2539
g57
(g58
g59
NtRp2540
(dp2541
g62
(dp2542
g70
I4
ssg71
g2536
sg64
(lp2543
g1962
asbasbasbasbasbasbasbag57
(g73
g59
NtRp2544
(dp2545
g62
(dp2546
sg71
g67
sg64
(lp2547
g57
(g78
g59
NtRp2548
(dp2549
g62
(dp2550
g82
g83
ssg71
g2544
sg64
(lp2551
S'wsgi'
p2552
asbag57
(g78
g59
NtRp2553
(dp2554
g62
(dp2555
g89
g90
ssg71
g2544
sg64
(lp2556
S':'
asbag57
(g78
g59
NtRp2557
(dp2558
g62
(dp2559
sg71
g2544
sg64
(lp2560
g57
(g58
g59
NtRp2561
(dp2562
g62
(dp2563
g70
I5
ssg71
g2557
sg64
(lp2564
g57
(g66
g59
NtRp2565
(dp2566
g62
(dp2567
g70
I4
ssg71
Nsg64
(lp2568
g57
(g73
g59
NtRp2569
(dp2570
g62
(dp2571
sg71
g2565
sg64
(lp2572
g57
(g78
g59
NtRp2573
(dp2574
g62
(dp2575
g82
g83
ssg71
g2569
sg64
(lp2576
S'environ'
p2577
asbag57
(g78
g59
NtRp2578
(dp2579
g62
(dp2580
g89
g90
ssg71
g2569
sg64
(lp2581
S':'
asbag57
(g78
g59
NtRp2582
(dp2583
g62
(dp2584
sg71
g2569
sg64
(lp2585
g57
(g58
g59
NtRp2586
(dp2587
g62
(dp2588
g70
I4
ssg71
g2582
sg64
(lp2589
g57
(g66
g59
NtRp2590
(dp2591
g62
(dp2592
g70
I3
ssg71
Nsg64
(lp2593
g57
(g73
g59
NtRp2594
(dp2595
g62
(dp2596
sg71
g2590
sg64
(lp2597
g57
(g78
g59
NtRp2598
(dp2599
g62
(dp2600
g82
g83
ssg71
g2594
sg64
(lp2601
S'HTTP_ACCEPT'
p2602
asbag57
(g78
g59
NtRp2603
(dp2604
g62
(dp2605
g89
g90
ssg71
g2594
sg64
(lp2606
S':'
asbag57
(g78
g59
NtRp2607
(dp2608
g62
(dp2609
sg71
g2594
sg64
(lp2610
g57
(g58
g59
NtRp2611
(dp2612
g62
(dp2613
g70
I3
ssg71
g2607
sg64
(lp2614
g1039
asbasbasbag57
(g73
g59
NtRp2615
(dp2616
g62
(dp2617
sg71
g2590
sg64
(lp2618
g57
(g78
g59
NtRp2619
(dp2620
g62
(dp2621
g82
g83
ssg71
g2615
sg64
(lp2622
S'HTTP_ACCEPT_ENCODING'
p2623
asbag57
(g78
g59
NtRp2624
(dp2625
g62
(dp2626
g89
g90
ssg71
g2615
sg64
(lp2627
S':'
asbag57
(g78
g59
NtRp2628
(dp2629
g62
(dp2630
sg71
g2615
sg64
(lp2631
g57
(g58
g59
NtRp2632
(dp2633
g62
(dp2634
g70
I3
ssg71
g2628
sg64
(lp2635
g1061
asbasbasbag57
(g73
g59
NtRp2636
(dp2637
g62
(dp2638
sg71
g2590
sg64
(lp2639
g57
(g78
g59
NtRp2640
(dp2641
g62
(dp2642
g82
g83
ssg71
g2636
sg64
(lp2643
S'HTTP_ACCEPT_LANGUAGE'
p2644
asbag57
(g78
g59
NtRp2645
(dp2646
g62
(dp2647
g89
g90
ssg71
g2636
sg64
(lp2648
S':'
asbag57
(g78
g59
NtRp2649
(dp2650
g62
(dp2651
sg71
g2636
sg64
(lp2652
g57
(g58
g59
NtRp2653
(dp2654
g62
(dp2655
g70
I3
ssg71
g2649
sg64
(lp2656
g1083
asbasbasbag57
(g73
g59
NtRp2657
(dp2658
g62
(dp2659
sg71
g2590
sg64
(lp2660
g57
(g78
g59
NtRp2661
(dp2662
g62
(dp2663
g82
g83
ssg71
g2657
sg64
(lp2664
S'HTTP_CONNECTION'
p2665
asbag57
(g78
g59
NtRp2666
(dp2667
g62
(dp2668
g89
g90
ssg71
g2657
sg64
(lp2669
S':'
asbag57
(g78
g59
NtRp2670
(dp2671
g62
(dp2672
sg71
g2657
sg64
(lp2673
g57
(g58
g59
NtRp2674
(dp2675
g62
(dp2676
g70
I3
ssg71
g2670
sg64
(lp2677
g1105
asbasbasbag57
(g73
g59
NtRp2678
(dp2679
g62
(dp2680
sg71
g2590
sg64
(lp2681
g57
(g78
g59
NtRp2682
(dp2683
g62
(dp2684
g82
g83
ssg71
g2678
sg64
(lp2685
S'HTTP_COOKIE'
p2686
asbag57
(g78
g59
NtRp2687
(dp2688
g62
(dp2689
g89
g90
ssg71
g2678
sg64
(lp2690
S':'
asbag57
(g78
g59
NtRp2691
(dp2692
g62
(dp2693
sg71
g2678
sg64
(lp2694
g57
(g58
g59
NtRp2695
(dp2696
g62
(dp2697
g70
I3
ssg71
g2691
sg64
(lp2698
g1127
asbasbasbag57
(g73
g59
NtRp2699
(dp2700
g62
(dp2701
sg71
g2590
sg64
(lp2702
g57
(g78
g59
NtRp2703
(dp2704
g62
(dp2705
g82
g83
ssg71
g2699
sg64
(lp2706
S'HTTP_HOST'
p2707
asbag57
(g78
g59
NtRp2708
(dp2709
g62
(dp2710
g89
g90
ssg71
g2699
sg64
(lp2711
S':'
asbag57
(g78
g59
NtRp2712
(dp2713
g62
(dp2714
sg71
g2699
sg64
(lp2715
g57
(g58
g59
NtRp2716
(dp2717
g62
(dp2718
g70
I3
ssg71
g2712
sg64
(lp2719
g1149
asbasbasbag57
(g73
g59
NtRp2720
(dp2721
g62
(dp2722
sg71
g2590
sg64
(lp2723
g57
(g78
g59
NtRp2724
(dp2725
g62
(dp2726
g82
g83
ssg71
g2720
sg64
(lp2727
S'HTTP_REFERER'
p2728
asbag57
(g78
g59
NtRp2729
(dp2730
g62
(dp2731
g89
g90
ssg71
g2720
sg64
(lp2732
S':'
asbag57
(g78
g59
NtRp2733
(dp2734
g62
(dp2735
sg71
g2720
sg64
(lp2736
g57
(g58
g59
NtRp2737
(dp2738
g62
(dp2739
g70
I3
ssg71
g2733
sg64
(lp2740
g1171
asbasbasbag57
(g73
g59
NtRp2741
(dp2742
g62
(dp2743
sg71
g2590
sg64
(lp2744
g57
(g78
g59
NtRp2745
(dp2746
g62
(dp2747
g82
g83
ssg71
g2741
sg64
(lp2748
S'HTTP_USER_AGENT'
p2749
asbag57
(g78
g59
NtRp2750
(dp2751
g62
(dp2752
g89
g90
ssg71
g2741
sg64
(lp2753
S':'
asbag57
(g78
g59
NtRp2754
(dp2755
g62
(dp2756
sg71
g2741
sg64
(lp2757
g57
(g58
g59
NtRp2758
(dp2759
g62
(dp2760
g70
I3
ssg71
g2754
sg64
(lp2761
g1193
asbasbasbag57
(g73
g59
NtRp2762
(dp2763
g62
(dp2764
sg71
g2590
sg64
(lp2765
g57
(g78
g59
NtRp2766
(dp2767
g62
(dp2768
g82
g83
ssg71
g2762
sg64
(lp2769
S'HTTP_WEB2PY_COMPONENT_ELEMENT'
p2770
asbag57
(g78
g59
NtRp2771
(dp2772
g62
(dp2773
g89
g90
ssg71
g2762
sg64
(lp2774
S':'
asbag57
(g78
g59
NtRp2775
(dp2776
g62
(dp2777
sg71
g2762
sg64
(lp2778
g57
(g58
g59
NtRp2779
(dp2780
g62
(dp2781
g70
I3
ssg71
g2775
sg64
(lp2782
g203
asbasbasbag57
(g73
g59
NtRp2783
(dp2784
g62
(dp2785
sg71
g2590
sg64
(lp2786
g57
(g78
g59
NtRp2787
(dp2788
g62
(dp2789
g82
g83
ssg71
g2783
sg64
(lp2790
S'HTTP_WEB2PY_COMPONENT_LOCATION'
p2791
asbag57
(g78
g59
NtRp2792
(dp2793
g62
(dp2794
g89
g90
ssg71
g2783
sg64
(lp2795
S':'
asbag57
(g78
g59
NtRp2796
(dp2797
g62
(dp2798
sg71
g2783
sg64
(lp2799
g57
(g58
g59
NtRp2800
(dp2801
g62
(dp2802
g70
I3
ssg71
g2796
sg64
(lp2803
g1236
asbasbasbag57
(g73
g59
NtRp2804
(dp2805
g62
(dp2806
sg71
g2590
sg64
(lp2807
g57
(g78
g59
NtRp2808
(dp2809
g62
(dp2810
g82
g83
ssg71
g2804
sg64
(lp2811
S'HTTP_X_REQUESTED_WITH'
p2812
asbag57
(g78
g59
NtRp2813
(dp2814
g62
(dp2815
g89
g90
ssg71
g2804
sg64
(lp2816
S':'
asbag57
(g78
g59
NtRp2817
(dp2818
g62
(dp2819
sg71
g2804
sg64
(lp2820
g57
(g58
g59
NtRp2821
(dp2822
g62
(dp2823
g70
I3
ssg71
g2817
sg64
(lp2824
g1258
asbasbasbag57
(g73
g59
NtRp2825
(dp2826
g62
(dp2827
sg71
g2590
sg64
(lp2828
g57
(g78
g59
NtRp2829
(dp2830
g62
(dp2831
g82
g83
ssg71
g2825
sg64
(lp2832
S'PATH_INFO'
p2833
asbag57
(g78
g59
NtRp2834
(dp2835
g62
(dp2836
g89
g90
ssg71
g2825
sg64
(lp2837
S':'
asbag57
(g78
g59
NtRp2838
(dp2839
g62
(dp2840
sg71
g2825
sg64
(lp2841
g57
(g58
g59
NtRp2842
(dp2843
g62
(dp2844
g70
I3
ssg71
g2838
sg64
(lp2845
g1322
asbasbasbag57
(g73
g59
NtRp2846
(dp2847
g62
(dp2848
sg71
g2590
sg64
(lp2849
g57
(g78
g59
NtRp2850
(dp2851
g62
(dp2852
g82
g83
ssg71
g2846
sg64
(lp2853
S'QUERY_STRING'
p2854
asbag57
(g78
g59
NtRp2855
(dp2856
g62
(dp2857
g89
g90
ssg71
g2846
sg64
(lp2858
S':'
asbag57
(g78
g59
NtRp2859
(dp2860
g62
(dp2861
sg71
g2846
sg64
(lp2862
g57
(g58
g59
NtRp2863
(dp2864
g62
(dp2865
g70
I3
ssg71
g2859
sg64
(lp2866
g1344
asbasbasbag57
(g73
g59
NtRp2867
(dp2868
g62
(dp2869
sg71
g2590
sg64
(lp2870
g57
(g78
g59
NtRp2871
(dp2872
g62
(dp2873
g82
g83
ssg71
g2867
sg64
(lp2874
S'REMOTE_ADDR'
p2875
asbag57
(g78
g59
NtRp2876
(dp2877
g62
(dp2878
g89
g90
ssg71
g2867
sg64
(lp2879
S':'
asbag57
(g78
g59
NtRp2880
(dp2881
g62
(dp2882
sg71
g2867
sg64
(lp2883
g57
(g58
g59
NtRp2884
(dp2885
g62
(dp2886
g70
I3
ssg71
g2880
sg64
(lp2887
g225
asbasbasbag57
(g73
g59
NtRp2888
(dp2889
g62
(dp2890
sg71
g2590
sg64
(lp2891
g57
(g78
g59
NtRp2892
(dp2893
g62
(dp2894
g82
g83
ssg71
g2888
sg64
(lp2895
S'REMOTE_PORT'
p2896
asbag57
(g78
g59
NtRp2897
(dp2898
g62
(dp2899
g89
g90
ssg71
g2888
sg64
(lp2900
S':'
asbag57
(g78
g59
NtRp2901
(dp2902
g62
(dp2903
sg71
g2888
sg64
(lp2904
g57
(g58
g59
NtRp2905
(dp2906
g62
(dp2907
g70
I3
ssg71
g2901
sg64
(lp2908
g1387
asbasbasbag57
(g73
g59
NtRp2909
(dp2910
g62
(dp2911
sg71
g2590
sg64
(lp2912
g57
(g78
g59
NtRp2913
(dp2914
g62
(dp2915
g82
g83
ssg71
g2909
sg64
(lp2916
S'REQUEST_METHOD'
p2917
asbag57
(g78
g59
NtRp2918
(dp2919
g62
(dp2920
g89
g90
ssg71
g2909
sg64
(lp2921
S':'
asbag57
(g78
g59
NtRp2922
(dp2923
g62
(dp2924
sg71
g2909
sg64
(lp2925
g57
(g58
g59
NtRp2926
(dp2927
g62
(dp2928
g70
I3
ssg71
g2922
sg64
(lp2929
g1409
asbasbasbag57
(g73
g59
NtRp2930
(dp2931
g62
(dp2932
sg71
g2590
sg64
(lp2933
g57
(g78
g59
NtRp2934
(dp2935
g62
(dp2936
g82
g83
ssg71
g2930
sg64
(lp2937
S'SCRIPT_NAME'
p2938
asbag57
(g78
g59
NtRp2939
(dp2940
g62
(dp2941
g89
g90
ssg71
g2930
sg64
(lp2942
S':'
asbag57
(g78
g59
NtRp2943
(dp2944
g62
(dp2945
sg71
g2930
sg64
(lp2946
g57
(g58
g59
NtRp2947
(dp2948
g62
(dp2949
g70
I3
ssg71
g2943
sg64
(lp2950
S''
asbasbasbag57
(g73
g59
NtRp2951
(dp2952
g62
(dp2953
sg71
g2590
sg64
(lp2954
g57
(g78
g59
NtRp2955
(dp2956
g62
(dp2957
g82
g83
ssg71
g2951
sg64
(lp2958
S'SERVER_NAME'
p2959
asbag57
(g78
g59
NtRp2960
(dp2961
g62
(dp2962
g89
g90
ssg71
g2951
sg64
(lp2963
S':'
asbag57
(g78
g59
NtRp2964
(dp2965
g62
(dp2966
sg71
g2951
sg64
(lp2967
g57
(g58
g59
NtRp2968
(dp2969
g62
(dp2970
g70
I3
ssg71
g2964
sg64
(lp2971
g1452
asbasbasbag57
(g73
g59
NtRp2972
(dp2973
g62
(dp2974
sg71
g2590
sg64
(lp2975
g57
(g78
g59
NtRp2976
(dp2977
g62
(dp2978
g82
g83
ssg71
g2972
sg64
(lp2979
S'SERVER_PORT'
p2980
asbag57
(g78
g59
NtRp2981
(dp2982
g62
(dp2983
g89
g90
ssg71
g2972
sg64
(lp2984
S':'
asbag57
(g78
g59
NtRp2985
(dp2986
g62
(dp2987
sg71
g2972
sg64
(lp2988
g57
(g58
g59
NtRp2989
(dp2990
g62
(dp2991
g70
I3
ssg71
g2985
sg64
(lp2992
g1474
asbasbasbag57
(g73
g59
NtRp2993
(dp2994
g62
(dp2995
sg71
g2590
sg64
(lp2996
g57
(g78
g59
NtRp2997
(dp2998
g62
(dp2999
g82
g83
ssg71
g2993
sg64
(lp3000
S'SERVER_PROTOCOL'
p3001
asbag57
(g78
g59
NtRp3002
(dp3003
g62
(dp3004
g89
g90
ssg71
g2993
sg64
(lp3005
S':'
asbag57
(g78
g59
NtRp3006
(dp3007
g62
(dp3008
sg71
g2993
sg64
(lp3009
g57
(g58
g59
NtRp3010
(dp3011
g62
(dp3012
g70
I3
ssg71
g3006
sg64
(lp3013
g1496
asbasbasbag57
(g73
g59
NtRp3014
(dp3015
g62
(dp3016
sg71
g2590
sg64
(lp3017
g57
(g78
g59
NtRp3018
(dp3019
g62
(dp3020
g82
g83
ssg71
g3014
sg64
(lp3021
S'SERVER_SOFTWARE'
p3022
asbag57
(g78
g59
NtRp3023
(dp3024
g62
(dp3025
g89
g90
ssg71
g3014
sg64
(lp3026
S':'
asbag57
(g78
g59
NtRp3027
(dp3028
g62
(dp3029
sg71
g3014
sg64
(lp3030
g57
(g58
g59
NtRp3031
(dp3032
g62
(dp3033
g70
I3
ssg71
g3027
sg64
(lp3034
g1518
asbasbasbag57
(g73
g59
NtRp3035
(dp3036
g62
(dp3037
sg71
g2590
sg64
(lp3038
g57
(g78
g59
NtRp3039
(dp3040
g62
(dp3041
g82
g83
ssg71
g3035
sg64
(lp3042
S'wsgi.errors'
p3043
asbag57
(g78
g59
NtRp3044
(dp3045
g62
(dp3046
g89
g90
ssg71
g3035
sg64
(lp3047
S':'
asbag57
(g78
g59
NtRp3048
(dp3049
g62
(dp3050
sg71
g3035
sg64
(lp3051
g57
(g58
g59
NtRp3052
(dp3053
g62
(dp3054
g70
I3
ssg71
g3048
sg64
(lp3055
S"<open file '<stderr>', mode 'w' at 0xb77030d0>"
p3056
asbasbasbag57
(g73
g59
NtRp3057
(dp3058
g62
(dp3059
sg71
g2590
sg64
(lp3060
g57
(g78
g59
NtRp3061
(dp3062
g62
(dp3063
g82
g83
ssg71
g3057
sg64
(lp3064
S'wsgi.file_wrapper'
p3065
asbag57
(g78
g59
NtRp3066
(dp3067
g62
(dp3068
g89
g90
ssg71
g3057
sg64
(lp3069
S':'
asbag57
(g78
g59
NtRp3070
(dp3071
g62
(dp3072
sg71
g3057
sg64
(lp3073
g57
(g58
g59
NtRp3074
(dp3075
g62
(dp3076
g70
I3
ssg71
g3070
sg64
(lp3077
S'<class wsgiref.util.FileWrapper at 0x8a6720c>'
p3078
asbasbasbag57
(g73
g59
NtRp3079
(dp3080
g62
(dp3081
sg71
g2590
sg64
(lp3082
g57
(g78
g59
NtRp3083
(dp3084
g62
(dp3085
g82
g83
ssg71
g3079
sg64
(lp3086
S'wsgi.input'
p3087
asbag57
(g78
g59
NtRp3088
(dp3089
g62
(dp3090
g89
g90
ssg71
g3079
sg64
(lp3091
S':'
asbag57
(g78
g59
NtRp3092
(dp3093
g62
(dp3094
sg71
g3079
sg64
(lp3095
g57
(g58
g59
NtRp3096
(dp3097
g62
(dp3098
g70
I3
ssg71
g3092
sg64
(lp3099
S'<cStringIO.StringO object at 0x936f6c0>'
p3100
asbasbasbag57
(g73
g59
NtRp3101
(dp3102
g62
(dp3103
sg71
g2590
sg64
(lp3104
g57
(g78
g59
NtRp3105
(dp3106
g62
(dp3107
g82
g83
ssg71
g3101
sg64
(lp3108
S'wsgi.multiprocess'
p3109
asbag57
(g78
g59
NtRp3110
(dp3111
g62
(dp3112
g89
g90
ssg71
g3101
sg64
(lp3113
S':'
asbag57
(g78
g59
NtRp3114
(dp3115
g62
(dp3116
sg71
g3101
sg64
(lp3117
g57
(g58
g59
NtRp3118
(dp3119
g62
(dp3120
g70
I3
ssg71
g3114
sg64
(lp3121
g995
asbasbasbag57
(g73
g59
NtRp3122
(dp3123
g62
(dp3124
sg71
g2590
sg64
(lp3125
g57
(g78
g59
NtRp3126
(dp3127
g62
(dp3128
g82
g83
ssg71
g3122
sg64
(lp3129
S'wsgi.multithread'
p3130
asbag57
(g78
g59
NtRp3131
(dp3132
g62
(dp3133
g89
g90
ssg71
g3122
sg64
(lp3134
S':'
asbag57
(g78
g59
NtRp3135
(dp3136
g62
(dp3137
sg71
g3122
sg64
(lp3138
g57
(g58
g59
NtRp3139
(dp3140
g62
(dp3141
g70
I3
ssg71
g3135
sg64
(lp3142
g100
asbasbasbag57
(g73
g59
NtRp3143
(dp3144
g62
(dp3145
sg71
g2590
sg64
(lp3146
g57
(g78
g59
NtRp3147
(dp3148
g62
(dp3149
g82
g83
ssg71
g3143
sg64
(lp3150
S'wsgi.run_once'
p3151
asbag57
(g78
g59
NtRp3152
(dp3153
g62
(dp3154
g89
g90
ssg71
g3143
sg64
(lp3155
S':'
asbag57
(g78
g59
NtRp3156
(dp3157
g62
(dp3158
sg71
g3143
sg64
(lp3159
g57
(g58
g59
NtRp3160
(dp3161
g62
(dp3162
g70
I3
ssg71
g3156
sg64
(lp3163
g995
asbasbasbag57
(g73
g59
NtRp3164
(dp3165
g62
(dp3166
sg71
g2590
sg64
(lp3167
g57
(g78
g59
NtRp3168
(dp3169
g62
(dp3170
g82
g83
ssg71
g3164
sg64
(lp3171
S'wsgi.url_scheme'
p3172
asbag57
(g78
g59
NtRp3173
(dp3174
g62
(dp3175
g89
g90
ssg71
g3164
sg64
(lp3176
S':'
asbag57
(g78
g59
NtRp3177
(dp3178
g62
(dp3179
sg71
g3164
sg64
(lp3180
g57
(g58
g59
NtRp3181
(dp3182
g62
(dp3183
g70
I3
ssg71
g3177
sg64
(lp3184
g1800
asbasbasbag57
(g73
g59
NtRp3185
(dp3186
g62
(dp3187
sg71
g2590
sg64
(lp3188
g57
(g78
g59
NtRp3189
(dp3190
g62
(dp3191
g82
g83
ssg71
g3185
sg64
(lp3192
S'wsgi.version'
p3193
asbag57
(g78
g59
NtRp3194
(dp3195
g62
(dp3196
g89
g90
ssg71
g3185
sg64
(lp3197
S':'
asbag57
(g78
g59
NtRp3198
(dp3199
g62
(dp3200
sg71
g3185
sg64
(lp3201
g57
(g58
g59
NtRp3202
(dp3203
g62
(dp3204
g70
I3
ssg71
g3198
sg64
(lp3205
S'1'
asbasbasbasbasbasbasbasbasbasbasbasbasbsS'frames'
p3206
(lp3207
(dp3208
S'file'
p3209
S'/home/iscott/web/web2py/gluon/restricted.py'
p3210
sS'dump'
p3211
(dp3212
S'environment'
p3213
S"{'A': <class 'gluon.html.A'>, 'AjaxSelect': <class applications.paideia.modules.plugin_ajaxselect.AjaxSelect>, 'Auth': <class 'gluon.tools.Auth'>, 'B': <class 'gluon.html.B'>, 'BEAUTIFY': <class 'gluon.html.BEAUTIFY'>, 'BODY': <class 'gluon.html.BODY'>, 'BR': <class 'gluon.html.BR'>, 'BUTTON': <class 'gluon.html.BUTTON'>, 'CAT': <class 'gluon.html.CAT'>, 'CENTER': <class 'gluon.html.CENTER'>, ...}"
p3214
sS'ccode'
p3215
S'<code object <module> at 0x942e530, file "/home/...ations/paideia/controllers/exploring.py", line 2>'
p3216
ssS'lnum'
p3217
I204
sS'lines'
p3218
(dp3219
I199
S'    try:'
p3220
sI200
S'        if type(code) == types.CodeType:'
p3221
sI201
S'            ccode = code'
p3222
sI202
S'        else:'
p3223
sI203
S'            ccode = compile2(code,layer)'
p3224
sI204
S'        exec ccode in environment'
p3225
sI205
S'    except HTTP:'
p3226
sI206
S'        raise'
p3227
sI207
S'    except RestrictedError:'
p3228
sI208
S'        # do not encapsulate (obfuscate) the original RestrictedError'
p3229
ssS'call'
p3230
S"(code='# coding: utf8\\nfrom paideia_exploring import pat...herror()\\n\\nresponse._vars=response._caller(index)\\n', environment={'A': <class 'gluon.html.A'>, 'AjaxSelect': <class applications.paideia.modules.plugin_ajaxselect.AjaxSelect>, 'Auth': <class 'gluon.tools.Auth'>, 'B': <class 'gluon.html.B'>, 'BEAUTIFY': <class 'gluon.html.BEAUTIFY'>, 'BODY': <class 'gluon.html.BODY'>, 'BR': <class 'gluon.html.BR'>, 'BUTTON': <class 'gluon.html.BUTTON'>, 'CAT': <class 'gluon.html.CAT'>, 'CENTER': <class 'gluon.html.CENTER'>, ...}, layer='/home/iscott/web/web2py/applications/paideia/controllers/exploring.py')"
p3231
sS'func'
p3232
S'restricted'
p3233
sa(dp3234
g3209
S'/home/iscott/web/web2py/applications/paideia/controllers/exploring.py'
p3235
sg3211
(dp3236
sg3217
I106
sg3218
(dp3237
I96
S'    #after submitting response'
p3238
sI97
S"    elif request.args(0) == 'reply':"
p3239
sI98
S"        print '\\nreply state'"
p3240
sI99
S'        return s.reply()'
p3241
sI100
S''
sI101
S'    #if user response results in an error'
p3242
sI102
S"    elif request.args(0) == 'error':"
p3243
sI103
S"        print '\\nerror state'"
p3244
sI104
S'        return patherror()'
p3245
sI95
S''
ssg3230
S'()'
p3246
sg3232
S'<module>'
p3247
sa(dp3248
g3209
S'/home/iscott/web/web2py/gluon/globals.py'
p3249
sg3211
(dp3250
S'self'
p3251
S'undefined'
p3252
sS'f'
S'<function index>'
p3253
ssg3217
I172
sg3218
(dp3254
I167
S'        self.meta = Storage()      # used by web2py_ajax.html'
p3255
sI168
S'        self.menu = []             # used by the default view layout'
p3256
sI169
S'        self.files = []            # used by web2py_ajax.html'
p3257
sI170
S'        self.generic_patterns = [] # patterns to allow generic views'
p3258
sI171
S'        self._vars = None'
p3259
sI172
S'        self._caller = lambda f: f()'
p3260
sI173
S'        self._view_environment = None'
p3261
sI174
S'        self._custom_commit = None'
p3262
sI175
S'        self._custom_rollback = None'
p3263
sI176
S''
ssg3230
S'(f=<function index>)'
p3264
sg3232
S'<lambda>'
p3265
sa(dp3266
g3209
S'/home/iscott/web/web2py/gluon/tools.py'
p3267
sg3211
(dp3268
S'action'
p3269
S'<function index>'
p3270
sS'a'
S'()'
p3271
sS'b'
g45
ssg3217
I2533
sg3218
(dp3272
I2528
S'                # otherwise case 3 would be ok.'
p3273
sI2529
S'                if not (callable(condition) and condition() == True) and not condition == True:'
p3274
sI2530
S'                    current.session.flash = self.messages.access_denied'
p3275
sI2531
S'                    return call_or_redirect('
p3276
sI2532
S'                        self.settings.on_failed_authorization)'
p3277
sI2533
S'                return action(*a, **b)'
p3278
sI2534
S'            f.__doc__ = action.__doc__'
p3279
sI2535
S'            f.__name__ = action.__name__'
p3280
sI2536
S'            f.__dict__.update(action.__dict__)'
p3281
sI2537
S'            return f'
p3282
ssg3230
S'(*a=(), **b={})'
p3283
sg3232
S'f'
sa(dp3284
g3209
S'/home/iscott/web/web2py/applications/paideia/controllers/exploring.py'
p3285
sg3211
(dp3286
S's'
S'<applications.paideia.modules.paideia_exploring.step instance>'
p3287
sS's.ask'
p3288
S'<bound method step.ask of <applications.paideia.modules.paideia_exploring.step instance>>'
p3289
ssg3217
I94
sg3218
(dp3290
I96
S'    #after submitting response'
p3291
sI97
S"    elif request.args(0) == 'reply':"
p3292
sI98
S"        print '\\nreply state'"
p3293
sI89
S"        pid = p_result['path'].id"
p3294
sI90
S"        sid = p_result['step']"
p3295
sI91
S"        print '\\nreturned to controller exploring/index:'"
p3296
sI92
S"        print 'path ', pid, '; step ', sid"
p3297
sI93
S'        s = step(sid)'
p3298
sI94
S'        return s.ask()'
p3299
sI95
S''
ssg3230
S'()'
p3300
sg3232
S'index'
p3301
sa(dp3302
g3209
S'/home/iscott/web/web2py/applications/paideia/modules/paideia_exploring.py'
p3303
sg3211
(dp3304
S'self'
p3305
S'<applications.paideia.modules.paideia_exploring.step instance>'
p3306
sS'prompt'
p3307
g3252
sS'self.prompt'
p3308
S'<bound method step.prompt of <applications.paideia.modules.paideia_exploring.step instance>>'
p3309
ssg3217
I388
sg3218
(dp3310
I384
S'    def ask(self):'
p3311
sI385
S'        """Public method. Returns the html helpers to create the view'
p3312
sI386
S'        for the \'ask\' state of the user interface."""'
p3313
sI387
S"        print '\\ncalling ask() method of step class'"
p3314
sI388
S'        self.n = self.npc()'
p3315
sI389
S'        print self.n'
p3316
sI390
S'        img = self.img()'
p3317
sI391
S'        print img'
p3318
sI392
S'        prompt = self.prompt()'
p3319
sI383
S''
ssg3230
S'(self=<applications.paideia.modules.paideia_exploring.step instance>)'
p3320
sg3232
S'ask'
p3321
sa(dp3322
g3209
S'/home/iscott/web/web2py/applications/paideia/modules/paideia_exploring.py'
p3323
sg3211
(dp3324
S'session.npc'
p3325
S'None'
p3326
sS'self'
p3327
S'<applications.paideia.modules.paideia_exploring.step instance>'
p3328
sS'session'
p3329
S"<Storage {'_formkey[questions/9]': '576ad16d-73a...reate]': '57bd8f84-edc3-4825-9aa2-ad8f3bea6e32'}>"
p3330
sS'self.n'
p3331
S'None'
p3332
sS'self.n.id'
p3333
g3252
ssg3217
I407
sg3218
(dp3334
I402
S'        db, session = current.db, current.session'
p3335
sI403
S"        print '\\ncalling npc() method of step class'"
p3336
sI404
S''
sI405
S'        print self.ns'
p3337
sI406
S'        ns_here = [n for n in self.ns if \\'
p3338
sI407
S'                        (session.location in self.ns[n].location)]'
p3339
sI408
S"        print 'npcs in this location: ', ns_here"
p3340
sI409
S'        if len(ns_here) > 1:'
p3341
sI410
S'            n_row = db.npcs[random.randrange(1,len(ns_here)) - 1]'
p3342
sI411
S'        else:'
p3343
ssg3230
S'(self=<applications.paideia.modules.paideia_exploring.step instance>)'
p3344
sg3232
S'npc'
p3345
sa(dp3346
g3209
S'/home/iscott/web/web2py/gluon/dal.py'
p3347
sg3211
(dp3348
S'i'
S"<Row {'name': '\\xe1\\xbc\\x88\\xce\\xbb\\xce\\xb5\\xce\\...elete_record': <function <lambda> at 0x919495c>}>"
p3349
sS'self'
p3350
S'<gluon.dal.Rows object>'
p3351
sS'self.records'
p3352
S"[<Row {'npcs': <Row {'name': '\\xe1\\xbc\\x88\\xce\\xb...ete_record': <function <lambda> at 0x919495c>}>}>, <Row {'npcs': <Row {'name': '\\xce\\x9c\\xce\\xb1\\xc...ete_record': <function <lambda> at 0x9194d4c>}>}>, <Row {'npcs': <Row {'name': '\\xe1\\xbc\\x99\\xce\\xb...ete_record': <function <lambda> at 0x919464c>}>}>, <Row {'npcs': <Row {'name': '\\xe1\\xbc\\x88\\xce\\xb...ete_record': <function <lambda> at 0x9194b1c>}>}>, <Row {'npcs': <Row {'name': '\\xe1\\xbc\\x88\\xce\\xb...ete_record': <function <lambda> at 0x91941b4>}>}>, <Row {'npcs': <Row {'name': '\\xce\\xa7\\xce\\xbb\\xc...ete_record': <function <lambda> at 0x919472c>}>}>, <Row {'npcs': <Row {'name': '\\xce\\x9a\\xce\\xbb\\xc...ete_record': <function <lambda> at 0x9194f44>}>}>, <Row {'npcs': <Row {'name': '\\xce\\x94\\xce\\xb9\\xc...ete_record': <function <lambda> at 0x9194994>}>}>, <Row {'npcs': <Row {'name': '\\xce\\x95\\xe1\\xbc\\xb...ete_record': <function <lambda> at 0x9194e9c>}>}>, <Row {'npcs': <Row {'name': '\\xe1\\xbc\\x98\\xcf\\x8...ete_record': <function <lambda> at 0x9194ed4>}>}>, <Row {'npcs': <Row {'name': '\\xe1\\xbc\\x98\\xcf\\x8...ete_record': <function <lambda> at 0x9194e64>}>}>, <Row {'npcs': <Row {'name': '\\xce\\x95\\xe1\\xbd\\x9...ete_record': <function <lambda> at 0x91948b4>}>}>, <Row {'npcs': <Row {'name': '\\xce\\x95\\xe1\\xbd\\x9...ete_record': <function <lambda> at 0x9194fb4>}>}>, <Row {'npcs': <Row {'name': '\\xce\\x93\\xce\\xb5\\xc...ete_record': <function <lambda> at 0x919441c>}>}>, <Row {'npcs': <Row {'name': '\\xe1\\xbc\\xa9\\xcf\\x8...ete_record': <function <lambda> at 0x919479c>}>}>, <Row {'npcs': <Row {'name': '\\xe1\\xbd\\x99\\xcf\\x8...ete_record': <function <lambda> at 0x9194924>}>}>, <Row {'npcs': <Row {'name': '\\xe1\\xbc\\xb8\\xce\\xb...ete_record': <function <lambda> at 0x919480c>}>}>, <Row {'npcs': <Row {'name': '\\xe1\\xbc\\xb8\\xcf\\x8...ete_record': <function <lambda> at 0x917a374>}>}>, <Row {'npcs': <Row {'name': '\\xce\\x9b\\xce\\xb5\\xc...ete_record': <function <lambda> at 0x917a3e4>}>}>, <Row {'npcs': <Row {'name': '\\xce\\x9c\\xce\\xb7\\xc...ete_record': <function <lambda> at 0x917a6bc>}>}>, ...]"
p3353
sS'row'
p3354
g3252
ssg3217
I6510
sg3218
(dp3355
I6505
S''
sI6506
S'    def __getslice__(self, a, b):'
p3356
sI6507
S'        return Rows(self.db,self.records[a:b],self.colnames)'
p3357
sI6508
S''
sI6509
S'    def __getitem__(self, i):'
p3358
sI6510
S'        row = self.records[i]'
p3359
sI6511
S'        keys = row.keys()'
p3360
sI6512
S"        if self.compact and len(keys) == 1 and keys[0] != '_extra':"
p3361
sI6513
S'            return row[row.keys()[0]]'
p3362
sI6514
S'        return row'
p3363
ssg3230
S"(self=<gluon.dal.Rows object>, i=<Row {'name': '\\xe1\\xbc\\x88\\xce\\xbb\\xce\\xb5\\xce\\...elete_record': <function <lambda> at 0x919495c>}>)"
p3364
sg3232
g20
sasS'pyver'
p3365
S'Python 2.7.2+: /usr/bin/python2.7'
p3366
sS'session'
p3367
g57
(g58
g59
NtRp3368
(dp3369
g62
(dp3370
sg64
(lp3371
g57
(g66
g59
NtRp3372
(dp3373
g62
(dp3374
g70
I5
ssg71
Nsg64
(lp3375
g57
(g73
g59
NtRp3376
(dp3377
g62
(dp3378
sg71
g3372
sg64
(lp3379
g57
(g78
g59
NtRp3380
(dp3381
g62
(dp3382
g82
g83
ssg71
g3376
sg64
(lp3383
S'active_path'
p3384
asbag57
(g78
g59
NtRp3385
(dp3386
g62
(dp3387
g89
g90
ssg71
g3376
sg64
(lp3388
S':'
asbag57
(g78
g59
NtRp3389
(dp3390
g62
(dp3391
sg71
g3376
sg64
(lp3392
g57
(g58
g59
NtRp3393
(dp3394
g62
(dp3395
g70
I5
ssg71
g3389
sg64
(lp3396
S'None'
p3397
asbasbasbag57
(g73
g59
NtRp3398
(dp3399
g62
(dp3400
sg71
g3372
sg64
(lp3401
g57
(g78
g59
NtRp3402
(dp3403
g62
(dp3404
g82
g83
ssg71
g3398
sg64
(lp3405
S'active_paths'
p3406
asbag57
(g78
g59
NtRp3407
(dp3408
g62
(dp3409
g89
g90
ssg71
g3398
sg64
(lp3410
S':'
asbag57
(g78
g59
NtRp3411
(dp3412
g62
(dp3413
sg71
g3398
sg64
(lp3414
g57
(g58
g59
NtRp3415
(dp3416
g62
(dp3417
g70
I5
ssg71
g3411
sg64
(lp3418
g57
(g66
g59
NtRp3419
(dp3420
g62
(dp3421
g70
I4
ssg71
Nsg64
(lp3422
g57
(g73
g59
NtRp3423
(dp3424
g62
(dp3425
sg71
g3419
sg64
(lp3426
g57
(g78
g59
NtRp3427
(dp3428
g62
(dp3429
sg71
g3423
sg64
(lp3430
g57
(g58
g59
NtRp3431
(dp3432
g62
(dp3433
g70
I4
ssg71
g3427
sg64
(lp3434
S'3'
asbasbasbag57
(g73
g59
NtRp3435
(dp3436
g62
(dp3437
sg71
g3419
sg64
(lp3438
g57
(g78
g59
NtRp3439
(dp3440
g62
(dp3441
sg71
g3435
sg64
(lp3442
g57
(g58
g59
NtRp3443
(dp3444
g62
(dp3445
g70
I4
ssg71
g3439
sg64
(lp3446
S'3'
asbasbasbag57
(g73
g59
NtRp3447
(dp3448
g62
(dp3449
sg71
g3419
sg64
(lp3450
g57
(g78
g59
NtRp3451
(dp3452
g62
(dp3453
sg71
g3447
sg64
(lp3454
g57
(g58
g59
NtRp3455
(dp3456
g62
(dp3457
g70
I4
ssg71
g3451
sg64
(lp3458
S'2'
asbasbasbag57
(g73
g59
NtRp3459
(dp3460
g62
(dp3461
sg71
g3419
sg64
(lp3462
g57
(g78
g59
NtRp3463
(dp3464
g62
(dp3465
sg71
g3459
sg64
(lp3466
g57
(g58
g59
NtRp3467
(dp3468
g62
(dp3469
g70
I4
ssg71
g3463
sg64
(lp3470
S'1'
asbasbasbag57
(g73
g59
NtRp3471
(dp3472
g62
(dp3473
sg71
g3419
sg64
(lp3474
g57
(g78
g59
NtRp3475
(dp3476
g62
(dp3477
sg71
g3471
sg64
(lp3478
g57
(g58
g59
NtRp3479
(dp3480
g62
(dp3481
g70
I4
ssg71
g3475
sg64
(lp3482
S'3'
asbasbasbag57
(g73
g59
NtRp3483
(dp3484
g62
(dp3485
sg71
g3419
sg64
(lp3486
g57
(g78
g59
NtRp3487
(dp3488
g62
(dp3489
sg71
g3483
sg64
(lp3490
g57
(g58
g59
NtRp3491
(dp3492
g62
(dp3493
g70
I4
ssg71
g3487
sg64
(lp3494
S'1'
asbasbasbag57
(g73
g59
NtRp3495
(dp3496
g62
(dp3497
sg71
g3419
sg64
(lp3498
g57
(g78
g59
NtRp3499
(dp3500
g62
(dp3501
sg71
g3495
sg64
(lp3502
g57
(g58
g59
NtRp3503
(dp3504
g62
(dp3505
g70
I4
ssg71
g3499
sg64
(lp3506
S'2'
asbasbasbag57
(g73
g59
NtRp3507
(dp3508
g62
(dp3509
sg71
g3419
sg64
(lp3510
g57
(g78
g59
NtRp3511
(dp3512
g62
(dp3513
sg71
g3507
sg64
(lp3514
g57
(g58
g59
NtRp3515
(dp3516
g62
(dp3517
g70
I4
ssg71
g3511
sg64
(lp3518
S'3'
asbasbasbasbasbasbasbag57
(g73
g59
NtRp3519
(dp3520
g62
(dp3521
sg71
g3372
sg64
(lp3522
g57
(g78
g59
NtRp3523
(dp3524
g62
(dp3525
g82
g83
ssg71
g3519
sg64
(lp3526
S'answer'
p3527
asbag57
(g78
g59
NtRp3528
(dp3529
g62
(dp3530
g89
g90
ssg71
g3519
sg64
(lp3531
S':'
asbag57
(g78
g59
NtRp3532
(dp3533
g62
(dp3534
sg71
g3519
sg64
(lp3535
g57
(g58
g59
NtRp3536
(dp3537
g62
(dp3538
g70
I5
ssg71
g3532
sg64
(lp3539
S'^(through )(the |a )(road|street|way)( )*$'
p3540
asbasbasbag57
(g73
g59
NtRp3541
(dp3542
g62
(dp3543
sg71
g3372
sg64
(lp3544
g57
(g78
g59
NtRp3545
(dp3546
g62
(dp3547
g82
g83
ssg71
g3541
sg64
(lp3548
S'answer2'
p3549
asbag57
(g78
g59
NtRp3550
(dp3551
g62
(dp3552
g89
g90
ssg71
g3541
sg64
(lp3553
S':'
asbag57
(g78
g59
NtRp3554
(dp3555
g62
(dp3556
sg71
g3541
sg64
(lp3557
g57
(g58
g59
NtRp3558
(dp3559
g62
(dp3560
g70
I5
ssg71
g3554
sg64
(lp3561
S'null'
p3562
asbasbasbag57
(g73
g59
NtRp3563
(dp3564
g62
(dp3565
sg71
g3372
sg64
(lp3566
g57
(g78
g59
NtRp3567
(dp3568
g62
(dp3569
g82
g83
ssg71
g3563
sg64
(lp3570
S'answer3'
p3571
asbag57
(g78
g59
NtRp3572
(dp3573
g62
(dp3574
g89
g90
ssg71
g3563
sg64
(lp3575
S':'
asbag57
(g78
g59
NtRp3576
(dp3577
g62
(dp3578
sg71
g3563
sg64
(lp3579
g57
(g58
g59
NtRp3580
(dp3581
g62
(dp3582
g70
I5
ssg71
g3576
sg64
(lp3583
S'null'
p3584
asbasbasbag57
(g73
g59
NtRp3585
(dp3586
g62
(dp3587
sg71
g3372
sg64
(lp3588
g57
(g78
g59
NtRp3589
(dp3590
g62
(dp3591
g82
g83
ssg71
g3585
sg64
(lp3592
S'auth'
p3593
asbag57
(g78
g59
NtRp3594
(dp3595
g62
(dp3596
g89
g90
ssg71
g3585
sg64
(lp3597
S':'
asbag57
(g78
g59
NtRp3598
(dp3599
g62
(dp3600
sg71
g3585
sg64
(lp3601
g57
(g58
g59
NtRp3602
(dp3603
g62
(dp3604
g70
I5
ssg71
g3598
sg64
(lp3605
g57
(g66
g59
NtRp3606
(dp3607
g62
(dp3608
g70
I4
ssg71
Nsg64
(lp3609
g57
(g73
g59
NtRp3610
(dp3611
g62
(dp3612
sg71
g3606
sg64
(lp3613
g57
(g78
g59
NtRp3614
(dp3615
g62
(dp3616
g82
g83
ssg71
g3610
sg64
(lp3617
S'expiration'
p3618
asbag57
(g78
g59
NtRp3619
(dp3620
g62
(dp3621
g89
g90
ssg71
g3610
sg64
(lp3622
S':'
asbag57
(g78
g59
NtRp3623
(dp3624
g62
(dp3625
sg71
g3610
sg64
(lp3626
g57
(g58
g59
NtRp3627
(dp3628
g62
(dp3629
g70
I4
ssg71
g3623
sg64
(lp3630
S'2592000'
p3631
asbasbasbag57
(g73
g59
NtRp3632
(dp3633
g62
(dp3634
sg71
g3606
sg64
(lp3635
g57
(g78
g59
NtRp3636
(dp3637
g62
(dp3638
g82
g83
ssg71
g3632
sg64
(lp3639
S'hmac_key'
p3640
asbag57
(g78
g59
NtRp3641
(dp3642
g62
(dp3643
g89
g90
ssg71
g3632
sg64
(lp3644
S':'
asbag57
(g78
g59
NtRp3645
(dp3646
g62
(dp3647
sg71
g3632
sg64
(lp3648
g57
(g58
g59
NtRp3649
(dp3650
g62
(dp3651
g70
I4
ssg71
g3645
sg64
(lp3652
S'fce6e545-515a-4703-a164-38201539b3c6'
p3653
asbasbasbag57
(g73
g59
NtRp3654
(dp3655
g62
(dp3656
sg71
g3606
sg64
(lp3657
g57
(g78
g59
NtRp3658
(dp3659
g62
(dp3660
g82
g83
ssg71
g3654
sg64
(lp3661
S'last_visit'
p3662
asbag57
(g78
g59
NtRp3663
(dp3664
g62
(dp3665
g89
g90
ssg71
g3654
sg64
(lp3666
S':'
asbag57
(g78
g59
NtRp3667
(dp3668
g62
(dp3669
sg71
g3654
sg64
(lp3670
g57
(g58
g59
NtRp3671
(dp3672
g62
(dp3673
g70
I4
ssg71
g3667
sg64
(lp3674
S'datetime.datetime(2012, 3, 19, 12, 47, 12, 129644)'
p3675
asbasbasbag57
(g73
g59
NtRp3676
(dp3677
g62
(dp3678
sg71
g3606
sg64
(lp3679
g57
(g78
g59
NtRp3680
(dp3681
g62
(dp3682
g82
g83
ssg71
g3676
sg64
(lp3683
S'remember'
p3684
asbag57
(g78
g59
NtRp3685
(dp3686
g62
(dp3687
g89
g90
ssg71
g3676
sg64
(lp3688
S':'
asbag57
(g78
g59
NtRp3689
(dp3690
g62
(dp3691
sg71
g3676
sg64
(lp3692
g57
(g58
g59
NtRp3693
(dp3694
g62
(dp3695
g70
I4
ssg71
g3689
sg64
(lp3696
g100
asbasbasbag57
(g73
g59
NtRp3697
(dp3698
g62
(dp3699
sg71
g3606
sg64
(lp3700
g57
(g78
g59
NtRp3701
(dp3702
g62
(dp3703
g82
g83
ssg71
g3697
sg64
(lp3704
S'user'
p3705
asbag57
(g78
g59
NtRp3706
(dp3707
g62
(dp3708
g89
g90
ssg71
g3697
sg64
(lp3709
S':'
asbag57
(g78
g59
NtRp3710
(dp3711
g62
(dp3712
sg71
g3697
sg64
(lp3713
g57
(g58
g59
NtRp3714
(dp3715
g62
(dp3716
g70
I4
ssg71
g3710
sg64
(lp3717
g57
(g66
g59
NtRp3718
(dp3719
g62
(dp3720
g70
I3
ssg71
Nsg64
(lp3721
g57
(g73
g59
NtRp3722
(dp3723
g62
(dp3724
sg71
g3718
sg64
(lp3725
g57
(g78
g59
NtRp3726
(dp3727
g62
(dp3728
g82
g83
ssg71
g3722
sg64
(lp3729
S'email'
p3730
asbag57
(g78
g59
NtRp3731
(dp3732
g62
(dp3733
g89
g90
ssg71
g3722
sg64
(lp3734
S':'
asbag57
(g78
g59
NtRp3735
(dp3736
g62
(dp3737
sg71
g3722
sg64
(lp3738
g57
(g58
g59
NtRp3739
(dp3740
g62
(dp3741
g70
I3
ssg71
g3735
sg64
(lp3742
S'scottianw@gmail.com'
p3743
asbasbasbag57
(g73
g59
NtRp3744
(dp3745
g62
(dp3746
sg71
g3718
sg64
(lp3747
g57
(g78
g59
NtRp3748
(dp3749
g62
(dp3750
g82
g83
ssg71
g3744
sg64
(lp3751
S'first_name'
p3752
asbag57
(g78
g59
NtRp3753
(dp3754
g62
(dp3755
g89
g90
ssg71
g3744
sg64
(lp3756
S':'
asbag57
(g78
g59
NtRp3757
(dp3758
g62
(dp3759
sg71
g3744
sg64
(lp3760
g57
(g58
g59
NtRp3761
(dp3762
g62
(dp3763
g70
I3
ssg71
g3757
sg64
(lp3764
S'Ian'
p3765
asbasbasbag57
(g73
g59
NtRp3766
(dp3767
g62
(dp3768
sg71
g3718
sg64
(lp3769
g57
(g78
g59
NtRp3770
(dp3771
g62
(dp3772
g82
g83
ssg71
g3766
sg64
(lp3773
S'id'
p3774
asbag57
(g78
g59
NtRp3775
(dp3776
g62
(dp3777
g89
g90
ssg71
g3766
sg64
(lp3778
S':'
asbag57
(g78
g59
NtRp3779
(dp3780
g62
(dp3781
sg71
g3766
sg64
(lp3782
g57
(g58
g59
NtRp3783
(dp3784
g62
(dp3785
g70
I3
ssg71
g3779
sg64
(lp3786
S'2'
asbasbasbag57
(g73
g59
NtRp3787
(dp3788
g62
(dp3789
sg71
g3718
sg64
(lp3790
g57
(g78
g59
NtRp3791
(dp3792
g62
(dp3793
g82
g83
ssg71
g3787
sg64
(lp3794
S'last_name'
p3795
asbag57
(g78
g59
NtRp3796
(dp3797
g62
(dp3798
g89
g90
ssg71
g3787
sg64
(lp3799
S':'
asbag57
(g78
g59
NtRp3800
(dp3801
g62
(dp3802
sg71
g3787
sg64
(lp3803
g57
(g58
g59
NtRp3804
(dp3805
g62
(dp3806
g70
I3
ssg71
g3800
sg64
(lp3807
S'Scott'
p3808
asbasbasbag57
(g73
g59
NtRp3809
(dp3810
g62
(dp3811
sg71
g3718
sg64
(lp3812
g57
(g78
g59
NtRp3813
(dp3814
g62
(dp3815
g82
g83
ssg71
g3809
sg64
(lp3816
S'password'
p3817
asbag57
(g78
g59
NtRp3818
(dp3819
g62
(dp3820
g89
g90
ssg71
g3809
sg64
(lp3821
S':'
asbag57
(g78
g59
NtRp3822
(dp3823
g62
(dp3824
sg71
g3809
sg64
(lp3825
g57
(g58
g59
NtRp3826
(dp3827
g62
(dp3828
g70
I3
ssg71
g3822
sg64
(lp3829
S'19738f1e9a2c8eaac81936a86bf608a1a6995e02f527fa31723cb88a2e513a1efae33471354a02805bf25ea2ea17a59c025a5fc8eca6b3bb2137bda74e538737'
p3830
asbasbasbag57
(g73
g59
NtRp3831
(dp3832
g62
(dp3833
sg71
g3718
sg64
(lp3834
g57
(g78
g59
NtRp3835
(dp3836
g62
(dp3837
g82
g83
ssg71
g3831
sg64
(lp3838
S'registration_id'
p3839
asbag57
(g78
g59
NtRp3840
(dp3841
g62
(dp3842
g89
g90
ssg71
g3831
sg64
(lp3843
S':'
asbag57
(g78
g59
NtRp3844
(dp3845
g62
(dp3846
sg71
g3831
sg64
(lp3847
g57
(g58
g59
NtRp3848
(dp3849
g62
(dp3850
g70
I3
ssg71
g3844
sg64
(lp3851
S'None'
p3852
asbasbasbag57
(g73
g59
NtRp3853
(dp3854
g62
(dp3855
sg71
g3718
sg64
(lp3856
g57
(g78
g59
NtRp3857
(dp3858
g62
(dp3859
g82
g83
ssg71
g3853
sg64
(lp3860
S'registration_key'
p3861
asbag57
(g78
g59
NtRp3862
(dp3863
g62
(dp3864
g89
g90
ssg71
g3853
sg64
(lp3865
S':'
asbag57
(g78
g59
NtRp3866
(dp3867
g62
(dp3868
sg71
g3853
sg64
(lp3869
g57
(g58
g59
NtRp3870
(dp3871
g62
(dp3872
g70
I3
ssg71
g3866
sg64
(lp3873
S''
asbasbasbag57
(g73
g59
NtRp3874
(dp3875
g62
(dp3876
sg71
g3718
sg64
(lp3877
g57
(g78
g59
NtRp3878
(dp3879
g62
(dp3880
g82
g83
ssg71
g3874
sg64
(lp3881
S'reset_password_key'
p3882
asbag57
(g78
g59
NtRp3883
(dp3884
g62
(dp3885
g89
g90
ssg71
g3874
sg64
(lp3886
S':'
asbag57
(g78
g59
NtRp3887
(dp3888
g62
(dp3889
sg71
g3874
sg64
(lp3890
g57
(g58
g59
NtRp3891
(dp3892
g62
(dp3893
g70
I3
ssg71
g3887
sg64
(lp3894
S'1327083713-2cc5b0bb-81c6-473e-adeb-2160a9624c63'
p3895
asbasbasbasbasbasbasbasbasbasbasbag57
(g73
g59
NtRp3896
(dp3897
g62
(dp3898
sg71
g3372
sg64
(lp3899
g57
(g78
g59
NtRp3900
(dp3901
g62
(dp3902
g82
g83
ssg71
g3896
sg64
(lp3903
S'blocks'
p3904
asbag57
(g78
g59
NtRp3905
(dp3906
g62
(dp3907
g89
g90
ssg71
g3896
sg64
(lp3908
S':'
asbag57
(g78
g59
NtRp3909
(dp3910
g62
(dp3911
sg71
g3896
sg64
(lp3912
g57
(g58
g59
NtRp3913
(dp3914
g62
(dp3915
g70
I5
ssg71
g3909
sg64
(lp3916
S'None'
p3917
asbasbasbag57
(g73
g59
NtRp3918
(dp3919
g62
(dp3920
sg71
g3372
sg64
(lp3921
g57
(g78
g59
NtRp3922
(dp3923
g62
(dp3924
g82
g83
ssg71
g3918
sg64
(lp3925
S'completed_paths'
p3926
asbag57
(g78
g59
NtRp3927
(dp3928
g62
(dp3929
g89
g90
ssg71
g3918
sg64
(lp3930
S':'
asbag57
(g78
g59
NtRp3931
(dp3932
g62
(dp3933
sg71
g3918
sg64
(lp3934
g57
(g58
g59
NtRp3935
(dp3936
g62
(dp3937
g70
I5
ssg71
g3931
sg64
(lp3938
S'None'
p3939
asbasbasbag57
(g73
g59
NtRp3940
(dp3941
g62
(dp3942
sg71
g3372
sg64
(lp3943
g57
(g78
g59
NtRp3944
(dp3945
g62
(dp3946
g82
g83
ssg71
g3940
sg64
(lp3947
S'debug'
p3948
asbag57
(g78
g59
NtRp3949
(dp3950
g62
(dp3951
g89
g90
ssg71
g3940
sg64
(lp3952
S':'
asbag57
(g78
g59
NtRp3953
(dp3954
g62
(dp3955
sg71
g3940
sg64
(lp3956
g57
(g58
g59
NtRp3957
(dp3958
g62
(dp3959
g70
I5
ssg71
g3953
sg64
(lp3960
g57
(g66
g59
NtRp3961
(dp3962
g62
(dp3963
g70
I4
ssg71
Nsg64
(lp3964
sbasbasbasbag57
(g73
g59
NtRp3965
(dp3966
g62
(dp3967
sg71
g3372
sg64
(lp3968
g57
(g78
g59
NtRp3969
(dp3970
g62
(dp3971
g82
g83
ssg71
g3965
sg64
(lp3972
S'eval'
p3973
asbag57
(g78
g59
NtRp3974
(dp3975
g62
(dp3976
g89
g90
ssg71
g3965
sg64
(lp3977
S':'
asbag57
(g78
g59
NtRp3978
(dp3979
g62
(dp3980
sg71
g3965
sg64
(lp3981
g57
(g58
g59
NtRp3982
(dp3983
g62
(dp3984
g70
I5
ssg71
g3978
sg64
(lp3985
S'correct'
p3986
asbasbasbag57
(g73
g59
NtRp3987
(dp3988
g62
(dp3989
sg71
g3372
sg64
(lp3990
g57
(g78
g59
NtRp3991
(dp3992
g62
(dp3993
g82
g83
ssg71
g3987
sg64
(lp3994
S'last_query'
p3995
asbag57
(g78
g59
NtRp3996
(dp3997
g62
(dp3998
g89
g90
ssg71
g3987
sg64
(lp3999
S':'
asbag57
(g78
g59
NtRp4000
(dp4001
g62
(dp4002
sg71
g3987
sg64
(lp4003
g57
(g58
g59
NtRp4004
(dp4005
g62
(dp4006
g70
I5
ssg71
g4000
sg64
(lp4007
S'db.npcs.id>0'
p4008
asbasbasbag57
(g73
g59
NtRp4009
(dp4010
g62
(dp4011
sg71
g3372
sg64
(lp4012
g57
(g78
g59
NtRp4013
(dp4014
g62
(dp4015
g82
g83
ssg71
g4009
sg64
(lp4016
S'location'
p4017
asbag57
(g78
g59
NtRp4018
(dp4019
g62
(dp4020
g89
g90
ssg71
g4009
sg64
(lp4021
S':'
asbag57
(g78
g59
NtRp4022
(dp4023
g62
(dp4024
sg71
g4009
sg64
(lp4025
g57
(g58
g59
NtRp4026
(dp4027
g62
(dp4028
g70
I5
ssg71
g4022
sg64
(lp4029
S'1'
asbasbasbag57
(g73
g59
NtRp4030
(dp4031
g62
(dp4032
sg71
g3372
sg64
(lp4033
g57
(g78
g59
NtRp4034
(dp4035
g62
(dp4036
g82
g83
ssg71
g4030
sg64
(lp4037
S'path_freq'
p4038
asbag57
(g78
g59
NtRp4039
(dp4040
g62
(dp4041
g89
g90
ssg71
g4030
sg64
(lp4042
S':'
asbag57
(g78
g59
NtRp4043
(dp4044
g62
(dp4045
sg71
g4030
sg64
(lp4046
g57
(g58
g59
NtRp4047
(dp4048
g62
(dp4049
g70
I5
ssg71
g4043
sg64
(lp4050
S'70'
p4051
asbasbasbag57
(g73
g59
NtRp4052
(dp4053
g62
(dp4054
sg71
g3372
sg64
(lp4055
g57
(g78
g59
NtRp4056
(dp4057
g62
(dp4058
g82
g83
ssg71
g4052
sg64
(lp4059
S'path_id'
p4060
asbag57
(g78
g59
NtRp4061
(dp4062
g62
(dp4063
g89
g90
ssg71
g4052
sg64
(lp4064
S':'
asbag57
(g78
g59
NtRp4065
(dp4066
g62
(dp4067
sg71
g4052
sg64
(lp4068
g57
(g58
g59
NtRp4069
(dp4070
g62
(dp4071
g70
I5
ssg71
g4065
sg64
(lp4072
S'1'
asbasbasbag57
(g73
g59
NtRp4073
(dp4074
g62
(dp4075
sg71
g3372
sg64
(lp4076
g57
(g78
g59
NtRp4077
(dp4078
g62
(dp4079
g82
g83
ssg71
g4073
sg64
(lp4080
S'path_length'
p4081
asbag57
(g78
g59
NtRp4082
(dp4083
g62
(dp4084
g89
g90
ssg71
g4073
sg64
(lp4085
S':'
asbag57
(g78
g59
NtRp4086
(dp4087
g62
(dp4088
sg71
g4073
sg64
(lp4089
g57
(g58
g59
NtRp4090
(dp4091
g62
(dp4092
g70
I5
ssg71
g4086
sg64
(lp4093
S'20'
p4094
asbasbasbag57
(g73
g59
NtRp4095
(dp4096
g62
(dp4097
sg71
g3372
sg64
(lp4098
g57
(g78
g59
NtRp4099
(dp4100
g62
(dp4101
g82
g83
ssg71
g4095
sg64
(lp4102
S'path_name'
p4103
asbag57
(g78
g59
NtRp4104
(dp4105
g62
(dp4106
g89
g90
ssg71
g4095
sg64
(lp4107
S':'
asbag57
(g78
g59
NtRp4108
(dp4109
g62
(dp4110
sg71
g4095
sg64
(lp4111
g57
(g58
g59
NtRp4112
(dp4113
g62
(dp4114
g70
I5
ssg71
g4108
sg64
(lp4115
S'Tyndale - Greek Exegesis I - Week 1'
p4116
asbasbasbag57
(g73
g59
NtRp4117
(dp4118
g62
(dp4119
sg71
g3372
sg64
(lp4120
g57
(g78
g59
NtRp4121
(dp4122
g62
(dp4123
g82
g83
ssg71
g4117
sg64
(lp4124
S'path_tags'
p4125
asbag57
(g78
g59
NtRp4126
(dp4127
g62
(dp4128
g89
g90
ssg71
g4117
sg64
(lp4129
S':'
asbag57
(g78
g59
NtRp4130
(dp4131
g62
(dp4132
sg71
g4117
sg64
(lp4133
g57
(g58
g59
NtRp4134
(dp4135
g62
(dp4136
g70
I5
ssg71
g4130
sg64
(lp4137
g57
(g66
g59
NtRp4138
(dp4139
g62
(dp4140
g70
I4
ssg71
Nsg64
(lp4141
g57
(g73
g59
NtRp4142
(dp4143
g62
(dp4144
sg71
g4138
sg64
(lp4145
g57
(g78
g59
NtRp4146
(dp4147
g62
(dp4148
sg71
g4142
sg64
(lp4149
g57
(g58
g59
NtRp4150
(dp4151
g62
(dp4152
g70
I4
ssg71
g4146
sg64
(lp4153
S'6'
asbasbasbag57
(g73
g59
NtRp4154
(dp4155
g62
(dp4156
sg71
g4138
sg64
(lp4157
g57
(g78
g59
NtRp4158
(dp4159
g62
(dp4160
sg71
g4154
sg64
(lp4161
g57
(g58
g59
NtRp4162
(dp4163
g62
(dp4164
g70
I4
ssg71
g4158
sg64
(lp4165
S'1'
asbasbasbag57
(g73
g59
NtRp4166
(dp4167
g62
(dp4168
sg71
g4138
sg64
(lp4169
g57
(g78
g59
NtRp4170
(dp4171
g62
(dp4172
sg71
g4166
sg64
(lp4173
g57
(g58
g59
NtRp4174
(dp4175
g62
(dp4176
g70
I4
ssg71
g4170
sg64
(lp4177
S'7'
asbasbasbag57
(g73
g59
NtRp4178
(dp4179
g62
(dp4180
sg71
g4138
sg64
(lp4181
g57
(g78
g59
NtRp4182
(dp4183
g62
(dp4184
sg71
g4178
sg64
(lp4185
g57
(g58
g59
NtRp4186
(dp4187
g62
(dp4188
g70
I4
ssg71
g4182
sg64
(lp4189
S'8'
asbasbasbag57
(g73
g59
NtRp4190
(dp4191
g62
(dp4192
sg71
g4138
sg64
(lp4193
g57
(g78
g59
NtRp4194
(dp4195
g62
(dp4196
sg71
g4190
sg64
(lp4197
g57
(g58
g59
NtRp4198
(dp4199
g62
(dp4200
g70
I4
ssg71
g4194
sg64
(lp4201
S'9'
asbasbasbasbasbasbasbag57
(g73
g59
NtRp4202
(dp4203
g62
(dp4204
sg71
g3372
sg64
(lp4205
g57
(g78
g59
NtRp4206
(dp4207
g62
(dp4208
g82
g83
ssg71
g4202
sg64
(lp4209
S'qID'
p4210
asbag57
(g78
g59
NtRp4211
(dp4212
g62
(dp4213
g89
g90
ssg71
g4202
sg64
(lp4214
S':'
asbag57
(g78
g59
NtRp4215
(dp4216
g62
(dp4217
sg71
g4202
sg64
(lp4218
g57
(g58
g59
NtRp4219
(dp4220
g62
(dp4221
g70
I5
ssg71
g4215
sg64
(lp4222
S'32'
p4223
asbasbasbag57
(g73
g59
NtRp4224
(dp4225
g62
(dp4226
sg71
g3372
sg64
(lp4227
g57
(g78
g59
NtRp4228
(dp4229
g62
(dp4230
g82
g83
ssg71
g4224
sg64
(lp4231
S'q_counter'
p4232
asbag57
(g78
g59
NtRp4233
(dp4234
g62
(dp4235
g89
g90
ssg71
g4224
sg64
(lp4236
S':'
asbag57
(g78
g59
NtRp4237
(dp4238
g62
(dp4239
sg71
g4224
sg64
(lp4240
g57
(g58
g59
NtRp4241
(dp4242
g62
(dp4243
g70
I5
ssg71
g4237
sg64
(lp4244
S'17'
p4245
asbasbasbag57
(g73
g59
NtRp4246
(dp4247
g62
(dp4248
sg71
g3372
sg64
(lp4249
g57
(g78
g59
NtRp4250
(dp4251
g62
(dp4252
g82
g83
ssg71
g4246
sg64
(lp4253
S'question_text'
p4254
asbag57
(g78
g59
NtRp4255
(dp4256
g62
(dp4257
g89
g90
ssg71
g4246
sg64
(lp4258
S':'
asbag57
(g78
g59
NtRp4259
(dp4260
g62
(dp4261
sg71
g4246
sg64
(lp4262
g57
(g58
g59
NtRp4263
(dp4264
g62
(dp4265
g70
I5
ssg71
g4259
sg64
(lp4266
S'What does \xce\xb4\xce\xb9\xe1\xbd\xb0 \xcf\x84\xe1\xbd\xb4\xcf\x82 \xe1\xbd\x85\xce\xb4\xce\xbf\xcf\x85 mean?'
p4267
asbasbasbag57
(g73
g59
NtRp4268
(dp4269
g62
(dp4270
sg71
g3372
sg64
(lp4271
g57
(g78
g59
NtRp4272
(dp4273
g62
(dp4274
g82
g83
ssg71
g4268
sg64
(lp4275
S'quiz_type'
p4276
asbag57
(g78
g59
NtRp4277
(dp4278
g62
(dp4279
g89
g90
ssg71
g4268
sg64
(lp4280
S':'
asbag57
(g78
g59
NtRp4281
(dp4282
g62
(dp4283
sg71
g4268
sg64
(lp4284
g57
(g58
g59
NtRp4285
(dp4286
g62
(dp4287
g70
I5
ssg71
g4281
sg64
(lp4288
S'random'
p4289
asbasbasbag57
(g73
g59
NtRp4290
(dp4291
g62
(dp4292
sg71
g3372
sg64
(lp4293
g57
(g78
g59
NtRp4294
(dp4295
g62
(dp4296
g82
g83
ssg71
g4290
sg64
(lp4297
S'readable_answer'
p4298
asbag57
(g78
g59
NtRp4299
(dp4300
g62
(dp4301
g89
g90
ssg71
g4290
sg64
(lp4302
S':'
asbag57
(g78
g59
NtRp4303
(dp4304
g62
(dp4305
sg71
g4290
sg64
(lp4306
g57
(g58
g59
NtRp4307
(dp4308
g62
(dp4309
g70
I5
ssg71
g4303
sg64
(lp4310
S'through the road; through the street'
p4311
asbasbasbag57
(g73
g59
NtRp4312
(dp4313
g62
(dp4314
sg71
g3372
sg64
(lp4315
g57
(g78
g59
NtRp4316
(dp4317
g62
(dp4318
g82
g83
ssg71
g4312
sg64
(lp4319
S'response'
p4320
asbag57
(g78
g59
NtRp4321
(dp4322
g62
(dp4323
g89
g90
ssg71
g4312
sg64
(lp4324
S':'
asbag57
(g78
g59
NtRp4325
(dp4326
g62
(dp4327
sg71
g4312
sg64
(lp4328
g57
(g58
g59
NtRp4329
(dp4330
g62
(dp4331
g70
I5
ssg71
g4325
sg64
(lp4332
S'through the road'
p4333
asbasbasbag57
(g73
g59
NtRp4334
(dp4335
g62
(dp4336
sg71
g3372
sg64
(lp4337
g57
(g78
g59
NtRp4338
(dp4339
g62
(dp4340
g82
g83
ssg71
g4334
sg64
(lp4341
S'tagset'
p4342
asbag57
(g78
g59
NtRp4343
(dp4344
g62
(dp4345
g89
g90
ssg71
g4334
sg64
(lp4346
S':'
asbag57
(g78
g59
NtRp4347
(dp4348
g62
(dp4349
sg71
g4334
sg64
(lp4350
g57
(g58
g59
NtRp4351
(dp4352
g62
(dp4353
g70
I5
ssg71
g4347
sg64
(lp4354
g57
(g66
g59
NtRp4355
(dp4356
g62
(dp4357
g70
I4
ssg71
Nsg64
(lp4358
g57
(g73
g59
NtRp4359
(dp4360
g62
(dp4361
sg71
g4355
sg64
(lp4362
g57
(g78
g59
NtRp4363
(dp4364
g62
(dp4365
g82
g83
ssg71
g4359
sg64
(lp4366
S'1'
asbag57
(g78
g59
NtRp4367
(dp4368
g62
(dp4369
g89
g90
ssg71
g4359
sg64
(lp4370
S':'
asbag57
(g78
g59
NtRp4371
(dp4372
g62
(dp4373
sg71
g4359
sg64
(lp4374
g57
(g58
g59
NtRp4375
(dp4376
g62
(dp4377
g70
I4
ssg71
g4371
sg64
(lp4378
g57
(g66
g59
NtRp4379
(dp4380
g62
(dp4381
g70
I3
ssg71
Nsg64
(lp4382
g57
(g73
g59
NtRp4383
(dp4384
g62
(dp4385
sg71
g4379
sg64
(lp4386
g57
(g78
g59
NtRp4387
(dp4388
g62
(dp4389
sg71
g4383
sg64
(lp4390
g57
(g58
g59
NtRp4391
(dp4392
g62
(dp4393
g70
I3
ssg71
g4387
sg64
(lp4394
S'44'
p4395
asbasbasbag57
(g73
g59
NtRp4396
(dp4397
g62
(dp4398
sg71
g4379
sg64
(lp4399
g57
(g78
g59
NtRp4400
(dp4401
g62
(dp4402
sg71
g4396
sg64
(lp4403
g57
(g58
g59
NtRp4404
(dp4405
g62
(dp4406
g70
I3
ssg71
g4400
sg64
(lp4407
S'44'
p4408
asbasbasbag57
(g73
g59
NtRp4409
(dp4410
g62
(dp4411
sg71
g4379
sg64
(lp4412
g57
(g78
g59
NtRp4413
(dp4414
g62
(dp4415
sg71
g4409
sg64
(lp4416
g57
(g58
g59
NtRp4417
(dp4418
g62
(dp4419
g70
I3
ssg71
g4413
sg64
(lp4420
S'44'
p4421
asbasbasbag57
(g73
g59
NtRp4422
(dp4423
g62
(dp4424
sg71
g4379
sg64
(lp4425
g57
(g78
g59
NtRp4426
(dp4427
g62
(dp4428
sg71
g4422
sg64
(lp4429
g57
(g58
g59
NtRp4430
(dp4431
g62
(dp4432
g70
I3
ssg71
g4426
sg64
(lp4433
S'44'
p4434
asbasbasbag57
(g73
g59
NtRp4435
(dp4436
g62
(dp4437
sg71
g4379
sg64
(lp4438
g57
(g78
g59
NtRp4439
(dp4440
g62
(dp4441
sg71
g4435
sg64
(lp4442
g57
(g58
g59
NtRp4443
(dp4444
g62
(dp4445
g70
I3
ssg71
g4439
sg64
(lp4446
S'44'
p4447
asbasbasbag57
(g73
g59
NtRp4448
(dp4449
g62
(dp4450
sg71
g4379
sg64
(lp4451
g57
(g78
g59
NtRp4452
(dp4453
g62
(dp4454
sg71
g4448
sg64
(lp4455
g57
(g58
g59
NtRp4456
(dp4457
g62
(dp4458
g70
I3
ssg71
g4452
sg64
(lp4459
S'18'
p4460
asbasbasbag57
(g73
g59
NtRp4461
(dp4462
g62
(dp4463
sg71
g4379
sg64
(lp4464
g57
(g78
g59
NtRp4465
(dp4466
g62
(dp4467
sg71
g4461
sg64
(lp4468
g57
(g58
g59
NtRp4469
(dp4470
g62
(dp4471
g70
I3
ssg71
g4465
sg64
(lp4472
S'6'
asbasbasbag57
(g73
g59
NtRp4473
(dp4474
g62
(dp4475
sg71
g4379
sg64
(lp4476
g57
(g78
g59
NtRp4477
(dp4478
g62
(dp4479
sg71
g4473
sg64
(lp4480
g57
(g58
g59
NtRp4481
(dp4482
g62
(dp4483
g70
I3
ssg71
g4477
sg64
(lp4484
S'1'
asbasbasbag57
(g73
g59
NtRp4485
(dp4486
g62
(dp4487
sg71
g4379
sg64
(lp4488
g57
(g78
g59
NtRp4489
(dp4490
g62
(dp4491
sg71
g4485
sg64
(lp4492
g57
(g58
g59
NtRp4493
(dp4494
g62
(dp4495
g70
I3
ssg71
g4489
sg64
(lp4496
S'33'
p4497
asbasbasbag57
(g73
g59
NtRp4498
(dp4499
g62
(dp4500
sg71
g4379
sg64
(lp4501
g57
(g78
g59
NtRp4502
(dp4503
g62
(dp4504
sg71
g4498
sg64
(lp4505
g57
(g58
g59
NtRp4506
(dp4507
g62
(dp4508
g70
I3
ssg71
g4502
sg64
(lp4509
S'31'
p4510
asbasbasbag57
(g73
g59
NtRp4511
(dp4512
g62
(dp4513
sg71
g4379
sg64
(lp4514
g57
(g78
g59
NtRp4515
(dp4516
g62
(dp4517
sg71
g4511
sg64
(lp4518
g57
(g58
g59
NtRp4519
(dp4520
g62
(dp4521
g70
I3
ssg71
g4515
sg64
(lp4522
S'12'
p4523
asbasbasbag57
(g73
g59
NtRp4524
(dp4525
g62
(dp4526
sg71
g4379
sg64
(lp4527
g57
(g78
g59
NtRp4528
(dp4529
g62
(dp4530
sg71
g4524
sg64
(lp4531
g57
(g58
g59
NtRp4532
(dp4533
g62
(dp4534
g70
I3
ssg71
g4528
sg64
(lp4535
S'2'
asbasbasbag57
(g73
g59
NtRp4536
(dp4537
g62
(dp4538
sg71
g4379
sg64
(lp4539
g57
(g78
g59
NtRp4540
(dp4541
g62
(dp4542
sg71
g4536
sg64
(lp4543
g57
(g58
g59
NtRp4544
(dp4545
g62
(dp4546
g70
I3
ssg71
g4540
sg64
(lp4547
S'14'
p4548
asbasbasbag57
(g73
g59
NtRp4549
(dp4550
g62
(dp4551
sg71
g4379
sg64
(lp4552
g57
(g78
g59
NtRp4553
(dp4554
g62
(dp4555
sg71
g4549
sg64
(lp4556
g57
(g58
g59
NtRp4557
(dp4558
g62
(dp4559
g70
I3
ssg71
g4553
sg64
(lp4560
S'7'
asbasbasbag57
(g73
g59
NtRp4561
(dp4562
g62
(dp4563
sg71
g4379
sg64
(lp4564
g57
(g78
g59
NtRp4565
(dp4566
g62
(dp4567
sg71
g4561
sg64
(lp4568
g57
(g58
g59
NtRp4569
(dp4570
g62
(dp4571
g70
I3
ssg71
g4565
sg64
(lp4572
S'8'
asbasbasbag57
(g73
g59
NtRp4573
(dp4574
g62
(dp4575
sg71
g4379
sg64
(lp4576
g57
(g78
g59
NtRp4577
(dp4578
g62
(dp4579
sg71
g4573
sg64
(lp4580
g57
(g58
g59
NtRp4581
(dp4582
g62
(dp4583
g70
I3
ssg71
g4577
sg64
(lp4584
S'16'
p4585
asbasbasbag57
(g73
g59
NtRp4586
(dp4587
g62
(dp4588
sg71
g4379
sg64
(lp4589
g57
(g78
g59
NtRp4590
(dp4591
g62
(dp4592
sg71
g4586
sg64
(lp4593
g57
(g58
g59
NtRp4594
(dp4595
g62
(dp4596
g70
I3
ssg71
g4590
sg64
(lp4597
S'4'
asbasbasbag57
(g73
g59
NtRp4598
(dp4599
g62
(dp4600
sg71
g4379
sg64
(lp4601
g57
(g78
g59
NtRp4602
(dp4603
g62
(dp4604
sg71
g4598
sg64
(lp4605
g57
(g58
g59
NtRp4606
(dp4607
g62
(dp4608
g70
I3
ssg71
g4602
sg64
(lp4609
S'3'
asbasbasbag57
(g73
g59
NtRp4610
(dp4611
g62
(dp4612
sg71
g4379
sg64
(lp4613
g57
(g78
g59
NtRp4614
(dp4615
g62
(dp4616
sg71
g4610
sg64
(lp4617
g57
(g58
g59
NtRp4618
(dp4619
g62
(dp4620
g70
I3
ssg71
g4614
sg64
(lp4621
S'35'
p4622
asbasbasbag57
(g73
g59
NtRp4623
(dp4624
g62
(dp4625
sg71
g4379
sg64
(lp4626
g57
(g78
g59
NtRp4627
(dp4628
g62
(dp4629
sg71
g4623
sg64
(lp4630
g57
(g58
g59
NtRp4631
(dp4632
g62
(dp4633
g70
I3
ssg71
g4627
sg64
(lp4634
S'17'
p4635
asbasbasbag57
(g73
g59
NtRp4636
(dp4637
g62
(dp4638
sg71
g4379
sg64
(lp4639
g57
(g78
g59
NtRp4640
(dp4641
g62
(dp4642
sg71
g4636
sg64
(lp4643
g57
(g58
g59
NtRp4644
(dp4645
g62
(dp4646
g70
I3
ssg71
g4640
sg64
(lp4647
S'32'
p4648
asbasbasbag57
(g73
g59
NtRp4649
(dp4650
g62
(dp4651
sg71
g4379
sg64
(lp4652
g57
(g78
g59
NtRp4653
(dp4654
g62
(dp4655
sg71
g4649
sg64
(lp4656
g57
(g58
g59
NtRp4657
(dp4658
g62
(dp4659
g70
I3
ssg71
g4653
sg64
(lp4660
S'10'
p4661
asbasbasbag57
(g73
g59
NtRp4662
(dp4663
g62
(dp4664
sg71
g4379
sg64
(lp4665
g57
(g78
g59
NtRp4666
(dp4667
g62
(dp4668
sg71
g4662
sg64
(lp4669
g57
(g58
g59
NtRp4670
(dp4671
g62
(dp4672
g70
I3
ssg71
g4666
sg64
(lp4673
S'24'
p4674
asbasbasbag57
(g73
g59
NtRp4675
(dp4676
g62
(dp4677
sg71
g4379
sg64
(lp4678
g57
(g78
g59
NtRp4679
(dp4680
g62
(dp4681
sg71
g4675
sg64
(lp4682
g57
(g58
g59
NtRp4683
(dp4684
g62
(dp4685
g70
I3
ssg71
g4679
sg64
(lp4686
S'22'
p4687
asbasbasbag57
(g73
g59
NtRp4688
(dp4689
g62
(dp4690
sg71
g4379
sg64
(lp4691
g57
(g78
g59
NtRp4692
(dp4693
g62
(dp4694
sg71
g4688
sg64
(lp4695
g57
(g58
g59
NtRp4696
(dp4697
g62
(dp4698
g70
I3
ssg71
g4692
sg64
(lp4699
S'43'
p4700
asbasbasbag57
(g73
g59
NtRp4701
(dp4702
g62
(dp4703
sg71
g4379
sg64
(lp4704
g57
(g78
g59
NtRp4705
(dp4706
g62
(dp4707
sg71
g4701
sg64
(lp4708
g57
(g58
g59
NtRp4709
(dp4710
g62
(dp4711
g70
I3
ssg71
g4705
sg64
(lp4712
S'15'
p4713
asbasbasbag57
(g73
g59
NtRp4714
(dp4715
g62
(dp4716
sg71
g4379
sg64
(lp4717
g57
(g78
g59
NtRp4718
(dp4719
g62
(dp4720
sg71
g4714
sg64
(lp4721
g57
(g58
g59
NtRp4722
(dp4723
g62
(dp4724
g70
I3
ssg71
g4718
sg64
(lp4725
S'37'
p4726
asbasbasbag57
(g73
g59
NtRp4727
(dp4728
g62
(dp4729
sg71
g4379
sg64
(lp4730
g57
(g78
g59
NtRp4731
(dp4732
g62
(dp4733
sg71
g4727
sg64
(lp4734
g57
(g58
g59
NtRp4735
(dp4736
g62
(dp4737
g70
I3
ssg71
g4731
sg64
(lp4738
S'30'
p4739
asbasbasbag57
(g73
g59
NtRp4740
(dp4741
g62
(dp4742
sg71
g4379
sg64
(lp4743
g57
(g78
g59
NtRp4744
(dp4745
g62
(dp4746
sg71
g4740
sg64
(lp4747
g57
(g58
g59
NtRp4748
(dp4749
g62
(dp4750
g70
I3
ssg71
g4744
sg64
(lp4751
S'36'
p4752
asbasbasbag57
(g73
g59
NtRp4753
(dp4754
g62
(dp4755
sg71
g4379
sg64
(lp4756
g57
(g78
g59
NtRp4757
(dp4758
g62
(dp4759
sg71
g4753
sg64
(lp4760
g57
(g58
g59
NtRp4761
(dp4762
g62
(dp4763
g70
I3
ssg71
g4757
sg64
(lp4764
S'48'
p4765
asbasbasbag57
(g73
g59
NtRp4766
(dp4767
g62
(dp4768
sg71
g4379
sg64
(lp4769
g57
(g78
g59
NtRp4770
(dp4771
g62
(dp4772
sg71
g4766
sg64
(lp4773
g57
(g58
g59
NtRp4774
(dp4775
g62
(dp4776
g70
I3
ssg71
g4770
sg64
(lp4777
S'29'
p4778
asbasbasbag57
(g73
g59
NtRp4779
(dp4780
g62
(dp4781
sg71
g4379
sg64
(lp4782
g57
(g78
g59
NtRp4783
(dp4784
g62
(dp4785
sg71
g4779
sg64
(lp4786
g57
(g58
g59
NtRp4787
(dp4788
g62
(dp4789
g70
I3
ssg71
g4783
sg64
(lp4790
S'5'
asbasbasbag57
(g73
g59
NtRp4791
(dp4792
g62
(dp4793
sg71
g4379
sg64
(lp4794
g57
(g78
g59
NtRp4795
(dp4796
g62
(dp4797
sg71
g4791
sg64
(lp4798
g57
(g58
g59
NtRp4799
(dp4800
g62
(dp4801
g70
I3
ssg71
g4795
sg64
(lp4802
S'9'
asbasbasbag57
(g73
g59
NtRp4803
(dp4804
g62
(dp4805
sg71
g4379
sg64
(lp4806
g57
(g78
g59
NtRp4807
(dp4808
g62
(dp4809
sg71
g4803
sg64
(lp4810
g57
(g58
g59
NtRp4811
(dp4812
g62
(dp4813
g70
I3
ssg71
g4807
sg64
(lp4814
S'40'
p4815
asbasbasbag57
(g73
g59
NtRp4816
(dp4817
g62
(dp4818
sg71
g4379
sg64
(lp4819
g57
(g78
g59
NtRp4820
(dp4821
g62
(dp4822
sg71
g4816
sg64
(lp4823
g57
(g58
g59
NtRp4824
(dp4825
g62
(dp4826
g70
I3
ssg71
g4820
sg64
(lp4827
S'25'
p4828
asbasbasbag57
(g73
g59
NtRp4829
(dp4830
g62
(dp4831
sg71
g4379
sg64
(lp4832
g57
(g78
g59
NtRp4833
(dp4834
g62
(dp4835
sg71
g4829
sg64
(lp4836
g57
(g58
g59
NtRp4837
(dp4838
g62
(dp4839
g70
I3
ssg71
g4833
sg64
(lp4840
S'39'
p4841
asbasbasbasbasbasbasbag57
(g73
g59
NtRp4842
(dp4843
g62
(dp4844
sg71
g4355
sg64
(lp4845
g57
(g78
g59
NtRp4846
(dp4847
g62
(dp4848
g82
g83
ssg71
g4842
sg64
(lp4849
S'2'
asbag57
(g78
g59
NtRp4850
(dp4851
g62
(dp4852
g89
g90
ssg71
g4842
sg64
(lp4853
S':'
asbag57
(g78
g59
NtRp4854
(dp4855
g62
(dp4856
sg71
g4842
sg64
(lp4857
g57
(g58
g59
NtRp4858
(dp4859
g62
(dp4860
g70
I4
ssg71
g4854
sg64
(lp4861
g57
(g66
g59
NtRp4862
(dp4863
g62
(dp4864
g70
I3
ssg71
Nsg64
(lp4865
sbasbasbasbag57
(g73
g59
NtRp4866
(dp4867
g62
(dp4868
sg71
g4355
sg64
(lp4869
g57
(g78
g59
NtRp4870
(dp4871
g62
(dp4872
g82
g83
ssg71
g4866
sg64
(lp4873
S'3'
asbag57
(g78
g59
NtRp4874
(dp4875
g62
(dp4876
g89
g90
ssg71
g4866
sg64
(lp4877
S':'
asbag57
(g78
g59
NtRp4878
(dp4879
g62
(dp4880
sg71
g4866
sg64
(lp4881
g57
(g58
g59
NtRp4882
(dp4883
g62
(dp4884
g70
I4
ssg71
g4878
sg64
(lp4885
g57
(g66
g59
NtRp4886
(dp4887
g62
(dp4888
g70
I3
ssg71
Nsg64
(lp4889
sbasbasbasbag57
(g73
g59
NtRp4890
(dp4891
g62
(dp4892
sg71
g4355
sg64
(lp4893
g57
(g78
g59
NtRp4894
(dp4895
g62
(dp4896
g82
g83
ssg71
g4890
sg64
(lp4897
S'4'
asbag57
(g78
g59
NtRp4898
(dp4899
g62
(dp4900
g89
g90
ssg71
g4890
sg64
(lp4901
S':'
asbag57
(g78
g59
NtRp4902
(dp4903
g62
(dp4904
sg71
g4890
sg64
(lp4905
g57
(g58
g59
NtRp4906
(dp4907
g62
(dp4908
g70
I4
ssg71
g4902
sg64
(lp4909
g57
(g66
g59
NtRp4910
(dp4911
g62
(dp4912
g70
I3
ssg71
Nsg64
(lp4913
sbasbasbasbasbasbasbasbasbasbsS'etype'
p4914
S"<type 'exceptions.TypeError'>"
p4915
sS'date'
p4916
S'Tue Mar 20 14:48:20 2012'
p4917
sS'response'
p4918
g57
(g58
g59
NtRp4919
(dp4920
g62
(dp4921
sg64
(lp4922
g57
(g66
g59
NtRp4923
(dp4924
g62
(dp4925
g70
I5
ssg71
Nsg64
(lp4926
g57
(g73
g59
NtRp4927
(dp4928
g62
(dp4929
sg71
g4923
sg64
(lp4930
g57
(g78
g59
NtRp4931
(dp4932
g62
(dp4933
g82
g83
ssg71
g4927
sg64
(lp4934
g168
asbag57
(g78
g59
NtRp4935
(dp4936
g62
(dp4937
g89
g90
ssg71
g4927
sg64
(lp4938
S':'
asbag57
(g78
g59
NtRp4939
(dp4940
g62
(dp4941
sg71
g4927
sg64
(lp4942
g57
(g58
g59
NtRp4943
(dp4944
g62
(dp4945
g70
I5
ssg71
g4939
sg64
(lp4946
S'<cStringIO.StringO object at 0x9b0b820>'
p4947
asbasbasbag57
(g73
g59
NtRp4948
(dp4949
g62
(dp4950
sg71
g4923
sg64
(lp4951
g57
(g78
g59
NtRp4952
(dp4953
g62
(dp4954
g82
g83
ssg71
g4948
sg64
(lp4955
g256
asbag57
(g78
g59
NtRp4956
(dp4957
g62
(dp4958
g89
g90
ssg71
g4948
sg64
(lp4959
S':'
asbag57
(g78
g59
NtRp4960
(dp4961
g62
(dp4962
sg71
g4948
sg64
(lp4963
g57
(g58
g59
NtRp4964
(dp4965
g62
(dp4966
g70
I5
ssg71
g4960
sg64
(lp4967
g57
(g66
g59
NtRp4968
(dp4969
g62
(dp4970
g70
I4
ssg71
Nsg64
(lp4971
g57
(g73
g59
NtRp4972
(dp4973
g62
(dp4974
sg71
g4968
sg64
(lp4975
g57
(g78
g59
NtRp4976
(dp4977
g62
(dp4978
g82
g83
ssg71
g4972
sg64
(lp4979
S'session_id_paideia'
p4980
asbag57
(g78
g59
NtRp4981
(dp4982
g62
(dp4983
g89
g90
ssg71
g4972
sg64
(lp4984
S':'
asbag57
(g78
g59
NtRp4985
(dp4986
g62
(dp4987
sg71
g4972
sg64
(lp4988
g57
(g58
g59
NtRp4989
(dp4990
g62
(dp4991
g70
I4
ssg71
g4985
sg64
(lp4992
g57
(g66
g59
NtRp4993
(dp4994
g62
(dp4995
g70
I3
ssg71
Nsg64
(lp4996
g57
(g73
g59
NtRp4997
(dp4998
g62
(dp4999
sg71
g4993
sg64
(lp5000
g57
(g78
g59
NtRp5001
(dp5002
g62
(dp5003
g82
g83
ssg71
g4997
sg64
(lp5004
g306
asbag57
(g78
g59
NtRp5005
(dp5006
g62
(dp5007
g89
g90
ssg71
g4997
sg64
(lp5008
S':'
asbag57
(g78
g59
NtRp5009
(dp5010
g62
(dp5011
sg71
g4997
sg64
(lp5012
g57
(g58
g59
NtRp5013
(dp5014
g62
(dp5015
g70
I3
ssg71
g5009
sg64
(lp5016
S''
asbasbasbag57
(g73
g59
NtRp5017
(dp5018
g62
(dp5019
sg71
g4993
sg64
(lp5020
g57
(g78
g59
NtRp5021
(dp5022
g62
(dp5023
g82
g83
ssg71
g5017
sg64
(lp5024
g327
asbag57
(g78
g59
NtRp5025
(dp5026
g62
(dp5027
g89
g90
ssg71
g5017
sg64
(lp5028
S':'
asbag57
(g78
g59
NtRp5029
(dp5030
g62
(dp5031
sg71
g5017
sg64
(lp5032
g57
(g58
g59
NtRp5033
(dp5034
g62
(dp5035
g70
I3
ssg71
g5029
sg64
(lp5036
S''
asbasbasbag57
(g73
g59
NtRp5037
(dp5038
g62
(dp5039
sg71
g4993
sg64
(lp5040
g57
(g78
g59
NtRp5041
(dp5042
g62
(dp5043
g82
g83
ssg71
g5037
sg64
(lp5044
g348
asbag57
(g78
g59
NtRp5045
(dp5046
g62
(dp5047
g89
g90
ssg71
g5037
sg64
(lp5048
S':'
asbag57
(g78
g59
NtRp5049
(dp5050
g62
(dp5051
sg71
g5037
sg64
(lp5052
g57
(g58
g59
NtRp5053
(dp5054
g62
(dp5055
g70
I3
ssg71
g5049
sg64
(lp5056
S'2592000'
p5057
asbasbasbag57
(g73
g59
NtRp5058
(dp5059
g62
(dp5060
sg71
g4993
sg64
(lp5061
g57
(g78
g59
NtRp5062
(dp5063
g62
(dp5064
g82
g83
ssg71
g5058
sg64
(lp5065
g369
asbag57
(g78
g59
NtRp5066
(dp5067
g62
(dp5068
g89
g90
ssg71
g5058
sg64
(lp5069
S':'
asbag57
(g78
g59
NtRp5070
(dp5071
g62
(dp5072
sg71
g5058
sg64
(lp5073
g57
(g58
g59
NtRp5074
(dp5075
g62
(dp5076
g70
I3
ssg71
g5070
sg64
(lp5077
S''
asbasbasbag57
(g73
g59
NtRp5078
(dp5079
g62
(dp5080
sg71
g4993
sg64
(lp5081
g57
(g78
g59
NtRp5082
(dp5083
g62
(dp5084
g82
g83
ssg71
g5078
sg64
(lp5085
g390
asbag57
(g78
g59
NtRp5086
(dp5087
g62
(dp5088
g89
g90
ssg71
g5078
sg64
(lp5089
S':'
asbag57
(g78
g59
NtRp5090
(dp5091
g62
(dp5092
sg71
g5078
sg64
(lp5093
g57
(g58
g59
NtRp5094
(dp5095
g62
(dp5096
g70
I3
ssg71
g5090
sg64
(lp5097
S''
asbasbasbag57
(g73
g59
NtRp5098
(dp5099
g62
(dp5100
sg71
g4993
sg64
(lp5101
g57
(g78
g59
NtRp5102
(dp5103
g62
(dp5104
g82
g83
ssg71
g5098
sg64
(lp5105
g411
asbag57
(g78
g59
NtRp5106
(dp5107
g62
(dp5108
g89
g90
ssg71
g5098
sg64
(lp5109
S':'
asbag57
(g78
g59
NtRp5110
(dp5111
g62
(dp5112
sg71
g5098
sg64
(lp5113
g57
(g58
g59
NtRp5114
(dp5115
g62
(dp5116
g70
I3
ssg71
g5110
sg64
(lp5117
S'/'
asbasbasbag57
(g73
g59
NtRp5118
(dp5119
g62
(dp5120
sg71
g4993
sg64
(lp5121
g57
(g78
g59
NtRp5122
(dp5123
g62
(dp5124
g82
g83
ssg71
g5118
sg64
(lp5125
g432
asbag57
(g78
g59
NtRp5126
(dp5127
g62
(dp5128
g89
g90
ssg71
g5118
sg64
(lp5129
S':'
asbag57
(g78
g59
NtRp5130
(dp5131
g62
(dp5132
sg71
g5118
sg64
(lp5133
g57
(g58
g59
NtRp5134
(dp5135
g62
(dp5136
g70
I3
ssg71
g5130
sg64
(lp5137
S''
asbasbasbag57
(g73
g59
NtRp5138
(dp5139
g62
(dp5140
sg71
g4993
sg64
(lp5141
g57
(g78
g59
NtRp5142
(dp5143
g62
(dp5144
g82
g83
ssg71
g5138
sg64
(lp5145
g453
asbag57
(g78
g59
NtRp5146
(dp5147
g62
(dp5148
g89
g90
ssg71
g5138
sg64
(lp5149
S':'
asbag57
(g78
g59
NtRp5150
(dp5151
g62
(dp5152
sg71
g5138
sg64
(lp5153
g57
(g58
g59
NtRp5154
(dp5155
g62
(dp5156
g70
I3
ssg71
g5150
sg64
(lp5157
S''
asbasbasbasbasbasbasbasbasbasbasbag57
(g73
g59
NtRp5158
(dp5159
g62
(dp5160
sg71
g4923
sg64
(lp5161
g57
(g78
g59
NtRp5162
(dp5163
g62
(dp5164
g82
g83
ssg71
g5158
sg64
(lp5165
S'files'
p5166
asbag57
(g78
g59
NtRp5167
(dp5168
g62
(dp5169
g89
g90
ssg71
g5158
sg64
(lp5170
S':'
asbag57
(g78
g59
NtRp5171
(dp5172
g62
(dp5173
sg71
g5158
sg64
(lp5174
g57
(g58
g59
NtRp5175
(dp5176
g62
(dp5177
g70
I5
ssg71
g5171
sg64
(lp5178
g57
(g66
g59
NtRp5179
(dp5180
g62
(dp5181
g70
I4
ssg71
Nsg64
(lp5182
g57
(g73
g59
NtRp5183
(dp5184
g62
(dp5185
sg71
g5179
sg64
(lp5186
g57
(g78
g59
NtRp5187
(dp5188
g62
(dp5189
sg71
g5183
sg64
(lp5190
g57
(g58
g59
NtRp5191
(dp5192
g62
(dp5193
g70
I4
ssg71
g5187
sg64
(lp5194
S'/paideia/static/plugin_ajaxselect/plugin_ajaxselect.js'
p5195
asbasbasbasbasbasbasbag57
(g73
g59
NtRp5196
(dp5197
g62
(dp5198
sg71
g4923
sg64
(lp5199
g57
(g78
g59
NtRp5200
(dp5201
g62
(dp5202
g82
g83
ssg71
g5196
sg64
(lp5203
S'flash'
p5204
asbag57
(g78
g59
NtRp5205
(dp5206
g62
(dp5207
g89
g90
ssg71
g5196
sg64
(lp5208
S':'
asbag57
(g78
g59
NtRp5209
(dp5210
g62
(dp5211
sg71
g5196
sg64
(lp5212
g57
(g58
g59
NtRp5213
(dp5214
g62
(dp5215
g70
I5
ssg71
g5209
sg64
(lp5216
S''
asbasbasbag57
(g73
g59
NtRp5217
(dp5218
g62
(dp5219
sg71
g4923
sg64
(lp5220
g57
(g78
g59
NtRp5221
(dp5222
g62
(dp5223
g82
g83
ssg71
g5217
sg64
(lp5224
S'generic_patterns'
p5225
asbag57
(g78
g59
NtRp5226
(dp5227
g62
(dp5228
g89
g90
ssg71
g5217
sg64
(lp5229
S':'
asbag57
(g78
g59
NtRp5230
(dp5231
g62
(dp5232
sg71
g5217
sg64
(lp5233
g57
(g58
g59
NtRp5234
(dp5235
g62
(dp5236
g70
I5
ssg71
g5230
sg64
(lp5237
g57
(g66
g59
NtRp5238
(dp5239
g62
(dp5240
g70
I4
ssg71
Nsg64
(lp5241
g57
(g73
g59
NtRp5242
(dp5243
g62
(dp5244
sg71
g5238
sg64
(lp5245
g57
(g78
g59
NtRp5246
(dp5247
g62
(dp5248
sg71
g5242
sg64
(lp5249
g57
(g58
g59
NtRp5250
(dp5251
g62
(dp5252
g70
I4
ssg71
g5246
sg64
(lp5253
S'*'
asbasbasbasbasbasbasbag57
(g73
g59
NtRp5254
(dp5255
g62
(dp5256
sg71
g4923
sg64
(lp5257
g57
(g78
g59
NtRp5258
(dp5259
g62
(dp5260
g82
g83
ssg71
g5254
sg64
(lp5261
S'headers'
p5262
asbag57
(g78
g59
NtRp5263
(dp5264
g62
(dp5265
g89
g90
ssg71
g5254
sg64
(lp5266
S':'
asbag57
(g78
g59
NtRp5267
(dp5268
g62
(dp5269
sg71
g5254
sg64
(lp5270
g57
(g58
g59
NtRp5271
(dp5272
g62
(dp5273
g70
I5
ssg71
g5267
sg64
(lp5274
g57
(g66
g59
NtRp5275
(dp5276
g62
(dp5277
g70
I4
ssg71
Nsg64
(lp5278
g57
(g73
g59
NtRp5279
(dp5280
g62
(dp5281
sg71
g5275
sg64
(lp5282
g57
(g78
g59
NtRp5283
(dp5284
g62
(dp5285
g82
g83
ssg71
g5279
sg64
(lp5286
S'Cache-Control'
p5287
asbag57
(g78
g59
NtRp5288
(dp5289
g62
(dp5290
g89
g90
ssg71
g5279
sg64
(lp5291
S':'
asbag57
(g78
g59
NtRp5292
(dp5293
g62
(dp5294
sg71
g5279
sg64
(lp5295
g57
(g58
g59
NtRp5296
(dp5297
g62
(dp5298
g70
I4
ssg71
g5292
sg64
(lp5299
S'no-store, no-cache, must-revalidate, post-check=0, pre-check=0'
p5300
asbasbasbag57
(g73
g59
NtRp5301
(dp5302
g62
(dp5303
sg71
g5275
sg64
(lp5304
g57
(g78
g59
NtRp5305
(dp5306
g62
(dp5307
g82
g83
ssg71
g5301
sg64
(lp5308
S'Content-Type'
p5309
asbag57
(g78
g59
NtRp5310
(dp5311
g62
(dp5312
g89
g90
ssg71
g5301
sg64
(lp5313
S':'
asbag57
(g78
g59
NtRp5314
(dp5315
g62
(dp5316
sg71
g5301
sg64
(lp5317
g57
(g58
g59
NtRp5318
(dp5319
g62
(dp5320
g70
I4
ssg71
g5314
sg64
(lp5321
S'text/html; charset=utf-8'
p5322
asbasbasbag57
(g73
g59
NtRp5323
(dp5324
g62
(dp5325
sg71
g5275
sg64
(lp5326
g57
(g78
g59
NtRp5327
(dp5328
g62
(dp5329
g82
g83
ssg71
g5323
sg64
(lp5330
S'Expires'
p5331
asbag57
(g78
g59
NtRp5332
(dp5333
g62
(dp5334
g89
g90
ssg71
g5323
sg64
(lp5335
S':'
asbag57
(g78
g59
NtRp5336
(dp5337
g62
(dp5338
sg71
g5323
sg64
(lp5339
g57
(g58
g59
NtRp5340
(dp5341
g62
(dp5342
g70
I4
ssg71
g5336
sg64
(lp5343
S'Tue, 20 Mar 2012 18:48:20 GMT'
p5344
asbasbasbag57
(g73
g59
NtRp5345
(dp5346
g62
(dp5347
sg71
g5275
sg64
(lp5348
g57
(g78
g59
NtRp5349
(dp5350
g62
(dp5351
g82
g83
ssg71
g5345
sg64
(lp5352
S'Pragma'
p5353
asbag57
(g78
g59
NtRp5354
(dp5355
g62
(dp5356
g89
g90
ssg71
g5345
sg64
(lp5357
S':'
asbag57
(g78
g59
NtRp5358
(dp5359
g62
(dp5360
sg71
g5345
sg64
(lp5361
g57
(g58
g59
NtRp5362
(dp5363
g62
(dp5364
g70
I4
ssg71
g5358
sg64
(lp5365
S'no-cache'
p5366
asbasbasbag57
(g73
g59
NtRp5367
(dp5368
g62
(dp5369
sg71
g5275
sg64
(lp5370
g57
(g78
g59
NtRp5371
(dp5372
g62
(dp5373
g82
g83
ssg71
g5367
sg64
(lp5374
S'X-Powered-By'
p5375
asbag57
(g78
g59
NtRp5376
(dp5377
g62
(dp5378
g89
g90
ssg71
g5367
sg64
(lp5379
S':'
asbag57
(g78
g59
NtRp5380
(dp5381
g62
(dp5382
sg71
g5367
sg64
(lp5383
g57
(g58
g59
NtRp5384
(dp5385
g62
(dp5386
g70
I4
ssg71
g5380
sg64
(lp5387
S'web2py'
p5388
asbasbasbasbasbasbasbag57
(g73
g59
NtRp5389
(dp5390
g62
(dp5391
sg71
g4923
sg64
(lp5392
g57
(g78
g59
NtRp5393
(dp5394
g62
(dp5395
g82
g83
ssg71
g5389
sg64
(lp5396
S'menu'
p5397
asbag57
(g78
g59
NtRp5398
(dp5399
g62
(dp5400
g89
g90
ssg71
g5389
sg64
(lp5401
S':'
asbag57
(g78
g59
NtRp5402
(dp5403
g62
(dp5404
sg71
g5389
sg64
(lp5405
g57
(g58
g59
NtRp5406
(dp5407
g62
(dp5408
g70
I5
ssg71
g5402
sg64
(lp5409
g57
(g66
g59
NtRp5410
(dp5411
g62
(dp5412
g70
I4
ssg71
Nsg64
(lp5413
g57
(g73
g59
NtRp5414
(dp5415
g62
(dp5416
sg71
g5410
sg64
(lp5417
g57
(g78
g59
NtRp5418
(dp5419
g62
(dp5420
sg71
g5414
sg64
(lp5421
g57
(g58
g59
NtRp5422
(dp5423
g62
(dp5424
g70
I4
ssg71
g5418
sg64
(lp5425
g57
(g66
g59
NtRp5426
(dp5427
g62
(dp5428
g70
I3
ssg71
Nsg64
(lp5429
g57
(g73
g59
NtRp5430
(dp5431
g62
(dp5432
sg71
g5426
sg64
(lp5433
g57
(g78
g59
NtRp5434
(dp5435
g62
(dp5436
sg71
g5430
sg64
(lp5437
g57
(g58
g59
NtRp5438
(dp5439
g62
(dp5440
g70
I3
ssg71
g5434
sg64
(lp5441
cgluon.languages
lazyT_unpickle
p5442
(S't\x04\x00\x00\x00Home'
tRp5443
asbasbasbag57
(g73
g59
NtRp5444
(dp5445
g62
(dp5446
sg71
g5426
sg64
(lp5447
g57
(g78
g59
NtRp5448
(dp5449
g62
(dp5450
sg71
g5444
sg64
(lp5451
g57
(g58
g59
NtRp5452
(dp5453
g62
(dp5454
g70
I3
ssg71
g5448
sg64
(lp5455
g995
asbasbasbag57
(g73
g59
NtRp5456
(dp5457
g62
(dp5458
sg71
g5426
sg64
(lp5459
g57
(g78
g59
NtRp5460
(dp5461
g62
(dp5462
sg71
g5456
sg64
(lp5463
g57
(g58
g59
NtRp5464
(dp5465
g62
(dp5466
g70
I3
ssg71
g5460
sg64
(lp5467
S'/paideia/default/index.load'
p5468
asbasbasbag57
(g73
g59
NtRp5469
(dp5470
g62
(dp5471
sg71
g5426
sg64
(lp5472
g57
(g78
g59
NtRp5473
(dp5474
g62
(dp5475
sg71
g5469
sg64
(lp5476
g57
(g58
g59
NtRp5477
(dp5478
g62
(dp5479
g70
I3
ssg71
g5473
sg64
(lp5480
g57
(g66
g59
NtRp5481
(dp5482
g62
(dp5483
g70
I2
ssg71
Nsg64
(lp5484
sbasbasbasbasbasbasbasbag57
(g73
g59
NtRp5485
(dp5486
g62
(dp5487
sg71
g5410
sg64
(lp5488
g57
(g78
g59
NtRp5489
(dp5490
g62
(dp5491
sg71
g5485
sg64
(lp5492
g57
(g58
g59
NtRp5493
(dp5494
g62
(dp5495
g70
I4
ssg71
g5489
sg64
(lp5496
g57
(g66
g59
NtRp5497
(dp5498
g62
(dp5499
g70
I3
ssg71
Nsg64
(lp5500
g57
(g73
g59
NtRp5501
(dp5502
g62
(dp5503
sg71
g5497
sg64
(lp5504
g57
(g78
g59
NtRp5505
(dp5506
g62
(dp5507
sg71
g5501
sg64
(lp5508
g57
(g58
g59
NtRp5509
(dp5510
g62
(dp5511
g70
I3
ssg71
g5505
sg64
(lp5512
g5442
(S't\x05\x00\x00\x00Admin'
tRp5513
asbasbasbag57
(g73
g59
NtRp5514
(dp5515
g62
(dp5516
sg71
g5497
sg64
(lp5517
g57
(g78
g59
NtRp5518
(dp5519
g62
(dp5520
sg71
g5514
sg64
(lp5521
g57
(g58
g59
NtRp5522
(dp5523
g62
(dp5524
g70
I3
ssg71
g5518
sg64
(lp5525
g995
asbasbasbag57
(g73
g59
NtRp5526
(dp5527
g62
(dp5528
sg71
g5497
sg64
(lp5529
g57
(g78
g59
NtRp5530
(dp5531
g62
(dp5532
sg71
g5526
sg64
(lp5533
g57
(g58
g59
NtRp5534
(dp5535
g62
(dp5536
g70
I3
ssg71
g5530
sg64
(lp5537
S'None'
p5538
asbasbasbag57
(g73
g59
NtRp5539
(dp5540
g62
(dp5541
sg71
g5497
sg64
(lp5542
g57
(g78
g59
NtRp5543
(dp5544
g62
(dp5545
sg71
g5539
sg64
(lp5546
g57
(g58
g59
NtRp5547
(dp5548
g62
(dp5549
g70
I3
ssg71
g5543
sg64
(lp5550
g57
(g66
g59
NtRp5551
(dp5552
g62
(dp5553
g70
I2
ssg71
Nsg64
(lp5554
g57
(g73
g59
NtRp5555
(dp5556
g62
(dp5557
sg71
g5551
sg64
(lp5558
g57
(g78
g59
NtRp5559
(dp5560
g62
(dp5561
sg71
g5555
sg64
(lp5562
g57
(g58
g59
NtRp5563
(dp5564
g62
(dp5565
g70
I2
ssg71
g5559
sg64
(lp5566
g57
(g66
g59
NtRp5567
(dp5568
g62
(dp5569
g70
I1
ssg71
Nsg64
(lp5570
g57
(g73
g59
NtRp5571
(dp5572
g62
(dp5573
sg71
g5567
sg64
(lp5574
g57
(g78
g59
NtRp5575
(dp5576
g62
(dp5577
sg71
g5571
sg64
(lp5578
g57
(g58
g59
NtRp5579
(dp5580
g62
(dp5581
g70
I1
ssg71
g5575
sg64
(lp5582
g5442
(S's\x07\x00\x00\x00Web IDE'
tRp5583
asbasbasbag57
(g73
g59
NtRp5584
(dp5585
g62
(dp5586
sg71
g5567
sg64
(lp5587
g57
(g78
g59
NtRp5588
(dp5589
g62
(dp5590
sg71
g5584
sg64
(lp5591
g57
(g58
g59
NtRp5592
(dp5593
g62
(dp5594
g70
I1
ssg71
g5588
sg64
(lp5595
I00
asbasbasbag57
(g73
g59
NtRp5596
(dp5597
g62
(dp5598
sg71
g5567
sg64
(lp5599
g57
(g78
g59
NtRp5600
(dp5601
g62
(dp5602
sg71
g5596
sg64
(lp5603
g57
(g58
g59
NtRp5604
(dp5605
g62
(dp5606
g70
I1
ssg71
g5600
sg64
(lp5607
S'/admin/default/index.load'
p5608
asbasbasbasbasbasbasbag57
(g73
g59
NtRp5609
(dp5610
g62
(dp5611
sg71
g5551
sg64
(lp5612
g57
(g78
g59
NtRp5613
(dp5614
g62
(dp5615
sg71
g5609
sg64
(lp5616
g57
(g58
g59
NtRp5617
(dp5618
g62
(dp5619
g70
I2
ssg71
g5613
sg64
(lp5620
g57
(g66
g59
NtRp5621
(dp5622
g62
(dp5623
g70
I1
ssg71
Nsg64
(lp5624
g57
(g73
g59
NtRp5625
(dp5626
g62
(dp5627
sg71
g5621
sg64
(lp5628
g57
(g78
g59
NtRp5629
(dp5630
g62
(dp5631
sg71
g5625
sg64
(lp5632
g57
(g58
g59
NtRp5633
(dp5634
g62
(dp5635
g70
I1
ssg71
g5629
sg64
(lp5636
g5442
(S't\x08\x00\x00\x00Database'
tRp5637
asbasbasbag57
(g73
g59
NtRp5638
(dp5639
g62
(dp5640
sg71
g5621
sg64
(lp5641
g57
(g78
g59
NtRp5642
(dp5643
g62
(dp5644
sg71
g5638
sg64
(lp5645
g57
(g58
g59
NtRp5646
(dp5647
g62
(dp5648
g70
I1
ssg71
g5642
sg64
(lp5649
I00
asbasbasbag57
(g73
g59
NtRp5650
(dp5651
g62
(dp5652
sg71
g5621
sg64
(lp5653
g57
(g78
g59
NtRp5654
(dp5655
g62
(dp5656
sg71
g5650
sg64
(lp5657
g57
(g58
g59
NtRp5658
(dp5659
g62
(dp5660
g70
I1
ssg71
g5654
sg64
(lp5661
S'/paideia/appadmin/index.load'
p5662
asbasbasbasbasbasbasbag57
(g73
g59
NtRp5663
(dp5664
g62
(dp5665
sg71
g5551
sg64
(lp5666
g57
(g78
g59
NtRp5667
(dp5668
g62
(dp5669
sg71
g5663
sg64
(lp5670
g57
(g58
g59
NtRp5671
(dp5672
g62
(dp5673
g70
I2
ssg71
g5667
sg64
(lp5674
g57
(g66
g59
NtRp5675
(dp5676
g62
(dp5677
g70
I1
ssg71
Nsg64
(lp5678
g57
(g73
g59
NtRp5679
(dp5680
g62
(dp5681
sg71
g5675
sg64
(lp5682
g57
(g78
g59
NtRp5683
(dp5684
g62
(dp5685
sg71
g5679
sg64
(lp5686
g57
(g58
g59
NtRp5687
(dp5688
g62
(dp5689
g70
I1
ssg71
g5683
sg64
(lp5690
g5442
(S't\x05\x00\x00\x00Users'
tRp5691
asbasbasbag57
(g73
g59
NtRp5692
(dp5693
g62
(dp5694
sg71
g5675
sg64
(lp5695
g57
(g78
g59
NtRp5696
(dp5697
g62
(dp5698
sg71
g5692
sg64
(lp5699
g57
(g58
g59
NtRp5700
(dp5701
g62
(dp5702
g70
I1
ssg71
g5696
sg64
(lp5703
I00
asbasbasbag57
(g73
g59
NtRp5704
(dp5705
g62
(dp5706
sg71
g5675
sg64
(lp5707
g57
(g78
g59
NtRp5708
(dp5709
g62
(dp5710
sg71
g5704
sg64
(lp5711
g57
(g58
g59
NtRp5712
(dp5713
g62
(dp5714
g70
I1
ssg71
g5708
sg64
(lp5715
S'/paideia/listing/user.load'
p5716
asbasbasbasbasbasbasbag57
(g73
g59
NtRp5717
(dp5718
g62
(dp5719
sg71
g5551
sg64
(lp5720
g57
(g78
g59
NtRp5721
(dp5722
g62
(dp5723
sg71
g5717
sg64
(lp5724
g57
(g58
g59
NtRp5725
(dp5726
g62
(dp5727
g70
I2
ssg71
g5721
sg64
(lp5728
g57
(g66
g59
NtRp5729
(dp5730
g62
(dp5731
g70
I1
ssg71
Nsg64
(lp5732
g57
(g73
g59
NtRp5733
(dp5734
g62
(dp5735
sg71
g5729
sg64
(lp5736
g57
(g78
g59
NtRp5737
(dp5738
g62
(dp5739
sg71
g5733
sg64
(lp5740
g57
(g58
g59
NtRp5741
(dp5742
g62
(dp5743
g70
I1
ssg71
g5737
sg64
(lp5744
g5442
(S't\x05\x00\x00\x00Paths'
tRp5745
asbasbasbag57
(g73
g59
NtRp5746
(dp5747
g62
(dp5748
sg71
g5729
sg64
(lp5749
g57
(g78
g59
NtRp5750
(dp5751
g62
(dp5752
sg71
g5746
sg64
(lp5753
g57
(g58
g59
NtRp5754
(dp5755
g62
(dp5756
g70
I1
ssg71
g5750
sg64
(lp5757
I00
asbasbasbag57
(g73
g59
NtRp5758
(dp5759
g62
(dp5760
sg71
g5729
sg64
(lp5761
g57
(g78
g59
NtRp5762
(dp5763
g62
(dp5764
sg71
g5758
sg64
(lp5765
g57
(g58
g59
NtRp5766
(dp5767
g62
(dp5768
g70
I1
ssg71
g5762
sg64
(lp5769
S'/paideia/plugin_listandedit/listing.html/paths'
p5770
asbasbasbasbasbasbasbag57
(g73
g59
NtRp5771
(dp5772
g62
(dp5773
sg71
g5551
sg64
(lp5774
g57
(g78
g59
NtRp5775
(dp5776
g62
(dp5777
sg71
g5771
sg64
(lp5778
g57
(g58
g59
NtRp5779
(dp5780
g62
(dp5781
g70
I2
ssg71
g5775
sg64
(lp5782
g57
(g66
g59
NtRp5783
(dp5784
g62
(dp5785
g70
I1
ssg71
Nsg64
(lp5786
g57
(g73
g59
NtRp5787
(dp5788
g62
(dp5789
sg71
g5783
sg64
(lp5790
g57
(g78
g59
NtRp5791
(dp5792
g62
(dp5793
sg71
g5787
sg64
(lp5794
g57
(g58
g59
NtRp5795
(dp5796
g62
(dp5797
g70
I1
ssg71
g5791
sg64
(lp5798
g5442
(S't\x05\x00\x00\x00Steps'
tRp5799
asbasbasbag57
(g73
g59
NtRp5800
(dp5801
g62
(dp5802
sg71
g5783
sg64
(lp5803
g57
(g78
g59
NtRp5804
(dp5805
g62
(dp5806
sg71
g5800
sg64
(lp5807
g57
(g58
g59
NtRp5808
(dp5809
g62
(dp5810
g70
I1
ssg71
g5804
sg64
(lp5811
I00
asbasbasbag57
(g73
g59
NtRp5812
(dp5813
g62
(dp5814
sg71
g5783
sg64
(lp5815
g57
(g78
g59
NtRp5816
(dp5817
g62
(dp5818
sg71
g5812
sg64
(lp5819
g57
(g58
g59
NtRp5820
(dp5821
g62
(dp5822
g70
I1
ssg71
g5816
sg64
(lp5823
S'/paideia/plugin_listandedit/listing.html/steps'
p5824
asbasbasbasbasbasbasbag57
(g73
g59
NtRp5825
(dp5826
g62
(dp5827
sg71
g5551
sg64
(lp5828
g57
(g78
g59
NtRp5829
(dp5830
g62
(dp5831
sg71
g5825
sg64
(lp5832
g57
(g58
g59
NtRp5833
(dp5834
g62
(dp5835
g70
I2
ssg71
g5829
sg64
(lp5836
g57
(g66
g59
NtRp5837
(dp5838
g62
(dp5839
g70
I1
ssg71
Nsg64
(lp5840
g57
(g73
g59
NtRp5841
(dp5842
g62
(dp5843
sg71
g5837
sg64
(lp5844
g57
(g78
g59
NtRp5845
(dp5846
g62
(dp5847
sg71
g5841
sg64
(lp5848
g57
(g58
g59
NtRp5849
(dp5850
g62
(dp5851
g70
I1
ssg71
g5845
sg64
(lp5852
g5442
(S't\t\x00\x00\x00Questions'
tRp5853
asbasbasbag57
(g73
g59
NtRp5854
(dp5855
g62
(dp5856
sg71
g5837
sg64
(lp5857
g57
(g78
g59
NtRp5858
(dp5859
g62
(dp5860
sg71
g5854
sg64
(lp5861
g57
(g58
g59
NtRp5862
(dp5863
g62
(dp5864
g70
I1
ssg71
g5858
sg64
(lp5865
I00
asbasbasbag57
(g73
g59
NtRp5866
(dp5867
g62
(dp5868
sg71
g5837
sg64
(lp5869
g57
(g78
g59
NtRp5870
(dp5871
g62
(dp5872
sg71
g5866
sg64
(lp5873
g57
(g58
g59
NtRp5874
(dp5875
g62
(dp5876
g70
I1
ssg71
g5870
sg64
(lp5877
S'/paideia/plugin_listandedit/listing.html/questions'
p5878
asbasbasbasbasbasbasbag57
(g73
g59
NtRp5879
(dp5880
g62
(dp5881
sg71
g5551
sg64
(lp5882
g57
(g78
g59
NtRp5883
(dp5884
g62
(dp5885
sg71
g5879
sg64
(lp5886
g57
(g58
g59
NtRp5887
(dp5888
g62
(dp5889
g70
I2
ssg71
g5883
sg64
(lp5890
g57
(g66
g59
NtRp5891
(dp5892
g62
(dp5893
g70
I1
ssg71
Nsg64
(lp5894
g57
(g73
g59
NtRp5895
(dp5896
g62
(dp5897
sg71
g5891
sg64
(lp5898
g57
(g78
g59
NtRp5899
(dp5900
g62
(dp5901
sg71
g5895
sg64
(lp5902
g57
(g58
g59
NtRp5903
(dp5904
g62
(dp5905
g70
I1
ssg71
g5899
sg64
(lp5906
g5442
(S't\x07\x00\x00\x00Quizzes'
tRp5907
asbasbasbag57
(g73
g59
NtRp5908
(dp5909
g62
(dp5910
sg71
g5891
sg64
(lp5911
g57
(g78
g59
NtRp5912
(dp5913
g62
(dp5914
sg71
g5908
sg64
(lp5915
g57
(g58
g59
NtRp5916
(dp5917
g62
(dp5918
g70
I1
ssg71
g5912
sg64
(lp5919
I00
asbasbasbag57
(g73
g59
NtRp5920
(dp5921
g62
(dp5922
sg71
g5891
sg64
(lp5923
g57
(g78
g59
NtRp5924
(dp5925
g62
(dp5926
sg71
g5920
sg64
(lp5927
g57
(g58
g59
NtRp5928
(dp5929
g62
(dp5930
g70
I1
ssg71
g5924
sg64
(lp5931
S'/paideia/plugin_listandedit/listing.html/quizzes'
p5932
asbasbasbasbasbasbasbag57
(g73
g59
NtRp5933
(dp5934
g62
(dp5935
sg71
g5551
sg64
(lp5936
g57
(g78
g59
NtRp5937
(dp5938
g62
(dp5939
sg71
g5933
sg64
(lp5940
g57
(g58
g59
NtRp5941
(dp5942
g62
(dp5943
g70
I2
ssg71
g5937
sg64
(lp5944
g57
(g66
g59
NtRp5945
(dp5946
g62
(dp5947
g70
I1
ssg71
Nsg64
(lp5948
g57
(g73
g59
NtRp5949
(dp5950
g62
(dp5951
sg71
g5945
sg64
(lp5952
g57
(g78
g59
NtRp5953
(dp5954
g62
(dp5955
sg71
g5949
sg64
(lp5956
g57
(g58
g59
NtRp5957
(dp5958
g62
(dp5959
g70
I1
ssg71
g5953
sg64
(lp5960
g5442
(S't\x04\x00\x00\x00Tags'
tRp5961
asbasbasbag57
(g73
g59
NtRp5962
(dp5963
g62
(dp5964
sg71
g5945
sg64
(lp5965
g57
(g78
g59
NtRp5966
(dp5967
g62
(dp5968
sg71
g5962
sg64
(lp5969
g57
(g58
g59
NtRp5970
(dp5971
g62
(dp5972
g70
I1
ssg71
g5966
sg64
(lp5973
I00
asbasbasbag57
(g73
g59
NtRp5974
(dp5975
g62
(dp5976
sg71
g5945
sg64
(lp5977
g57
(g78
g59
NtRp5978
(dp5979
g62
(dp5980
sg71
g5974
sg64
(lp5981
g57
(g58
g59
NtRp5982
(dp5983
g62
(dp5984
g70
I1
ssg71
g5978
sg64
(lp5985
S'/paideia/plugin_listandedit/listing.html/tags'
p5986
asbasbasbasbasbasbasbag57
(g73
g59
NtRp5987
(dp5988
g62
(dp5989
sg71
g5551
sg64
(lp5990
g57
(g78
g59
NtRp5991
(dp5992
g62
(dp5993
sg71
g5987
sg64
(lp5994
g57
(g58
g59
NtRp5995
(dp5996
g62
(dp5997
g70
I2
ssg71
g5991
sg64
(lp5998
g57
(g66
g59
NtRp5999
(dp6000
g62
(dp6001
g70
I1
ssg71
Nsg64
(lp6002
g57
(g73
g59
NtRp6003
(dp6004
g62
(dp6005
sg71
g5999
sg64
(lp6006
g57
(g78
g59
NtRp6007
(dp6008
g62
(dp6009
sg71
g6003
sg64
(lp6010
g57
(g58
g59
NtRp6011
(dp6012
g62
(dp6013
g70
I1
ssg71
g6007
sg64
(lp6014
g5442
(S't\x04\x00\x00\x00NPCs'
tRp6015
asbasbasbag57
(g73
g59
NtRp6016
(dp6017
g62
(dp6018
sg71
g5999
sg64
(lp6019
g57
(g78
g59
NtRp6020
(dp6021
g62
(dp6022
sg71
g6016
sg64
(lp6023
g57
(g58
g59
NtRp6024
(dp6025
g62
(dp6026
g70
I1
ssg71
g6020
sg64
(lp6027
I00
asbasbasbag57
(g73
g59
NtRp6028
(dp6029
g62
(dp6030
sg71
g5999
sg64
(lp6031
g57
(g78
g59
NtRp6032
(dp6033
g62
(dp6034
sg71
g6028
sg64
(lp6035
g57
(g58
g59
NtRp6036
(dp6037
g62
(dp6038
g70
I1
ssg71
g6032
sg64
(lp6039
S'/paideia/plugin_listandedit/listing.html/npcs'
p6040
asbasbasbasbasbasbasbag57
(g73
g59
NtRp6041
(dp6042
g62
(dp6043
sg71
g5551
sg64
(lp6044
g57
(g78
g59
NtRp6045
(dp6046
g62
(dp6047
sg71
g6041
sg64
(lp6048
g57
(g58
g59
NtRp6049
(dp6050
g62
(dp6051
g70
I2
ssg71
g6045
sg64
(lp6052
g57
(g66
g59
NtRp6053
(dp6054
g62
(dp6055
g70
I1
ssg71
Nsg64
(lp6056
g57
(g73
g59
NtRp6057
(dp6058
g62
(dp6059
sg71
g6053
sg64
(lp6060
g57
(g78
g59
NtRp6061
(dp6062
g62
(dp6063
sg71
g6057
sg64
(lp6064
g57
(g58
g59
NtRp6065
(dp6066
g62
(dp6067
g70
I1
ssg71
g6061
sg64
(lp6068
g5442
(S't\t\x00\x00\x00locations'
tRp6069
asbasbasbag57
(g73
g59
NtRp6070
(dp6071
g62
(dp6072
sg71
g6053
sg64
(lp6073
g57
(g78
g59
NtRp6074
(dp6075
g62
(dp6076
sg71
g6070
sg64
(lp6077
g57
(g58
g59
NtRp6078
(dp6079
g62
(dp6080
g70
I1
ssg71
g6074
sg64
(lp6081
I00
asbasbasbag57
(g73
g59
NtRp6082
(dp6083
g62
(dp6084
sg71
g6053
sg64
(lp6085
g57
(g78
g59
NtRp6086
(dp6087
g62
(dp6088
sg71
g6082
sg64
(lp6089
g57
(g58
g59
NtRp6090
(dp6091
g62
(dp6092
g70
I1
ssg71
g6086
sg64
(lp6093
S'/paideia/plugin_listandedit/listing.html/locations'
p6094
asbasbasbasbasbasbasbasbasbasbasbasbasbasbasbasbasbasbasbag57
(g73
g59
NtRp6095
(dp6096
g62
(dp6097
sg71
g4923
sg64
(lp6098
g57
(g78
g59
NtRp6099
(dp6100
g62
(dp6101
g82
g83
ssg71
g6095
sg64
(lp6102
S'meta'
p6103
asbag57
(g78
g59
NtRp6104
(dp6105
g62
(dp6106
g89
g90
ssg71
g6095
sg64
(lp6107
S':'
asbag57
(g78
g59
NtRp6108
(dp6109
g62
(dp6110
sg71
g6095
sg64
(lp6111
g57
(g58
g59
NtRp6112
(dp6113
g62
(dp6114
g70
I5
ssg71
g6108
sg64
(lp6115
g57
(g66
g59
NtRp6116
(dp6117
g62
(dp6118
g70
I4
ssg71
Nsg64
(lp6119
g57
(g73
g59
NtRp6120
(dp6121
g62
(dp6122
sg71
g6116
sg64
(lp6123
g57
(g78
g59
NtRp6124
(dp6125
g62
(dp6126
g82
g83
ssg71
g6120
sg64
(lp6127
S'author'
p6128
asbag57
(g78
g59
NtRp6129
(dp6130
g62
(dp6131
g89
g90
ssg71
g6120
sg64
(lp6132
S':'
asbag57
(g78
g59
NtRp6133
(dp6134
g62
(dp6135
sg71
g6120
sg64
(lp6136
g57
(g58
g59
NtRp6137
(dp6138
g62
(dp6139
g70
I4
ssg71
g6133
sg64
(lp6140
S'Ian W. Scott'
p6141
asbasbasbag57
(g73
g59
NtRp6142
(dp6143
g62
(dp6144
sg71
g6116
sg64
(lp6145
g57
(g78
g59
NtRp6146
(dp6147
g62
(dp6148
g82
g83
ssg71
g6142
sg64
(lp6149
S'copyright'
p6150
asbag57
(g78
g59
NtRp6151
(dp6152
g62
(dp6153
g89
g90
ssg71
g6142
sg64
(lp6154
S':'
asbag57
(g78
g59
NtRp6155
(dp6156
g62
(dp6157
sg71
g6142
sg64
(lp6158
g57
(g58
g59
NtRp6159
(dp6160
g62
(dp6161
g70
I4
ssg71
g6155
sg64
(lp6162
S'Copyright 2011'
p6163
asbasbasbag57
(g73
g59
NtRp6164
(dp6165
g62
(dp6166
sg71
g6116
sg64
(lp6167
g57
(g78
g59
NtRp6168
(dp6169
g62
(dp6170
g82
g83
ssg71
g6164
sg64
(lp6171
S'description'
p6172
asbag57
(g78
g59
NtRp6173
(dp6174
g62
(dp6175
g89
g90
ssg71
g6164
sg64
(lp6176
S':'
asbag57
(g78
g59
NtRp6177
(dp6178
g62
(dp6179
sg71
g6164
sg64
(lp6180
g57
(g58
g59
NtRp6181
(dp6182
g62
(dp6183
g70
I4
ssg71
g6177
sg64
(lp6184
S'An online space for learning New Testament Greek'
p6185
asbasbasbag57
(g73
g59
NtRp6186
(dp6187
g62
(dp6188
sg71
g6116
sg64
(lp6189
g57
(g78
g59
NtRp6190
(dp6191
g62
(dp6192
g82
g83
ssg71
g6186
sg64
(lp6193
S'generator'
p6194
asbag57
(g78
g59
NtRp6195
(dp6196
g62
(dp6197
g89
g90
ssg71
g6186
sg64
(lp6198
S':'
asbag57
(g78
g59
NtRp6199
(dp6200
g62
(dp6201
sg71
g6186
sg64
(lp6202
g57
(g58
g59
NtRp6203
(dp6204
g62
(dp6205
g70
I4
ssg71
g6199
sg64
(lp6206
S'Web2py Enterprise Framework'
p6207
asbasbasbag57
(g73
g59
NtRp6208
(dp6209
g62
(dp6210
sg71
g6116
sg64
(lp6211
g57
(g78
g59
NtRp6212
(dp6213
g62
(dp6214
g82
g83
ssg71
g6208
sg64
(lp6215
S'keywords'
p6216
asbag57
(g78
g59
NtRp6217
(dp6218
g62
(dp6219
g89
g90
ssg71
g6208
sg64
(lp6220
S':'
asbag57
(g78
g59
NtRp6221
(dp6222
g62
(dp6223
sg71
g6208
sg64
(lp6224
g57
(g58
g59
NtRp6225
(dp6226
g62
(dp6227
g70
I4
ssg71
g6221
sg64
(lp6228
S'Greek, koine, New Testament, language, education, learning'
p6229
asbasbasbasbasbasbasbag57
(g73
g59
NtRp6230
(dp6231
g62
(dp6232
sg71
g4923
sg64
(lp6233
g57
(g78
g59
NtRp6234
(dp6235
g62
(dp6236
g82
g83
ssg71
g6230
sg64
(lp6237
S'mobiletitle'
p6238
asbag57
(g78
g59
NtRp6239
(dp6240
g62
(dp6241
g89
g90
ssg71
g6230
sg64
(lp6242
S':'
asbag57
(g78
g59
NtRp6243
(dp6244
g62
(dp6245
sg71
g6230
sg64
(lp6246
g57
(g58
g59
NtRp6247
(dp6248
g62
(dp6249
g70
I5
ssg71
g6243
sg64
(lp6250
g122
asbasbasbag57
(g73
g59
NtRp6251
(dp6252
g62
(dp6253
sg71
g4923
sg64
(lp6254
g57
(g78
g59
NtRp6255
(dp6256
g62
(dp6257
g82
g83
ssg71
g6251
sg64
(lp6258
S'postprocessing'
p6259
asbag57
(g78
g59
NtRp6260
(dp6261
g62
(dp6262
g89
g90
ssg71
g6251
sg64
(lp6263
S':'
asbag57
(g78
g59
NtRp6264
(dp6265
g62
(dp6266
sg71
g6251
sg64
(lp6267
g57
(g58
g59
NtRp6268
(dp6269
g62
(dp6270
g70
I5
ssg71
g6264
sg64
(lp6271
g57
(g66
g59
NtRp6272
(dp6273
g62
(dp6274
g70
I4
ssg71
Nsg64
(lp6275
sbasbasbasbag57
(g73
g59
NtRp6276
(dp6277
g62
(dp6278
sg71
g4923
sg64
(lp6279
g57
(g78
g59
NtRp6280
(dp6281
g62
(dp6282
g82
g83
ssg71
g6276
sg64
(lp6283
S'session_file'
p6284
asbag57
(g78
g59
NtRp6285
(dp6286
g62
(dp6287
g89
g90
ssg71
g6276
sg64
(lp6288
S':'
asbag57
(g78
g59
NtRp6289
(dp6290
g62
(dp6291
sg71
g6276
sg64
(lp6292
g57
(g58
g59
NtRp6293
(dp6294
g62
(dp6295
g70
I5
ssg71
g6289
sg64
(lp6296
S"<open file '/home/iscott/web/web2py/applications/paideia/sessions/127.0.0.1-2edda130-d654-4b0f-a819-06652e443aa6', mode 'rb+' at 0x99b61d8>"
p6297
asbasbasbag57
(g73
g59
NtRp6298
(dp6299
g62
(dp6300
sg71
g4923
sg64
(lp6301
g57
(g78
g59
NtRp6302
(dp6303
g62
(dp6304
g82
g83
ssg71
g6298
sg64
(lp6305
S'session_filename'
p6306
asbag57
(g78
g59
NtRp6307
(dp6308
g62
(dp6309
g89
g90
ssg71
g6298
sg64
(lp6310
S':'
asbag57
(g78
g59
NtRp6311
(dp6312
g62
(dp6313
sg71
g6298
sg64
(lp6314
g57
(g58
g59
NtRp6315
(dp6316
g62
(dp6317
g70
I5
ssg71
g6311
sg64
(lp6318
S'/home/iscott/web/web2py/applications/paideia/sessions/127.0.0.1-2edda130-d654-4b0f-a819-06652e443aa6'
p6319
asbasbasbag57
(g73
g59
NtRp6320
(dp6321
g62
(dp6322
sg71
g4923
sg64
(lp6323
g57
(g78
g59
NtRp6324
(dp6325
g62
(dp6326
g82
g83
ssg71
g6320
sg64
(lp6327
S'session_id'
p6328
asbag57
(g78
g59
NtRp6329
(dp6330
g62
(dp6331
g89
g90
ssg71
g6320
sg64
(lp6332
S':'
asbag57
(g78
g59
NtRp6333
(dp6334
g62
(dp6335
sg71
g6320
sg64
(lp6336
g57
(g58
g59
NtRp6337
(dp6338
g62
(dp6339
g70
I5
ssg71
g6333
sg64
(lp6340
S'127.0.0.1-2edda130-d654-4b0f-a819-06652e443aa6'
p6341
asbasbasbag57
(g73
g59
NtRp6342
(dp6343
g62
(dp6344
sg71
g4923
sg64
(lp6345
g57
(g78
g59
NtRp6346
(dp6347
g62
(dp6348
g82
g83
ssg71
g6342
sg64
(lp6349
S'session_id_name'
p6350
asbag57
(g78
g59
NtRp6351
(dp6352
g62
(dp6353
g89
g90
ssg71
g6342
sg64
(lp6354
S':'
asbag57
(g78
g59
NtRp6355
(dp6356
g62
(dp6357
sg71
g6342
sg64
(lp6358
g57
(g58
g59
NtRp6359
(dp6360
g62
(dp6361
g70
I5
ssg71
g6355
sg64
(lp6362
g4980
asbasbasbag57
(g73
g59
NtRp6363
(dp6364
g62
(dp6365
sg71
g4923
sg64
(lp6366
g57
(g78
g59
NtRp6367
(dp6368
g62
(dp6369
g82
g83
ssg71
g6363
sg64
(lp6370
S'session_locked'
p6371
asbag57
(g78
g59
NtRp6372
(dp6373
g62
(dp6374
g89
g90
ssg71
g6363
sg64
(lp6375
S':'
asbag57
(g78
g59
NtRp6376
(dp6377
g62
(dp6378
sg71
g6363
sg64
(lp6379
g57
(g58
g59
NtRp6380
(dp6381
g62
(dp6382
g70
I5
ssg71
g6376
sg64
(lp6383
g100
asbasbasbag57
(g73
g59
NtRp6384
(dp6385
g62
(dp6386
sg71
g4923
sg64
(lp6387
g57
(g78
g59
NtRp6388
(dp6389
g62
(dp6390
g82
g83
ssg71
g6384
sg64
(lp6391
S'session_new'
p6392
asbag57
(g78
g59
NtRp6393
(dp6394
g62
(dp6395
g89
g90
ssg71
g6384
sg64
(lp6396
S':'
asbag57
(g78
g59
NtRp6397
(dp6398
g62
(dp6399
sg71
g6384
sg64
(lp6400
g57
(g58
g59
NtRp6401
(dp6402
g62
(dp6403
g70
I5
ssg71
g6397
sg64
(lp6404
g995
asbasbasbag57
(g73
g59
NtRp6405
(dp6406
g62
(dp6407
sg71
g4923
sg64
(lp6408
g57
(g78
g59
NtRp6409
(dp6410
g62
(dp6411
g82
g83
ssg71
g6405
sg64
(lp6412
S'status'
p6413
asbag57
(g78
g59
NtRp6414
(dp6415
g62
(dp6416
g89
g90
ssg71
g6405
sg64
(lp6417
S':'
asbag57
(g78
g59
NtRp6418
(dp6419
g62
(dp6420
sg71
g6405
sg64
(lp6421
g57
(g58
g59
NtRp6422
(dp6423
g62
(dp6424
g70
I5
ssg71
g6418
sg64
(lp6425
S'200'
p6426
asbasbasbag57
(g73
g59
NtRp6427
(dp6428
g62
(dp6429
sg71
g4923
sg64
(lp6430
g57
(g78
g59
NtRp6431
(dp6432
g62
(dp6433
g82
g83
ssg71
g6427
sg64
(lp6434
S'subtitle'
p6435
asbag57
(g78
g59
NtRp6436
(dp6437
g62
(dp6438
g89
g90
ssg71
g6427
sg64
(lp6439
S':'
asbag57
(g78
g59
NtRp6440
(dp6441
g62
(dp6442
sg71
g6427
sg64
(lp6443
g57
(g58
g59
NtRp6444
(dp6445
g62
(dp6446
g70
I5
ssg71
g6440
sg64
(lp6447
g5442
(S's0\x00\x00\x00An online space for learning New Testament Greek'
tRp6448
asbasbasbag57
(g73
g59
NtRp6449
(dp6450
g62
(dp6451
sg71
g4923
sg64
(lp6452
g57
(g78
g59
NtRp6453
(dp6454
g62
(dp6455
g82
g83
ssg71
g6449
sg64
(lp6456
S'title'
p6457
asbag57
(g78
g59
NtRp6458
(dp6459
g62
(dp6460
g89
g90
ssg71
g6449
sg64
(lp6461
S':'
asbag57
(g78
g59
NtRp6462
(dp6463
g62
(dp6464
sg71
g6449
sg64
(lp6465
g57
(g58
g59
NtRp6466
(dp6467
g62
(dp6468
g70
I5
ssg71
g6462
sg64
(lp6469
g122
asbasbasbag57
(g73
g59
NtRp6470
(dp6471
g62
(dp6472
sg71
g4923
sg64
(lp6473
g57
(g78
g59
NtRp6474
(dp6475
g62
(dp6476
g82
g83
ssg71
g6470
sg64
(lp6477
g2485
asbag57
(g78
g59
NtRp6478
(dp6479
g62
(dp6480
g89
g90
ssg71
g6470
sg64
(lp6481
S':'
asbag57
(g78
g59
NtRp6482
(dp6483
g62
(dp6484
sg71
g6470
sg64
(lp6485
g57
(g58
g59
NtRp6486
(dp6487
g62
(dp6488
g70
I5
ssg71
g6482
sg64
(lp6489
g2498
asbasbasbag57
(g73
g59
NtRp6490
(dp6491
g62
(dp6492
sg71
g4923
sg64
(lp6493
g57
(g78
g59
NtRp6494
(dp6495
g62
(dp6496
g82
g83
ssg71
g6490
sg64
(lp6497
S'view'
p6498
asbag57
(g78
g59
NtRp6499
(dp6500
g62
(dp6501
g89
g90
ssg71
g6490
sg64
(lp6502
S':'
asbag57
(g78
g59
NtRp6503
(dp6504
g62
(dp6505
sg71
g6490
sg64
(lp6506
g57
(g58
g59
NtRp6507
(dp6508
g62
(dp6509
g70
I5
ssg71
g6503
sg64
(lp6510
S'exploring/index.load'
p6511
asbasbasbasbasbsS'locals'
p6512
(dp6513
S'i'
S"<Row {'name': '\\xe1\\xbc\\x88\\xce\\xbb\\xce\\xb5\\xce\\...elete_record': <function <lambda> at 0x919495c>}>"
p6514
sS'self'
p6515
S'<gluon.dal.Rows object>'
p6516
sssS'traceback'
p6517
S'Traceback (most recent call last):\n  File "/home/iscott/web/web2py/gluon/restricted.py", line 204, in restricted\n    exec ccode in environment\n  File "/home/iscott/web/web2py/applications/paideia/controllers/exploring.py", line 106, in <module>\n  File "/home/iscott/web/web2py/gluon/globals.py", line 172, in <lambda>\n    self._caller = lambda f: f()\n  File "/home/iscott/web/web2py/gluon/tools.py", line 2533, in f\n    return action(*a, **b)\n  File "/home/iscott/web/web2py/applications/paideia/controllers/exploring.py", line 94, in index\n    return s.ask()\n  File "applications/paideia/modules/paideia_exploring.py", line 388, in ask\n    self.n = self.npc()\n  File "applications/paideia/modules/paideia_exploring.py", line 407, in npc\n    (session.location in self.ns[n].location)]\n  File "/home/iscott/web/web2py/gluon/dal.py", line 6510, in __getitem__\n    row = self.records[i]\nTypeError: list indices must be integers, not Row\n'
p6518
s.