(dp1
S'output'
p2
S''
sS'layer'
p3
S'/home/ian/web2py/applications/paideia/controllers/exploring.py'
p4
sS'code'
p5
S'# coding: utf8\n\nimport random,re,datetime,string\n\ndef set_path():\n    #set the quiz and retrieve its data\n    if not session.path_length:\n        the_path = db(db.quizzes.id == request.vars.path).select()\n        session.path_id = the_path[0].id\n        session.path_length = the_path[0].length\n        session.path_name = the_path[0].quiz\n        session.path_freq = the_path[0].frequency\n        session.path_tags = the_path[0].tags\n\ndef set_counter():\n    #include this question in the count for this quiz, send to \'end\' if quiz is finished\n    if session.q_counter:\n        if int(session.q_counter) >= int(session.path_length):\n            session.q_counter = 0\n            redirect(URL(\'index\', args=[\'end\']))\n            return dict(end="yes")\n        else:\n            session.q_counter += 1\n    else:\n        session.q_counter = 1\n\ndef get_question():\n\n    #still need to code following conditions:\n    #include only tags for this quiz\n    #include only frequency for this quiz\n\n    # (db.questions.id == db.question_records.question) joins questions to records\n    # (db.question_records.name==auth.user_id) filters based on current user\n    # (db.question_records.last_right != datetime.date.today()) removes questions gotten right today\n    q_not_today =  db((db.questions.id == db.question_records.question) & (db.question_records.name==auth.user_id) & (db.question_records.last_right != datetime.date.today())).select()\n\n    #finds questions that haven\'t yet been tried by this user (using left join)\n    q_fresh = db(db.question_records.question==None).select(db.questions.ALL, db.question_records.ALL, left=db.question_records.on(db.questions.id==db.question_records.question))\n\n    #old_list = db(db.question_records.name==auth.user_id).select()\n    #q_fresh = db(~db.questions.id.belongs(old_list)).select()\n\n    the_switch = random.randint(0,1)\n    #randomly choose between review (haven\'t answered correct today) and totally new\n    if q_not_today and the_switch == 0:\n        questions = q_not_today\n        session.quiz_type = "regular review (haven\'t gotten correct today)"\n        question_count = len(questions) - 1\n        question_index = random.randint(0,question_count)\n        question_obj = questions[question_index].questions\n    elif q_fresh:\n        questions = q_fresh\n        session.quiz_type = "fresh questions (first try)"\n        question_count = len(questions) - 1\n        question_index = random.randint(0,question_count)\n        question_obj = questions[question_index].questions\n    #fallback is totally random review (in case all have been tried and gotten correct today)\n    else:\n        questions = db(db.questions.id > 0).select()\n        session.quiz_type = "random"\n        question_count = len(questions) - 1\n        question_index = random.randint(0,question_count)\n        question_obj = questions[question_index]\n\n    if question_obj.status == 1:\n        get_question()\n\n    session.qID = question_obj.id\n    session.question_text = question_obj.question\n    session.answer = question_obj.answer\n    session.answer2 = question_obj.answer2\n    session.answer3 = question_obj.answer3\n    session.readable_answer = question_obj.readable_answer\n\ndef eval_response(the_q):\n    the_response = string.strip(session.response)\n    try:\n        if re.match(session.answer, the_response, re.I):\n            session.eval = \'correct\'\n            rightCount = 1\n            wrongCount = 0\n            if the_q:\n                wrongDate = the_q[0].last_wrong\n            else:\n                wrongDate = request.now\n            rightDate = request.now\n            session.score = 1\n        elif re.match(session.answer2,session.response) and session.answer2 != \'null\':\n            session.eval = \'partial\'\n            rightCount = 0\n            wrongCount = 0\n            if the_q:\n                wrongDate = the_q[0].last_wrong\n                rightDate = the_q[0].last_right\n            else:\n                wrongDate = request.now\n                rightDate = request.now\n            session.score = 0.5\n        elif re.match(session.answer3,session.response) and session.answer3 != \'null\':\n            session.eval = \'partial\'\n            rightCount = 0\n            wrongCount = 0\n            if the_q:\n                wrongDate = the_q[0].last_wrong\n                rightDate = the_q[0].last_right\n            else:\n                wrongDate = request.now\n                rightDate = request.now\n            session.score = 0.3\n        else:\n            session.eval = "wrong"\n            wrongCount = 1\n            rightCount = 0\n            if the_q:\n                rightDate = the_q[0].last_right\n            else:\n                rightDate = request.now\n            wrongDate = request.now\n            session.score = 0\n        return dict(the_q = the_q, rightDate = rightDate, wrongDate = wrongDate, rightCount = rightCount, wrongCount = wrongCount)\n    except re.error:\n        redirect(URL(\'index\', args=[\'error\', \'regex\']))\n    else:\n        redirect(URL(\'index\', args=[\'error\', \'unknown\']))\n\n@auth.requires_login()\ndef index():\n\n    #after user selects quiz (or \'next question\')\n    if request.args(0) == \'ask\':\n        if not request.vars.response:\n            set_path()\n            set_counter()\n            get_question()\n\n        form = SQLFORM.factory(\n            Field(\'response\', \'string\', requires=IS_NOT_EMPTY())\n        )\n        if form.accepts(request.vars,session):\n            session.response = request.vars.response\n            redirect(URL(\'index\', args=[\'reply\']))\n\n        return dict(question=session.question_text, form=form)\n\n    #after submitting answer\n    elif request.args(0) == \'reply\':\n        #get the question that was asked\n        q_ID = session.qID\n        the_q = db(db.question_records.question==q_ID).select()\n        #see whether answer matches any of the three answer fields\n        the_eval = eval_response(the_q)\n        #update or create database record for\n        #If the user has already attempted this question once, update their record for this question\n        if db((db.question_records.name==auth.user_id)&(db.question_records.question==q_ID)).select():\n            timesR = the_q[0].times_right\n            timesW = the_q[0].times_wrong\n            newTimesR = int(timesR) + int(the_eval[\'rightCount\'])\n            newTimesW = int(timesW) + int(the_eval[\'wrongCount\'])\n            db(db.question_records.question==q_ID).update(times_right=newTimesR, times_wrong=newTimesW, last_right=the_eval[\'rightDate\'], last_wrong=the_eval[\'wrongDate\'])\n        #if the user hasn\'t attempted this question, create a new record for it\n        else:\n            db.question_records.insert(question=q_ID, times_right=the_eval[\'rightCount\'], times_wrong=the_eval[\'wrongCount\'])\n\n        #build response to user\n        if session.eval == \'correct\':\n            the_reply = "Right. \xce\x9a\xce\xac\xce\xbb\xce\xb7."\n        elif session.eval == \'partial\':\n            the_reply = "\xce\x9f\xe1\xbd\x90 \xce\xba\xce\xac\xce\xba\xce\xbf\xcf\x82. You\'re close."\n        else:\n            the_reply = "Incorrect. Try again!"\n        the_answer = session.readable_answer\n        return dict(reply=the_reply, answer=the_answer, raw_answer=session.answer, score=session.score)\n\n    #if there\'s an error thrown after submitting an answer\n    elif request.args(0) == \'error\':\n        if request.args(1) == \'unknown\':\n            db.q_bugs.insert(question=session.qID, a_submitted=request.vars.answer)\n        if request.args(1) == \'regex\':\n            db.q_bugs.insert(question=session.qID, a_submitted=request.vars.answer)\n            db.questions.update(question=session.qID, status=1);\n        message = "Oops! Something about that question confused me, and I\'m not sure whether your answer was right. Let\'s try another one."\n        button = A(\'continue\', _href=URL(\'index\', args=[\'ask\']), _class=\'button-green-grad next_q\', cid=request.cid)\n        #don\'t include this question in counting the number attempted\n        session.q_counter -= 1\n        return dict(message = message, button = button)\n\n    #when first arrive at start page\n    else:\n        the_quizzes = db().select(db.quizzes.ALL, orderby=db.quizzes.quiz)\n        return dict(quizzes = the_quizzes)\n\nresponse._vars=response._caller(index)\n'
p6
sS'snapshot'
p7
(dp8
S'exception'
p9
(dp10
S'__hash__'
p11
S"<method-wrapper '__hash__' of exceptions.RuntimeError object>"
p12
sS'__setattr__'
p13
S"<method-wrapper '__setattr__' of exceptions.RuntimeError object>"
p14
sS'__reduce_ex__'
p15
S'<built-in method __reduce_ex__ of exceptions.RuntimeError object>'
p16
sS'__getslice__'
p17
S"<method-wrapper '__getslice__' of exceptions.RuntimeError object>"
p18
sS'__getitem__'
p19
S"<method-wrapper '__getitem__' of exceptions.RuntimeError object>"
p20
sS'__setstate__'
p21
S'<built-in method __setstate__ of exceptions.RuntimeError object>'
p22
sS'args'
p23
S"('Syntax Not Supported',)"
p24
sS'__reduce__'
p25
S'<built-in method __reduce__ of exceptions.RuntimeError object>'
p26
sS'__str__'
p27
S"<method-wrapper '__str__' of exceptions.RuntimeError object>"
p28
sS'__format__'
p29
S'<built-in method __format__ of exceptions.RuntimeError object>'
p30
sS'__getattribute__'
p31
S"<method-wrapper '__getattribute__' of exceptions.RuntimeError object>"
p32
sS'__class__'
p33
S"<type 'exceptions.RuntimeError'>"
p34
sS'__unicode__'
p35
S'<built-in method __unicode__ of exceptions.RuntimeError object>'
p36
sS'__delattr__'
p37
S"<method-wrapper '__delattr__' of exceptions.RuntimeError object>"
p38
sS'__subclasshook__'
p39
S'<built-in method __subclasshook__ of type object>'
p40
sS'__repr__'
p41
S"<method-wrapper '__repr__' of exceptions.RuntimeError object>"
p42
sS'__dict__'
p43
S'{}'
p44
sS'__sizeof__'
p45
S'<built-in method __sizeof__ of exceptions.RuntimeError object>'
p46
sS'__doc__'
p47
S"'Unspecified run-time error.'"
p48
sS'__init__'
p49
S"<method-wrapper '__init__' of exceptions.RuntimeError object>"
p50
sS'__new__'
p51
S'<built-in method __new__ of type object>'
p52
ssS'evalue'
p53
S'Syntax Not Supported'
p54
sS'request'
p55
ccopy_reg
_reconstructor
p56
(cgluon.html
BEAUTIFY
p57
c__builtin__
object
p58
NtRp59
(dp60
S'attributes'
p61
(dp62
sS'components'
p63
(lp64
g56
(cgluon.html
TABLE
p65
g58
NtRp66
(dp67
g61
(dp68
S'level'
p69
I5
ssS'parent'
p70
Nsg63
(lp71
g56
(cgluon.html
TR
p72
g58
NtRp73
(dp74
g61
(dp75
sg70
g66
sg63
(lp76
g56
(cgluon.html
TD
p77
g58
NtRp78
(dp79
g61
(dp80
S'_style'
p81
S'font-weight:bold;'
p82
ssg70
g73
sg63
(lp83
S'ajax'
p84
asbag56
(g77
g58
NtRp85
(dp86
g61
(dp87
S'_valign'
p88
S'top'
p89
ssg70
g73
sg63
(lp90
S':'
asbag56
(g77
g58
NtRp91
(dp92
g61
(dp93
sg70
g73
sg63
(lp94
g56
(g57
g58
NtRp95
(dp96
g61
(dp97
g69
I5
ssg70
g91
sg63
(lp98
S'True'
p99
asbasbasbag56
(g72
g58
NtRp100
(dp101
g61
(dp102
sg70
g66
sg63
(lp103
g56
(g77
g58
NtRp104
(dp105
g61
(dp106
g81
g82
ssg70
g100
sg63
(lp107
S'application'
p108
asbag56
(g77
g58
NtRp109
(dp110
g61
(dp111
g88
g89
ssg70
g100
sg63
(lp112
S':'
asbag56
(g77
g58
NtRp113
(dp114
g61
(dp115
sg70
g100
sg63
(lp116
g56
(g57
g58
NtRp117
(dp118
g61
(dp119
g69
I5
ssg70
g113
sg63
(lp120
S'paideia'
p121
asbasbasbag56
(g72
g58
NtRp122
(dp123
g61
(dp124
sg70
g66
sg63
(lp125
g56
(g77
g58
NtRp126
(dp127
g61
(dp128
g81
g82
ssg70
g122
sg63
(lp129
g23
asbag56
(g77
g58
NtRp130
(dp131
g61
(dp132
g88
g89
ssg70
g122
sg63
(lp133
S':'
asbag56
(g77
g58
NtRp134
(dp135
g61
(dp136
sg70
g122
sg63
(lp137
g56
(g57
g58
NtRp138
(dp139
g61
(dp140
g69
I5
ssg70
g134
sg63
(lp141
g56
(g65
g58
NtRp142
(dp143
g61
(dp144
g69
I4
ssg70
Nsg63
(lp145
g56
(g72
g58
NtRp146
(dp147
g61
(dp148
sg70
g142
sg63
(lp149
g56
(g77
g58
NtRp150
(dp151
g61
(dp152
sg70
g146
sg63
(lp153
g56
(g57
g58
NtRp154
(dp155
g61
(dp156
g69
I4
ssg70
g150
sg63
(lp157
S'error'
p158
asbasbasbag56
(g72
g58
NtRp159
(dp160
g61
(dp161
sg70
g142
sg63
(lp162
g56
(g77
g58
NtRp163
(dp164
g61
(dp165
sg70
g159
sg63
(lp166
g56
(g57
g58
NtRp167
(dp168
g61
(dp169
g69
I4
ssg70
g163
sg63
(lp170
S'regex'
p171
asbasbasbasbasbasbasbag56
(g72
g58
NtRp172
(dp173
g61
(dp174
sg70
g66
sg63
(lp175
g56
(g77
g58
NtRp176
(dp177
g61
(dp178
g81
g82
ssg70
g172
sg63
(lp179
S'body'
p180
asbag56
(g77
g58
NtRp181
(dp182
g61
(dp183
g88
g89
ssg70
g172
sg63
(lp184
S':'
asbag56
(g77
g58
NtRp185
(dp186
g61
(dp187
sg70
g172
sg63
(lp188
g56
(g57
g58
NtRp189
(dp190
g61
(dp191
g69
I5
ssg70
g185
sg63
(lp192
S'<cStringIO.StringO object at 0x2891298>'
p193
asbasbasbag56
(g72
g58
NtRp194
(dp195
g61
(dp196
sg70
g66
sg63
(lp197
g56
(g77
g58
NtRp198
(dp199
g61
(dp200
g81
g82
ssg70
g194
sg63
(lp201
S'cid'
p202
asbag56
(g77
g58
NtRp203
(dp204
g61
(dp205
g88
g89
ssg70
g194
sg63
(lp206
S':'
asbag56
(g77
g58
NtRp207
(dp208
g61
(dp209
sg70
g194
sg63
(lp210
g56
(g57
g58
NtRp211
(dp212
g61
(dp213
g69
I5
ssg70
g207
sg63
(lp214
S'page'
p215
asbasbasbag56
(g72
g58
NtRp216
(dp217
g61
(dp218
sg70
g66
sg63
(lp219
g56
(g77
g58
NtRp220
(dp221
g61
(dp222
g81
g82
ssg70
g216
sg63
(lp223
S'client'
p224
asbag56
(g77
g58
NtRp225
(dp226
g61
(dp227
g88
g89
ssg70
g216
sg63
(lp228
S':'
asbag56
(g77
g58
NtRp229
(dp230
g61
(dp231
sg70
g216
sg63
(lp232
g56
(g57
g58
NtRp233
(dp234
g61
(dp235
g69
I5
ssg70
g229
sg63
(lp236
S'127.0.0.1'
p237
asbasbasbag56
(g72
g58
NtRp238
(dp239
g61
(dp240
sg70
g66
sg63
(lp241
g56
(g77
g58
NtRp242
(dp243
g61
(dp244
g81
g82
ssg70
g238
sg63
(lp245
S'controller'
p246
asbag56
(g77
g58
NtRp247
(dp248
g61
(dp249
g88
g89
ssg70
g238
sg63
(lp250
S':'
asbag56
(g77
g58
NtRp251
(dp252
g61
(dp253
sg70
g238
sg63
(lp254
g56
(g57
g58
NtRp255
(dp256
g61
(dp257
g69
I5
ssg70
g251
sg63
(lp258
S'exploring'
p259
asbasbasbag56
(g72
g58
NtRp260
(dp261
g61
(dp262
sg70
g66
sg63
(lp263
g56
(g77
g58
NtRp264
(dp265
g61
(dp266
g81
g82
ssg70
g260
sg63
(lp267
S'cookies'
p268
asbag56
(g77
g58
NtRp269
(dp270
g61
(dp271
g88
g89
ssg70
g260
sg63
(lp272
S':'
asbag56
(g77
g58
NtRp273
(dp274
g61
(dp275
sg70
g260
sg63
(lp276
g56
(g57
g58
NtRp277
(dp278
g61
(dp279
g69
I5
ssg70
g273
sg63
(lp280
g56
(g65
g58
NtRp281
(dp282
g61
(dp283
g69
I4
ssg70
Nsg63
(lp284
g56
(g72
g58
NtRp285
(dp286
g61
(dp287
sg70
g281
sg63
(lp288
g56
(g77
g58
NtRp289
(dp290
g61
(dp291
g81
g82
ssg70
g285
sg63
(lp292
S'session_id_admin'
p293
asbag56
(g77
g58
NtRp294
(dp295
g61
(dp296
g88
g89
ssg70
g285
sg63
(lp297
S':'
asbag56
(g77
g58
NtRp298
(dp299
g61
(dp300
sg70
g285
sg63
(lp301
g56
(g57
g58
NtRp302
(dp303
g61
(dp304
g69
I4
ssg70
g298
sg63
(lp305
g56
(g65
g58
NtRp306
(dp307
g61
(dp308
g69
I3
ssg70
Nsg63
(lp309
g56
(g72
g58
NtRp310
(dp311
g61
(dp312
sg70
g306
sg63
(lp313
g56
(g77
g58
NtRp314
(dp315
g61
(dp316
g81
g82
ssg70
g310
sg63
(lp317
S'comment'
p318
asbag56
(g77
g58
NtRp319
(dp320
g61
(dp321
g88
g89
ssg70
g310
sg63
(lp322
S':'
asbag56
(g77
g58
NtRp323
(dp324
g61
(dp325
sg70
g310
sg63
(lp326
g56
(g57
g58
NtRp327
(dp328
g61
(dp329
g69
I3
ssg70
g323
sg63
(lp330
S''
asbasbasbag56
(g72
g58
NtRp331
(dp332
g61
(dp333
sg70
g306
sg63
(lp334
g56
(g77
g58
NtRp335
(dp336
g61
(dp337
g81
g82
ssg70
g331
sg63
(lp338
S'domain'
p339
asbag56
(g77
g58
NtRp340
(dp341
g61
(dp342
g88
g89
ssg70
g331
sg63
(lp343
S':'
asbag56
(g77
g58
NtRp344
(dp345
g61
(dp346
sg70
g331
sg63
(lp347
g56
(g57
g58
NtRp348
(dp349
g61
(dp350
g69
I3
ssg70
g344
sg63
(lp351
S''
asbasbasbag56
(g72
g58
NtRp352
(dp353
g61
(dp354
sg70
g306
sg63
(lp355
g56
(g77
g58
NtRp356
(dp357
g61
(dp358
g81
g82
ssg70
g352
sg63
(lp359
S'expires'
p360
asbag56
(g77
g58
NtRp361
(dp362
g61
(dp363
g88
g89
ssg70
g352
sg63
(lp364
S':'
asbag56
(g77
g58
NtRp365
(dp366
g61
(dp367
sg70
g352
sg63
(lp368
g56
(g57
g58
NtRp369
(dp370
g61
(dp371
g69
I3
ssg70
g365
sg63
(lp372
S''
asbasbasbag56
(g72
g58
NtRp373
(dp374
g61
(dp375
sg70
g306
sg63
(lp376
g56
(g77
g58
NtRp377
(dp378
g61
(dp379
g81
g82
ssg70
g373
sg63
(lp380
S'httponly'
p381
asbag56
(g77
g58
NtRp382
(dp383
g61
(dp384
g88
g89
ssg70
g373
sg63
(lp385
S':'
asbag56
(g77
g58
NtRp386
(dp387
g61
(dp388
sg70
g373
sg63
(lp389
g56
(g57
g58
NtRp390
(dp391
g61
(dp392
g69
I3
ssg70
g386
sg63
(lp393
S''
asbasbasbag56
(g72
g58
NtRp394
(dp395
g61
(dp396
sg70
g306
sg63
(lp397
g56
(g77
g58
NtRp398
(dp399
g61
(dp400
g81
g82
ssg70
g394
sg63
(lp401
S'max-age'
p402
asbag56
(g77
g58
NtRp403
(dp404
g61
(dp405
g88
g89
ssg70
g394
sg63
(lp406
S':'
asbag56
(g77
g58
NtRp407
(dp408
g61
(dp409
sg70
g394
sg63
(lp410
g56
(g57
g58
NtRp411
(dp412
g61
(dp413
g69
I3
ssg70
g407
sg63
(lp414
S''
asbasbasbag56
(g72
g58
NtRp415
(dp416
g61
(dp417
sg70
g306
sg63
(lp418
g56
(g77
g58
NtRp419
(dp420
g61
(dp421
g81
g82
ssg70
g415
sg63
(lp422
S'path'
p423
asbag56
(g77
g58
NtRp424
(dp425
g61
(dp426
g88
g89
ssg70
g415
sg63
(lp427
S':'
asbag56
(g77
g58
NtRp428
(dp429
g61
(dp430
sg70
g415
sg63
(lp431
g56
(g57
g58
NtRp432
(dp433
g61
(dp434
g69
I3
ssg70
g428
sg63
(lp435
S''
asbasbasbag56
(g72
g58
NtRp436
(dp437
g61
(dp438
sg70
g306
sg63
(lp439
g56
(g77
g58
NtRp440
(dp441
g61
(dp442
g81
g82
ssg70
g436
sg63
(lp443
S'secure'
p444
asbag56
(g77
g58
NtRp445
(dp446
g61
(dp447
g88
g89
ssg70
g436
sg63
(lp448
S':'
asbag56
(g77
g58
NtRp449
(dp450
g61
(dp451
sg70
g436
sg63
(lp452
g56
(g57
g58
NtRp453
(dp454
g61
(dp455
g69
I3
ssg70
g449
sg63
(lp456
S''
asbasbasbag56
(g72
g58
NtRp457
(dp458
g61
(dp459
sg70
g306
sg63
(lp460
g56
(g77
g58
NtRp461
(dp462
g61
(dp463
g81
g82
ssg70
g457
sg63
(lp464
S'version'
p465
asbag56
(g77
g58
NtRp466
(dp467
g61
(dp468
g88
g89
ssg70
g457
sg63
(lp469
S':'
asbag56
(g77
g58
NtRp470
(dp471
g61
(dp472
sg70
g457
sg63
(lp473
g56
(g57
g58
NtRp474
(dp475
g61
(dp476
g69
I3
ssg70
g470
sg63
(lp477
S''
asbasbasbasbasbasbasbag56
(g72
g58
NtRp478
(dp479
g61
(dp480
sg70
g281
sg63
(lp481
g56
(g77
g58
NtRp482
(dp483
g61
(dp484
g81
g82
ssg70
g478
sg63
(lp485
S'session_id_paideia'
p486
asbag56
(g77
g58
NtRp487
(dp488
g61
(dp489
g88
g89
ssg70
g478
sg63
(lp490
S':'
asbag56
(g77
g58
NtRp491
(dp492
g61
(dp493
sg70
g478
sg63
(lp494
g56
(g57
g58
NtRp495
(dp496
g61
(dp497
g69
I4
ssg70
g491
sg63
(lp498
g56
(g65
g58
NtRp499
(dp500
g61
(dp501
g69
I3
ssg70
Nsg63
(lp502
g56
(g72
g58
NtRp503
(dp504
g61
(dp505
sg70
g499
sg63
(lp506
g56
(g77
g58
NtRp507
(dp508
g61
(dp509
g81
g82
ssg70
g503
sg63
(lp510
g318
asbag56
(g77
g58
NtRp511
(dp512
g61
(dp513
g88
g89
ssg70
g503
sg63
(lp514
S':'
asbag56
(g77
g58
NtRp515
(dp516
g61
(dp517
sg70
g503
sg63
(lp518
g56
(g57
g58
NtRp519
(dp520
g61
(dp521
g69
I3
ssg70
g515
sg63
(lp522
S''
asbasbasbag56
(g72
g58
NtRp523
(dp524
g61
(dp525
sg70
g499
sg63
(lp526
g56
(g77
g58
NtRp527
(dp528
g61
(dp529
g81
g82
ssg70
g523
sg63
(lp530
g339
asbag56
(g77
g58
NtRp531
(dp532
g61
(dp533
g88
g89
ssg70
g523
sg63
(lp534
S':'
asbag56
(g77
g58
NtRp535
(dp536
g61
(dp537
sg70
g523
sg63
(lp538
g56
(g57
g58
NtRp539
(dp540
g61
(dp541
g69
I3
ssg70
g535
sg63
(lp542
S''
asbasbasbag56
(g72
g58
NtRp543
(dp544
g61
(dp545
sg70
g499
sg63
(lp546
g56
(g77
g58
NtRp547
(dp548
g61
(dp549
g81
g82
ssg70
g543
sg63
(lp550
g360
asbag56
(g77
g58
NtRp551
(dp552
g61
(dp553
g88
g89
ssg70
g543
sg63
(lp554
S':'
asbag56
(g77
g58
NtRp555
(dp556
g61
(dp557
sg70
g543
sg63
(lp558
g56
(g57
g58
NtRp559
(dp560
g61
(dp561
g69
I3
ssg70
g555
sg63
(lp562
S''
asbasbasbag56
(g72
g58
NtRp563
(dp564
g61
(dp565
sg70
g499
sg63
(lp566
g56
(g77
g58
NtRp567
(dp568
g61
(dp569
g81
g82
ssg70
g563
sg63
(lp570
g381
asbag56
(g77
g58
NtRp571
(dp572
g61
(dp573
g88
g89
ssg70
g563
sg63
(lp574
S':'
asbag56
(g77
g58
NtRp575
(dp576
g61
(dp577
sg70
g563
sg63
(lp578
g56
(g57
g58
NtRp579
(dp580
g61
(dp581
g69
I3
ssg70
g575
sg63
(lp582
S''
asbasbasbag56
(g72
g58
NtRp583
(dp584
g61
(dp585
sg70
g499
sg63
(lp586
g56
(g77
g58
NtRp587
(dp588
g61
(dp589
g81
g82
ssg70
g583
sg63
(lp590
g402
asbag56
(g77
g58
NtRp591
(dp592
g61
(dp593
g88
g89
ssg70
g583
sg63
(lp594
S':'
asbag56
(g77
g58
NtRp595
(dp596
g61
(dp597
sg70
g583
sg63
(lp598
g56
(g57
g58
NtRp599
(dp600
g61
(dp601
g69
I3
ssg70
g595
sg63
(lp602
S''
asbasbasbag56
(g72
g58
NtRp603
(dp604
g61
(dp605
sg70
g499
sg63
(lp606
g56
(g77
g58
NtRp607
(dp608
g61
(dp609
g81
g82
ssg70
g603
sg63
(lp610
g423
asbag56
(g77
g58
NtRp611
(dp612
g61
(dp613
g88
g89
ssg70
g603
sg63
(lp614
S':'
asbag56
(g77
g58
NtRp615
(dp616
g61
(dp617
sg70
g603
sg63
(lp618
g56
(g57
g58
NtRp619
(dp620
g61
(dp621
g69
I3
ssg70
g615
sg63
(lp622
S''
asbasbasbag56
(g72
g58
NtRp623
(dp624
g61
(dp625
sg70
g499
sg63
(lp626
g56
(g77
g58
NtRp627
(dp628
g61
(dp629
g81
g82
ssg70
g623
sg63
(lp630
g444
asbag56
(g77
g58
NtRp631
(dp632
g61
(dp633
g88
g89
ssg70
g623
sg63
(lp634
S':'
asbag56
(g77
g58
NtRp635
(dp636
g61
(dp637
sg70
g623
sg63
(lp638
g56
(g57
g58
NtRp639
(dp640
g61
(dp641
g69
I3
ssg70
g635
sg63
(lp642
S''
asbasbasbag56
(g72
g58
NtRp643
(dp644
g61
(dp645
sg70
g499
sg63
(lp646
g56
(g77
g58
NtRp647
(dp648
g61
(dp649
g81
g82
ssg70
g643
sg63
(lp650
g465
asbag56
(g77
g58
NtRp651
(dp652
g61
(dp653
g88
g89
ssg70
g643
sg63
(lp654
S':'
asbag56
(g77
g58
NtRp655
(dp656
g61
(dp657
sg70
g643
sg63
(lp658
g56
(g57
g58
NtRp659
(dp660
g61
(dp661
g69
I3
ssg70
g655
sg63
(lp662
S''
asbasbasbasbasbasbasbag56
(g72
g58
NtRp663
(dp664
g61
(dp665
sg70
g281
sg63
(lp666
g56
(g77
g58
NtRp667
(dp668
g61
(dp669
g81
g82
ssg70
g663
sg63
(lp670
S'session_id_welcome'
p671
asbag56
(g77
g58
NtRp672
(dp673
g61
(dp674
g88
g89
ssg70
g663
sg63
(lp675
S':'
asbag56
(g77
g58
NtRp676
(dp677
g61
(dp678
sg70
g663
sg63
(lp679
g56
(g57
g58
NtRp680
(dp681
g61
(dp682
g69
I4
ssg70
g676
sg63
(lp683
g56
(g65
g58
NtRp684
(dp685
g61
(dp686
g69
I3
ssg70
Nsg63
(lp687
g56
(g72
g58
NtRp688
(dp689
g61
(dp690
sg70
g684
sg63
(lp691
g56
(g77
g58
NtRp692
(dp693
g61
(dp694
g81
g82
ssg70
g688
sg63
(lp695
g318
asbag56
(g77
g58
NtRp696
(dp697
g61
(dp698
g88
g89
ssg70
g688
sg63
(lp699
S':'
asbag56
(g77
g58
NtRp700
(dp701
g61
(dp702
sg70
g688
sg63
(lp703
g56
(g57
g58
NtRp704
(dp705
g61
(dp706
g69
I3
ssg70
g700
sg63
(lp707
S''
asbasbasbag56
(g72
g58
NtRp708
(dp709
g61
(dp710
sg70
g684
sg63
(lp711
g56
(g77
g58
NtRp712
(dp713
g61
(dp714
g81
g82
ssg70
g708
sg63
(lp715
g339
asbag56
(g77
g58
NtRp716
(dp717
g61
(dp718
g88
g89
ssg70
g708
sg63
(lp719
S':'
asbag56
(g77
g58
NtRp720
(dp721
g61
(dp722
sg70
g708
sg63
(lp723
g56
(g57
g58
NtRp724
(dp725
g61
(dp726
g69
I3
ssg70
g720
sg63
(lp727
S''
asbasbasbag56
(g72
g58
NtRp728
(dp729
g61
(dp730
sg70
g684
sg63
(lp731
g56
(g77
g58
NtRp732
(dp733
g61
(dp734
g81
g82
ssg70
g728
sg63
(lp735
g360
asbag56
(g77
g58
NtRp736
(dp737
g61
(dp738
g88
g89
ssg70
g728
sg63
(lp739
S':'
asbag56
(g77
g58
NtRp740
(dp741
g61
(dp742
sg70
g728
sg63
(lp743
g56
(g57
g58
NtRp744
(dp745
g61
(dp746
g69
I3
ssg70
g740
sg63
(lp747
S''
asbasbasbag56
(g72
g58
NtRp748
(dp749
g61
(dp750
sg70
g684
sg63
(lp751
g56
(g77
g58
NtRp752
(dp753
g61
(dp754
g81
g82
ssg70
g748
sg63
(lp755
g381
asbag56
(g77
g58
NtRp756
(dp757
g61
(dp758
g88
g89
ssg70
g748
sg63
(lp759
S':'
asbag56
(g77
g58
NtRp760
(dp761
g61
(dp762
sg70
g748
sg63
(lp763
g56
(g57
g58
NtRp764
(dp765
g61
(dp766
g69
I3
ssg70
g760
sg63
(lp767
S''
asbasbasbag56
(g72
g58
NtRp768
(dp769
g61
(dp770
sg70
g684
sg63
(lp771
g56
(g77
g58
NtRp772
(dp773
g61
(dp774
g81
g82
ssg70
g768
sg63
(lp775
g402
asbag56
(g77
g58
NtRp776
(dp777
g61
(dp778
g88
g89
ssg70
g768
sg63
(lp779
S':'
asbag56
(g77
g58
NtRp780
(dp781
g61
(dp782
sg70
g768
sg63
(lp783
g56
(g57
g58
NtRp784
(dp785
g61
(dp786
g69
I3
ssg70
g780
sg63
(lp787
S''
asbasbasbag56
(g72
g58
NtRp788
(dp789
g61
(dp790
sg70
g684
sg63
(lp791
g56
(g77
g58
NtRp792
(dp793
g61
(dp794
g81
g82
ssg70
g788
sg63
(lp795
g423
asbag56
(g77
g58
NtRp796
(dp797
g61
(dp798
g88
g89
ssg70
g788
sg63
(lp799
S':'
asbag56
(g77
g58
NtRp800
(dp801
g61
(dp802
sg70
g788
sg63
(lp803
g56
(g57
g58
NtRp804
(dp805
g61
(dp806
g69
I3
ssg70
g800
sg63
(lp807
S''
asbasbasbag56
(g72
g58
NtRp808
(dp809
g61
(dp810
sg70
g684
sg63
(lp811
g56
(g77
g58
NtRp812
(dp813
g61
(dp814
g81
g82
ssg70
g808
sg63
(lp815
g444
asbag56
(g77
g58
NtRp816
(dp817
g61
(dp818
g88
g89
ssg70
g808
sg63
(lp819
S':'
asbag56
(g77
g58
NtRp820
(dp821
g61
(dp822
sg70
g808
sg63
(lp823
g56
(g57
g58
NtRp824
(dp825
g61
(dp826
g69
I3
ssg70
g820
sg63
(lp827
S''
asbasbasbag56
(g72
g58
NtRp828
(dp829
g61
(dp830
sg70
g684
sg63
(lp831
g56
(g77
g58
NtRp832
(dp833
g61
(dp834
g81
g82
ssg70
g828
sg63
(lp835
g465
asbag56
(g77
g58
NtRp836
(dp837
g61
(dp838
g88
g89
ssg70
g828
sg63
(lp839
S':'
asbag56
(g77
g58
NtRp840
(dp841
g61
(dp842
sg70
g828
sg63
(lp843
g56
(g57
g58
NtRp844
(dp845
g61
(dp846
g69
I3
ssg70
g840
sg63
(lp847
S''
asbasbasbasbasbasbasbasbasbasbasbag56
(g72
g58
NtRp848
(dp849
g61
(dp850
sg70
g66
sg63
(lp851
g56
(g77
g58
NtRp852
(dp853
g61
(dp854
g81
g82
ssg70
g848
sg63
(lp855
S'env'
p856
asbag56
(g77
g58
NtRp857
(dp858
g61
(dp859
g88
g89
ssg70
g848
sg63
(lp860
S':'
asbag56
(g77
g58
NtRp861
(dp862
g61
(dp863
sg70
g848
sg63
(lp864
g56
(g57
g58
NtRp865
(dp866
g61
(dp867
g69
I5
ssg70
g861
sg63
(lp868
g56
(g65
g58
NtRp869
(dp870
g61
(dp871
g69
I4
ssg70
Nsg63
(lp872
g56
(g72
g58
NtRp873
(dp874
g61
(dp875
sg70
g869
sg63
(lp876
g56
(g77
g58
NtRp877
(dp878
g61
(dp879
g81
g82
ssg70
g873
sg63
(lp880
S'app_folders'
p881
asbag56
(g77
g58
NtRp882
(dp883
g61
(dp884
g88
g89
ssg70
g873
sg63
(lp885
S':'
asbag56
(g77
g58
NtRp886
(dp887
g61
(dp888
sg70
g873
sg63
(lp889
g56
(g57
g58
NtRp890
(dp891
g61
(dp892
g69
I4
ssg70
g886
sg63
(lp893
S"set(['/home/ian/web2py/applications/welcome/', '/home/ian/web2py/applications/paideia/', '/home/ian/web2py/applications/admin/'])"
p894
asbasbasbag56
(g72
g58
NtRp895
(dp896
g61
(dp897
sg70
g869
sg63
(lp898
g56
(g77
g58
NtRp899
(dp900
g61
(dp901
g81
g82
ssg70
g895
sg63
(lp902
S'applications_parent'
p903
asbag56
(g77
g58
NtRp904
(dp905
g61
(dp906
g88
g89
ssg70
g895
sg63
(lp907
S':'
asbag56
(g77
g58
NtRp908
(dp909
g61
(dp910
sg70
g895
sg63
(lp911
g56
(g57
g58
NtRp912
(dp913
g61
(dp914
g69
I4
ssg70
g908
sg63
(lp915
S'/home/ian/web2py'
p916
asbasbasbag56
(g72
g58
NtRp917
(dp918
g61
(dp919
sg70
g869
sg63
(lp920
g56
(g77
g58
NtRp921
(dp922
g61
(dp923
g81
g82
ssg70
g917
sg63
(lp924
S'cmd_args'
p925
asbag56
(g77
g58
NtRp926
(dp927
g61
(dp928
g88
g89
ssg70
g917
sg63
(lp929
S':'
asbag56
(g77
g58
NtRp930
(dp931
g61
(dp932
sg70
g917
sg63
(lp933
g56
(g57
g58
NtRp934
(dp935
g61
(dp936
g69
I4
ssg70
g930
sg63
(lp937
g56
(g65
g58
NtRp938
(dp939
g61
(dp940
g69
I3
ssg70
Nsg63
(lp941
sbasbasbasbag56
(g72
g58
NtRp942
(dp943
g61
(dp944
sg70
g869
sg63
(lp945
g56
(g77
g58
NtRp946
(dp947
g61
(dp948
g81
g82
ssg70
g942
sg63
(lp949
S'cmd_options'
p950
asbag56
(g77
g58
NtRp951
(dp952
g61
(dp953
g88
g89
ssg70
g942
sg63
(lp954
S':'
asbag56
(g77
g58
NtRp955
(dp956
g61
(dp957
sg70
g942
sg63
(lp958
g56
(g57
g58
NtRp959
(dp960
g61
(dp961
g69
I4
ssg70
g955
sg63
(lp962
S"<Values at 0x1b0a758: {'verbose': False, 'ip': '127.0.0.1', 'shutdown_timeout': 5, 'taskbar': False, 'nocron': False, 'pid_filename': 'httpserver.pid', 'maxthreads': None, 'softcron': False, 'server_name': 'uriel', 'bpython': False, 'nogui': False, 'port': 8000, 'extcron': False, 'debuglevel': 30, 'test': None, 'folder': '/home/ian/web2py', 'config': '', 'import_models': False, 'winservice': '', 'shell': None, 'run': '', 'log_filename': 'httpserver.log', 'args': [''], 'ssl_ca_certificate': None, 'scheduler': None, 'profiler_filename': None, 'ssl_private_key': '', 'password': '<ask>', 'request_queue_size': 5, 'ssl_certificate': '', 'cronjob': False, 'plain': False, 'quiet': False, 'interfaces': None, 'minthreads': None, 'timeout': 10, 'numthreads': None, 'nobanner': False}>"
p963
asbasbasbag56
(g72
g58
NtRp964
(dp965
g61
(dp966
sg70
g869
sg63
(lp967
g56
(g77
g58
NtRp968
(dp969
g61
(dp970
g81
g82
ssg70
g964
sg63
(lp971
S'content_type'
p972
asbag56
(g77
g58
NtRp973
(dp974
g61
(dp975
g88
g89
ssg70
g964
sg63
(lp976
S':'
asbag56
(g77
g58
NtRp977
(dp978
g61
(dp979
sg70
g964
sg63
(lp980
g56
(g57
g58
NtRp981
(dp982
g61
(dp983
g69
I4
ssg70
g977
sg63
(lp984
S'application/x-www-form-urlencoded'
p985
asbasbasbag56
(g72
g58
NtRp986
(dp987
g61
(dp988
sg70
g869
sg63
(lp989
g56
(g77
g58
NtRp990
(dp991
g61
(dp992
g81
g82
ssg70
g986
sg63
(lp993
S'db_sessions'
p994
asbag56
(g77
g58
NtRp995
(dp996
g61
(dp997
g88
g89
ssg70
g986
sg63
(lp998
S':'
asbag56
(g77
g58
NtRp999
(dp1000
g61
(dp1001
sg70
g986
sg63
(lp1002
g56
(g57
g58
NtRp1003
(dp1004
g61
(dp1005
g69
I4
ssg70
g999
sg63
(lp1006
S'set([])'
p1007
asbasbasbag56
(g72
g58
NtRp1008
(dp1009
g61
(dp1010
sg70
g869
sg63
(lp1011
g56
(g77
g58
NtRp1012
(dp1013
g61
(dp1014
g81
g82
ssg70
g1008
sg63
(lp1015
S'debugging'
p1016
asbag56
(g77
g58
NtRp1017
(dp1018
g61
(dp1019
g88
g89
ssg70
g1008
sg63
(lp1020
S':'
asbag56
(g77
g58
NtRp1021
(dp1022
g61
(dp1023
sg70
g1008
sg63
(lp1024
g56
(g57
g58
NtRp1025
(dp1026
g61
(dp1027
g69
I4
ssg70
g1021
sg63
(lp1028
S'False'
p1029
asbasbasbag56
(g72
g58
NtRp1030
(dp1031
g61
(dp1032
sg70
g869
sg63
(lp1033
g56
(g77
g58
NtRp1034
(dp1035
g61
(dp1036
g81
g82
ssg70
g1030
sg63
(lp1037
S'gluon_parent'
p1038
asbag56
(g77
g58
NtRp1039
(dp1040
g61
(dp1041
g88
g89
ssg70
g1030
sg63
(lp1042
S':'
asbag56
(g77
g58
NtRp1043
(dp1044
g61
(dp1045
sg70
g1030
sg63
(lp1046
g56
(g57
g58
NtRp1047
(dp1048
g61
(dp1049
g69
I4
ssg70
g1043
sg63
(lp1050
S'/home/ian/web2py'
p1051
asbasbasbag56
(g72
g58
NtRp1052
(dp1053
g61
(dp1054
sg70
g869
sg63
(lp1055
g56
(g77
g58
NtRp1056
(dp1057
g61
(dp1058
g81
g82
ssg70
g1052
sg63
(lp1059
S'http_accept'
p1060
asbag56
(g77
g58
NtRp1061
(dp1062
g61
(dp1063
g88
g89
ssg70
g1052
sg63
(lp1064
S':'
asbag56
(g77
g58
NtRp1065
(dp1066
g61
(dp1067
sg70
g1052
sg63
(lp1068
g56
(g57
g58
NtRp1069
(dp1070
g61
(dp1071
g69
I4
ssg70
g1065
sg63
(lp1072
S'*/*'
p1073
asbasbasbag56
(g72
g58
NtRp1074
(dp1075
g61
(dp1076
sg70
g869
sg63
(lp1077
g56
(g77
g58
NtRp1078
(dp1079
g61
(dp1080
g81
g82
ssg70
g1074
sg63
(lp1081
S'http_accept_encoding'
p1082
asbag56
(g77
g58
NtRp1083
(dp1084
g61
(dp1085
g88
g89
ssg70
g1074
sg63
(lp1086
S':'
asbag56
(g77
g58
NtRp1087
(dp1088
g61
(dp1089
sg70
g1074
sg63
(lp1090
g56
(g57
g58
NtRp1091
(dp1092
g61
(dp1093
g69
I4
ssg70
g1087
sg63
(lp1094
S'gzip, deflate'
p1095
asbasbasbag56
(g72
g58
NtRp1096
(dp1097
g61
(dp1098
sg70
g869
sg63
(lp1099
g56
(g77
g58
NtRp1100
(dp1101
g61
(dp1102
g81
g82
ssg70
g1096
sg63
(lp1103
S'http_accept_language'
p1104
asbag56
(g77
g58
NtRp1105
(dp1106
g61
(dp1107
g88
g89
ssg70
g1096
sg63
(lp1108
S':'
asbag56
(g77
g58
NtRp1109
(dp1110
g61
(dp1111
sg70
g1096
sg63
(lp1112
g56
(g57
g58
NtRp1113
(dp1114
g61
(dp1115
g69
I4
ssg70
g1109
sg63
(lp1116
S'en-us,en;q=0.5'
p1117
asbasbasbag56
(g72
g58
NtRp1118
(dp1119
g61
(dp1120
sg70
g869
sg63
(lp1121
g56
(g77
g58
NtRp1122
(dp1123
g61
(dp1124
g81
g82
ssg70
g1118
sg63
(lp1125
S'http_cache_control'
p1126
asbag56
(g77
g58
NtRp1127
(dp1128
g61
(dp1129
g88
g89
ssg70
g1118
sg63
(lp1130
S':'
asbag56
(g77
g58
NtRp1131
(dp1132
g61
(dp1133
sg70
g1118
sg63
(lp1134
g56
(g57
g58
NtRp1135
(dp1136
g61
(dp1137
g69
I4
ssg70
g1131
sg63
(lp1138
S'no-cache'
p1139
asbasbasbag56
(g72
g58
NtRp1140
(dp1141
g61
(dp1142
sg70
g869
sg63
(lp1143
g56
(g77
g58
NtRp1144
(dp1145
g61
(dp1146
g81
g82
ssg70
g1140
sg63
(lp1147
S'http_connection'
p1148
asbag56
(g77
g58
NtRp1149
(dp1150
g61
(dp1151
g88
g89
ssg70
g1140
sg63
(lp1152
S':'
asbag56
(g77
g58
NtRp1153
(dp1154
g61
(dp1155
sg70
g1140
sg63
(lp1156
g56
(g57
g58
NtRp1157
(dp1158
g61
(dp1159
g69
I4
ssg70
g1153
sg63
(lp1160
S'keep-alive'
p1161
asbasbasbag56
(g72
g58
NtRp1162
(dp1163
g61
(dp1164
sg70
g869
sg63
(lp1165
g56
(g77
g58
NtRp1166
(dp1167
g61
(dp1168
g81
g82
ssg70
g1162
sg63
(lp1169
S'http_content_type'
p1170
asbag56
(g77
g58
NtRp1171
(dp1172
g61
(dp1173
g88
g89
ssg70
g1162
sg63
(lp1174
S':'
asbag56
(g77
g58
NtRp1175
(dp1176
g61
(dp1177
sg70
g1162
sg63
(lp1178
g56
(g57
g58
NtRp1179
(dp1180
g61
(dp1181
g69
I4
ssg70
g1175
sg63
(lp1182
g985
asbasbasbag56
(g72
g58
NtRp1183
(dp1184
g61
(dp1185
sg70
g869
sg63
(lp1186
g56
(g77
g58
NtRp1187
(dp1188
g61
(dp1189
g81
g82
ssg70
g1183
sg63
(lp1190
S'http_cookie'
p1191
asbag56
(g77
g58
NtRp1192
(dp1193
g61
(dp1194
g88
g89
ssg70
g1183
sg63
(lp1195
S':'
asbag56
(g77
g58
NtRp1196
(dp1197
g61
(dp1198
sg70
g1183
sg63
(lp1199
g56
(g57
g58
NtRp1200
(dp1201
g61
(dp1202
g69
I4
ssg70
g1196
sg63
(lp1203
S'session_id_welcome=127.0.0.1-87aa8809-1d11-453f-ae5e-3cb36c6d87a2; session_id_paideia=127.0.0.1-9e457efb-5e5f-4c70-9d24-f738011adcb8; session_id_admin=127.0.0.1-c0375232-9880-4744-9de5-1aa3f6219a5d'
p1204
asbasbasbag56
(g72
g58
NtRp1205
(dp1206
g61
(dp1207
sg70
g869
sg63
(lp1208
g56
(g77
g58
NtRp1209
(dp1210
g61
(dp1211
g81
g82
ssg70
g1205
sg63
(lp1212
S'http_host'
p1213
asbag56
(g77
g58
NtRp1214
(dp1215
g61
(dp1216
g88
g89
ssg70
g1205
sg63
(lp1217
S':'
asbag56
(g77
g58
NtRp1218
(dp1219
g61
(dp1220
sg70
g1205
sg63
(lp1221
g56
(g57
g58
NtRp1222
(dp1223
g61
(dp1224
g69
I4
ssg70
g1218
sg63
(lp1225
S'127.0.0.1:8000'
p1226
asbasbasbag56
(g72
g58
NtRp1227
(dp1228
g61
(dp1229
sg70
g869
sg63
(lp1230
g56
(g77
g58
NtRp1231
(dp1232
g61
(dp1233
g81
g82
ssg70
g1227
sg63
(lp1234
S'http_pragma'
p1235
asbag56
(g77
g58
NtRp1236
(dp1237
g61
(dp1238
g88
g89
ssg70
g1227
sg63
(lp1239
S':'
asbag56
(g77
g58
NtRp1240
(dp1241
g61
(dp1242
sg70
g1227
sg63
(lp1243
g56
(g57
g58
NtRp1244
(dp1245
g61
(dp1246
g69
I4
ssg70
g1240
sg63
(lp1247
S'no-cache'
p1248
asbasbasbag56
(g72
g58
NtRp1249
(dp1250
g61
(dp1251
sg70
g869
sg63
(lp1252
g56
(g77
g58
NtRp1253
(dp1254
g61
(dp1255
g81
g82
ssg70
g1249
sg63
(lp1256
S'http_referer'
p1257
asbag56
(g77
g58
NtRp1258
(dp1259
g61
(dp1260
g88
g89
ssg70
g1249
sg63
(lp1261
S':'
asbag56
(g77
g58
NtRp1262
(dp1263
g61
(dp1264
sg70
g1249
sg63
(lp1265
g56
(g57
g58
NtRp1266
(dp1267
g61
(dp1268
g69
I4
ssg70
g1262
sg63
(lp1269
S'http://127.0.0.1:8000/paideia/exploring/index'
p1270
asbasbasbag56
(g72
g58
NtRp1271
(dp1272
g61
(dp1273
sg70
g869
sg63
(lp1274
g56
(g77
g58
NtRp1275
(dp1276
g61
(dp1277
g81
g82
ssg70
g1271
sg63
(lp1278
S'http_user_agent'
p1279
asbag56
(g77
g58
NtRp1280
(dp1281
g61
(dp1282
g88
g89
ssg70
g1271
sg63
(lp1283
S':'
asbag56
(g77
g58
NtRp1284
(dp1285
g61
(dp1286
sg70
g1271
sg63
(lp1287
g56
(g57
g58
NtRp1288
(dp1289
g61
(dp1290
g69
I4
ssg70
g1284
sg63
(lp1291
S'Mozilla/5.0 (X11; Linux x86_64; rv:8.0) Gecko/20100101 Firefox/8.0'
p1292
asbasbasbag56
(g72
g58
NtRp1293
(dp1294
g61
(dp1295
sg70
g869
sg63
(lp1296
g56
(g77
g58
NtRp1297
(dp1298
g61
(dp1299
g81
g82
ssg70
g1293
sg63
(lp1300
S'http_web2py_component_element'
p1301
asbag56
(g77
g58
NtRp1302
(dp1303
g61
(dp1304
g88
g89
ssg70
g1293
sg63
(lp1305
S':'
asbag56
(g77
g58
NtRp1306
(dp1307
g61
(dp1308
sg70
g1293
sg63
(lp1309
g56
(g57
g58
NtRp1310
(dp1311
g61
(dp1312
g69
I4
ssg70
g1306
sg63
(lp1313
g215
asbasbasbag56
(g72
g58
NtRp1314
(dp1315
g61
(dp1316
sg70
g869
sg63
(lp1317
g56
(g77
g58
NtRp1318
(dp1319
g61
(dp1320
g81
g82
ssg70
g1314
sg63
(lp1321
S'http_web2py_component_location'
p1322
asbag56
(g77
g58
NtRp1323
(dp1324
g61
(dp1325
g88
g89
ssg70
g1314
sg63
(lp1326
S':'
asbag56
(g77
g58
NtRp1327
(dp1328
g61
(dp1329
sg70
g1314
sg63
(lp1330
g56
(g57
g58
NtRp1331
(dp1332
g61
(dp1333
g69
I4
ssg70
g1327
sg63
(lp1334
S'http://127.0.0.1:8000/paideia/exploring/index'
p1335
asbasbasbag56
(g72
g58
NtRp1336
(dp1337
g61
(dp1338
sg70
g869
sg63
(lp1339
g56
(g77
g58
NtRp1340
(dp1341
g61
(dp1342
g81
g82
ssg70
g1336
sg63
(lp1343
S'http_x_requested_with'
p1344
asbag56
(g77
g58
NtRp1345
(dp1346
g61
(dp1347
g88
g89
ssg70
g1336
sg63
(lp1348
S':'
asbag56
(g77
g58
NtRp1349
(dp1350
g61
(dp1351
sg70
g1336
sg63
(lp1352
g56
(g57
g58
NtRp1353
(dp1354
g61
(dp1355
g69
I4
ssg70
g1349
sg63
(lp1356
S'XMLHttpRequest'
p1357
asbasbasbag56
(g72
g58
NtRp1358
(dp1359
g61
(dp1360
sg70
g869
sg63
(lp1361
g56
(g77
g58
NtRp1362
(dp1363
g61
(dp1364
g81
g82
ssg70
g1358
sg63
(lp1365
S'is_jython'
p1366
asbag56
(g77
g58
NtRp1367
(dp1368
g61
(dp1369
g88
g89
ssg70
g1358
sg63
(lp1370
S':'
asbag56
(g77
g58
NtRp1371
(dp1372
g61
(dp1373
sg70
g1358
sg63
(lp1374
g56
(g57
g58
NtRp1375
(dp1376
g61
(dp1377
g69
I4
ssg70
g1371
sg63
(lp1378
g1029
asbasbasbag56
(g72
g58
NtRp1379
(dp1380
g61
(dp1381
sg70
g869
sg63
(lp1382
g56
(g77
g58
NtRp1383
(dp1384
g61
(dp1385
g81
g82
ssg70
g1379
sg63
(lp1386
S'path_info'
p1387
asbag56
(g77
g58
NtRp1388
(dp1389
g61
(dp1390
g88
g89
ssg70
g1379
sg63
(lp1391
S':'
asbag56
(g77
g58
NtRp1392
(dp1393
g61
(dp1394
sg70
g1379
sg63
(lp1395
g56
(g57
g58
NtRp1396
(dp1397
g61
(dp1398
g69
I4
ssg70
g1392
sg63
(lp1399
S'/paideia/exploring/index.load/error/regex'
p1400
asbasbasbag56
(g72
g58
NtRp1401
(dp1402
g61
(dp1403
sg70
g869
sg63
(lp1404
g56
(g77
g58
NtRp1405
(dp1406
g61
(dp1407
g81
g82
ssg70
g1401
sg63
(lp1408
S'query_string'
p1409
asbag56
(g77
g58
NtRp1410
(dp1411
g61
(dp1412
g88
g89
ssg70
g1401
sg63
(lp1413
S':'
asbag56
(g77
g58
NtRp1414
(dp1415
g61
(dp1416
sg70
g1401
sg63
(lp1417
g56
(g57
g58
NtRp1418
(dp1419
g61
(dp1420
g69
I4
ssg70
g1414
sg63
(lp1421
S''
asbasbasbag56
(g72
g58
NtRp1422
(dp1423
g61
(dp1424
sg70
g869
sg63
(lp1425
g56
(g77
g58
NtRp1426
(dp1427
g61
(dp1428
g81
g82
ssg70
g1422
sg63
(lp1429
S'remote_addr'
p1430
asbag56
(g77
g58
NtRp1431
(dp1432
g61
(dp1433
g88
g89
ssg70
g1422
sg63
(lp1434
S':'
asbag56
(g77
g58
NtRp1435
(dp1436
g61
(dp1437
sg70
g1422
sg63
(lp1438
g56
(g57
g58
NtRp1439
(dp1440
g61
(dp1441
g69
I4
ssg70
g1435
sg63
(lp1442
g237
asbasbasbag56
(g72
g58
NtRp1443
(dp1444
g61
(dp1445
sg70
g869
sg63
(lp1446
g56
(g77
g58
NtRp1447
(dp1448
g61
(dp1449
g81
g82
ssg70
g1443
sg63
(lp1450
S'remote_port'
p1451
asbag56
(g77
g58
NtRp1452
(dp1453
g61
(dp1454
g88
g89
ssg70
g1443
sg63
(lp1455
S':'
asbag56
(g77
g58
NtRp1456
(dp1457
g61
(dp1458
sg70
g1443
sg63
(lp1459
g56
(g57
g58
NtRp1460
(dp1461
g61
(dp1462
g69
I4
ssg70
g1456
sg63
(lp1463
S'39176'
p1464
asbasbasbag56
(g72
g58
NtRp1465
(dp1466
g61
(dp1467
sg70
g869
sg63
(lp1468
g56
(g77
g58
NtRp1469
(dp1470
g61
(dp1471
g81
g82
ssg70
g1465
sg63
(lp1472
S'request_method'
p1473
asbag56
(g77
g58
NtRp1474
(dp1475
g61
(dp1476
g88
g89
ssg70
g1465
sg63
(lp1477
S':'
asbag56
(g77
g58
NtRp1478
(dp1479
g61
(dp1480
sg70
g1465
sg63
(lp1481
g56
(g57
g58
NtRp1482
(dp1483
g61
(dp1484
g69
I4
ssg70
g1478
sg63
(lp1485
S'GET'
p1486
asbasbasbag56
(g72
g58
NtRp1487
(dp1488
g61
(dp1489
sg70
g869
sg63
(lp1490
g56
(g77
g58
NtRp1491
(dp1492
g61
(dp1493
g81
g82
ssg70
g1487
sg63
(lp1494
S'script_name'
p1495
asbag56
(g77
g58
NtRp1496
(dp1497
g61
(dp1498
g88
g89
ssg70
g1487
sg63
(lp1499
S':'
asbag56
(g77
g58
NtRp1500
(dp1501
g61
(dp1502
sg70
g1487
sg63
(lp1503
g56
(g57
g58
NtRp1504
(dp1505
g61
(dp1506
g69
I4
ssg70
g1500
sg63
(lp1507
S''
asbasbasbag56
(g72
g58
NtRp1508
(dp1509
g61
(dp1510
sg70
g869
sg63
(lp1511
g56
(g77
g58
NtRp1512
(dp1513
g61
(dp1514
g81
g82
ssg70
g1508
sg63
(lp1515
S'server_name'
p1516
asbag56
(g77
g58
NtRp1517
(dp1518
g61
(dp1519
g88
g89
ssg70
g1508
sg63
(lp1520
S':'
asbag56
(g77
g58
NtRp1521
(dp1522
g61
(dp1523
sg70
g1508
sg63
(lp1524
g56
(g57
g58
NtRp1525
(dp1526
g61
(dp1527
g69
I4
ssg70
g1521
sg63
(lp1528
S'uriel'
p1529
asbasbasbag56
(g72
g58
NtRp1530
(dp1531
g61
(dp1532
sg70
g869
sg63
(lp1533
g56
(g77
g58
NtRp1534
(dp1535
g61
(dp1536
g81
g82
ssg70
g1530
sg63
(lp1537
S'server_port'
p1538
asbag56
(g77
g58
NtRp1539
(dp1540
g61
(dp1541
g88
g89
ssg70
g1530
sg63
(lp1542
S':'
asbag56
(g77
g58
NtRp1543
(dp1544
g61
(dp1545
sg70
g1530
sg63
(lp1546
g56
(g57
g58
NtRp1547
(dp1548
g61
(dp1549
g69
I4
ssg70
g1543
sg63
(lp1550
S'8000'
p1551
asbasbasbag56
(g72
g58
NtRp1552
(dp1553
g61
(dp1554
sg70
g869
sg63
(lp1555
g56
(g77
g58
NtRp1556
(dp1557
g61
(dp1558
g81
g82
ssg70
g1552
sg63
(lp1559
S'server_protocol'
p1560
asbag56
(g77
g58
NtRp1561
(dp1562
g61
(dp1563
g88
g89
ssg70
g1552
sg63
(lp1564
S':'
asbag56
(g77
g58
NtRp1565
(dp1566
g61
(dp1567
sg70
g1552
sg63
(lp1568
g56
(g57
g58
NtRp1569
(dp1570
g61
(dp1571
g69
I4
ssg70
g1565
sg63
(lp1572
S'HTTP/1.1'
p1573
asbasbasbag56
(g72
g58
NtRp1574
(dp1575
g61
(dp1576
sg70
g869
sg63
(lp1577
g56
(g77
g58
NtRp1578
(dp1579
g61
(dp1580
g81
g82
ssg70
g1574
sg63
(lp1581
S'server_software'
p1582
asbag56
(g77
g58
NtRp1583
(dp1584
g61
(dp1585
g88
g89
ssg70
g1574
sg63
(lp1586
S':'
asbag56
(g77
g58
NtRp1587
(dp1588
g61
(dp1589
sg70
g1574
sg63
(lp1590
g56
(g57
g58
NtRp1591
(dp1592
g61
(dp1593
g69
I4
ssg70
g1587
sg63
(lp1594
S'Rocket 1.2.4'
p1595
asbasbasbag56
(g72
g58
NtRp1596
(dp1597
g61
(dp1598
sg70
g869
sg63
(lp1599
g56
(g77
g58
NtRp1600
(dp1601
g61
(dp1602
g81
g82
ssg70
g1596
sg63
(lp1603
S'web2py_crontype'
p1604
asbag56
(g77
g58
NtRp1605
(dp1606
g61
(dp1607
g88
g89
ssg70
g1596
sg63
(lp1608
S':'
asbag56
(g77
g58
NtRp1609
(dp1610
g61
(dp1611
sg70
g1596
sg63
(lp1612
g56
(g57
g58
NtRp1613
(dp1614
g61
(dp1615
g69
I4
ssg70
g1609
sg63
(lp1616
S'hard'
p1617
asbasbasbag56
(g72
g58
NtRp1618
(dp1619
g61
(dp1620
sg70
g869
sg63
(lp1621
g56
(g77
g58
NtRp1622
(dp1623
g61
(dp1624
g81
g82
ssg70
g1618
sg63
(lp1625
S'web2py_path'
p1626
asbag56
(g77
g58
NtRp1627
(dp1628
g61
(dp1629
g88
g89
ssg70
g1618
sg63
(lp1630
S':'
asbag56
(g77
g58
NtRp1631
(dp1632
g61
(dp1633
sg70
g1618
sg63
(lp1634
g56
(g57
g58
NtRp1635
(dp1636
g61
(dp1637
g69
I4
ssg70
g1631
sg63
(lp1638
g916
asbasbasbag56
(g72
g58
NtRp1639
(dp1640
g61
(dp1641
sg70
g869
sg63
(lp1642
g56
(g77
g58
NtRp1643
(dp1644
g61
(dp1645
g81
g82
ssg70
g1639
sg63
(lp1646
S'web2py_version'
p1647
asbag56
(g77
g58
NtRp1648
(dp1649
g61
(dp1650
g88
g89
ssg70
g1639
sg63
(lp1651
S':'
asbag56
(g77
g58
NtRp1652
(dp1653
g61
(dp1654
sg70
g1639
sg63
(lp1655
g56
(g57
g58
NtRp1656
(dp1657
g61
(dp1658
g69
I4
ssg70
g1652
sg63
(lp1659
g56
(g65
g58
NtRp1660
(dp1661
g61
(dp1662
g69
I3
ssg70
Nsg63
(lp1663
g56
(g72
g58
NtRp1664
(dp1665
g61
(dp1666
sg70
g1660
sg63
(lp1667
g56
(g77
g58
NtRp1668
(dp1669
g61
(dp1670
sg70
g1664
sg63
(lp1671
g56
(g57
g58
NtRp1672
(dp1673
g61
(dp1674
g69
I3
ssg70
g1668
sg63
(lp1675
S'1'
asbasbasbag56
(g72
g58
NtRp1676
(dp1677
g61
(dp1678
sg70
g1660
sg63
(lp1679
g56
(g77
g58
NtRp1680
(dp1681
g61
(dp1682
sg70
g1676
sg63
(lp1683
g56
(g57
g58
NtRp1684
(dp1685
g61
(dp1686
g69
I3
ssg70
g1680
sg63
(lp1687
S'99'
p1688
asbasbasbag56
(g72
g58
NtRp1689
(dp1690
g61
(dp1691
sg70
g1660
sg63
(lp1692
g56
(g77
g58
NtRp1693
(dp1694
g61
(dp1695
sg70
g1689
sg63
(lp1696
g56
(g57
g58
NtRp1697
(dp1698
g61
(dp1699
g69
I3
ssg70
g1693
sg63
(lp1700
S'2'
asbasbasbag56
(g72
g58
NtRp1701
(dp1702
g61
(dp1703
sg70
g1660
sg63
(lp1704
g56
(g77
g58
NtRp1705
(dp1706
g61
(dp1707
sg70
g1701
sg63
(lp1708
g56
(g57
g58
NtRp1709
(dp1710
g61
(dp1711
g69
I3
ssg70
g1705
sg63
(lp1712
S'datetime.datetime(2011, 9, 26, 6, 55, 33)'
p1713
asbasbasbag56
(g72
g58
NtRp1714
(dp1715
g61
(dp1716
sg70
g1660
sg63
(lp1717
g56
(g77
g58
NtRp1718
(dp1719
g61
(dp1720
sg70
g1714
sg63
(lp1721
g56
(g57
g58
NtRp1722
(dp1723
g61
(dp1724
g69
I3
ssg70
g1718
sg63
(lp1725
S'stable'
p1726
asbasbasbasbasbasbasbag56
(g72
g58
NtRp1727
(dp1728
g61
(dp1729
sg70
g869
sg63
(lp1730
g56
(g77
g58
NtRp1731
(dp1732
g61
(dp1733
g81
g82
ssg70
g1727
sg63
(lp1734
S'wsgi_errors'
p1735
asbag56
(g77
g58
NtRp1736
(dp1737
g61
(dp1738
g88
g89
ssg70
g1727
sg63
(lp1739
S':'
asbag56
(g77
g58
NtRp1740
(dp1741
g61
(dp1742
sg70
g1727
sg63
(lp1743
g56
(g57
g58
NtRp1744
(dp1745
g61
(dp1746
g69
I4
ssg70
g1740
sg63
(lp1747
S"<open file '<stderr>', mode 'w' at 0x7f456b0c3270>"
p1748
asbasbasbag56
(g72
g58
NtRp1749
(dp1750
g61
(dp1751
sg70
g869
sg63
(lp1752
g56
(g77
g58
NtRp1753
(dp1754
g61
(dp1755
g81
g82
ssg70
g1749
sg63
(lp1756
S'wsgi_file_wrapper'
p1757
asbag56
(g77
g58
NtRp1758
(dp1759
g61
(dp1760
g88
g89
ssg70
g1749
sg63
(lp1761
S':'
asbag56
(g77
g58
NtRp1762
(dp1763
g61
(dp1764
sg70
g1749
sg63
(lp1765
g56
(g57
g58
NtRp1766
(dp1767
g61
(dp1768
g69
I4
ssg70
g1762
sg63
(lp1769
S'<class wsgiref.util.FileWrapper at 0x19d4870>'
p1770
asbasbasbag56
(g72
g58
NtRp1771
(dp1772
g61
(dp1773
sg70
g869
sg63
(lp1774
g56
(g77
g58
NtRp1775
(dp1776
g61
(dp1777
g81
g82
ssg70
g1771
sg63
(lp1778
S'wsgi_input'
p1779
asbag56
(g77
g58
NtRp1780
(dp1781
g61
(dp1782
g88
g89
ssg70
g1771
sg63
(lp1783
S':'
asbag56
(g77
g58
NtRp1784
(dp1785
g61
(dp1786
sg70
g1771
sg63
(lp1787
g56
(g57
g58
NtRp1788
(dp1789
g61
(dp1790
g69
I4
ssg70
g1784
sg63
(lp1791
S'<socket._fileobject object at 0x28fbed0>'
p1792
asbasbasbag56
(g72
g58
NtRp1793
(dp1794
g61
(dp1795
sg70
g869
sg63
(lp1796
g56
(g77
g58
NtRp1797
(dp1798
g61
(dp1799
g81
g82
ssg70
g1793
sg63
(lp1800
S'wsgi_multiprocess'
p1801
asbag56
(g77
g58
NtRp1802
(dp1803
g61
(dp1804
g88
g89
ssg70
g1793
sg63
(lp1805
S':'
asbag56
(g77
g58
NtRp1806
(dp1807
g61
(dp1808
sg70
g1793
sg63
(lp1809
g56
(g57
g58
NtRp1810
(dp1811
g61
(dp1812
g69
I4
ssg70
g1806
sg63
(lp1813
g1029
asbasbasbag56
(g72
g58
NtRp1814
(dp1815
g61
(dp1816
sg70
g869
sg63
(lp1817
g56
(g77
g58
NtRp1818
(dp1819
g61
(dp1820
g81
g82
ssg70
g1814
sg63
(lp1821
S'wsgi_multithread'
p1822
asbag56
(g77
g58
NtRp1823
(dp1824
g61
(dp1825
g88
g89
ssg70
g1814
sg63
(lp1826
S':'
asbag56
(g77
g58
NtRp1827
(dp1828
g61
(dp1829
sg70
g1814
sg63
(lp1830
g56
(g57
g58
NtRp1831
(dp1832
g61
(dp1833
g69
I4
ssg70
g1827
sg63
(lp1834
g99
asbasbasbag56
(g72
g58
NtRp1835
(dp1836
g61
(dp1837
sg70
g869
sg63
(lp1838
g56
(g77
g58
NtRp1839
(dp1840
g61
(dp1841
g81
g82
ssg70
g1835
sg63
(lp1842
S'wsgi_run_once'
p1843
asbag56
(g77
g58
NtRp1844
(dp1845
g61
(dp1846
g88
g89
ssg70
g1835
sg63
(lp1847
S':'
asbag56
(g77
g58
NtRp1848
(dp1849
g61
(dp1850
sg70
g1835
sg63
(lp1851
g56
(g57
g58
NtRp1852
(dp1853
g61
(dp1854
g69
I4
ssg70
g1848
sg63
(lp1855
g1029
asbasbasbag56
(g72
g58
NtRp1856
(dp1857
g61
(dp1858
sg70
g869
sg63
(lp1859
g56
(g77
g58
NtRp1860
(dp1861
g61
(dp1862
g81
g82
ssg70
g1856
sg63
(lp1863
S'wsgi_url_scheme'
p1864
asbag56
(g77
g58
NtRp1865
(dp1866
g61
(dp1867
g88
g89
ssg70
g1856
sg63
(lp1868
S':'
asbag56
(g77
g58
NtRp1869
(dp1870
g61
(dp1871
sg70
g1856
sg63
(lp1872
g56
(g57
g58
NtRp1873
(dp1874
g61
(dp1875
g69
I4
ssg70
g1869
sg63
(lp1876
S'http'
p1877
asbasbasbag56
(g72
g58
NtRp1878
(dp1879
g61
(dp1880
sg70
g869
sg63
(lp1881
g56
(g77
g58
NtRp1882
(dp1883
g61
(dp1884
g81
g82
ssg70
g1878
sg63
(lp1885
S'wsgi_version'
p1886
asbag56
(g77
g58
NtRp1887
(dp1888
g61
(dp1889
g88
g89
ssg70
g1878
sg63
(lp1890
S':'
asbag56
(g77
g58
NtRp1891
(dp1892
g61
(dp1893
sg70
g1878
sg63
(lp1894
g56
(g57
g58
NtRp1895
(dp1896
g61
(dp1897
g69
I4
ssg70
g1891
sg63
(lp1898
g56
(g65
g58
NtRp1899
(dp1900
g61
(dp1901
g69
I3
ssg70
Nsg63
(lp1902
g56
(g72
g58
NtRp1903
(dp1904
g61
(dp1905
sg70
g1899
sg63
(lp1906
g56
(g77
g58
NtRp1907
(dp1908
g61
(dp1909
sg70
g1903
sg63
(lp1910
g56
(g57
g58
NtRp1911
(dp1912
g61
(dp1913
g69
I3
ssg70
g1907
sg63
(lp1914
S'1'
asbasbasbag56
(g72
g58
NtRp1915
(dp1916
g61
(dp1917
sg70
g1899
sg63
(lp1918
g56
(g77
g58
NtRp1919
(dp1920
g61
(dp1921
sg70
g1915
sg63
(lp1922
g56
(g57
g58
NtRp1923
(dp1924
g61
(dp1925
g69
I3
ssg70
g1919
sg63
(lp1926
S'0'
asbasbasbasbasbasbasbasbasbasbasbag56
(g72
g58
NtRp1927
(dp1928
g61
(dp1929
sg70
g66
sg63
(lp1930
g56
(g77
g58
NtRp1931
(dp1932
g61
(dp1933
g81
g82
ssg70
g1927
sg63
(lp1934
S'extension'
p1935
asbag56
(g77
g58
NtRp1936
(dp1937
g61
(dp1938
g88
g89
ssg70
g1927
sg63
(lp1939
S':'
asbag56
(g77
g58
NtRp1940
(dp1941
g61
(dp1942
sg70
g1927
sg63
(lp1943
g56
(g57
g58
NtRp1944
(dp1945
g61
(dp1946
g69
I5
ssg70
g1940
sg63
(lp1947
S'load'
p1948
asbasbasbag56
(g72
g58
NtRp1949
(dp1950
g61
(dp1951
sg70
g66
sg63
(lp1952
g56
(g77
g58
NtRp1953
(dp1954
g61
(dp1955
g81
g82
ssg70
g1949
sg63
(lp1956
S'folder'
p1957
asbag56
(g77
g58
NtRp1958
(dp1959
g61
(dp1960
g88
g89
ssg70
g1949
sg63
(lp1961
S':'
asbag56
(g77
g58
NtRp1962
(dp1963
g61
(dp1964
sg70
g1949
sg63
(lp1965
g56
(g57
g58
NtRp1966
(dp1967
g61
(dp1968
g69
I5
ssg70
g1962
sg63
(lp1969
S'/home/ian/web2py/applications/paideia/'
p1970
asbasbasbag56
(g72
g58
NtRp1971
(dp1972
g61
(dp1973
sg70
g66
sg63
(lp1974
g56
(g77
g58
NtRp1975
(dp1976
g61
(dp1977
g81
g82
ssg70
g1971
sg63
(lp1978
S'function'
p1979
asbag56
(g77
g58
NtRp1980
(dp1981
g61
(dp1982
g88
g89
ssg70
g1971
sg63
(lp1983
S':'
asbag56
(g77
g58
NtRp1984
(dp1985
g61
(dp1986
sg70
g1971
sg63
(lp1987
g56
(g57
g58
NtRp1988
(dp1989
g61
(dp1990
g69
I5
ssg70
g1984
sg63
(lp1991
S'index'
p1992
asbasbasbag56
(g72
g58
NtRp1993
(dp1994
g61
(dp1995
sg70
g66
sg63
(lp1996
g56
(g77
g58
NtRp1997
(dp1998
g61
(dp1999
g81
g82
ssg70
g1993
sg63
(lp2000
S'get_vars'
p2001
asbag56
(g77
g58
NtRp2002
(dp2003
g61
(dp2004
g88
g89
ssg70
g1993
sg63
(lp2005
S':'
asbag56
(g77
g58
NtRp2006
(dp2007
g61
(dp2008
sg70
g1993
sg63
(lp2009
g56
(g57
g58
NtRp2010
(dp2011
g61
(dp2012
g69
I5
ssg70
g2006
sg63
(lp2013
g56
(g65
g58
NtRp2014
(dp2015
g61
(dp2016
g69
I4
ssg70
Nsg63
(lp2017
sbasbasbasbag56
(g72
g58
NtRp2018
(dp2019
g61
(dp2020
sg70
g66
sg63
(lp2021
g56
(g77
g58
NtRp2022
(dp2023
g61
(dp2024
g81
g82
ssg70
g2018
sg63
(lp2025
S'global_settings'
p2026
asbag56
(g77
g58
NtRp2027
(dp2028
g61
(dp2029
g88
g89
ssg70
g2018
sg63
(lp2030
S':'
asbag56
(g77
g58
NtRp2031
(dp2032
g61
(dp2033
sg70
g2018
sg63
(lp2034
g56
(g57
g58
NtRp2035
(dp2036
g61
(dp2037
g69
I5
ssg70
g2031
sg63
(lp2038
g56
(g65
g58
NtRp2039
(dp2040
g61
(dp2041
g69
I4
ssg70
Nsg63
(lp2042
g56
(g72
g58
NtRp2043
(dp2044
g61
(dp2045
sg70
g2039
sg63
(lp2046
g56
(g77
g58
NtRp2047
(dp2048
g61
(dp2049
g81
g82
ssg70
g2043
sg63
(lp2050
g881
asbag56
(g77
g58
NtRp2051
(dp2052
g61
(dp2053
g88
g89
ssg70
g2043
sg63
(lp2054
S':'
asbag56
(g77
g58
NtRp2055
(dp2056
g61
(dp2057
sg70
g2043
sg63
(lp2058
g56
(g57
g58
NtRp2059
(dp2060
g61
(dp2061
g69
I4
ssg70
g2055
sg63
(lp2062
S"set(['/home/ian/web2py/applications/welcome/', '/home/ian/web2py/applications/paideia/', '/home/ian/web2py/applications/admin/'])"
p2063
asbasbasbag56
(g72
g58
NtRp2064
(dp2065
g61
(dp2066
sg70
g2039
sg63
(lp2067
g56
(g77
g58
NtRp2068
(dp2069
g61
(dp2070
g81
g82
ssg70
g2064
sg63
(lp2071
g903
asbag56
(g77
g58
NtRp2072
(dp2073
g61
(dp2074
g88
g89
ssg70
g2064
sg63
(lp2075
S':'
asbag56
(g77
g58
NtRp2076
(dp2077
g61
(dp2078
sg70
g2064
sg63
(lp2079
g56
(g57
g58
NtRp2080
(dp2081
g61
(dp2082
g69
I4
ssg70
g2076
sg63
(lp2083
g916
asbasbasbag56
(g72
g58
NtRp2084
(dp2085
g61
(dp2086
sg70
g2039
sg63
(lp2087
g56
(g77
g58
NtRp2088
(dp2089
g61
(dp2090
g81
g82
ssg70
g2084
sg63
(lp2091
g925
asbag56
(g77
g58
NtRp2092
(dp2093
g61
(dp2094
g88
g89
ssg70
g2084
sg63
(lp2095
S':'
asbag56
(g77
g58
NtRp2096
(dp2097
g61
(dp2098
sg70
g2084
sg63
(lp2099
g56
(g57
g58
NtRp2100
(dp2101
g61
(dp2102
g69
I4
ssg70
g2096
sg63
(lp2103
g56
(g65
g58
NtRp2104
(dp2105
g61
(dp2106
g69
I3
ssg70
Nsg63
(lp2107
sbasbasbasbag56
(g72
g58
NtRp2108
(dp2109
g61
(dp2110
sg70
g2039
sg63
(lp2111
g56
(g77
g58
NtRp2112
(dp2113
g61
(dp2114
g81
g82
ssg70
g2108
sg63
(lp2115
g950
asbag56
(g77
g58
NtRp2116
(dp2117
g61
(dp2118
g88
g89
ssg70
g2108
sg63
(lp2119
S':'
asbag56
(g77
g58
NtRp2120
(dp2121
g61
(dp2122
sg70
g2108
sg63
(lp2123
g56
(g57
g58
NtRp2124
(dp2125
g61
(dp2126
g69
I4
ssg70
g2120
sg63
(lp2127
S"<Values at 0x1b0a758: {'verbose': False, 'ip': '127.0.0.1', 'shutdown_timeout': 5, 'taskbar': False, 'nocron': False, 'pid_filename': 'httpserver.pid', 'maxthreads': None, 'softcron': False, 'server_name': 'uriel', 'bpython': False, 'nogui': False, 'port': 8000, 'extcron': False, 'debuglevel': 30, 'test': None, 'folder': '/home/ian/web2py', 'config': '', 'import_models': False, 'winservice': '', 'shell': None, 'run': '', 'log_filename': 'httpserver.log', 'args': [''], 'ssl_ca_certificate': None, 'scheduler': None, 'profiler_filename': None, 'ssl_private_key': '', 'password': '<ask>', 'request_queue_size': 5, 'ssl_certificate': '', 'cronjob': False, 'plain': False, 'quiet': False, 'interfaces': None, 'minthreads': None, 'timeout': 10, 'numthreads': None, 'nobanner': False}>"
p2128
asbasbasbag56
(g72
g58
NtRp2129
(dp2130
g61
(dp2131
sg70
g2039
sg63
(lp2132
g56
(g77
g58
NtRp2133
(dp2134
g61
(dp2135
g81
g82
ssg70
g2129
sg63
(lp2136
g994
asbag56
(g77
g58
NtRp2137
(dp2138
g61
(dp2139
g88
g89
ssg70
g2129
sg63
(lp2140
S':'
asbag56
(g77
g58
NtRp2141
(dp2142
g61
(dp2143
sg70
g2129
sg63
(lp2144
g56
(g57
g58
NtRp2145
(dp2146
g61
(dp2147
g69
I4
ssg70
g2141
sg63
(lp2148
S'set([])'
p2149
asbasbasbag56
(g72
g58
NtRp2150
(dp2151
g61
(dp2152
sg70
g2039
sg63
(lp2153
g56
(g77
g58
NtRp2154
(dp2155
g61
(dp2156
g81
g82
ssg70
g2150
sg63
(lp2157
g1016
asbag56
(g77
g58
NtRp2158
(dp2159
g61
(dp2160
g88
g89
ssg70
g2150
sg63
(lp2161
S':'
asbag56
(g77
g58
NtRp2162
(dp2163
g61
(dp2164
sg70
g2150
sg63
(lp2165
g56
(g57
g58
NtRp2166
(dp2167
g61
(dp2168
g69
I4
ssg70
g2162
sg63
(lp2169
g1029
asbasbasbag56
(g72
g58
NtRp2170
(dp2171
g61
(dp2172
sg70
g2039
sg63
(lp2173
g56
(g77
g58
NtRp2174
(dp2175
g61
(dp2176
g81
g82
ssg70
g2170
sg63
(lp2177
g1038
asbag56
(g77
g58
NtRp2178
(dp2179
g61
(dp2180
g88
g89
ssg70
g2170
sg63
(lp2181
S':'
asbag56
(g77
g58
NtRp2182
(dp2183
g61
(dp2184
sg70
g2170
sg63
(lp2185
g56
(g57
g58
NtRp2186
(dp2187
g61
(dp2188
g69
I4
ssg70
g2182
sg63
(lp2189
g1051
asbasbasbag56
(g72
g58
NtRp2190
(dp2191
g61
(dp2192
sg70
g2039
sg63
(lp2193
g56
(g77
g58
NtRp2194
(dp2195
g61
(dp2196
g81
g82
ssg70
g2190
sg63
(lp2197
g1366
asbag56
(g77
g58
NtRp2198
(dp2199
g61
(dp2200
g88
g89
ssg70
g2190
sg63
(lp2201
S':'
asbag56
(g77
g58
NtRp2202
(dp2203
g61
(dp2204
sg70
g2190
sg63
(lp2205
g56
(g57
g58
NtRp2206
(dp2207
g61
(dp2208
g69
I4
ssg70
g2202
sg63
(lp2209
g1029
asbasbasbag56
(g72
g58
NtRp2210
(dp2211
g61
(dp2212
sg70
g2039
sg63
(lp2213
g56
(g77
g58
NtRp2214
(dp2215
g61
(dp2216
g81
g82
ssg70
g2210
sg63
(lp2217
g1604
asbag56
(g77
g58
NtRp2218
(dp2219
g61
(dp2220
g88
g89
ssg70
g2210
sg63
(lp2221
S':'
asbag56
(g77
g58
NtRp2222
(dp2223
g61
(dp2224
sg70
g2210
sg63
(lp2225
g56
(g57
g58
NtRp2226
(dp2227
g61
(dp2228
g69
I4
ssg70
g2222
sg63
(lp2229
g1617
asbasbasbag56
(g72
g58
NtRp2230
(dp2231
g61
(dp2232
sg70
g2039
sg63
(lp2233
g56
(g77
g58
NtRp2234
(dp2235
g61
(dp2236
g81
g82
ssg70
g2230
sg63
(lp2237
g1647
asbag56
(g77
g58
NtRp2238
(dp2239
g61
(dp2240
g88
g89
ssg70
g2230
sg63
(lp2241
S':'
asbag56
(g77
g58
NtRp2242
(dp2243
g61
(dp2244
sg70
g2230
sg63
(lp2245
g56
(g57
g58
NtRp2246
(dp2247
g61
(dp2248
g69
I4
ssg70
g2242
sg63
(lp2249
g56
(g65
g58
NtRp2250
(dp2251
g61
(dp2252
g69
I3
ssg70
Nsg63
(lp2253
g56
(g72
g58
NtRp2254
(dp2255
g61
(dp2256
sg70
g2250
sg63
(lp2257
g56
(g77
g58
NtRp2258
(dp2259
g61
(dp2260
sg70
g2254
sg63
(lp2261
g56
(g57
g58
NtRp2262
(dp2263
g61
(dp2264
g69
I3
ssg70
g2258
sg63
(lp2265
S'1'
asbasbasbag56
(g72
g58
NtRp2266
(dp2267
g61
(dp2268
sg70
g2250
sg63
(lp2269
g56
(g77
g58
NtRp2270
(dp2271
g61
(dp2272
sg70
g2266
sg63
(lp2273
g56
(g57
g58
NtRp2274
(dp2275
g61
(dp2276
g69
I3
ssg70
g2270
sg63
(lp2277
S'99'
p2278
asbasbasbag56
(g72
g58
NtRp2279
(dp2280
g61
(dp2281
sg70
g2250
sg63
(lp2282
g56
(g77
g58
NtRp2283
(dp2284
g61
(dp2285
sg70
g2279
sg63
(lp2286
g56
(g57
g58
NtRp2287
(dp2288
g61
(dp2289
g69
I3
ssg70
g2283
sg63
(lp2290
S'2'
asbasbasbag56
(g72
g58
NtRp2291
(dp2292
g61
(dp2293
sg70
g2250
sg63
(lp2294
g56
(g77
g58
NtRp2295
(dp2296
g61
(dp2297
sg70
g2291
sg63
(lp2298
g56
(g57
g58
NtRp2299
(dp2300
g61
(dp2301
g69
I3
ssg70
g2295
sg63
(lp2302
S'datetime.datetime(2011, 9, 26, 6, 55, 33)'
p2303
asbasbasbag56
(g72
g58
NtRp2304
(dp2305
g61
(dp2306
sg70
g2250
sg63
(lp2307
g56
(g77
g58
NtRp2308
(dp2309
g61
(dp2310
sg70
g2304
sg63
(lp2311
g56
(g57
g58
NtRp2312
(dp2313
g61
(dp2314
g69
I3
ssg70
g2308
sg63
(lp2315
g1726
asbasbasbasbasbasbasbasbasbasbasbag56
(g72
g58
NtRp2316
(dp2317
g61
(dp2318
sg70
g66
sg63
(lp2319
g56
(g77
g58
NtRp2320
(dp2321
g61
(dp2322
g81
g82
ssg70
g2316
sg63
(lp2323
S'is_https'
p2324
asbag56
(g77
g58
NtRp2325
(dp2326
g61
(dp2327
g88
g89
ssg70
g2316
sg63
(lp2328
S':'
asbag56
(g77
g58
NtRp2329
(dp2330
g61
(dp2331
sg70
g2316
sg63
(lp2332
g56
(g57
g58
NtRp2333
(dp2334
g61
(dp2335
g69
I5
ssg70
g2329
sg63
(lp2336
g1029
asbasbasbag56
(g72
g58
NtRp2337
(dp2338
g61
(dp2339
sg70
g66
sg63
(lp2340
g56
(g77
g58
NtRp2341
(dp2342
g61
(dp2343
g81
g82
ssg70
g2337
sg63
(lp2344
S'is_local'
p2345
asbag56
(g77
g58
NtRp2346
(dp2347
g61
(dp2348
g88
g89
ssg70
g2337
sg63
(lp2349
S':'
asbag56
(g77
g58
NtRp2350
(dp2351
g61
(dp2352
sg70
g2337
sg63
(lp2353
g56
(g57
g58
NtRp2354
(dp2355
g61
(dp2356
g69
I5
ssg70
g2350
sg63
(lp2357
g99
asbasbasbag56
(g72
g58
NtRp2358
(dp2359
g61
(dp2360
sg70
g66
sg63
(lp2361
g56
(g77
g58
NtRp2362
(dp2363
g61
(dp2364
g81
g82
ssg70
g2358
sg63
(lp2365
S'is_restful'
p2366
asbag56
(g77
g58
NtRp2367
(dp2368
g61
(dp2369
g88
g89
ssg70
g2358
sg63
(lp2370
S':'
asbag56
(g77
g58
NtRp2371
(dp2372
g61
(dp2373
sg70
g2358
sg63
(lp2374
g56
(g57
g58
NtRp2375
(dp2376
g61
(dp2377
g69
I5
ssg70
g2371
sg63
(lp2378
g1029
asbasbasbag56
(g72
g58
NtRp2379
(dp2380
g61
(dp2381
sg70
g66
sg63
(lp2382
g56
(g77
g58
NtRp2383
(dp2384
g61
(dp2385
g81
g82
ssg70
g2379
sg63
(lp2386
S'now'
p2387
asbag56
(g77
g58
NtRp2388
(dp2389
g61
(dp2390
g88
g89
ssg70
g2379
sg63
(lp2391
S':'
asbag56
(g77
g58
NtRp2392
(dp2393
g61
(dp2394
sg70
g2379
sg63
(lp2395
g56
(g57
g58
NtRp2396
(dp2397
g61
(dp2398
g69
I5
ssg70
g2392
sg63
(lp2399
S'datetime.datetime(2011, 10, 21, 15, 45, 3, 839487)'
p2400
asbasbasbag56
(g72
g58
NtRp2401
(dp2402
g61
(dp2403
sg70
g66
sg63
(lp2404
g56
(g77
g58
NtRp2405
(dp2406
g61
(dp2407
g81
g82
ssg70
g2401
sg63
(lp2408
S'post_vars'
p2409
asbag56
(g77
g58
NtRp2410
(dp2411
g61
(dp2412
g88
g89
ssg70
g2401
sg63
(lp2413
S':'
asbag56
(g77
g58
NtRp2414
(dp2415
g61
(dp2416
sg70
g2401
sg63
(lp2417
g56
(g57
g58
NtRp2418
(dp2419
g61
(dp2420
g69
I5
ssg70
g2414
sg63
(lp2421
g56
(g65
g58
NtRp2422
(dp2423
g61
(dp2424
g69
I4
ssg70
Nsg63
(lp2425
sbasbasbasbag56
(g72
g58
NtRp2426
(dp2427
g61
(dp2428
sg70
g66
sg63
(lp2429
g56
(g77
g58
NtRp2430
(dp2431
g61
(dp2432
g81
g82
ssg70
g2426
sg63
(lp2433
S'raw_args'
p2434
asbag56
(g77
g58
NtRp2435
(dp2436
g61
(dp2437
g88
g89
ssg70
g2426
sg63
(lp2438
S':'
asbag56
(g77
g58
NtRp2439
(dp2440
g61
(dp2441
sg70
g2426
sg63
(lp2442
g56
(g57
g58
NtRp2443
(dp2444
g61
(dp2445
g69
I5
ssg70
g2439
sg63
(lp2446
S'error/regex'
p2447
asbasbasbag56
(g72
g58
NtRp2448
(dp2449
g61
(dp2450
sg70
g66
sg63
(lp2451
g56
(g77
g58
NtRp2452
(dp2453
g61
(dp2454
g81
g82
ssg70
g2448
sg63
(lp2455
S'raw_extension'
p2456
asbag56
(g77
g58
NtRp2457
(dp2458
g61
(dp2459
g88
g89
ssg70
g2448
sg63
(lp2460
S':'
asbag56
(g77
g58
NtRp2461
(dp2462
g61
(dp2463
sg70
g2448
sg63
(lp2464
g56
(g57
g58
NtRp2465
(dp2466
g61
(dp2467
g69
I5
ssg70
g2461
sg63
(lp2468
g1948
asbasbasbag56
(g72
g58
NtRp2469
(dp2470
g61
(dp2471
sg70
g66
sg63
(lp2472
g56
(g77
g58
NtRp2473
(dp2474
g61
(dp2475
g81
g82
ssg70
g2469
sg63
(lp2476
S'url'
p2477
asbag56
(g77
g58
NtRp2478
(dp2479
g61
(dp2480
g88
g89
ssg70
g2469
sg63
(lp2481
S':'
asbag56
(g77
g58
NtRp2482
(dp2483
g61
(dp2484
sg70
g2469
sg63
(lp2485
g56
(g57
g58
NtRp2486
(dp2487
g61
(dp2488
g69
I5
ssg70
g2482
sg63
(lp2489
S'/paideia/exploring/index.load/error/regex'
p2490
asbasbasbag56
(g72
g58
NtRp2491
(dp2492
g61
(dp2493
sg70
g66
sg63
(lp2494
g56
(g77
g58
NtRp2495
(dp2496
g61
(dp2497
g81
g82
ssg70
g2491
sg63
(lp2498
S'utcnow'
p2499
asbag56
(g77
g58
NtRp2500
(dp2501
g61
(dp2502
g88
g89
ssg70
g2491
sg63
(lp2503
S':'
asbag56
(g77
g58
NtRp2504
(dp2505
g61
(dp2506
sg70
g2491
sg63
(lp2507
g56
(g57
g58
NtRp2508
(dp2509
g61
(dp2510
g69
I5
ssg70
g2504
sg63
(lp2511
S'datetime.datetime(2011, 10, 21, 19, 45, 3, 839530)'
p2512
asbasbasbag56
(g72
g58
NtRp2513
(dp2514
g61
(dp2515
sg70
g66
sg63
(lp2516
g56
(g77
g58
NtRp2517
(dp2518
g61
(dp2519
g81
g82
ssg70
g2513
sg63
(lp2520
S'uuid'
p2521
asbag56
(g77
g58
NtRp2522
(dp2523
g61
(dp2524
g88
g89
ssg70
g2513
sg63
(lp2525
S':'
asbag56
(g77
g58
NtRp2526
(dp2527
g61
(dp2528
sg70
g2513
sg63
(lp2529
g56
(g57
g58
NtRp2530
(dp2531
g61
(dp2532
g69
I5
ssg70
g2526
sg63
(lp2533
S'paideia/127.0.0.1.2011-10-21.15-45-03.c36ac6fb-19cd-49bb-95a4-1d87562c2111'
p2534
asbasbasbag56
(g72
g58
NtRp2535
(dp2536
g61
(dp2537
sg70
g66
sg63
(lp2538
g56
(g77
g58
NtRp2539
(dp2540
g61
(dp2541
g81
g82
ssg70
g2535
sg63
(lp2542
S'vars'
p2543
asbag56
(g77
g58
NtRp2544
(dp2545
g61
(dp2546
g88
g89
ssg70
g2535
sg63
(lp2547
S':'
asbag56
(g77
g58
NtRp2548
(dp2549
g61
(dp2550
sg70
g2535
sg63
(lp2551
g56
(g57
g58
NtRp2552
(dp2553
g61
(dp2554
g69
I5
ssg70
g2548
sg63
(lp2555
g56
(g65
g58
NtRp2556
(dp2557
g61
(dp2558
g69
I4
ssg70
Nsg63
(lp2559
sbasbasbasbag56
(g72
g58
NtRp2560
(dp2561
g61
(dp2562
sg70
g66
sg63
(lp2563
g56
(g77
g58
NtRp2564
(dp2565
g61
(dp2566
g81
g82
ssg70
g2560
sg63
(lp2567
S'wsgi'
p2568
asbag56
(g77
g58
NtRp2569
(dp2570
g61
(dp2571
g88
g89
ssg70
g2560
sg63
(lp2572
S':'
asbag56
(g77
g58
NtRp2573
(dp2574
g61
(dp2575
sg70
g2560
sg63
(lp2576
g56
(g57
g58
NtRp2577
(dp2578
g61
(dp2579
g69
I5
ssg70
g2573
sg63
(lp2580
g56
(g65
g58
NtRp2581
(dp2582
g61
(dp2583
g69
I4
ssg70
Nsg63
(lp2584
g56
(g72
g58
NtRp2585
(dp2586
g61
(dp2587
sg70
g2581
sg63
(lp2588
g56
(g77
g58
NtRp2589
(dp2590
g61
(dp2591
g81
g82
ssg70
g2585
sg63
(lp2592
S'environ'
p2593
asbag56
(g77
g58
NtRp2594
(dp2595
g61
(dp2596
g88
g89
ssg70
g2585
sg63
(lp2597
S':'
asbag56
(g77
g58
NtRp2598
(dp2599
g61
(dp2600
sg70
g2585
sg63
(lp2601
g56
(g57
g58
NtRp2602
(dp2603
g61
(dp2604
g69
I4
ssg70
g2598
sg63
(lp2605
g56
(g65
g58
NtRp2606
(dp2607
g61
(dp2608
g69
I3
ssg70
Nsg63
(lp2609
g56
(g72
g58
NtRp2610
(dp2611
g61
(dp2612
sg70
g2606
sg63
(lp2613
g56
(g77
g58
NtRp2614
(dp2615
g61
(dp2616
g81
g82
ssg70
g2610
sg63
(lp2617
S'CONTENT_TYPE'
p2618
asbag56
(g77
g58
NtRp2619
(dp2620
g61
(dp2621
g88
g89
ssg70
g2610
sg63
(lp2622
S':'
asbag56
(g77
g58
NtRp2623
(dp2624
g61
(dp2625
sg70
g2610
sg63
(lp2626
g56
(g57
g58
NtRp2627
(dp2628
g61
(dp2629
g69
I3
ssg70
g2623
sg63
(lp2630
g985
asbasbasbag56
(g72
g58
NtRp2631
(dp2632
g61
(dp2633
sg70
g2606
sg63
(lp2634
g56
(g77
g58
NtRp2635
(dp2636
g61
(dp2637
g81
g82
ssg70
g2631
sg63
(lp2638
S'HTTP_ACCEPT'
p2639
asbag56
(g77
g58
NtRp2640
(dp2641
g61
(dp2642
g88
g89
ssg70
g2631
sg63
(lp2643
S':'
asbag56
(g77
g58
NtRp2644
(dp2645
g61
(dp2646
sg70
g2631
sg63
(lp2647
g56
(g57
g58
NtRp2648
(dp2649
g61
(dp2650
g69
I3
ssg70
g2644
sg63
(lp2651
g1073
asbasbasbag56
(g72
g58
NtRp2652
(dp2653
g61
(dp2654
sg70
g2606
sg63
(lp2655
g56
(g77
g58
NtRp2656
(dp2657
g61
(dp2658
g81
g82
ssg70
g2652
sg63
(lp2659
S'HTTP_ACCEPT_ENCODING'
p2660
asbag56
(g77
g58
NtRp2661
(dp2662
g61
(dp2663
g88
g89
ssg70
g2652
sg63
(lp2664
S':'
asbag56
(g77
g58
NtRp2665
(dp2666
g61
(dp2667
sg70
g2652
sg63
(lp2668
g56
(g57
g58
NtRp2669
(dp2670
g61
(dp2671
g69
I3
ssg70
g2665
sg63
(lp2672
g1095
asbasbasbag56
(g72
g58
NtRp2673
(dp2674
g61
(dp2675
sg70
g2606
sg63
(lp2676
g56
(g77
g58
NtRp2677
(dp2678
g61
(dp2679
g81
g82
ssg70
g2673
sg63
(lp2680
S'HTTP_ACCEPT_LANGUAGE'
p2681
asbag56
(g77
g58
NtRp2682
(dp2683
g61
(dp2684
g88
g89
ssg70
g2673
sg63
(lp2685
S':'
asbag56
(g77
g58
NtRp2686
(dp2687
g61
(dp2688
sg70
g2673
sg63
(lp2689
g56
(g57
g58
NtRp2690
(dp2691
g61
(dp2692
g69
I3
ssg70
g2686
sg63
(lp2693
g1117
asbasbasbag56
(g72
g58
NtRp2694
(dp2695
g61
(dp2696
sg70
g2606
sg63
(lp2697
g56
(g77
g58
NtRp2698
(dp2699
g61
(dp2700
g81
g82
ssg70
g2694
sg63
(lp2701
S'HTTP_CACHE_CONTROL'
p2702
asbag56
(g77
g58
NtRp2703
(dp2704
g61
(dp2705
g88
g89
ssg70
g2694
sg63
(lp2706
S':'
asbag56
(g77
g58
NtRp2707
(dp2708
g61
(dp2709
sg70
g2694
sg63
(lp2710
g56
(g57
g58
NtRp2711
(dp2712
g61
(dp2713
g69
I3
ssg70
g2707
sg63
(lp2714
g1139
asbasbasbag56
(g72
g58
NtRp2715
(dp2716
g61
(dp2717
sg70
g2606
sg63
(lp2718
g56
(g77
g58
NtRp2719
(dp2720
g61
(dp2721
g81
g82
ssg70
g2715
sg63
(lp2722
S'HTTP_CONNECTION'
p2723
asbag56
(g77
g58
NtRp2724
(dp2725
g61
(dp2726
g88
g89
ssg70
g2715
sg63
(lp2727
S':'
asbag56
(g77
g58
NtRp2728
(dp2729
g61
(dp2730
sg70
g2715
sg63
(lp2731
g56
(g57
g58
NtRp2732
(dp2733
g61
(dp2734
g69
I3
ssg70
g2728
sg63
(lp2735
g1161
asbasbasbag56
(g72
g58
NtRp2736
(dp2737
g61
(dp2738
sg70
g2606
sg63
(lp2739
g56
(g77
g58
NtRp2740
(dp2741
g61
(dp2742
g81
g82
ssg70
g2736
sg63
(lp2743
S'HTTP_CONTENT_TYPE'
p2744
asbag56
(g77
g58
NtRp2745
(dp2746
g61
(dp2747
g88
g89
ssg70
g2736
sg63
(lp2748
S':'
asbag56
(g77
g58
NtRp2749
(dp2750
g61
(dp2751
sg70
g2736
sg63
(lp2752
g56
(g57
g58
NtRp2753
(dp2754
g61
(dp2755
g69
I3
ssg70
g2749
sg63
(lp2756
g985
asbasbasbag56
(g72
g58
NtRp2757
(dp2758
g61
(dp2759
sg70
g2606
sg63
(lp2760
g56
(g77
g58
NtRp2761
(dp2762
g61
(dp2763
g81
g82
ssg70
g2757
sg63
(lp2764
S'HTTP_COOKIE'
p2765
asbag56
(g77
g58
NtRp2766
(dp2767
g61
(dp2768
g88
g89
ssg70
g2757
sg63
(lp2769
S':'
asbag56
(g77
g58
NtRp2770
(dp2771
g61
(dp2772
sg70
g2757
sg63
(lp2773
g56
(g57
g58
NtRp2774
(dp2775
g61
(dp2776
g69
I3
ssg70
g2770
sg63
(lp2777
g1204
asbasbasbag56
(g72
g58
NtRp2778
(dp2779
g61
(dp2780
sg70
g2606
sg63
(lp2781
g56
(g77
g58
NtRp2782
(dp2783
g61
(dp2784
g81
g82
ssg70
g2778
sg63
(lp2785
S'HTTP_HOST'
p2786
asbag56
(g77
g58
NtRp2787
(dp2788
g61
(dp2789
g88
g89
ssg70
g2778
sg63
(lp2790
S':'
asbag56
(g77
g58
NtRp2791
(dp2792
g61
(dp2793
sg70
g2778
sg63
(lp2794
g56
(g57
g58
NtRp2795
(dp2796
g61
(dp2797
g69
I3
ssg70
g2791
sg63
(lp2798
g1226
asbasbasbag56
(g72
g58
NtRp2799
(dp2800
g61
(dp2801
sg70
g2606
sg63
(lp2802
g56
(g77
g58
NtRp2803
(dp2804
g61
(dp2805
g81
g82
ssg70
g2799
sg63
(lp2806
S'HTTP_PRAGMA'
p2807
asbag56
(g77
g58
NtRp2808
(dp2809
g61
(dp2810
g88
g89
ssg70
g2799
sg63
(lp2811
S':'
asbag56
(g77
g58
NtRp2812
(dp2813
g61
(dp2814
sg70
g2799
sg63
(lp2815
g56
(g57
g58
NtRp2816
(dp2817
g61
(dp2818
g69
I3
ssg70
g2812
sg63
(lp2819
g1248
asbasbasbag56
(g72
g58
NtRp2820
(dp2821
g61
(dp2822
sg70
g2606
sg63
(lp2823
g56
(g77
g58
NtRp2824
(dp2825
g61
(dp2826
g81
g82
ssg70
g2820
sg63
(lp2827
S'HTTP_REFERER'
p2828
asbag56
(g77
g58
NtRp2829
(dp2830
g61
(dp2831
g88
g89
ssg70
g2820
sg63
(lp2832
S':'
asbag56
(g77
g58
NtRp2833
(dp2834
g61
(dp2835
sg70
g2820
sg63
(lp2836
g56
(g57
g58
NtRp2837
(dp2838
g61
(dp2839
g69
I3
ssg70
g2833
sg63
(lp2840
g1270
asbasbasbag56
(g72
g58
NtRp2841
(dp2842
g61
(dp2843
sg70
g2606
sg63
(lp2844
g56
(g77
g58
NtRp2845
(dp2846
g61
(dp2847
g81
g82
ssg70
g2841
sg63
(lp2848
S'HTTP_USER_AGENT'
p2849
asbag56
(g77
g58
NtRp2850
(dp2851
g61
(dp2852
g88
g89
ssg70
g2841
sg63
(lp2853
S':'
asbag56
(g77
g58
NtRp2854
(dp2855
g61
(dp2856
sg70
g2841
sg63
(lp2857
g56
(g57
g58
NtRp2858
(dp2859
g61
(dp2860
g69
I3
ssg70
g2854
sg63
(lp2861
g1292
asbasbasbag56
(g72
g58
NtRp2862
(dp2863
g61
(dp2864
sg70
g2606
sg63
(lp2865
g56
(g77
g58
NtRp2866
(dp2867
g61
(dp2868
g81
g82
ssg70
g2862
sg63
(lp2869
S'HTTP_WEB2PY_COMPONENT_ELEMENT'
p2870
asbag56
(g77
g58
NtRp2871
(dp2872
g61
(dp2873
g88
g89
ssg70
g2862
sg63
(lp2874
S':'
asbag56
(g77
g58
NtRp2875
(dp2876
g61
(dp2877
sg70
g2862
sg63
(lp2878
g56
(g57
g58
NtRp2879
(dp2880
g61
(dp2881
g69
I3
ssg70
g2875
sg63
(lp2882
g215
asbasbasbag56
(g72
g58
NtRp2883
(dp2884
g61
(dp2885
sg70
g2606
sg63
(lp2886
g56
(g77
g58
NtRp2887
(dp2888
g61
(dp2889
g81
g82
ssg70
g2883
sg63
(lp2890
S'HTTP_WEB2PY_COMPONENT_LOCATION'
p2891
asbag56
(g77
g58
NtRp2892
(dp2893
g61
(dp2894
g88
g89
ssg70
g2883
sg63
(lp2895
S':'
asbag56
(g77
g58
NtRp2896
(dp2897
g61
(dp2898
sg70
g2883
sg63
(lp2899
g56
(g57
g58
NtRp2900
(dp2901
g61
(dp2902
g69
I3
ssg70
g2896
sg63
(lp2903
g1335
asbasbasbag56
(g72
g58
NtRp2904
(dp2905
g61
(dp2906
sg70
g2606
sg63
(lp2907
g56
(g77
g58
NtRp2908
(dp2909
g61
(dp2910
g81
g82
ssg70
g2904
sg63
(lp2911
S'HTTP_X_REQUESTED_WITH'
p2912
asbag56
(g77
g58
NtRp2913
(dp2914
g61
(dp2915
g88
g89
ssg70
g2904
sg63
(lp2916
S':'
asbag56
(g77
g58
NtRp2917
(dp2918
g61
(dp2919
sg70
g2904
sg63
(lp2920
g56
(g57
g58
NtRp2921
(dp2922
g61
(dp2923
g69
I3
ssg70
g2917
sg63
(lp2924
g1357
asbasbasbag56
(g72
g58
NtRp2925
(dp2926
g61
(dp2927
sg70
g2606
sg63
(lp2928
g56
(g77
g58
NtRp2929
(dp2930
g61
(dp2931
g81
g82
ssg70
g2925
sg63
(lp2932
S'PATH_INFO'
p2933
asbag56
(g77
g58
NtRp2934
(dp2935
g61
(dp2936
g88
g89
ssg70
g2925
sg63
(lp2937
S':'
asbag56
(g77
g58
NtRp2938
(dp2939
g61
(dp2940
sg70
g2925
sg63
(lp2941
g56
(g57
g58
NtRp2942
(dp2943
g61
(dp2944
g69
I3
ssg70
g2938
sg63
(lp2945
g1400
asbasbasbag56
(g72
g58
NtRp2946
(dp2947
g61
(dp2948
sg70
g2606
sg63
(lp2949
g56
(g77
g58
NtRp2950
(dp2951
g61
(dp2952
g81
g82
ssg70
g2946
sg63
(lp2953
S'QUERY_STRING'
p2954
asbag56
(g77
g58
NtRp2955
(dp2956
g61
(dp2957
g88
g89
ssg70
g2946
sg63
(lp2958
S':'
asbag56
(g77
g58
NtRp2959
(dp2960
g61
(dp2961
sg70
g2946
sg63
(lp2962
g56
(g57
g58
NtRp2963
(dp2964
g61
(dp2965
g69
I3
ssg70
g2959
sg63
(lp2966
S''
asbasbasbag56
(g72
g58
NtRp2967
(dp2968
g61
(dp2969
sg70
g2606
sg63
(lp2970
g56
(g77
g58
NtRp2971
(dp2972
g61
(dp2973
g81
g82
ssg70
g2967
sg63
(lp2974
S'REMOTE_ADDR'
p2975
asbag56
(g77
g58
NtRp2976
(dp2977
g61
(dp2978
g88
g89
ssg70
g2967
sg63
(lp2979
S':'
asbag56
(g77
g58
NtRp2980
(dp2981
g61
(dp2982
sg70
g2967
sg63
(lp2983
g56
(g57
g58
NtRp2984
(dp2985
g61
(dp2986
g69
I3
ssg70
g2980
sg63
(lp2987
g237
asbasbasbag56
(g72
g58
NtRp2988
(dp2989
g61
(dp2990
sg70
g2606
sg63
(lp2991
g56
(g77
g58
NtRp2992
(dp2993
g61
(dp2994
g81
g82
ssg70
g2988
sg63
(lp2995
S'REMOTE_PORT'
p2996
asbag56
(g77
g58
NtRp2997
(dp2998
g61
(dp2999
g88
g89
ssg70
g2988
sg63
(lp3000
S':'
asbag56
(g77
g58
NtRp3001
(dp3002
g61
(dp3003
sg70
g2988
sg63
(lp3004
g56
(g57
g58
NtRp3005
(dp3006
g61
(dp3007
g69
I3
ssg70
g3001
sg63
(lp3008
g1464
asbasbasbag56
(g72
g58
NtRp3009
(dp3010
g61
(dp3011
sg70
g2606
sg63
(lp3012
g56
(g77
g58
NtRp3013
(dp3014
g61
(dp3015
g81
g82
ssg70
g3009
sg63
(lp3016
S'REQUEST_METHOD'
p3017
asbag56
(g77
g58
NtRp3018
(dp3019
g61
(dp3020
g88
g89
ssg70
g3009
sg63
(lp3021
S':'
asbag56
(g77
g58
NtRp3022
(dp3023
g61
(dp3024
sg70
g3009
sg63
(lp3025
g56
(g57
g58
NtRp3026
(dp3027
g61
(dp3028
g69
I3
ssg70
g3022
sg63
(lp3029
g1486
asbasbasbag56
(g72
g58
NtRp3030
(dp3031
g61
(dp3032
sg70
g2606
sg63
(lp3033
g56
(g77
g58
NtRp3034
(dp3035
g61
(dp3036
g81
g82
ssg70
g3030
sg63
(lp3037
S'SCRIPT_NAME'
p3038
asbag56
(g77
g58
NtRp3039
(dp3040
g61
(dp3041
g88
g89
ssg70
g3030
sg63
(lp3042
S':'
asbag56
(g77
g58
NtRp3043
(dp3044
g61
(dp3045
sg70
g3030
sg63
(lp3046
g56
(g57
g58
NtRp3047
(dp3048
g61
(dp3049
g69
I3
ssg70
g3043
sg63
(lp3050
S''
asbasbasbag56
(g72
g58
NtRp3051
(dp3052
g61
(dp3053
sg70
g2606
sg63
(lp3054
g56
(g77
g58
NtRp3055
(dp3056
g61
(dp3057
g81
g82
ssg70
g3051
sg63
(lp3058
S'SERVER_NAME'
p3059
asbag56
(g77
g58
NtRp3060
(dp3061
g61
(dp3062
g88
g89
ssg70
g3051
sg63
(lp3063
S':'
asbag56
(g77
g58
NtRp3064
(dp3065
g61
(dp3066
sg70
g3051
sg63
(lp3067
g56
(g57
g58
NtRp3068
(dp3069
g61
(dp3070
g69
I3
ssg70
g3064
sg63
(lp3071
g1529
asbasbasbag56
(g72
g58
NtRp3072
(dp3073
g61
(dp3074
sg70
g2606
sg63
(lp3075
g56
(g77
g58
NtRp3076
(dp3077
g61
(dp3078
g81
g82
ssg70
g3072
sg63
(lp3079
S'SERVER_PORT'
p3080
asbag56
(g77
g58
NtRp3081
(dp3082
g61
(dp3083
g88
g89
ssg70
g3072
sg63
(lp3084
S':'
asbag56
(g77
g58
NtRp3085
(dp3086
g61
(dp3087
sg70
g3072
sg63
(lp3088
g56
(g57
g58
NtRp3089
(dp3090
g61
(dp3091
g69
I3
ssg70
g3085
sg63
(lp3092
g1551
asbasbasbag56
(g72
g58
NtRp3093
(dp3094
g61
(dp3095
sg70
g2606
sg63
(lp3096
g56
(g77
g58
NtRp3097
(dp3098
g61
(dp3099
g81
g82
ssg70
g3093
sg63
(lp3100
S'SERVER_PROTOCOL'
p3101
asbag56
(g77
g58
NtRp3102
(dp3103
g61
(dp3104
g88
g89
ssg70
g3093
sg63
(lp3105
S':'
asbag56
(g77
g58
NtRp3106
(dp3107
g61
(dp3108
sg70
g3093
sg63
(lp3109
g56
(g57
g58
NtRp3110
(dp3111
g61
(dp3112
g69
I3
ssg70
g3106
sg63
(lp3113
g1573
asbasbasbag56
(g72
g58
NtRp3114
(dp3115
g61
(dp3116
sg70
g2606
sg63
(lp3117
g56
(g77
g58
NtRp3118
(dp3119
g61
(dp3120
g81
g82
ssg70
g3114
sg63
(lp3121
S'SERVER_SOFTWARE'
p3122
asbag56
(g77
g58
NtRp3123
(dp3124
g61
(dp3125
g88
g89
ssg70
g3114
sg63
(lp3126
S':'
asbag56
(g77
g58
NtRp3127
(dp3128
g61
(dp3129
sg70
g3114
sg63
(lp3130
g56
(g57
g58
NtRp3131
(dp3132
g61
(dp3133
g69
I3
ssg70
g3127
sg63
(lp3134
g1595
asbasbasbag56
(g72
g58
NtRp3135
(dp3136
g61
(dp3137
sg70
g2606
sg63
(lp3138
g56
(g77
g58
NtRp3139
(dp3140
g61
(dp3141
g81
g82
ssg70
g3135
sg63
(lp3142
S'wsgi.errors'
p3143
asbag56
(g77
g58
NtRp3144
(dp3145
g61
(dp3146
g88
g89
ssg70
g3135
sg63
(lp3147
S':'
asbag56
(g77
g58
NtRp3148
(dp3149
g61
(dp3150
sg70
g3135
sg63
(lp3151
g56
(g57
g58
NtRp3152
(dp3153
g61
(dp3154
g69
I3
ssg70
g3148
sg63
(lp3155
S"<open file '<stderr>', mode 'w' at 0x7f456b0c3270>"
p3156
asbasbasbag56
(g72
g58
NtRp3157
(dp3158
g61
(dp3159
sg70
g2606
sg63
(lp3160
g56
(g77
g58
NtRp3161
(dp3162
g61
(dp3163
g81
g82
ssg70
g3157
sg63
(lp3164
S'wsgi.file_wrapper'
p3165
asbag56
(g77
g58
NtRp3166
(dp3167
g61
(dp3168
g88
g89
ssg70
g3157
sg63
(lp3169
S':'
asbag56
(g77
g58
NtRp3170
(dp3171
g61
(dp3172
sg70
g3157
sg63
(lp3173
g56
(g57
g58
NtRp3174
(dp3175
g61
(dp3176
g69
I3
ssg70
g3170
sg63
(lp3177
S'<class wsgiref.util.FileWrapper at 0x19d4870>'
p3178
asbasbasbag56
(g72
g58
NtRp3179
(dp3180
g61
(dp3181
sg70
g2606
sg63
(lp3182
g56
(g77
g58
NtRp3183
(dp3184
g61
(dp3185
g81
g82
ssg70
g3179
sg63
(lp3186
S'wsgi.input'
p3187
asbag56
(g77
g58
NtRp3188
(dp3189
g61
(dp3190
g88
g89
ssg70
g3179
sg63
(lp3191
S':'
asbag56
(g77
g58
NtRp3192
(dp3193
g61
(dp3194
sg70
g3179
sg63
(lp3195
g56
(g57
g58
NtRp3196
(dp3197
g61
(dp3198
g69
I3
ssg70
g3192
sg63
(lp3199
S'<cStringIO.StringO object at 0x2891298>'
p3200
asbasbasbag56
(g72
g58
NtRp3201
(dp3202
g61
(dp3203
sg70
g2606
sg63
(lp3204
g56
(g77
g58
NtRp3205
(dp3206
g61
(dp3207
g81
g82
ssg70
g3201
sg63
(lp3208
S'wsgi.multiprocess'
p3209
asbag56
(g77
g58
NtRp3210
(dp3211
g61
(dp3212
g88
g89
ssg70
g3201
sg63
(lp3213
S':'
asbag56
(g77
g58
NtRp3214
(dp3215
g61
(dp3216
sg70
g3201
sg63
(lp3217
g56
(g57
g58
NtRp3218
(dp3219
g61
(dp3220
g69
I3
ssg70
g3214
sg63
(lp3221
g1029
asbasbasbag56
(g72
g58
NtRp3222
(dp3223
g61
(dp3224
sg70
g2606
sg63
(lp3225
g56
(g77
g58
NtRp3226
(dp3227
g61
(dp3228
g81
g82
ssg70
g3222
sg63
(lp3229
S'wsgi.multithread'
p3230
asbag56
(g77
g58
NtRp3231
(dp3232
g61
(dp3233
g88
g89
ssg70
g3222
sg63
(lp3234
S':'
asbag56
(g77
g58
NtRp3235
(dp3236
g61
(dp3237
sg70
g3222
sg63
(lp3238
g56
(g57
g58
NtRp3239
(dp3240
g61
(dp3241
g69
I3
ssg70
g3235
sg63
(lp3242
g99
asbasbasbag56
(g72
g58
NtRp3243
(dp3244
g61
(dp3245
sg70
g2606
sg63
(lp3246
g56
(g77
g58
NtRp3247
(dp3248
g61
(dp3249
g81
g82
ssg70
g3243
sg63
(lp3250
S'wsgi.run_once'
p3251
asbag56
(g77
g58
NtRp3252
(dp3253
g61
(dp3254
g88
g89
ssg70
g3243
sg63
(lp3255
S':'
asbag56
(g77
g58
NtRp3256
(dp3257
g61
(dp3258
sg70
g3243
sg63
(lp3259
g56
(g57
g58
NtRp3260
(dp3261
g61
(dp3262
g69
I3
ssg70
g3256
sg63
(lp3263
g1029
asbasbasbag56
(g72
g58
NtRp3264
(dp3265
g61
(dp3266
sg70
g2606
sg63
(lp3267
g56
(g77
g58
NtRp3268
(dp3269
g61
(dp3270
g81
g82
ssg70
g3264
sg63
(lp3271
S'wsgi.url_scheme'
p3272
asbag56
(g77
g58
NtRp3273
(dp3274
g61
(dp3275
g88
g89
ssg70
g3264
sg63
(lp3276
S':'
asbag56
(g77
g58
NtRp3277
(dp3278
g61
(dp3279
sg70
g3264
sg63
(lp3280
g56
(g57
g58
NtRp3281
(dp3282
g61
(dp3283
g69
I3
ssg70
g3277
sg63
(lp3284
g1877
asbasbasbag56
(g72
g58
NtRp3285
(dp3286
g61
(dp3287
sg70
g2606
sg63
(lp3288
g56
(g77
g58
NtRp3289
(dp3290
g61
(dp3291
g81
g82
ssg70
g3285
sg63
(lp3292
S'wsgi.version'
p3293
asbag56
(g77
g58
NtRp3294
(dp3295
g61
(dp3296
g88
g89
ssg70
g3285
sg63
(lp3297
S':'
asbag56
(g77
g58
NtRp3298
(dp3299
g61
(dp3300
sg70
g3285
sg63
(lp3301
g56
(g57
g58
NtRp3302
(dp3303
g61
(dp3304
g69
I3
ssg70
g3298
sg63
(lp3305
S'1'
asbasbasbasbasbasbasbasbasbasbasbasbasbsS'frames'
p3306
(lp3307
(dp3308
S'file'
p3309
S'/home/ian/web2py/gluon/restricted.py'
p3310
sS'dump'
p3311
(dp3312
S'environment'
p3313
S"{'A': <class 'gluon.html.A'>, 'Auth': <class 'gluon.tools.Auth'>, 'B': <class 'gluon.html.B'>, 'BEAUTIFY': <class 'gluon.html.BEAUTIFY'>, 'BODY': <class 'gluon.html.BODY'>, 'BR': <class 'gluon.html.BR'>, 'BUTTON': <class 'gluon.html.BUTTON'>, 'CAT': <class 'gluon.html.CAT'>, 'CENTER': <class 'gluon.html.CENTER'>, 'CLEANUP': <class 'gluon.validators.CLEANUP'>, ...}"
p3314
sS'ccode'
p3315
S'<code object <module> at 0x28fbbb0, file "/home/...ations/paideia/controllers/exploring.py", line 3>'
p3316
ssS'lnum'
p3317
I194
sS'lines'
p3318
(dp3319
I192
S'        else:'
p3320
sI193
S'            ccode = compile2(code,layer)'
p3321
sI194
S'        exec ccode in environment'
p3322
sI195
S'    except HTTP:'
p3323
sI196
S'        raise'
p3324
sI197
S'    except Exception, error:'
p3325
sI198
S'        # XXX Show exception in Wing IDE if running in debugger'
p3326
sI189
S'    try:'
p3327
sI190
S'        if type(code) == types.CodeType:'
p3328
sI191
S'            ccode = code'
p3329
ssS'call'
p3330
S"(code='# coding: utf8\\n\\nimport random,re,datetime,string...quizzes)\\n\\nresponse._vars=response._caller(index)\\n', environment={'A': <class 'gluon.html.A'>, 'Auth': <class 'gluon.tools.Auth'>, 'B': <class 'gluon.html.B'>, 'BEAUTIFY': <class 'gluon.html.BEAUTIFY'>, 'BODY': <class 'gluon.html.BODY'>, 'BR': <class 'gluon.html.BR'>, 'BUTTON': <class 'gluon.html.BUTTON'>, 'CAT': <class 'gluon.html.CAT'>, 'CENTER': <class 'gluon.html.CENTER'>, 'CLEANUP': <class 'gluon.validators.CLEANUP'>, ...}, layer='/home/ian/web2py/applications/paideia/controllers/exploring.py')"
p3331
sS'func'
p3332
S'restricted'
p3333
sa(dp3334
g3309
S'/home/ian/web2py/applications/paideia/controllers/exploring.py'
p3335
sg3311
(dp3336
sg3317
I193
sg3318
(dp3337
I182
S'        message = "Oops! Something about that question confused me, and I\'m not sure whether your answer was right. Let\'s try another one."'
p3338
sI183
S"        button = A('continue', _href=URL('index', args=['ask']), _class='button-green-grad next_q', cid=request.cid)"
p3339
sI184
S"        #don't include this question in counting the number attempted"
p3340
sI185
S'        session.q_counter -= 1'
p3341
sI186
S'        return dict(message = message, button = button)'
p3342
sI187
S''
sI188
S'    #when first arrive at start page'
p3343
sI189
S'    else:'
p3344
sI190
S'        the_quizzes = db().select(db.quizzes.ALL, orderby=db.quizzes.quiz)'
p3345
sI191
S'        return dict(quizzes = the_quizzes)'
p3346
ssg3330
S'()'
p3347
sg3332
S'<module>'
p3348
sa(dp3349
g3309
S'/home/ian/web2py/gluon/globals.py'
p3350
sg3311
(dp3351
S'self'
p3352
S'undefined'
p3353
sS'f'
S'<function index>'
p3354
ssg3317
I149
sg3318
(dp3355
I144
S'        self.meta = Storage()      # used by web2py_ajax.html'
p3356
sI145
S'        self.menu = []             # used by the default view layout'
p3357
sI146
S'        self.files = []            # used by web2py_ajax.html'
p3358
sI147
S'        self.generic_patterns = [] # patterns to allow generic views'
p3359
sI148
S'        self._vars = None'
p3360
sI149
S'        self._caller = lambda f: f()'
p3361
sI150
S'        self._view_environment = None'
p3362
sI151
S'        self._custom_commit = None'
p3363
sI152
S'        self._custom_rollback = None'
p3364
sI153
S''
ssg3330
S'(f=<function index>)'
p3365
sg3332
S'<lambda>'
p3366
sa(dp3367
g3309
S'/home/ian/web2py/gluon/tools.py'
p3368
sg3311
(dp3369
S'action'
p3370
S'<function index>'
p3371
sS'a'
S'()'
p3372
sS'b'
g44
ssg3317
I2456
sg3318
(dp3373
I2451
S"                            '?_next='+urllib.quote(next))"
p3374
sI2452
S'                if not condition:'
p3375
sI2453
S'                    current.session.flash = self.messages.access_denied'
p3376
sI2454
S'                    return call_or_redirect('
p3377
sI2455
S'                        self.settings.on_failed_authorization)'
p3378
sI2456
S'                return action(*a, **b)'
p3379
sI2457
S'            f.__doc__ = action.__doc__'
p3380
sI2458
S'            f.__name__ = action.__name__'
p3381
sI2459
S'            f.__dict__.update(action.__dict__)'
p3382
sI2460
S'            return f'
p3383
ssg3330
S'(*a=(), **b={})'
p3384
sg3332
S'f'
sa(dp3385
g3309
S'/home/ian/web2py/applications/paideia/controllers/exploring.py'
p3386
sg3311
(dp3387
S'status'
p3388
g3353
sS'global session'
p3389
S'<Storage {\'path_name\': \'Tyndale - Greek Exegesis...regex error should be thrown", \'answer\': \'^(.&\'}>'
p3390
sS'question'
p3391
g3353
sS'db.questions.update'
p3392
S"<bound method Table.update of <Table {'_db': <DA..., '_id': <gluon.dal.Field object at 0x2874f50>}>>"
p3393
sS'global db'
p3394
S"<DAL {'auth_event': <Table {'origin': <gluon.dal..., 'id': <gluon.dal.Field object at 0x2868490>}>}>"
p3395
sS'session.qID'
p3396
S'91'
p3397
sS'db.questions'
p3398
S"<Table {'_db': <DAL {'auth_event': <Table {'orig...>, '_id': <gluon.dal.Field object at 0x2874f50>}>"
p3399
ssg3317
I181
sg3318
(dp3400
I176
S"    elif request.args(0) == 'error':"
p3401
sI177
S"        if request.args(1) == 'unknown':"
p3402
sI178
S'            db.q_bugs.insert(question=session.qID, a_submitted=request.vars.answer)'
p3403
sI179
S"        if request.args(1) == 'regex':"
p3404
sI180
S'            db.q_bugs.insert(question=session.qID, a_submitted=request.vars.answer)'
p3405
sI181
S'            db.questions.update(question=session.qID, status=1);'
p3406
sI182
S'        message = "Oops! Something about that question confused me, and I\'m not sure whether your answer was right. Let\'s try another one."'
p3407
sI183
S"        button = A('continue', _href=URL('index', args=['ask']), _class='button-green-grad next_q', cid=request.cid)"
p3408
sI184
S"        #don't include this question in counting the number attempted"
p3409
sI185
S'        session.q_counter -= 1'
p3410
ssg3330
S'()'
p3411
sg3332
S'index'
p3412
sa(dp3413
g3309
S'/home/ian/web2py/gluon/dal.py'
p3414
sg3311
(dp3415
S'builtinRuntimeError'
p3416
S"<type 'exceptions.RuntimeError'>"
p3417
ssg3317
I4795
sg3318
(dp3418
I4790
S'                        "primarykey must be a list of fields from table \'%s " % tablename'
p3419
sI4791
S'                else:'
p3420
sI4792
S'                    self[k].notnull = True'
p3421
sI4793
S''
sI4794
S'    def update(self,*args,**kwargs):'
p3422
sI4795
S'        raise RuntimeError, "Syntax Not Supported"'
p3423
sI4796
S''
sI4797
S'    def _validate(self,**vars):'
p3424
sI4798
S'        errors = Row()'
p3425
sI4799
S'        for key,value in vars.items():'
p3426
ssg3330
S"(self=<Table {'_db': <DAL {'auth_event': <Table {'orig...>, '_id': <gluon.dal.Field object at 0x2874f50>}>, *args=(), **kwargs={'question': 91, 'status': 1})"
p3427
sg3332
S'update'
p3428
sasS'pyver'
p3429
S'Python 2.7.2+: /usr/bin/python2.7'
p3430
sS'session'
p3431
g56
(g57
g58
NtRp3432
(dp3433
g61
(dp3434
sg63
(lp3435
g56
(g65
g58
NtRp3436
(dp3437
g61
(dp3438
g69
I5
ssg70
Nsg63
(lp3439
g56
(g72
g58
NtRp3440
(dp3441
g61
(dp3442
sg70
g3436
sg63
(lp3443
g56
(g77
g58
NtRp3444
(dp3445
g61
(dp3446
g81
g82
ssg70
g3440
sg63
(lp3447
S'answer'
p3448
asbag56
(g77
g58
NtRp3449
(dp3450
g61
(dp3451
g88
g89
ssg70
g3440
sg63
(lp3452
S':'
asbag56
(g77
g58
NtRp3453
(dp3454
g61
(dp3455
sg70
g3440
sg63
(lp3456
g56
(g57
g58
NtRp3457
(dp3458
g61
(dp3459
g69
I5
ssg70
g3453
sg63
(lp3460
S'^(.&'
p3461
asbasbasbag56
(g72
g58
NtRp3462
(dp3463
g61
(dp3464
sg70
g3436
sg63
(lp3465
g56
(g77
g58
NtRp3466
(dp3467
g61
(dp3468
g81
g82
ssg70
g3462
sg63
(lp3469
S'answer2'
p3470
asbag56
(g77
g58
NtRp3471
(dp3472
g61
(dp3473
g88
g89
ssg70
g3462
sg63
(lp3474
S':'
asbag56
(g77
g58
NtRp3475
(dp3476
g61
(dp3477
sg70
g3462
sg63
(lp3478
g56
(g57
g58
NtRp3479
(dp3480
g61
(dp3481
g69
I5
ssg70
g3475
sg63
(lp3482
S'null'
p3483
asbasbasbag56
(g72
g58
NtRp3484
(dp3485
g61
(dp3486
sg70
g3436
sg63
(lp3487
g56
(g77
g58
NtRp3488
(dp3489
g61
(dp3490
g81
g82
ssg70
g3484
sg63
(lp3491
S'answer3'
p3492
asbag56
(g77
g58
NtRp3493
(dp3494
g61
(dp3495
g88
g89
ssg70
g3484
sg63
(lp3496
S':'
asbag56
(g77
g58
NtRp3497
(dp3498
g61
(dp3499
sg70
g3484
sg63
(lp3500
g56
(g57
g58
NtRp3501
(dp3502
g61
(dp3503
g69
I5
ssg70
g3497
sg63
(lp3504
S'null'
p3505
asbasbasbag56
(g72
g58
NtRp3506
(dp3507
g61
(dp3508
sg70
g3436
sg63
(lp3509
g56
(g77
g58
NtRp3510
(dp3511
g61
(dp3512
g81
g82
ssg70
g3506
sg63
(lp3513
S'auth'
p3514
asbag56
(g77
g58
NtRp3515
(dp3516
g61
(dp3517
g88
g89
ssg70
g3506
sg63
(lp3518
S':'
asbag56
(g77
g58
NtRp3519
(dp3520
g61
(dp3521
sg70
g3506
sg63
(lp3522
g56
(g57
g58
NtRp3523
(dp3524
g61
(dp3525
g69
I5
ssg70
g3519
sg63
(lp3526
g56
(g65
g58
NtRp3527
(dp3528
g61
(dp3529
g69
I4
ssg70
Nsg63
(lp3530
g56
(g72
g58
NtRp3531
(dp3532
g61
(dp3533
sg70
g3527
sg63
(lp3534
g56
(g77
g58
NtRp3535
(dp3536
g61
(dp3537
g81
g82
ssg70
g3531
sg63
(lp3538
S'expiration'
p3539
asbag56
(g77
g58
NtRp3540
(dp3541
g61
(dp3542
g88
g89
ssg70
g3531
sg63
(lp3543
S':'
asbag56
(g77
g58
NtRp3544
(dp3545
g61
(dp3546
sg70
g3531
sg63
(lp3547
g56
(g57
g58
NtRp3548
(dp3549
g61
(dp3550
g69
I4
ssg70
g3544
sg63
(lp3551
S'2592000'
p3552
asbasbasbag56
(g72
g58
NtRp3553
(dp3554
g61
(dp3555
sg70
g3527
sg63
(lp3556
g56
(g77
g58
NtRp3557
(dp3558
g61
(dp3559
g81
g82
ssg70
g3553
sg63
(lp3560
S'hmac_key'
p3561
asbag56
(g77
g58
NtRp3562
(dp3563
g61
(dp3564
g88
g89
ssg70
g3553
sg63
(lp3565
S':'
asbag56
(g77
g58
NtRp3566
(dp3567
g61
(dp3568
sg70
g3553
sg63
(lp3569
g56
(g57
g58
NtRp3570
(dp3571
g61
(dp3572
g69
I4
ssg70
g3566
sg63
(lp3573
S'1f715e0f-a68d-4366-b6e0-349e84e95232'
p3574
asbasbasbag56
(g72
g58
NtRp3575
(dp3576
g61
(dp3577
sg70
g3527
sg63
(lp3578
g56
(g77
g58
NtRp3579
(dp3580
g61
(dp3581
g81
g82
ssg70
g3575
sg63
(lp3582
S'last_visit'
p3583
asbag56
(g77
g58
NtRp3584
(dp3585
g61
(dp3586
g88
g89
ssg70
g3575
sg63
(lp3587
S':'
asbag56
(g77
g58
NtRp3588
(dp3589
g61
(dp3590
sg70
g3575
sg63
(lp3591
g56
(g57
g58
NtRp3592
(dp3593
g61
(dp3594
g69
I4
ssg70
g3588
sg63
(lp3595
S'datetime.datetime(2011, 10, 21, 15, 31, 54, 625124)'
p3596
asbasbasbag56
(g72
g58
NtRp3597
(dp3598
g61
(dp3599
sg70
g3527
sg63
(lp3600
g56
(g77
g58
NtRp3601
(dp3602
g61
(dp3603
g81
g82
ssg70
g3597
sg63
(lp3604
S'remember'
p3605
asbag56
(g77
g58
NtRp3606
(dp3607
g61
(dp3608
g88
g89
ssg70
g3597
sg63
(lp3609
S':'
asbag56
(g77
g58
NtRp3610
(dp3611
g61
(dp3612
sg70
g3597
sg63
(lp3613
g56
(g57
g58
NtRp3614
(dp3615
g61
(dp3616
g69
I4
ssg70
g3610
sg63
(lp3617
g1029
asbasbasbag56
(g72
g58
NtRp3618
(dp3619
g61
(dp3620
sg70
g3527
sg63
(lp3621
g56
(g77
g58
NtRp3622
(dp3623
g61
(dp3624
g81
g82
ssg70
g3618
sg63
(lp3625
S'user'
p3626
asbag56
(g77
g58
NtRp3627
(dp3628
g61
(dp3629
g88
g89
ssg70
g3618
sg63
(lp3630
S':'
asbag56
(g77
g58
NtRp3631
(dp3632
g61
(dp3633
sg70
g3618
sg63
(lp3634
g56
(g57
g58
NtRp3635
(dp3636
g61
(dp3637
g69
I4
ssg70
g3631
sg63
(lp3638
g56
(g65
g58
NtRp3639
(dp3640
g61
(dp3641
g69
I3
ssg70
Nsg63
(lp3642
g56
(g72
g58
NtRp3643
(dp3644
g61
(dp3645
sg70
g3639
sg63
(lp3646
g56
(g77
g58
NtRp3647
(dp3648
g61
(dp3649
g81
g82
ssg70
g3643
sg63
(lp3650
S'email'
p3651
asbag56
(g77
g58
NtRp3652
(dp3653
g61
(dp3654
g88
g89
ssg70
g3643
sg63
(lp3655
S':'
asbag56
(g77
g58
NtRp3656
(dp3657
g61
(dp3658
sg70
g3643
sg63
(lp3659
g56
(g57
g58
NtRp3660
(dp3661
g61
(dp3662
g69
I3
ssg70
g3656
sg63
(lp3663
S'scottianw@gmail.com'
p3664
asbasbasbag56
(g72
g58
NtRp3665
(dp3666
g61
(dp3667
sg70
g3639
sg63
(lp3668
g56
(g77
g58
NtRp3669
(dp3670
g61
(dp3671
g81
g82
ssg70
g3665
sg63
(lp3672
S'first_name'
p3673
asbag56
(g77
g58
NtRp3674
(dp3675
g61
(dp3676
g88
g89
ssg70
g3665
sg63
(lp3677
S':'
asbag56
(g77
g58
NtRp3678
(dp3679
g61
(dp3680
sg70
g3665
sg63
(lp3681
g56
(g57
g58
NtRp3682
(dp3683
g61
(dp3684
g69
I3
ssg70
g3678
sg63
(lp3685
S'Ian'
p3686
asbasbasbag56
(g72
g58
NtRp3687
(dp3688
g61
(dp3689
sg70
g3639
sg63
(lp3690
g56
(g77
g58
NtRp3691
(dp3692
g61
(dp3693
g81
g82
ssg70
g3687
sg63
(lp3694
S'id'
p3695
asbag56
(g77
g58
NtRp3696
(dp3697
g61
(dp3698
g88
g89
ssg70
g3687
sg63
(lp3699
S':'
asbag56
(g77
g58
NtRp3700
(dp3701
g61
(dp3702
sg70
g3687
sg63
(lp3703
g56
(g57
g58
NtRp3704
(dp3705
g61
(dp3706
g69
I3
ssg70
g3700
sg63
(lp3707
S'2'
asbasbasbag56
(g72
g58
NtRp3708
(dp3709
g61
(dp3710
sg70
g3639
sg63
(lp3711
g56
(g77
g58
NtRp3712
(dp3713
g61
(dp3714
g81
g82
ssg70
g3708
sg63
(lp3715
S'last_name'
p3716
asbag56
(g77
g58
NtRp3717
(dp3718
g61
(dp3719
g88
g89
ssg70
g3708
sg63
(lp3720
S':'
asbag56
(g77
g58
NtRp3721
(dp3722
g61
(dp3723
sg70
g3708
sg63
(lp3724
g56
(g57
g58
NtRp3725
(dp3726
g61
(dp3727
g69
I3
ssg70
g3721
sg63
(lp3728
S'Scott'
p3729
asbasbasbag56
(g72
g58
NtRp3730
(dp3731
g61
(dp3732
sg70
g3639
sg63
(lp3733
g56
(g77
g58
NtRp3734
(dp3735
g61
(dp3736
g81
g82
ssg70
g3730
sg63
(lp3737
S'password'
p3738
asbag56
(g77
g58
NtRp3739
(dp3740
g61
(dp3741
g88
g89
ssg70
g3730
sg63
(lp3742
S':'
asbag56
(g77
g58
NtRp3743
(dp3744
g61
(dp3745
sg70
g3730
sg63
(lp3746
g56
(g57
g58
NtRp3747
(dp3748
g61
(dp3749
g69
I3
ssg70
g3743
sg63
(lp3750
S'19738f1e9a2c8eaac81936a86bf608a1a6995e02f527fa31723cb88a2e513a1efae33471354a02805bf25ea2ea17a59c025a5fc8eca6b3bb2137bda74e538737'
p3751
asbasbasbag56
(g72
g58
NtRp3752
(dp3753
g61
(dp3754
sg70
g3639
sg63
(lp3755
g56
(g77
g58
NtRp3756
(dp3757
g61
(dp3758
g81
g82
ssg70
g3752
sg63
(lp3759
S'registration_key'
p3760
asbag56
(g77
g58
NtRp3761
(dp3762
g61
(dp3763
g88
g89
ssg70
g3752
sg63
(lp3764
S':'
asbag56
(g77
g58
NtRp3765
(dp3766
g61
(dp3767
sg70
g3752
sg63
(lp3768
g56
(g57
g58
NtRp3769
(dp3770
g61
(dp3771
g69
I3
ssg70
g3765
sg63
(lp3772
S''
asbasbasbag56
(g72
g58
NtRp3773
(dp3774
g61
(dp3775
sg70
g3639
sg63
(lp3776
g56
(g77
g58
NtRp3777
(dp3778
g61
(dp3779
g81
g82
ssg70
g3773
sg63
(lp3780
S'reset_password_key'
p3781
asbag56
(g77
g58
NtRp3782
(dp3783
g61
(dp3784
g88
g89
ssg70
g3773
sg63
(lp3785
S':'
asbag56
(g77
g58
NtRp3786
(dp3787
g61
(dp3788
sg70
g3773
sg63
(lp3789
g56
(g57
g58
NtRp3790
(dp3791
g61
(dp3792
g69
I3
ssg70
g3786
sg63
(lp3793
S''
asbasbasbasbasbasbasbasbasbasbasbag56
(g72
g58
NtRp3794
(dp3795
g61
(dp3796
sg70
g3436
sg63
(lp3797
g56
(g77
g58
NtRp3798
(dp3799
g61
(dp3800
g81
g82
ssg70
g3794
sg63
(lp3801
S'eval'
p3802
asbag56
(g77
g58
NtRp3803
(dp3804
g61
(dp3805
g88
g89
ssg70
g3794
sg63
(lp3806
S':'
asbag56
(g77
g58
NtRp3807
(dp3808
g61
(dp3809
sg70
g3794
sg63
(lp3810
g56
(g57
g58
NtRp3811
(dp3812
g61
(dp3813
g69
I5
ssg70
g3807
sg63
(lp3814
S'correct'
p3815
asbasbasbag56
(g72
g58
NtRp3816
(dp3817
g61
(dp3818
sg70
g3436
sg63
(lp3819
g56
(g77
g58
NtRp3820
(dp3821
g61
(dp3822
g81
g82
ssg70
g3816
sg63
(lp3823
S'path_freq'
p3824
asbag56
(g77
g58
NtRp3825
(dp3826
g61
(dp3827
g88
g89
ssg70
g3816
sg63
(lp3828
S':'
asbag56
(g77
g58
NtRp3829
(dp3830
g61
(dp3831
sg70
g3816
sg63
(lp3832
g56
(g57
g58
NtRp3833
(dp3834
g61
(dp3835
g69
I5
ssg70
g3829
sg63
(lp3836
S''
asbasbasbag56
(g72
g58
NtRp3837
(dp3838
g61
(dp3839
sg70
g3436
sg63
(lp3840
g56
(g77
g58
NtRp3841
(dp3842
g61
(dp3843
g81
g82
ssg70
g3837
sg63
(lp3844
S'path_id'
p3845
asbag56
(g77
g58
NtRp3846
(dp3847
g61
(dp3848
g88
g89
ssg70
g3837
sg63
(lp3849
S':'
asbag56
(g77
g58
NtRp3850
(dp3851
g61
(dp3852
sg70
g3837
sg63
(lp3853
g56
(g57
g58
NtRp3854
(dp3855
g61
(dp3856
g69
I5
ssg70
g3850
sg63
(lp3857
S'4'
asbasbasbag56
(g72
g58
NtRp3858
(dp3859
g61
(dp3860
sg70
g3436
sg63
(lp3861
g56
(g77
g58
NtRp3862
(dp3863
g61
(dp3864
g81
g82
ssg70
g3858
sg63
(lp3865
S'path_length'
p3866
asbag56
(g77
g58
NtRp3867
(dp3868
g61
(dp3869
g88
g89
ssg70
g3858
sg63
(lp3870
S':'
asbag56
(g77
g58
NtRp3871
(dp3872
g61
(dp3873
sg70
g3858
sg63
(lp3874
g56
(g57
g58
NtRp3875
(dp3876
g61
(dp3877
g69
I5
ssg70
g3871
sg63
(lp3878
S'20'
p3879
asbasbasbag56
(g72
g58
NtRp3880
(dp3881
g61
(dp3882
sg70
g3436
sg63
(lp3883
g56
(g77
g58
NtRp3884
(dp3885
g61
(dp3886
g81
g82
ssg70
g3880
sg63
(lp3887
S'path_name'
p3888
asbag56
(g77
g58
NtRp3889
(dp3890
g61
(dp3891
g88
g89
ssg70
g3880
sg63
(lp3892
S':'
asbag56
(g77
g58
NtRp3893
(dp3894
g61
(dp3895
sg70
g3880
sg63
(lp3896
g56
(g57
g58
NtRp3897
(dp3898
g61
(dp3899
g69
I5
ssg70
g3893
sg63
(lp3900
S'Tyndale - Greek Exegesis I - Week 4'
p3901
asbasbasbag56
(g72
g58
NtRp3902
(dp3903
g61
(dp3904
sg70
g3436
sg63
(lp3905
g56
(g77
g58
NtRp3906
(dp3907
g61
(dp3908
g81
g82
ssg70
g3902
sg63
(lp3909
S'path_tags'
p3910
asbag56
(g77
g58
NtRp3911
(dp3912
g61
(dp3913
g88
g89
ssg70
g3902
sg63
(lp3914
S':'
asbag56
(g77
g58
NtRp3915
(dp3916
g61
(dp3917
sg70
g3902
sg63
(lp3918
g56
(g57
g58
NtRp3919
(dp3920
g61
(dp3921
g69
I5
ssg70
g3915
sg63
(lp3922
g56
(g65
g58
NtRp3923
(dp3924
g61
(dp3925
g69
I4
ssg70
Nsg63
(lp3926
sbasbasbasbag56
(g72
g58
NtRp3927
(dp3928
g61
(dp3929
sg70
g3436
sg63
(lp3930
g56
(g77
g58
NtRp3931
(dp3932
g61
(dp3933
g81
g82
ssg70
g3927
sg63
(lp3934
S'qID'
p3935
asbag56
(g77
g58
NtRp3936
(dp3937
g61
(dp3938
g88
g89
ssg70
g3927
sg63
(lp3939
S':'
asbag56
(g77
g58
NtRp3940
(dp3941
g61
(dp3942
sg70
g3927
sg63
(lp3943
g56
(g57
g58
NtRp3944
(dp3945
g61
(dp3946
g69
I5
ssg70
g3940
sg63
(lp3947
S'91'
p3948
asbasbasbag56
(g72
g58
NtRp3949
(dp3950
g61
(dp3951
sg70
g3436
sg63
(lp3952
g56
(g77
g58
NtRp3953
(dp3954
g61
(dp3955
g81
g82
ssg70
g3949
sg63
(lp3956
S'q_counter'
p3957
asbag56
(g77
g58
NtRp3958
(dp3959
g61
(dp3960
g88
g89
ssg70
g3949
sg63
(lp3961
S':'
asbag56
(g77
g58
NtRp3962
(dp3963
g61
(dp3964
sg70
g3949
sg63
(lp3965
g56
(g57
g58
NtRp3966
(dp3967
g61
(dp3968
g69
I5
ssg70
g3962
sg63
(lp3969
S'7'
asbasbasbag56
(g72
g58
NtRp3970
(dp3971
g61
(dp3972
sg70
g3436
sg63
(lp3973
g56
(g77
g58
NtRp3974
(dp3975
g61
(dp3976
g81
g82
ssg70
g3970
sg63
(lp3977
S'question_text'
p3978
asbag56
(g77
g58
NtRp3979
(dp3980
g61
(dp3981
g88
g89
ssg70
g3970
sg63
(lp3982
S':'
asbag56
(g77
g58
NtRp3983
(dp3984
g61
(dp3985
sg70
g3970
sg63
(lp3986
g56
(g57
g58
NtRp3987
(dp3988
g61
(dp3989
g69
I5
ssg70
g3983
sg63
(lp3990
S'This will throw a regex error'
p3991
asbasbasbag56
(g72
g58
NtRp3992
(dp3993
g61
(dp3994
sg70
g3436
sg63
(lp3995
g56
(g77
g58
NtRp3996
(dp3997
g61
(dp3998
g81
g82
ssg70
g3992
sg63
(lp3999
S'quiz_type'
p4000
asbag56
(g77
g58
NtRp4001
(dp4002
g61
(dp4003
g88
g89
ssg70
g3992
sg63
(lp4004
S':'
asbag56
(g77
g58
NtRp4005
(dp4006
g61
(dp4007
sg70
g3992
sg63
(lp4008
g56
(g57
g58
NtRp4009
(dp4010
g61
(dp4011
g69
I5
ssg70
g4005
sg63
(lp4012
S'fresh questions (first try)'
p4013
asbasbasbag56
(g72
g58
NtRp4014
(dp4015
g61
(dp4016
sg70
g3436
sg63
(lp4017
g56
(g77
g58
NtRp4018
(dp4019
g61
(dp4020
g81
g82
ssg70
g4014
sg63
(lp4021
S'readable_answer'
p4022
asbag56
(g77
g58
NtRp4023
(dp4024
g61
(dp4025
g88
g89
ssg70
g4014
sg63
(lp4026
S':'
asbag56
(g77
g58
NtRp4027
(dp4028
g61
(dp4029
sg70
g4014
sg63
(lp4030
g56
(g57
g58
NtRp4031
(dp4032
g61
(dp4033
g69
I5
ssg70
g4027
sg63
(lp4034
S"I shouldn't see this because a regex error should be thrown"
p4035
asbasbasbag56
(g72
g58
NtRp4036
(dp4037
g61
(dp4038
sg70
g3436
sg63
(lp4039
g56
(g77
g58
NtRp4040
(dp4041
g61
(dp4042
g81
g82
ssg70
g4036
sg63
(lp4043
S'response'
p4044
asbag56
(g77
g58
NtRp4045
(dp4046
g61
(dp4047
g88
g89
ssg70
g4036
sg63
(lp4048
S':'
asbag56
(g77
g58
NtRp4049
(dp4050
g61
(dp4051
sg70
g4036
sg63
(lp4052
g56
(g57
g58
NtRp4053
(dp4054
g61
(dp4055
g69
I5
ssg70
g4049
sg63
(lp4056
S'o'
asbasbasbag56
(g72
g58
NtRp4057
(dp4058
g61
(dp4059
sg70
g3436
sg63
(lp4060
g56
(g77
g58
NtRp4061
(dp4062
g61
(dp4063
g81
g82
ssg70
g4057
sg63
(lp4064
S'score'
p4065
asbag56
(g77
g58
NtRp4066
(dp4067
g61
(dp4068
g88
g89
ssg70
g4057
sg63
(lp4069
S':'
asbag56
(g77
g58
NtRp4070
(dp4071
g61
(dp4072
sg70
g4057
sg63
(lp4073
g56
(g57
g58
NtRp4074
(dp4075
g61
(dp4076
g69
I5
ssg70
g4070
sg63
(lp4077
S'1'
asbasbasbasbasbsS'etype'
p4078
S"<type 'exceptions.RuntimeError'>"
p4079
sS'date'
p4080
S'Fri Oct 21 15:45:03 2011'
p4081
sS'response'
p4082
g56
(g57
g58
NtRp4083
(dp4084
g61
(dp4085
sg63
(lp4086
g56
(g65
g58
NtRp4087
(dp4088
g61
(dp4089
g69
I5
ssg70
Nsg63
(lp4090
g56
(g72
g58
NtRp4091
(dp4092
g61
(dp4093
sg70
g4087
sg63
(lp4094
g56
(g77
g58
NtRp4095
(dp4096
g61
(dp4097
g81
g82
ssg70
g4091
sg63
(lp4098
g180
asbag56
(g77
g58
NtRp4099
(dp4100
g61
(dp4101
g88
g89
ssg70
g4091
sg63
(lp4102
S':'
asbag56
(g77
g58
NtRp4103
(dp4104
g61
(dp4105
sg70
g4091
sg63
(lp4106
g56
(g57
g58
NtRp4107
(dp4108
g61
(dp4109
g69
I5
ssg70
g4103
sg63
(lp4110
S'<cStringIO.StringO object at 0x2860ce0>'
p4111
asbasbasbag56
(g72
g58
NtRp4112
(dp4113
g61
(dp4114
sg70
g4087
sg63
(lp4115
g56
(g77
g58
NtRp4116
(dp4117
g61
(dp4118
g81
g82
ssg70
g4112
sg63
(lp4119
g268
asbag56
(g77
g58
NtRp4120
(dp4121
g61
(dp4122
g88
g89
ssg70
g4112
sg63
(lp4123
S':'
asbag56
(g77
g58
NtRp4124
(dp4125
g61
(dp4126
sg70
g4112
sg63
(lp4127
g56
(g57
g58
NtRp4128
(dp4129
g61
(dp4130
g69
I5
ssg70
g4124
sg63
(lp4131
g56
(g65
g58
NtRp4132
(dp4133
g61
(dp4134
g69
I4
ssg70
Nsg63
(lp4135
g56
(g72
g58
NtRp4136
(dp4137
g61
(dp4138
sg70
g4132
sg63
(lp4139
g56
(g77
g58
NtRp4140
(dp4141
g61
(dp4142
g81
g82
ssg70
g4136
sg63
(lp4143
S'session_id_paideia'
p4144
asbag56
(g77
g58
NtRp4145
(dp4146
g61
(dp4147
g88
g89
ssg70
g4136
sg63
(lp4148
S':'
asbag56
(g77
g58
NtRp4149
(dp4150
g61
(dp4151
sg70
g4136
sg63
(lp4152
g56
(g57
g58
NtRp4153
(dp4154
g61
(dp4155
g69
I4
ssg70
g4149
sg63
(lp4156
g56
(g65
g58
NtRp4157
(dp4158
g61
(dp4159
g69
I3
ssg70
Nsg63
(lp4160
g56
(g72
g58
NtRp4161
(dp4162
g61
(dp4163
sg70
g4157
sg63
(lp4164
g56
(g77
g58
NtRp4165
(dp4166
g61
(dp4167
g81
g82
ssg70
g4161
sg63
(lp4168
g318
asbag56
(g77
g58
NtRp4169
(dp4170
g61
(dp4171
g88
g89
ssg70
g4161
sg63
(lp4172
S':'
asbag56
(g77
g58
NtRp4173
(dp4174
g61
(dp4175
sg70
g4161
sg63
(lp4176
g56
(g57
g58
NtRp4177
(dp4178
g61
(dp4179
g69
I3
ssg70
g4173
sg63
(lp4180
S''
asbasbasbag56
(g72
g58
NtRp4181
(dp4182
g61
(dp4183
sg70
g4157
sg63
(lp4184
g56
(g77
g58
NtRp4185
(dp4186
g61
(dp4187
g81
g82
ssg70
g4181
sg63
(lp4188
g339
asbag56
(g77
g58
NtRp4189
(dp4190
g61
(dp4191
g88
g89
ssg70
g4181
sg63
(lp4192
S':'
asbag56
(g77
g58
NtRp4193
(dp4194
g61
(dp4195
sg70
g4181
sg63
(lp4196
g56
(g57
g58
NtRp4197
(dp4198
g61
(dp4199
g69
I3
ssg70
g4193
sg63
(lp4200
S''
asbasbasbag56
(g72
g58
NtRp4201
(dp4202
g61
(dp4203
sg70
g4157
sg63
(lp4204
g56
(g77
g58
NtRp4205
(dp4206
g61
(dp4207
g81
g82
ssg70
g4201
sg63
(lp4208
g360
asbag56
(g77
g58
NtRp4209
(dp4210
g61
(dp4211
g88
g89
ssg70
g4201
sg63
(lp4212
S':'
asbag56
(g77
g58
NtRp4213
(dp4214
g61
(dp4215
sg70
g4201
sg63
(lp4216
g56
(g57
g58
NtRp4217
(dp4218
g61
(dp4219
g69
I3
ssg70
g4213
sg63
(lp4220
S''
asbasbasbag56
(g72
g58
NtRp4221
(dp4222
g61
(dp4223
sg70
g4157
sg63
(lp4224
g56
(g77
g58
NtRp4225
(dp4226
g61
(dp4227
g81
g82
ssg70
g4221
sg63
(lp4228
g381
asbag56
(g77
g58
NtRp4229
(dp4230
g61
(dp4231
g88
g89
ssg70
g4221
sg63
(lp4232
S':'
asbag56
(g77
g58
NtRp4233
(dp4234
g61
(dp4235
sg70
g4221
sg63
(lp4236
g56
(g57
g58
NtRp4237
(dp4238
g61
(dp4239
g69
I3
ssg70
g4233
sg63
(lp4240
S''
asbasbasbag56
(g72
g58
NtRp4241
(dp4242
g61
(dp4243
sg70
g4157
sg63
(lp4244
g56
(g77
g58
NtRp4245
(dp4246
g61
(dp4247
g81
g82
ssg70
g4241
sg63
(lp4248
g402
asbag56
(g77
g58
NtRp4249
(dp4250
g61
(dp4251
g88
g89
ssg70
g4241
sg63
(lp4252
S':'
asbag56
(g77
g58
NtRp4253
(dp4254
g61
(dp4255
sg70
g4241
sg63
(lp4256
g56
(g57
g58
NtRp4257
(dp4258
g61
(dp4259
g69
I3
ssg70
g4253
sg63
(lp4260
S''
asbasbasbag56
(g72
g58
NtRp4261
(dp4262
g61
(dp4263
sg70
g4157
sg63
(lp4264
g56
(g77
g58
NtRp4265
(dp4266
g61
(dp4267
g81
g82
ssg70
g4261
sg63
(lp4268
g423
asbag56
(g77
g58
NtRp4269
(dp4270
g61
(dp4271
g88
g89
ssg70
g4261
sg63
(lp4272
S':'
asbag56
(g77
g58
NtRp4273
(dp4274
g61
(dp4275
sg70
g4261
sg63
(lp4276
g56
(g57
g58
NtRp4277
(dp4278
g61
(dp4279
g69
I3
ssg70
g4273
sg63
(lp4280
S'/'
asbasbasbag56
(g72
g58
NtRp4281
(dp4282
g61
(dp4283
sg70
g4157
sg63
(lp4284
g56
(g77
g58
NtRp4285
(dp4286
g61
(dp4287
g81
g82
ssg70
g4281
sg63
(lp4288
g444
asbag56
(g77
g58
NtRp4289
(dp4290
g61
(dp4291
g88
g89
ssg70
g4281
sg63
(lp4292
S':'
asbag56
(g77
g58
NtRp4293
(dp4294
g61
(dp4295
sg70
g4281
sg63
(lp4296
g56
(g57
g58
NtRp4297
(dp4298
g61
(dp4299
g69
I3
ssg70
g4293
sg63
(lp4300
S''
asbasbasbag56
(g72
g58
NtRp4301
(dp4302
g61
(dp4303
sg70
g4157
sg63
(lp4304
g56
(g77
g58
NtRp4305
(dp4306
g61
(dp4307
g81
g82
ssg70
g4301
sg63
(lp4308
g465
asbag56
(g77
g58
NtRp4309
(dp4310
g61
(dp4311
g88
g89
ssg70
g4301
sg63
(lp4312
S':'
asbag56
(g77
g58
NtRp4313
(dp4314
g61
(dp4315
sg70
g4301
sg63
(lp4316
g56
(g57
g58
NtRp4317
(dp4318
g61
(dp4319
g69
I3
ssg70
g4313
sg63
(lp4320
S''
asbasbasbasbasbasbasbasbasbasbasbag56
(g72
g58
NtRp4321
(dp4322
g61
(dp4323
sg70
g4087
sg63
(lp4324
g56
(g77
g58
NtRp4325
(dp4326
g61
(dp4327
g81
g82
ssg70
g4321
sg63
(lp4328
S'files'
p4329
asbag56
(g77
g58
NtRp4330
(dp4331
g61
(dp4332
g88
g89
ssg70
g4321
sg63
(lp4333
S':'
asbag56
(g77
g58
NtRp4334
(dp4335
g61
(dp4336
sg70
g4321
sg63
(lp4337
g56
(g57
g58
NtRp4338
(dp4339
g61
(dp4340
g69
I5
ssg70
g4334
sg63
(lp4341
g56
(g65
g58
NtRp4342
(dp4343
g61
(dp4344
g69
I4
ssg70
Nsg63
(lp4345
sbasbasbasbag56
(g72
g58
NtRp4346
(dp4347
g61
(dp4348
sg70
g4087
sg63
(lp4349
g56
(g77
g58
NtRp4350
(dp4351
g61
(dp4352
g81
g82
ssg70
g4346
sg63
(lp4353
S'flash'
p4354
asbag56
(g77
g58
NtRp4355
(dp4356
g61
(dp4357
g88
g89
ssg70
g4346
sg63
(lp4358
S':'
asbag56
(g77
g58
NtRp4359
(dp4360
g61
(dp4361
sg70
g4346
sg63
(lp4362
g56
(g57
g58
NtRp4363
(dp4364
g61
(dp4365
g69
I5
ssg70
g4359
sg63
(lp4366
S''
asbasbasbag56
(g72
g58
NtRp4367
(dp4368
g61
(dp4369
sg70
g4087
sg63
(lp4370
g56
(g77
g58
NtRp4371
(dp4372
g61
(dp4373
g81
g82
ssg70
g4367
sg63
(lp4374
S'generic_patterns'
p4375
asbag56
(g77
g58
NtRp4376
(dp4377
g61
(dp4378
g88
g89
ssg70
g4367
sg63
(lp4379
S':'
asbag56
(g77
g58
NtRp4380
(dp4381
g61
(dp4382
sg70
g4367
sg63
(lp4383
g56
(g57
g58
NtRp4384
(dp4385
g61
(dp4386
g69
I5
ssg70
g4380
sg63
(lp4387
g56
(g65
g58
NtRp4388
(dp4389
g61
(dp4390
g69
I4
ssg70
Nsg63
(lp4391
g56
(g72
g58
NtRp4392
(dp4393
g61
(dp4394
sg70
g4388
sg63
(lp4395
g56
(g77
g58
NtRp4396
(dp4397
g61
(dp4398
sg70
g4392
sg63
(lp4399
g56
(g57
g58
NtRp4400
(dp4401
g61
(dp4402
g69
I4
ssg70
g4396
sg63
(lp4403
S'*'
asbasbasbasbasbasbasbag56
(g72
g58
NtRp4404
(dp4405
g61
(dp4406
sg70
g4087
sg63
(lp4407
g56
(g77
g58
NtRp4408
(dp4409
g61
(dp4410
g81
g82
ssg70
g4404
sg63
(lp4411
S'headers'
p4412
asbag56
(g77
g58
NtRp4413
(dp4414
g61
(dp4415
g88
g89
ssg70
g4404
sg63
(lp4416
S':'
asbag56
(g77
g58
NtRp4417
(dp4418
g61
(dp4419
sg70
g4404
sg63
(lp4420
g56
(g57
g58
NtRp4421
(dp4422
g61
(dp4423
g69
I5
ssg70
g4417
sg63
(lp4424
g56
(g65
g58
NtRp4425
(dp4426
g61
(dp4427
g69
I4
ssg70
Nsg63
(lp4428
g56
(g72
g58
NtRp4429
(dp4430
g61
(dp4431
sg70
g4425
sg63
(lp4432
g56
(g77
g58
NtRp4433
(dp4434
g61
(dp4435
g81
g82
ssg70
g4429
sg63
(lp4436
S'Cache-Control'
p4437
asbag56
(g77
g58
NtRp4438
(dp4439
g61
(dp4440
g88
g89
ssg70
g4429
sg63
(lp4441
S':'
asbag56
(g77
g58
NtRp4442
(dp4443
g61
(dp4444
sg70
g4429
sg63
(lp4445
g56
(g57
g58
NtRp4446
(dp4447
g61
(dp4448
g69
I4
ssg70
g4442
sg63
(lp4449
S'no-store, no-cache, must-revalidate, post-check=0, pre-check=0'
p4450
asbasbasbag56
(g72
g58
NtRp4451
(dp4452
g61
(dp4453
sg70
g4425
sg63
(lp4454
g56
(g77
g58
NtRp4455
(dp4456
g61
(dp4457
g81
g82
ssg70
g4451
sg63
(lp4458
S'Content-Type'
p4459
asbag56
(g77
g58
NtRp4460
(dp4461
g61
(dp4462
g88
g89
ssg70
g4451
sg63
(lp4463
S':'
asbag56
(g77
g58
NtRp4464
(dp4465
g61
(dp4466
sg70
g4451
sg63
(lp4467
g56
(g57
g58
NtRp4468
(dp4469
g61
(dp4470
g69
I4
ssg70
g4464
sg63
(lp4471
S'text/html; charset=utf-8'
p4472
asbasbasbag56
(g72
g58
NtRp4473
(dp4474
g61
(dp4475
sg70
g4425
sg63
(lp4476
g56
(g77
g58
NtRp4477
(dp4478
g61
(dp4479
g81
g82
ssg70
g4473
sg63
(lp4480
S'Expires'
p4481
asbag56
(g77
g58
NtRp4482
(dp4483
g61
(dp4484
g88
g89
ssg70
g4473
sg63
(lp4485
S':'
asbag56
(g77
g58
NtRp4486
(dp4487
g61
(dp4488
sg70
g4473
sg63
(lp4489
g56
(g57
g58
NtRp4490
(dp4491
g61
(dp4492
g69
I4
ssg70
g4486
sg63
(lp4493
S'Fri, 21 Oct 2011 19:45:03 GMT'
p4494
asbasbasbag56
(g72
g58
NtRp4495
(dp4496
g61
(dp4497
sg70
g4425
sg63
(lp4498
g56
(g77
g58
NtRp4499
(dp4500
g61
(dp4501
g81
g82
ssg70
g4495
sg63
(lp4502
S'Pragma'
p4503
asbag56
(g77
g58
NtRp4504
(dp4505
g61
(dp4506
g88
g89
ssg70
g4495
sg63
(lp4507
S':'
asbag56
(g77
g58
NtRp4508
(dp4509
g61
(dp4510
sg70
g4495
sg63
(lp4511
g56
(g57
g58
NtRp4512
(dp4513
g61
(dp4514
g69
I4
ssg70
g4508
sg63
(lp4515
S'no-cache'
p4516
asbasbasbag56
(g72
g58
NtRp4517
(dp4518
g61
(dp4519
sg70
g4425
sg63
(lp4520
g56
(g77
g58
NtRp4521
(dp4522
g61
(dp4523
g81
g82
ssg70
g4517
sg63
(lp4524
S'X-Powered-By'
p4525
asbag56
(g77
g58
NtRp4526
(dp4527
g61
(dp4528
g88
g89
ssg70
g4517
sg63
(lp4529
S':'
asbag56
(g77
g58
NtRp4530
(dp4531
g61
(dp4532
sg70
g4517
sg63
(lp4533
g56
(g57
g58
NtRp4534
(dp4535
g61
(dp4536
g69
I4
ssg70
g4530
sg63
(lp4537
S'web2py'
p4538
asbasbasbasbasbasbasbag56
(g72
g58
NtRp4539
(dp4540
g61
(dp4541
sg70
g4087
sg63
(lp4542
g56
(g77
g58
NtRp4543
(dp4544
g61
(dp4545
g81
g82
ssg70
g4539
sg63
(lp4546
S'menu'
p4547
asbag56
(g77
g58
NtRp4548
(dp4549
g61
(dp4550
g88
g89
ssg70
g4539
sg63
(lp4551
S':'
asbag56
(g77
g58
NtRp4552
(dp4553
g61
(dp4554
sg70
g4539
sg63
(lp4555
g56
(g57
g58
NtRp4556
(dp4557
g61
(dp4558
g69
I5
ssg70
g4552
sg63
(lp4559
g56
(g65
g58
NtRp4560
(dp4561
g61
(dp4562
g69
I4
ssg70
Nsg63
(lp4563
g56
(g72
g58
NtRp4564
(dp4565
g61
(dp4566
sg70
g4560
sg63
(lp4567
g56
(g77
g58
NtRp4568
(dp4569
g61
(dp4570
sg70
g4564
sg63
(lp4571
g56
(g57
g58
NtRp4572
(dp4573
g61
(dp4574
g69
I4
ssg70
g4568
sg63
(lp4575
g56
(g65
g58
NtRp4576
(dp4577
g61
(dp4578
g69
I3
ssg70
Nsg63
(lp4579
g56
(g72
g58
NtRp4580
(dp4581
g61
(dp4582
sg70
g4576
sg63
(lp4583
g56
(g77
g58
NtRp4584
(dp4585
g61
(dp4586
sg70
g4580
sg63
(lp4587
g56
(g57
g58
NtRp4588
(dp4589
g61
(dp4590
g69
I3
ssg70
g4584
sg63
(lp4591
cgluon.languages
lazyT_unpickle
p4592
(S't\x04\x00\x00\x00Home'
tRp4593
asbasbasbag56
(g72
g58
NtRp4594
(dp4595
g61
(dp4596
sg70
g4576
sg63
(lp4597
g56
(g77
g58
NtRp4598
(dp4599
g61
(dp4600
sg70
g4594
sg63
(lp4601
g56
(g57
g58
NtRp4602
(dp4603
g61
(dp4604
g69
I3
ssg70
g4598
sg63
(lp4605
g1029
asbasbasbag56
(g72
g58
NtRp4606
(dp4607
g61
(dp4608
sg70
g4576
sg63
(lp4609
g56
(g77
g58
NtRp4610
(dp4611
g61
(dp4612
sg70
g4606
sg63
(lp4613
g56
(g57
g58
NtRp4614
(dp4615
g61
(dp4616
g69
I3
ssg70
g4610
sg63
(lp4617
S'/paideia/default/index.load'
p4618
asbasbasbag56
(g72
g58
NtRp4619
(dp4620
g61
(dp4621
sg70
g4576
sg63
(lp4622
g56
(g77
g58
NtRp4623
(dp4624
g61
(dp4625
sg70
g4619
sg63
(lp4626
g56
(g57
g58
NtRp4627
(dp4628
g61
(dp4629
g69
I3
ssg70
g4623
sg63
(lp4630
g56
(g65
g58
NtRp4631
(dp4632
g61
(dp4633
g69
I2
ssg70
Nsg63
(lp4634
sbasbasbasbasbasbasbasbag56
(g72
g58
NtRp4635
(dp4636
g61
(dp4637
sg70
g4560
sg63
(lp4638
g56
(g77
g58
NtRp4639
(dp4640
g61
(dp4641
sg70
g4635
sg63
(lp4642
g56
(g57
g58
NtRp4643
(dp4644
g61
(dp4645
g69
I4
ssg70
g4639
sg63
(lp4646
g56
(g65
g58
NtRp4647
(dp4648
g61
(dp4649
g69
I3
ssg70
Nsg63
(lp4650
g56
(g72
g58
NtRp4651
(dp4652
g61
(dp4653
sg70
g4647
sg63
(lp4654
g56
(g77
g58
NtRp4655
(dp4656
g61
(dp4657
sg70
g4651
sg63
(lp4658
g56
(g57
g58
NtRp4659
(dp4660
g61
(dp4661
g69
I3
ssg70
g4655
sg63
(lp4662
g4592
(S't\x05\x00\x00\x00Admin'
tRp4663
asbasbasbag56
(g72
g58
NtRp4664
(dp4665
g61
(dp4666
sg70
g4647
sg63
(lp4667
g56
(g77
g58
NtRp4668
(dp4669
g61
(dp4670
sg70
g4664
sg63
(lp4671
g56
(g57
g58
NtRp4672
(dp4673
g61
(dp4674
g69
I3
ssg70
g4668
sg63
(lp4675
g1029
asbasbasbag56
(g72
g58
NtRp4676
(dp4677
g61
(dp4678
sg70
g4647
sg63
(lp4679
g56
(g77
g58
NtRp4680
(dp4681
g61
(dp4682
sg70
g4676
sg63
(lp4683
g56
(g57
g58
NtRp4684
(dp4685
g61
(dp4686
g69
I3
ssg70
g4680
sg63
(lp4687
S'None'
p4688
asbasbasbag56
(g72
g58
NtRp4689
(dp4690
g61
(dp4691
sg70
g4647
sg63
(lp4692
g56
(g77
g58
NtRp4693
(dp4694
g61
(dp4695
sg70
g4689
sg63
(lp4696
g56
(g57
g58
NtRp4697
(dp4698
g61
(dp4699
g69
I3
ssg70
g4693
sg63
(lp4700
g56
(g65
g58
NtRp4701
(dp4702
g61
(dp4703
g69
I2
ssg70
Nsg63
(lp4704
g56
(g72
g58
NtRp4705
(dp4706
g61
(dp4707
sg70
g4701
sg63
(lp4708
g56
(g77
g58
NtRp4709
(dp4710
g61
(dp4711
sg70
g4705
sg63
(lp4712
g56
(g57
g58
NtRp4713
(dp4714
g61
(dp4715
g69
I2
ssg70
g4709
sg63
(lp4716
g56
(g65
g58
NtRp4717
(dp4718
g61
(dp4719
g69
I1
ssg70
Nsg63
(lp4720
g56
(g72
g58
NtRp4721
(dp4722
g61
(dp4723
sg70
g4717
sg63
(lp4724
g56
(g77
g58
NtRp4725
(dp4726
g61
(dp4727
sg70
g4721
sg63
(lp4728
g56
(g57
g58
NtRp4729
(dp4730
g61
(dp4731
g69
I1
ssg70
g4725
sg63
(lp4732
g4592
(S't\x06\x00\x00\x00Design'
tRp4733
asbasbasbag56
(g72
g58
NtRp4734
(dp4735
g61
(dp4736
sg70
g4717
sg63
(lp4737
g56
(g77
g58
NtRp4738
(dp4739
g61
(dp4740
sg70
g4734
sg63
(lp4741
g56
(g57
g58
NtRp4742
(dp4743
g61
(dp4744
g69
I1
ssg70
g4738
sg63
(lp4745
I00
asbasbasbag56
(g72
g58
NtRp4746
(dp4747
g61
(dp4748
sg70
g4717
sg63
(lp4749
g56
(g77
g58
NtRp4750
(dp4751
g61
(dp4752
sg70
g4746
sg63
(lp4753
g56
(g57
g58
NtRp4754
(dp4755
g61
(dp4756
g69
I1
ssg70
g4750
sg63
(lp4757
S'/admin/default/index.load'
p4758
asbasbasbasbasbasbasbag56
(g72
g58
NtRp4759
(dp4760
g61
(dp4761
sg70
g4701
sg63
(lp4762
g56
(g77
g58
NtRp4763
(dp4764
g61
(dp4765
sg70
g4759
sg63
(lp4766
g56
(g57
g58
NtRp4767
(dp4768
g61
(dp4769
g69
I2
ssg70
g4763
sg63
(lp4770
g56
(g65
g58
NtRp4771
(dp4772
g61
(dp4773
g69
I1
ssg70
Nsg63
(lp4774
g56
(g72
g58
NtRp4775
(dp4776
g61
(dp4777
sg70
g4771
sg63
(lp4778
g56
(g77
g58
NtRp4779
(dp4780
g61
(dp4781
sg70
g4775
sg63
(lp4782
g56
(g57
g58
NtRp4783
(dp4784
g61
(dp4785
g69
I1
ssg70
g4779
sg63
(lp4786
g4592
(S't\x08\x00\x00\x00Database'
tRp4787
asbasbasbag56
(g72
g58
NtRp4788
(dp4789
g61
(dp4790
sg70
g4771
sg63
(lp4791
g56
(g77
g58
NtRp4792
(dp4793
g61
(dp4794
sg70
g4788
sg63
(lp4795
g56
(g57
g58
NtRp4796
(dp4797
g61
(dp4798
g69
I1
ssg70
g4792
sg63
(lp4799
I00
asbasbasbag56
(g72
g58
NtRp4800
(dp4801
g61
(dp4802
sg70
g4771
sg63
(lp4803
g56
(g77
g58
NtRp4804
(dp4805
g61
(dp4806
sg70
g4800
sg63
(lp4807
g56
(g57
g58
NtRp4808
(dp4809
g61
(dp4810
g69
I1
ssg70
g4804
sg63
(lp4811
S'/paideia/appadmin/index.load'
p4812
asbasbasbasbasbasbasbag56
(g72
g58
NtRp4813
(dp4814
g61
(dp4815
sg70
g4701
sg63
(lp4816
g56
(g77
g58
NtRp4817
(dp4818
g61
(dp4819
sg70
g4813
sg63
(lp4820
g56
(g57
g58
NtRp4821
(dp4822
g61
(dp4823
g69
I2
ssg70
g4817
sg63
(lp4824
g56
(g65
g58
NtRp4825
(dp4826
g61
(dp4827
g69
I1
ssg70
Nsg63
(lp4828
g56
(g72
g58
NtRp4829
(dp4830
g61
(dp4831
sg70
g4825
sg63
(lp4832
g56
(g77
g58
NtRp4833
(dp4834
g61
(dp4835
sg70
g4829
sg63
(lp4836
g56
(g57
g58
NtRp4837
(dp4838
g61
(dp4839
g69
I1
ssg70
g4833
sg63
(lp4840
g4592
(S't\x05\x00\x00\x00Users'
tRp4841
asbasbasbag56
(g72
g58
NtRp4842
(dp4843
g61
(dp4844
sg70
g4825
sg63
(lp4845
g56
(g77
g58
NtRp4846
(dp4847
g61
(dp4848
sg70
g4842
sg63
(lp4849
g56
(g57
g58
NtRp4850
(dp4851
g61
(dp4852
g69
I1
ssg70
g4846
sg63
(lp4853
I00
asbasbasbag56
(g72
g58
NtRp4854
(dp4855
g61
(dp4856
sg70
g4825
sg63
(lp4857
g56
(g77
g58
NtRp4858
(dp4859
g61
(dp4860
sg70
g4854
sg63
(lp4861
g56
(g57
g58
NtRp4862
(dp4863
g61
(dp4864
g69
I1
ssg70
g4858
sg63
(lp4865
S'/paideia/listing/user.load'
p4866
asbasbasbasbasbasbasbag56
(g72
g58
NtRp4867
(dp4868
g61
(dp4869
sg70
g4701
sg63
(lp4870
g56
(g77
g58
NtRp4871
(dp4872
g61
(dp4873
sg70
g4867
sg63
(lp4874
g56
(g57
g58
NtRp4875
(dp4876
g61
(dp4877
g69
I2
ssg70
g4871
sg63
(lp4878
g56
(g65
g58
NtRp4879
(dp4880
g61
(dp4881
g69
I1
ssg70
Nsg63
(lp4882
g56
(g72
g58
NtRp4883
(dp4884
g61
(dp4885
sg70
g4879
sg63
(lp4886
g56
(g77
g58
NtRp4887
(dp4888
g61
(dp4889
sg70
g4883
sg63
(lp4890
g56
(g57
g58
NtRp4891
(dp4892
g61
(dp4893
g69
I1
ssg70
g4887
sg63
(lp4894
g4592
(S't\t\x00\x00\x00Questions'
tRp4895
asbasbasbag56
(g72
g58
NtRp4896
(dp4897
g61
(dp4898
sg70
g4879
sg63
(lp4899
g56
(g77
g58
NtRp4900
(dp4901
g61
(dp4902
sg70
g4896
sg63
(lp4903
g56
(g57
g58
NtRp4904
(dp4905
g61
(dp4906
g69
I1
ssg70
g4900
sg63
(lp4907
I00
asbasbasbag56
(g72
g58
NtRp4908
(dp4909
g61
(dp4910
sg70
g4879
sg63
(lp4911
g56
(g77
g58
NtRp4912
(dp4913
g61
(dp4914
sg70
g4908
sg63
(lp4915
g56
(g57
g58
NtRp4916
(dp4917
g61
(dp4918
g69
I1
ssg70
g4912
sg63
(lp4919
S'/paideia/listing/question.load'
p4920
asbasbasbasbasbasbasbag56
(g72
g58
NtRp4921
(dp4922
g61
(dp4923
sg70
g4701
sg63
(lp4924
g56
(g77
g58
NtRp4925
(dp4926
g61
(dp4927
sg70
g4921
sg63
(lp4928
g56
(g57
g58
NtRp4929
(dp4930
g61
(dp4931
g69
I2
ssg70
g4925
sg63
(lp4932
g56
(g65
g58
NtRp4933
(dp4934
g61
(dp4935
g69
I1
ssg70
Nsg63
(lp4936
g56
(g72
g58
NtRp4937
(dp4938
g61
(dp4939
sg70
g4933
sg63
(lp4940
g56
(g77
g58
NtRp4941
(dp4942
g61
(dp4943
sg70
g4937
sg63
(lp4944
g56
(g57
g58
NtRp4945
(dp4946
g61
(dp4947
g69
I1
ssg70
g4941
sg63
(lp4948
g4592
(S't\x07\x00\x00\x00Quizzes'
tRp4949
asbasbasbag56
(g72
g58
NtRp4950
(dp4951
g61
(dp4952
sg70
g4933
sg63
(lp4953
g56
(g77
g58
NtRp4954
(dp4955
g61
(dp4956
sg70
g4950
sg63
(lp4957
g56
(g57
g58
NtRp4958
(dp4959
g61
(dp4960
g69
I1
ssg70
g4954
sg63
(lp4961
I00
asbasbasbag56
(g72
g58
NtRp4962
(dp4963
g61
(dp4964
sg70
g4933
sg63
(lp4965
g56
(g77
g58
NtRp4966
(dp4967
g61
(dp4968
sg70
g4962
sg63
(lp4969
g56
(g57
g58
NtRp4970
(dp4971
g61
(dp4972
g69
I1
ssg70
g4966
sg63
(lp4973
S'/paideia/listing/quiz.load'
p4974
asbasbasbasbasbasbasbag56
(g72
g58
NtRp4975
(dp4976
g61
(dp4977
sg70
g4701
sg63
(lp4978
g56
(g77
g58
NtRp4979
(dp4980
g61
(dp4981
sg70
g4975
sg63
(lp4982
g56
(g57
g58
NtRp4983
(dp4984
g61
(dp4985
g69
I2
ssg70
g4979
sg63
(lp4986
g56
(g65
g58
NtRp4987
(dp4988
g61
(dp4989
g69
I1
ssg70
Nsg63
(lp4990
g56
(g72
g58
NtRp4991
(dp4992
g61
(dp4993
sg70
g4987
sg63
(lp4994
g56
(g77
g58
NtRp4995
(dp4996
g61
(dp4997
sg70
g4991
sg63
(lp4998
g56
(g57
g58
NtRp4999
(dp5000
g61
(dp5001
g69
I1
ssg70
g4995
sg63
(lp5002
g4592
(S't\x04\x00\x00\x00Tags'
tRp5003
asbasbasbag56
(g72
g58
NtRp5004
(dp5005
g61
(dp5006
sg70
g4987
sg63
(lp5007
g56
(g77
g58
NtRp5008
(dp5009
g61
(dp5010
sg70
g5004
sg63
(lp5011
g56
(g57
g58
NtRp5012
(dp5013
g61
(dp5014
g69
I1
ssg70
g5008
sg63
(lp5015
I00
asbasbasbag56
(g72
g58
NtRp5016
(dp5017
g61
(dp5018
sg70
g4987
sg63
(lp5019
g56
(g77
g58
NtRp5020
(dp5021
g61
(dp5022
sg70
g5016
sg63
(lp5023
g56
(g57
g58
NtRp5024
(dp5025
g61
(dp5026
g69
I1
ssg70
g5020
sg63
(lp5027
S'/paideia/listing/tag.load'
p5028
asbasbasbasbasbasbasbasbasbasbasbasbasbasbasbasbasbasbasbag56
(g72
g58
NtRp5029
(dp5030
g61
(dp5031
sg70
g4087
sg63
(lp5032
g56
(g77
g58
NtRp5033
(dp5034
g61
(dp5035
g81
g82
ssg70
g5029
sg63
(lp5036
S'meta'
p5037
asbag56
(g77
g58
NtRp5038
(dp5039
g61
(dp5040
g88
g89
ssg70
g5029
sg63
(lp5041
S':'
asbag56
(g77
g58
NtRp5042
(dp5043
g61
(dp5044
sg70
g5029
sg63
(lp5045
g56
(g57
g58
NtRp5046
(dp5047
g61
(dp5048
g69
I5
ssg70
g5042
sg63
(lp5049
g56
(g65
g58
NtRp5050
(dp5051
g61
(dp5052
g69
I4
ssg70
Nsg63
(lp5053
g56
(g72
g58
NtRp5054
(dp5055
g61
(dp5056
sg70
g5050
sg63
(lp5057
g56
(g77
g58
NtRp5058
(dp5059
g61
(dp5060
g81
g82
ssg70
g5054
sg63
(lp5061
S'author'
p5062
asbag56
(g77
g58
NtRp5063
(dp5064
g61
(dp5065
g88
g89
ssg70
g5054
sg63
(lp5066
S':'
asbag56
(g77
g58
NtRp5067
(dp5068
g61
(dp5069
sg70
g5054
sg63
(lp5070
g56
(g57
g58
NtRp5071
(dp5072
g61
(dp5073
g69
I4
ssg70
g5067
sg63
(lp5074
S'Ian W. Scott'
p5075
asbasbasbag56
(g72
g58
NtRp5076
(dp5077
g61
(dp5078
sg70
g5050
sg63
(lp5079
g56
(g77
g58
NtRp5080
(dp5081
g61
(dp5082
g81
g82
ssg70
g5076
sg63
(lp5083
S'copyright'
p5084
asbag56
(g77
g58
NtRp5085
(dp5086
g61
(dp5087
g88
g89
ssg70
g5076
sg63
(lp5088
S':'
asbag56
(g77
g58
NtRp5089
(dp5090
g61
(dp5091
sg70
g5076
sg63
(lp5092
g56
(g57
g58
NtRp5093
(dp5094
g61
(dp5095
g69
I4
ssg70
g5089
sg63
(lp5096
S'Copyright 2011'
p5097
asbasbasbag56
(g72
g58
NtRp5098
(dp5099
g61
(dp5100
sg70
g5050
sg63
(lp5101
g56
(g77
g58
NtRp5102
(dp5103
g61
(dp5104
g81
g82
ssg70
g5098
sg63
(lp5105
S'description'
p5106
asbag56
(g77
g58
NtRp5107
(dp5108
g61
(dp5109
g88
g89
ssg70
g5098
sg63
(lp5110
S':'
asbag56
(g77
g58
NtRp5111
(dp5112
g61
(dp5113
sg70
g5098
sg63
(lp5114
g56
(g57
g58
NtRp5115
(dp5116
g61
(dp5117
g69
I4
ssg70
g5111
sg63
(lp5118
S'An online space for learning New Testament Greek'
p5119
asbasbasbag56
(g72
g58
NtRp5120
(dp5121
g61
(dp5122
sg70
g5050
sg63
(lp5123
g56
(g77
g58
NtRp5124
(dp5125
g61
(dp5126
g81
g82
ssg70
g5120
sg63
(lp5127
S'generator'
p5128
asbag56
(g77
g58
NtRp5129
(dp5130
g61
(dp5131
g88
g89
ssg70
g5120
sg63
(lp5132
S':'
asbag56
(g77
g58
NtRp5133
(dp5134
g61
(dp5135
sg70
g5120
sg63
(lp5136
g56
(g57
g58
NtRp5137
(dp5138
g61
(dp5139
g69
I4
ssg70
g5133
sg63
(lp5140
S'Web2py Enterprise Framework'
p5141
asbasbasbag56
(g72
g58
NtRp5142
(dp5143
g61
(dp5144
sg70
g5050
sg63
(lp5145
g56
(g77
g58
NtRp5146
(dp5147
g61
(dp5148
g81
g82
ssg70
g5142
sg63
(lp5149
S'keywords'
p5150
asbag56
(g77
g58
NtRp5151
(dp5152
g61
(dp5153
g88
g89
ssg70
g5142
sg63
(lp5154
S':'
asbag56
(g77
g58
NtRp5155
(dp5156
g61
(dp5157
sg70
g5142
sg63
(lp5158
g56
(g57
g58
NtRp5159
(dp5160
g61
(dp5161
g69
I4
ssg70
g5155
sg63
(lp5162
S'Greek, koine, New Testament, language, education, learning'
p5163
asbasbasbasbasbasbasbag56
(g72
g58
NtRp5164
(dp5165
g61
(dp5166
sg70
g4087
sg63
(lp5167
g56
(g77
g58
NtRp5168
(dp5169
g61
(dp5170
g81
g82
ssg70
g5164
sg63
(lp5171
S'postprocessing'
p5172
asbag56
(g77
g58
NtRp5173
(dp5174
g61
(dp5175
g88
g89
ssg70
g5164
sg63
(lp5176
S':'
asbag56
(g77
g58
NtRp5177
(dp5178
g61
(dp5179
sg70
g5164
sg63
(lp5180
g56
(g57
g58
NtRp5181
(dp5182
g61
(dp5183
g69
I5
ssg70
g5177
sg63
(lp5184
g56
(g65
g58
NtRp5185
(dp5186
g61
(dp5187
g69
I4
ssg70
Nsg63
(lp5188
sbasbasbasbag56
(g72
g58
NtRp5189
(dp5190
g61
(dp5191
sg70
g4087
sg63
(lp5192
g56
(g77
g58
NtRp5193
(dp5194
g61
(dp5195
g81
g82
ssg70
g5189
sg63
(lp5196
S'session_file'
p5197
asbag56
(g77
g58
NtRp5198
(dp5199
g61
(dp5200
g88
g89
ssg70
g5189
sg63
(lp5201
S':'
asbag56
(g77
g58
NtRp5202
(dp5203
g61
(dp5204
sg70
g5189
sg63
(lp5205
g56
(g57
g58
NtRp5206
(dp5207
g61
(dp5208
g69
I5
ssg70
g5202
sg63
(lp5209
S"<open file '/home/ian/web2py/applications/paideia/sessions/127.0.0.1-9e457efb-5e5f-4c70-9d24-f738011adcb8', mode 'rb+' at 0x28d21e0>"
p5210
asbasbasbag56
(g72
g58
NtRp5211
(dp5212
g61
(dp5213
sg70
g4087
sg63
(lp5214
g56
(g77
g58
NtRp5215
(dp5216
g61
(dp5217
g81
g82
ssg70
g5211
sg63
(lp5218
S'session_filename'
p5219
asbag56
(g77
g58
NtRp5220
(dp5221
g61
(dp5222
g88
g89
ssg70
g5211
sg63
(lp5223
S':'
asbag56
(g77
g58
NtRp5224
(dp5225
g61
(dp5226
sg70
g5211
sg63
(lp5227
g56
(g57
g58
NtRp5228
(dp5229
g61
(dp5230
g69
I5
ssg70
g5224
sg63
(lp5231
S'/home/ian/web2py/applications/paideia/sessions/127.0.0.1-9e457efb-5e5f-4c70-9d24-f738011adcb8'
p5232
asbasbasbag56
(g72
g58
NtRp5233
(dp5234
g61
(dp5235
sg70
g4087
sg63
(lp5236
g56
(g77
g58
NtRp5237
(dp5238
g61
(dp5239
g81
g82
ssg70
g5233
sg63
(lp5240
S'session_id'
p5241
asbag56
(g77
g58
NtRp5242
(dp5243
g61
(dp5244
g88
g89
ssg70
g5233
sg63
(lp5245
S':'
asbag56
(g77
g58
NtRp5246
(dp5247
g61
(dp5248
sg70
g5233
sg63
(lp5249
g56
(g57
g58
NtRp5250
(dp5251
g61
(dp5252
g69
I5
ssg70
g5246
sg63
(lp5253
S'127.0.0.1-9e457efb-5e5f-4c70-9d24-f738011adcb8'
p5254
asbasbasbag56
(g72
g58
NtRp5255
(dp5256
g61
(dp5257
sg70
g4087
sg63
(lp5258
g56
(g77
g58
NtRp5259
(dp5260
g61
(dp5261
g81
g82
ssg70
g5255
sg63
(lp5262
S'session_id_name'
p5263
asbag56
(g77
g58
NtRp5264
(dp5265
g61
(dp5266
g88
g89
ssg70
g5255
sg63
(lp5267
S':'
asbag56
(g77
g58
NtRp5268
(dp5269
g61
(dp5270
sg70
g5255
sg63
(lp5271
g56
(g57
g58
NtRp5272
(dp5273
g61
(dp5274
g69
I5
ssg70
g5268
sg63
(lp5275
g4144
asbasbasbag56
(g72
g58
NtRp5276
(dp5277
g61
(dp5278
sg70
g4087
sg63
(lp5279
g56
(g77
g58
NtRp5280
(dp5281
g61
(dp5282
g81
g82
ssg70
g5276
sg63
(lp5283
S'session_locked'
p5284
asbag56
(g77
g58
NtRp5285
(dp5286
g61
(dp5287
g88
g89
ssg70
g5276
sg63
(lp5288
S':'
asbag56
(g77
g58
NtRp5289
(dp5290
g61
(dp5291
sg70
g5276
sg63
(lp5292
g56
(g57
g58
NtRp5293
(dp5294
g61
(dp5295
g69
I5
ssg70
g5289
sg63
(lp5296
g99
asbasbasbag56
(g72
g58
NtRp5297
(dp5298
g61
(dp5299
sg70
g4087
sg63
(lp5300
g56
(g77
g58
NtRp5301
(dp5302
g61
(dp5303
g81
g82
ssg70
g5297
sg63
(lp5304
S'session_new'
p5305
asbag56
(g77
g58
NtRp5306
(dp5307
g61
(dp5308
g88
g89
ssg70
g5297
sg63
(lp5309
S':'
asbag56
(g77
g58
NtRp5310
(dp5311
g61
(dp5312
sg70
g5297
sg63
(lp5313
g56
(g57
g58
NtRp5314
(dp5315
g61
(dp5316
g69
I5
ssg70
g5310
sg63
(lp5317
g1029
asbasbasbag56
(g72
g58
NtRp5318
(dp5319
g61
(dp5320
sg70
g4087
sg63
(lp5321
g56
(g77
g58
NtRp5322
(dp5323
g61
(dp5324
g81
g82
ssg70
g5318
sg63
(lp5325
S'status'
p5326
asbag56
(g77
g58
NtRp5327
(dp5328
g61
(dp5329
g88
g89
ssg70
g5318
sg63
(lp5330
S':'
asbag56
(g77
g58
NtRp5331
(dp5332
g61
(dp5333
sg70
g5318
sg63
(lp5334
g56
(g57
g58
NtRp5335
(dp5336
g61
(dp5337
g69
I5
ssg70
g5331
sg63
(lp5338
S'200'
p5339
asbasbasbag56
(g72
g58
NtRp5340
(dp5341
g61
(dp5342
sg70
g4087
sg63
(lp5343
g56
(g77
g58
NtRp5344
(dp5345
g61
(dp5346
g81
g82
ssg70
g5340
sg63
(lp5347
S'subtitle'
p5348
asbag56
(g77
g58
NtRp5349
(dp5350
g61
(dp5351
g88
g89
ssg70
g5340
sg63
(lp5352
S':'
asbag56
(g77
g58
NtRp5353
(dp5354
g61
(dp5355
sg70
g5340
sg63
(lp5356
g56
(g57
g58
NtRp5357
(dp5358
g61
(dp5359
g69
I5
ssg70
g5353
sg63
(lp5360
g4592
(S's0\x00\x00\x00An online space for learning New Testament Greek'
tRp5361
asbasbasbag56
(g72
g58
NtRp5362
(dp5363
g61
(dp5364
sg70
g4087
sg63
(lp5365
g56
(g77
g58
NtRp5366
(dp5367
g61
(dp5368
g81
g82
ssg70
g5362
sg63
(lp5369
S'title'
p5370
asbag56
(g77
g58
NtRp5371
(dp5372
g61
(dp5373
g88
g89
ssg70
g5362
sg63
(lp5374
S':'
asbag56
(g77
g58
NtRp5375
(dp5376
g61
(dp5377
sg70
g5362
sg63
(lp5378
g56
(g57
g58
NtRp5379
(dp5380
g61
(dp5381
g69
I5
ssg70
g5375
sg63
(lp5382
g121
asbasbasbag56
(g72
g58
NtRp5383
(dp5384
g61
(dp5385
sg70
g4087
sg63
(lp5386
g56
(g77
g58
NtRp5387
(dp5388
g61
(dp5389
g81
g82
ssg70
g5383
sg63
(lp5390
g2521
asbag56
(g77
g58
NtRp5391
(dp5392
g61
(dp5393
g88
g89
ssg70
g5383
sg63
(lp5394
S':'
asbag56
(g77
g58
NtRp5395
(dp5396
g61
(dp5397
sg70
g5383
sg63
(lp5398
g56
(g57
g58
NtRp5399
(dp5400
g61
(dp5401
g69
I5
ssg70
g5395
sg63
(lp5402
g2534
asbasbasbag56
(g72
g58
NtRp5403
(dp5404
g61
(dp5405
sg70
g4087
sg63
(lp5406
g56
(g77
g58
NtRp5407
(dp5408
g61
(dp5409
g81
g82
ssg70
g5403
sg63
(lp5410
S'view'
p5411
asbag56
(g77
g58
NtRp5412
(dp5413
g61
(dp5414
g88
g89
ssg70
g5403
sg63
(lp5415
S':'
asbag56
(g77
g58
NtRp5416
(dp5417
g61
(dp5418
sg70
g5403
sg63
(lp5419
g56
(g57
g58
NtRp5420
(dp5421
g61
(dp5422
g69
I5
ssg70
g5416
sg63
(lp5423
S'exploring/index.load'
p5424
asbasbasbasbasbsS'locals'
p5425
(dp5426
S'self'
p5427
S"<Table {'_db': <DAL {'auth_event': <Table {'orig...>, '_id': <gluon.dal.Field object at 0x2874f50>}>"
p5428
sg23
S'()'
p5429
sS'kwargs'
p5430
S"{'question': 91, 'status': 1}"
p5431
sssS'traceback'
p5432
S'Traceback (most recent call last):\n  File "/home/ian/web2py/gluon/restricted.py", line 194, in restricted\n    exec ccode in environment\n  File "/home/ian/web2py/applications/paideia/controllers/exploring.py", line 193, in <module>\n  File "/home/ian/web2py/gluon/globals.py", line 149, in <lambda>\n    self._caller = lambda f: f()\n  File "/home/ian/web2py/gluon/tools.py", line 2456, in f\n    return action(*a, **b)\n  File "/home/ian/web2py/applications/paideia/controllers/exploring.py", line 181, in index\n    db.questions.update(question=session.qID, status=1);\n  File "/home/ian/web2py/gluon/dal.py", line 4795, in update\n    raise RuntimeError, "Syntax Not Supported"\nRuntimeError: Syntax Not Supported\n'
p5433
s.