(dp1
S'output'
p2
S"<type 'exceptions.SyntaxError'> invalid syntax (plugin_ajaxselect.py, line 162)"
p3
sS'layer'
p4
S'/home/iscott/web/web2py/applications/paideia/models/paideia.py'
p5
sS'code'
p6
S'# coding: utf8\n\n#hack for PyDev error checking and debugging\n#if 0:\n    #from gluon import current, IS_IN_DB\n    #from gluon.dal import DAL, Field\n    #from gluon.tools import Auth\n    #auth = Auth()\n    #db = DAL()\n    #request = current.request\n    #from applications.paideia.modules.plugin_ajaxselect import AjaxSelect\n\nfrom plugin_ajaxselect import AjaxSelect\nimport datetime, os\n\ndtnow = datetime.datetime.utcnow()\n\n#TODO:Allow for different class profiles with different settings  \ndb.define_table(\'app_settings\',\n    Field(\'paths_per_day\', \'integer\', default=10),\n    Field(\'days_per_week\', \'integer\', default=5)    \n    )\n\ndb.define_table(\'journals\',\n    Field(\'user\', db.auth_user, default=auth.user_id),\n    Field(\'pages\', \'list:reference db.pages\'),\n    format = \'%(user)s\')\n\ndb.define_table(\'pages\',\n    Field(\'page\', \'text\'),\n    format = \'%(page)s\')\n\ndb.define_table(\'categories\',\n    Field(\'category\'),\n    Field (\'description\'),\n    format = \'%(category)s\')\n\ndb.define_table(\'tags\',\n    Field(\'tag\', \'string\'),\n    format = \'%(tag)s\')\n\ndb.define_table(\'locations\',\n    Field(\'location\'),\n    Field(\'background\', \'upload\', uploadfolder = os.path.join(request.folder, "static/images")),\n    format = \'%(location)s\')\n\ndb.define_table(\'npcs\',\n    Field(\'name\', \'string\'),\n    Field(\'location\', \'list:reference db.locations\'),\n    Field(\'image\', \'upload\', uploadfolder = os.path.join(request.folder, "static/images")),\n    Field(\'notes\', \'text\'),\n    format = \'%(name)s\')\ndb.npcs.location.requires = IS_IN_DB(db, \'locations.id\', db.locations._format, multiple = True)\ndb.npcs.location.widget = lambda field, value: AjaxSelect(field, value, \'locations\', multi = \'basic\').widget()\n\ndb.define_table(\'inv_items\',\n    Field(\'item_name\', \'string\'),\n    format = \'%(item_name)s\')\n\ndb.define_table(\'inventory\',\n    Field(\'owner\', db.auth_user, default = auth.user_id),\n    Field(\'items_held\', \'list:reference db.inv_items\'),\n    format = \'%(owner)s inventory\')\n\ndb.define_table(\'questions\',\n    Field(\'question\', \'text\'),\n    Field(\'answer\'),\n    Field(\'value\', \'double\', default = 1.0),\n    Field(\'readable_answer\'),\n    Field(\'answer2\', default = \'null\'),\n    Field(\'value2\', \'double\', default = 0.5),\n    Field(\'answer3\', default = \'null\'),\n    Field(\'value3\', \'double\', default = 0.3),\n    Field(\'frequency\', \'double\'),\n    Field(\'tags\', \'list:reference db.tags\'),\n    Field(\'tags_secondary\', \'list:reference db.tags\'),\n    Field(\'status\', \'integer\'),\n    Field(\'npcs\', \'list:reference db.npcs\'),\n    Field(\'next\', \'list:reference db.questions\'),\n    Field(\'audio\', \'upload\', uploadfolder = os.path.join(request.folder, "static/audio")),\n    format = \'%(question)s\')\n\ndb.questions.npcs.requires = IS_IN_DB(db, \'npcs.id\', db.npcs._format, multiple = True)\ndb.questions.npcs.widget = lambda field, value: AjaxSelect(field, value, \'npcs\', multi = \'basic\').widget()\ndb.questions.tags.requires = IS_IN_DB(db, \'tags.id\', db.tags._format, multiple = True)\ndb.questions.tags.widget = lambda field, value: AjaxSelect(field, value, \'tags\', refresher = True, multi = \'basic\').widget()\ndb.questions.tags_secondary.requires = IS_IN_DB(db, \'tags.id\', db.tags._format, multiple = True)\ndb.questions.tags_secondary.widget = lambda field, value: AjaxSelect(field, value, \'tags\', multi = \'basic\').widget()\n\ndb.define_table(\'steps\',\n                \n    Field(\'prompt\', \'text\'),\n    Field(\'prompt_audio\', \'upload\', uploadfolder = os.path.join(request.folder, "static/audio")),\n    Field(\'widget_type\'),\n    Field(\'widget_image\', \'upload\', uploadfolder = os.path.join(request.folder, "static/images")),\n    Field(\'response1\'),\n    Field(\'readable_response\'),\n    Field(\'outcome1\', default = \'null\'),\n    Field(\'response2\', default = \'null\'),\n    Field(\'outcome2\', default = \'null\'),\n    Field(\'response3\', default = \'null\'),\n    Field(\'outcome3\', default = \'null\'),\n    Field(\'tags\', \'list:reference db.tags\'),\n    Field(\'tags_secondary\', \'list:reference db.tags\'),\n    Field(\'npcs\', \'list:reference db.npcs\'),\n    Field(\'status\', \'integer\'),\n    format = \'%(prompt)s\')\n\ndb.questions.tags.requires = IS_IN_DB(db, \'questions.id\', db.questions._format, multiple = True)\ndb.questions.npcs.requires = IS_IN_DB(db, \'npcs.id\', db.npcs._format, multiple = True)\ndb.questions.npcs.widget = lambda field, value: AjaxSelect(field, value, \'npcs\', multi = \'basic\').widget()\ndb.questions.tags.requires = IS_IN_DB(db, \'tags.id\', db.tags._format, multiple = True)\ndb.questions.tags.widget = lambda field, value: AjaxSelect(field, value, \'tags\', refresher = True, multi = \'basic\').widget()\ndb.questions.tags_secondary.requires = IS_IN_DB(db, \'tags.id\', db.tags._format, multiple = True)\ndb.questions.tags_secondary.widget = lambda field, value: AjaxSelect(field, value, \'tags\', multi = \'basic\').widget()\n\n\ndb.define_table(\'question_records\',\n    Field(\'name\', db.auth_user, default = auth.user_id),\n    Field(\'question\', db.questions),\n    Field(\'times_right\', \'double\'),\n    Field(\'times_wrong\', \'double\'),\n    Field(\'tlast_wrong\', \'datetime\', default = dtnow),\n    Field(\'tlast_right\', \'datetime\', default = dtnow),\n    Field(\'category\', db.categories)\n    )\n\ndb.define_table(\'tag_records\',\n    Field(\'name\', db.auth_user, default = auth.user_id),\n    Field(\'tag\', db.tags),\n    Field(\'times_right\', \'double\'),\n    Field(\'times_wrong\', \'double\'),\n    Field(\'tlast_wrong\', \'datetime\', default = dtnow),\n    Field(\'tlast_right\', \'datetime\', default = dtnow),\n    Field(\'category\', db.categories)\n    )\n\ndb.define_table(\'attempt_log\',\n    Field(\'name\', db.auth_user, default = auth.user_id),\n    Field(\'question\', db.questions),\n    Field(\'score\', \'double\'),\n    Field(\'dt_attempted\', \'datetime\', default = dtnow)\n    )\n\ndb.define_table(\'bug_status\',\n    Field(\'status_label\'),\n    format = \'%(status_label)s\')\n\ndb.define_table(\'q_bugs\',\n    Field(\'question\', db.questions),\n    Field(\'a_submitted\'),\n    Field(\'name\', db.auth_user, default = auth.user_id),\n    Field(\'submitted\', \'datetime\', default = dtnow),\n    Field(\'bug_status\', db.bug_status, default = 1),\n    Field(\'admin_comment\', \'text\'),\n    Field(\'prev_lastright\', \'datetime\'),\n    Field(\'prev_lastwrong\', \'datetime\'),\n    format = \'%(question)s\')\n\ndb.define_table(\'paths\',                \n    Field(\'label\'),                \n    Field(\'steps\', \'list:reference db.steps\'), #list of steps in the path\n    Field(\'locations\', \'list:reference db.locations\'), #list of locations where path can start\n    Field(\'npcs\', \'list:reference db.npcs\'), #list of npcs who can begin the path\n    format = \'%(label)s\')\ndb.paths.steps.requires = IS_IN_DB(db, \'steps.id\', db.steps._format, multiple = True)\ndb.paths.steps.widget = lambda field, value: AjaxSelect(field, value, \'steps\',\n                                                        refresher = True, \n                                                        multi = \'basic\', \n                                                        editlist = True).widget()\ndb.paths.locations.requires = IS_IN_DB(db, \'locations.id\', db.locations._format, \n                                       multiple = True)\ndb.paths.npcs.requires = IS_IN_DB(db, \'npcs.id\', db.npcs._format, multiple = True)\n\ndb.define_table(\'news\',\n    Field(\'story\', \'text\'),\n    Field(\'title\', \'string\'),\n    Field(\'name\', db.auth_user, default = auth.user_id),\n    Field(\'date_submitted\', \'datetime\', default = dtnow),\n    Field(\'last_edit\', \'datetime\', default = dtnow),\n    format = \'%(title)s\')\n'
p7
sS'snapshot'
p8
(dp9
S'exception'
p10
(dp11
S'__getslice__'
p12
S"<method-wrapper '__getslice__' of exceptions.SyntaxError object>"
p13
sS'text'
p14
S"'    def create_widget(self):       \\n'"
p15
sS'__str__'
p16
S"<method-wrapper '__str__' of exceptions.SyntaxError object>"
p17
sS'__reduce__'
p18
S'<built-in method __reduce__ of exceptions.SyntaxError object>'
p19
sS'__dict__'
p20
S'{}'
p21
sS'__sizeof__'
p22
S'<built-in method __sizeof__ of exceptions.SyntaxError object>'
p23
sS'__init__'
p24
S"<method-wrapper '__init__' of exceptions.SyntaxError object>"
p25
sS'__setattr__'
p26
S"<method-wrapper '__setattr__' of exceptions.SyntaxError object>"
p27
sS'__reduce_ex__'
p28
S'<built-in method __reduce_ex__ of exceptions.SyntaxError object>'
p29
sS'__new__'
p30
S'<built-in method __new__ of type object>'
p31
sS'__format__'
p32
S'<built-in method __format__ of exceptions.SyntaxError object>'
p33
sS'__class__'
p34
S"<type 'exceptions.SyntaxError'>"
p35
sS'filename'
p36
S"'applications/paideia/modules/plugin_ajaxselect.py'"
p37
sS'lineno'
p38
S'162'
p39
sS'msg'
p40
S"'invalid syntax'"
p41
sS'__doc__'
p42
S"'Invalid syntax.'"
p43
sS'__getitem__'
p44
S"<method-wrapper '__getitem__' of exceptions.SyntaxError object>"
p45
sS'__setstate__'
p46
S'<built-in method __setstate__ of exceptions.SyntaxError object>'
p47
sS'__getattribute__'
p48
S"<method-wrapper '__getattribute__' of exceptions.SyntaxError object>"
p49
sS'print_file_and_line'
p50
S'None'
p51
sS'args'
p52
S"('invalid syntax', ('applications/paideia/modules/plugin_ajaxselect.py', 162, 7, '    def create_widget(self):       \\n'))"
p53
sS'__subclasshook__'
p54
S'<built-in method __subclasshook__ of type object>'
p55
sS'offset'
p56
S'7'
sS'__unicode__'
p57
S'<built-in method __unicode__ of exceptions.SyntaxError object>'
p58
sS'__delattr__'
p59
S"<method-wrapper '__delattr__' of exceptions.SyntaxError object>"
p60
sS'__repr__'
p61
S"<method-wrapper '__repr__' of exceptions.SyntaxError object>"
p62
sS'__hash__'
p63
S"<method-wrapper '__hash__' of exceptions.SyntaxError object>"
p64
ssS'evalue'
p65
S'invalid syntax (plugin_ajaxselect.py, line 162)'
p66
sS'request'
p67
ccopy_reg
_reconstructor
p68
(cgluon.html
BEAUTIFY
p69
c__builtin__
object
p70
NtRp71
(dp72
S'attributes'
p73
(dp74
sS'components'
p75
(lp76
g68
(cgluon.html
TABLE
p77
g70
NtRp78
(dp79
g73
(dp80
S'level'
p81
I5
ssS'parent'
p82
Nsg75
(lp83
g68
(cgluon.html
TR
p84
g70
NtRp85
(dp86
g73
(dp87
sg82
g78
sg75
(lp88
g68
(cgluon.html
TD
p89
g70
NtRp90
(dp91
g73
(dp92
S'_style'
p93
S'font-weight:bold;vertical-align:top'
p94
ssg82
g85
sg75
(lp95
S'ajax'
p96
asbag68
(g89
g70
NtRp97
(dp98
g73
(dp99
S'_valign'
p100
S'top'
p101
ssg82
g85
sg75
(lp102
S':'
asbag68
(g89
g70
NtRp103
(dp104
g73
(dp105
sg82
g85
sg75
(lp106
g68
(g69
g70
NtRp107
(dp108
g73
(dp109
g81
I5
ssg82
g103
sg75
(lp110
S'False'
p111
asbasbasbag68
(g84
g70
NtRp112
(dp113
g73
(dp114
sg82
g78
sg75
(lp115
g68
(g89
g70
NtRp116
(dp117
g73
(dp118
g93
g94
ssg82
g112
sg75
(lp119
S'application'
p120
asbag68
(g89
g70
NtRp121
(dp122
g73
(dp123
g100
g101
ssg82
g112
sg75
(lp124
S':'
asbag68
(g89
g70
NtRp125
(dp126
g73
(dp127
sg82
g112
sg75
(lp128
g68
(g69
g70
NtRp129
(dp130
g73
(dp131
g81
I5
ssg82
g125
sg75
(lp132
S'paideia'
p133
asbasbasbag68
(g84
g70
NtRp134
(dp135
g73
(dp136
sg82
g78
sg75
(lp137
g68
(g89
g70
NtRp138
(dp139
g73
(dp140
g93
g94
ssg82
g134
sg75
(lp141
g52
asbag68
(g89
g70
NtRp142
(dp143
g73
(dp144
g100
g101
ssg82
g134
sg75
(lp145
S':'
asbag68
(g89
g70
NtRp146
(dp147
g73
(dp148
sg82
g134
sg75
(lp149
g68
(g69
g70
NtRp150
(dp151
g73
(dp152
g81
I5
ssg82
g146
sg75
(lp153
g68
(g77
g70
NtRp154
(dp155
g73
(dp156
g81
I4
ssg82
Nsg75
(lp157
g68
(g84
g70
NtRp158
(dp159
g73
(dp160
sg82
g154
sg75
(lp161
g68
(g89
g70
NtRp162
(dp163
g73
(dp164
sg82
g158
sg75
(lp165
g68
(g69
g70
NtRp166
(dp167
g73
(dp168
g81
I4
ssg82
g162
sg75
(lp169
S'paths'
p170
asbasbasbasbasbasbasbag68
(g84
g70
NtRp171
(dp172
g73
(dp173
sg82
g78
sg75
(lp174
g68
(g89
g70
NtRp175
(dp176
g73
(dp177
g93
g94
ssg82
g171
sg75
(lp178
S'body'
p179
asbag68
(g89
g70
NtRp180
(dp181
g73
(dp182
g100
g101
ssg82
g171
sg75
(lp183
S':'
asbag68
(g89
g70
NtRp184
(dp185
g73
(dp186
sg82
g171
sg75
(lp187
g68
(g69
g70
NtRp188
(dp189
g73
(dp190
g81
I5
ssg82
g184
sg75
(lp191
S'<cStringIO.StringO object at 0xa55d4a0>'
p192
asbasbasbag68
(g84
g70
NtRp193
(dp194
g73
(dp195
sg82
g78
sg75
(lp196
g68
(g89
g70
NtRp197
(dp198
g73
(dp199
g93
g94
ssg82
g193
sg75
(lp200
S'client'
p201
asbag68
(g89
g70
NtRp202
(dp203
g73
(dp204
g100
g101
ssg82
g193
sg75
(lp205
S':'
asbag68
(g89
g70
NtRp206
(dp207
g73
(dp208
sg82
g193
sg75
(lp209
g68
(g69
g70
NtRp210
(dp211
g73
(dp212
g81
I5
ssg82
g206
sg75
(lp213
S'127.0.0.1'
p214
asbasbasbag68
(g84
g70
NtRp215
(dp216
g73
(dp217
sg82
g78
sg75
(lp218
g68
(g89
g70
NtRp219
(dp220
g73
(dp221
g93
g94
ssg82
g215
sg75
(lp222
S'controller'
p223
asbag68
(g89
g70
NtRp224
(dp225
g73
(dp226
g100
g101
ssg82
g215
sg75
(lp227
S':'
asbag68
(g89
g70
NtRp228
(dp229
g73
(dp230
sg82
g215
sg75
(lp231
g68
(g69
g70
NtRp232
(dp233
g73
(dp234
g81
I5
ssg82
g228
sg75
(lp235
S'plugin_listandedit'
p236
asbasbasbag68
(g84
g70
NtRp237
(dp238
g73
(dp239
sg82
g78
sg75
(lp240
g68
(g89
g70
NtRp241
(dp242
g73
(dp243
g93
g94
ssg82
g237
sg75
(lp244
S'cookies'
p245
asbag68
(g89
g70
NtRp246
(dp247
g73
(dp248
g100
g101
ssg82
g237
sg75
(lp249
S':'
asbag68
(g89
g70
NtRp250
(dp251
g73
(dp252
sg82
g237
sg75
(lp253
g68
(g69
g70
NtRp254
(dp255
g73
(dp256
g81
I5
ssg82
g250
sg75
(lp257
g68
(g77
g70
NtRp258
(dp259
g73
(dp260
g81
I4
ssg82
Nsg75
(lp261
g68
(g84
g70
NtRp262
(dp263
g73
(dp264
sg82
g258
sg75
(lp265
g68
(g89
g70
NtRp266
(dp267
g73
(dp268
g93
g94
ssg82
g262
sg75
(lp269
S'session_id_admin'
p270
asbag68
(g89
g70
NtRp271
(dp272
g73
(dp273
g100
g101
ssg82
g262
sg75
(lp274
S':'
asbag68
(g89
g70
NtRp275
(dp276
g73
(dp277
sg82
g262
sg75
(lp278
g68
(g69
g70
NtRp279
(dp280
g73
(dp281
g81
I4
ssg82
g275
sg75
(lp282
g68
(g77
g70
NtRp283
(dp284
g73
(dp285
g81
I3
ssg82
Nsg75
(lp286
g68
(g84
g70
NtRp287
(dp288
g73
(dp289
sg82
g283
sg75
(lp290
g68
(g89
g70
NtRp291
(dp292
g73
(dp293
g93
g94
ssg82
g287
sg75
(lp294
S'comment'
p295
asbag68
(g89
g70
NtRp296
(dp297
g73
(dp298
g100
g101
ssg82
g287
sg75
(lp299
S':'
asbag68
(g89
g70
NtRp300
(dp301
g73
(dp302
sg82
g287
sg75
(lp303
g68
(g69
g70
NtRp304
(dp305
g73
(dp306
g81
I3
ssg82
g300
sg75
(lp307
S''
asbasbasbag68
(g84
g70
NtRp308
(dp309
g73
(dp310
sg82
g283
sg75
(lp311
g68
(g89
g70
NtRp312
(dp313
g73
(dp314
g93
g94
ssg82
g308
sg75
(lp315
S'domain'
p316
asbag68
(g89
g70
NtRp317
(dp318
g73
(dp319
g100
g101
ssg82
g308
sg75
(lp320
S':'
asbag68
(g89
g70
NtRp321
(dp322
g73
(dp323
sg82
g308
sg75
(lp324
g68
(g69
g70
NtRp325
(dp326
g73
(dp327
g81
I3
ssg82
g321
sg75
(lp328
S''
asbasbasbag68
(g84
g70
NtRp329
(dp330
g73
(dp331
sg82
g283
sg75
(lp332
g68
(g89
g70
NtRp333
(dp334
g73
(dp335
g93
g94
ssg82
g329
sg75
(lp336
S'expires'
p337
asbag68
(g89
g70
NtRp338
(dp339
g73
(dp340
g100
g101
ssg82
g329
sg75
(lp341
S':'
asbag68
(g89
g70
NtRp342
(dp343
g73
(dp344
sg82
g329
sg75
(lp345
g68
(g69
g70
NtRp346
(dp347
g73
(dp348
g81
I3
ssg82
g342
sg75
(lp349
S''
asbasbasbag68
(g84
g70
NtRp350
(dp351
g73
(dp352
sg82
g283
sg75
(lp353
g68
(g89
g70
NtRp354
(dp355
g73
(dp356
g93
g94
ssg82
g350
sg75
(lp357
S'httponly'
p358
asbag68
(g89
g70
NtRp359
(dp360
g73
(dp361
g100
g101
ssg82
g350
sg75
(lp362
S':'
asbag68
(g89
g70
NtRp363
(dp364
g73
(dp365
sg82
g350
sg75
(lp366
g68
(g69
g70
NtRp367
(dp368
g73
(dp369
g81
I3
ssg82
g363
sg75
(lp370
S''
asbasbasbag68
(g84
g70
NtRp371
(dp372
g73
(dp373
sg82
g283
sg75
(lp374
g68
(g89
g70
NtRp375
(dp376
g73
(dp377
g93
g94
ssg82
g371
sg75
(lp378
S'max-age'
p379
asbag68
(g89
g70
NtRp380
(dp381
g73
(dp382
g100
g101
ssg82
g371
sg75
(lp383
S':'
asbag68
(g89
g70
NtRp384
(dp385
g73
(dp386
sg82
g371
sg75
(lp387
g68
(g69
g70
NtRp388
(dp389
g73
(dp390
g81
I3
ssg82
g384
sg75
(lp391
S''
asbasbasbag68
(g84
g70
NtRp392
(dp393
g73
(dp394
sg82
g283
sg75
(lp395
g68
(g89
g70
NtRp396
(dp397
g73
(dp398
g93
g94
ssg82
g392
sg75
(lp399
S'path'
p400
asbag68
(g89
g70
NtRp401
(dp402
g73
(dp403
g100
g101
ssg82
g392
sg75
(lp404
S':'
asbag68
(g89
g70
NtRp405
(dp406
g73
(dp407
sg82
g392
sg75
(lp408
g68
(g69
g70
NtRp409
(dp410
g73
(dp411
g81
I3
ssg82
g405
sg75
(lp412
S''
asbasbasbag68
(g84
g70
NtRp413
(dp414
g73
(dp415
sg82
g283
sg75
(lp416
g68
(g89
g70
NtRp417
(dp418
g73
(dp419
g93
g94
ssg82
g413
sg75
(lp420
S'secure'
p421
asbag68
(g89
g70
NtRp422
(dp423
g73
(dp424
g100
g101
ssg82
g413
sg75
(lp425
S':'
asbag68
(g89
g70
NtRp426
(dp427
g73
(dp428
sg82
g413
sg75
(lp429
g68
(g69
g70
NtRp430
(dp431
g73
(dp432
g81
I3
ssg82
g426
sg75
(lp433
S''
asbasbasbag68
(g84
g70
NtRp434
(dp435
g73
(dp436
sg82
g283
sg75
(lp437
g68
(g89
g70
NtRp438
(dp439
g73
(dp440
g93
g94
ssg82
g434
sg75
(lp441
S'version'
p442
asbag68
(g89
g70
NtRp443
(dp444
g73
(dp445
g100
g101
ssg82
g434
sg75
(lp446
S':'
asbag68
(g89
g70
NtRp447
(dp448
g73
(dp449
sg82
g434
sg75
(lp450
g68
(g69
g70
NtRp451
(dp452
g73
(dp453
g81
I3
ssg82
g447
sg75
(lp454
S''
asbasbasbasbasbasbasbag68
(g84
g70
NtRp455
(dp456
g73
(dp457
sg82
g258
sg75
(lp458
g68
(g89
g70
NtRp459
(dp460
g73
(dp461
g93
g94
ssg82
g455
sg75
(lp462
S'session_id_bloglet'
p463
asbag68
(g89
g70
NtRp464
(dp465
g73
(dp466
g100
g101
ssg82
g455
sg75
(lp467
S':'
asbag68
(g89
g70
NtRp468
(dp469
g73
(dp470
sg82
g455
sg75
(lp471
g68
(g69
g70
NtRp472
(dp473
g73
(dp474
g81
I4
ssg82
g468
sg75
(lp475
g68
(g77
g70
NtRp476
(dp477
g73
(dp478
g81
I3
ssg82
Nsg75
(lp479
g68
(g84
g70
NtRp480
(dp481
g73
(dp482
sg82
g476
sg75
(lp483
g68
(g89
g70
NtRp484
(dp485
g73
(dp486
g93
g94
ssg82
g480
sg75
(lp487
g295
asbag68
(g89
g70
NtRp488
(dp489
g73
(dp490
g100
g101
ssg82
g480
sg75
(lp491
S':'
asbag68
(g89
g70
NtRp492
(dp493
g73
(dp494
sg82
g480
sg75
(lp495
g68
(g69
g70
NtRp496
(dp497
g73
(dp498
g81
I3
ssg82
g492
sg75
(lp499
S''
asbasbasbag68
(g84
g70
NtRp500
(dp501
g73
(dp502
sg82
g476
sg75
(lp503
g68
(g89
g70
NtRp504
(dp505
g73
(dp506
g93
g94
ssg82
g500
sg75
(lp507
g316
asbag68
(g89
g70
NtRp508
(dp509
g73
(dp510
g100
g101
ssg82
g500
sg75
(lp511
S':'
asbag68
(g89
g70
NtRp512
(dp513
g73
(dp514
sg82
g500
sg75
(lp515
g68
(g69
g70
NtRp516
(dp517
g73
(dp518
g81
I3
ssg82
g512
sg75
(lp519
S''
asbasbasbag68
(g84
g70
NtRp520
(dp521
g73
(dp522
sg82
g476
sg75
(lp523
g68
(g89
g70
NtRp524
(dp525
g73
(dp526
g93
g94
ssg82
g520
sg75
(lp527
g337
asbag68
(g89
g70
NtRp528
(dp529
g73
(dp530
g100
g101
ssg82
g520
sg75
(lp531
S':'
asbag68
(g89
g70
NtRp532
(dp533
g73
(dp534
sg82
g520
sg75
(lp535
g68
(g69
g70
NtRp536
(dp537
g73
(dp538
g81
I3
ssg82
g532
sg75
(lp539
S''
asbasbasbag68
(g84
g70
NtRp540
(dp541
g73
(dp542
sg82
g476
sg75
(lp543
g68
(g89
g70
NtRp544
(dp545
g73
(dp546
g93
g94
ssg82
g540
sg75
(lp547
g358
asbag68
(g89
g70
NtRp548
(dp549
g73
(dp550
g100
g101
ssg82
g540
sg75
(lp551
S':'
asbag68
(g89
g70
NtRp552
(dp553
g73
(dp554
sg82
g540
sg75
(lp555
g68
(g69
g70
NtRp556
(dp557
g73
(dp558
g81
I3
ssg82
g552
sg75
(lp559
S''
asbasbasbag68
(g84
g70
NtRp560
(dp561
g73
(dp562
sg82
g476
sg75
(lp563
g68
(g89
g70
NtRp564
(dp565
g73
(dp566
g93
g94
ssg82
g560
sg75
(lp567
g379
asbag68
(g89
g70
NtRp568
(dp569
g73
(dp570
g100
g101
ssg82
g560
sg75
(lp571
S':'
asbag68
(g89
g70
NtRp572
(dp573
g73
(dp574
sg82
g560
sg75
(lp575
g68
(g69
g70
NtRp576
(dp577
g73
(dp578
g81
I3
ssg82
g572
sg75
(lp579
S''
asbasbasbag68
(g84
g70
NtRp580
(dp581
g73
(dp582
sg82
g476
sg75
(lp583
g68
(g89
g70
NtRp584
(dp585
g73
(dp586
g93
g94
ssg82
g580
sg75
(lp587
g400
asbag68
(g89
g70
NtRp588
(dp589
g73
(dp590
g100
g101
ssg82
g580
sg75
(lp591
S':'
asbag68
(g89
g70
NtRp592
(dp593
g73
(dp594
sg82
g580
sg75
(lp595
g68
(g69
g70
NtRp596
(dp597
g73
(dp598
g81
I3
ssg82
g592
sg75
(lp599
S''
asbasbasbag68
(g84
g70
NtRp600
(dp601
g73
(dp602
sg82
g476
sg75
(lp603
g68
(g89
g70
NtRp604
(dp605
g73
(dp606
g93
g94
ssg82
g600
sg75
(lp607
g421
asbag68
(g89
g70
NtRp608
(dp609
g73
(dp610
g100
g101
ssg82
g600
sg75
(lp611
S':'
asbag68
(g89
g70
NtRp612
(dp613
g73
(dp614
sg82
g600
sg75
(lp615
g68
(g69
g70
NtRp616
(dp617
g73
(dp618
g81
I3
ssg82
g612
sg75
(lp619
S''
asbasbasbag68
(g84
g70
NtRp620
(dp621
g73
(dp622
sg82
g476
sg75
(lp623
g68
(g89
g70
NtRp624
(dp625
g73
(dp626
g93
g94
ssg82
g620
sg75
(lp627
g442
asbag68
(g89
g70
NtRp628
(dp629
g73
(dp630
g100
g101
ssg82
g620
sg75
(lp631
S':'
asbag68
(g89
g70
NtRp632
(dp633
g73
(dp634
sg82
g620
sg75
(lp635
g68
(g69
g70
NtRp636
(dp637
g73
(dp638
g81
I3
ssg82
g632
sg75
(lp639
S''
asbasbasbasbasbasbasbag68
(g84
g70
NtRp640
(dp641
g73
(dp642
sg82
g258
sg75
(lp643
g68
(g89
g70
NtRp644
(dp645
g73
(dp646
g93
g94
ssg82
g640
sg75
(lp647
S'session_id_paideia'
p648
asbag68
(g89
g70
NtRp649
(dp650
g73
(dp651
g100
g101
ssg82
g640
sg75
(lp652
S':'
asbag68
(g89
g70
NtRp653
(dp654
g73
(dp655
sg82
g640
sg75
(lp656
g68
(g69
g70
NtRp657
(dp658
g73
(dp659
g81
I4
ssg82
g653
sg75
(lp660
g68
(g77
g70
NtRp661
(dp662
g73
(dp663
g81
I3
ssg82
Nsg75
(lp664
g68
(g84
g70
NtRp665
(dp666
g73
(dp667
sg82
g661
sg75
(lp668
g68
(g89
g70
NtRp669
(dp670
g73
(dp671
g93
g94
ssg82
g665
sg75
(lp672
g295
asbag68
(g89
g70
NtRp673
(dp674
g73
(dp675
g100
g101
ssg82
g665
sg75
(lp676
S':'
asbag68
(g89
g70
NtRp677
(dp678
g73
(dp679
sg82
g665
sg75
(lp680
g68
(g69
g70
NtRp681
(dp682
g73
(dp683
g81
I3
ssg82
g677
sg75
(lp684
S''
asbasbasbag68
(g84
g70
NtRp685
(dp686
g73
(dp687
sg82
g661
sg75
(lp688
g68
(g89
g70
NtRp689
(dp690
g73
(dp691
g93
g94
ssg82
g685
sg75
(lp692
g316
asbag68
(g89
g70
NtRp693
(dp694
g73
(dp695
g100
g101
ssg82
g685
sg75
(lp696
S':'
asbag68
(g89
g70
NtRp697
(dp698
g73
(dp699
sg82
g685
sg75
(lp700
g68
(g69
g70
NtRp701
(dp702
g73
(dp703
g81
I3
ssg82
g697
sg75
(lp704
S''
asbasbasbag68
(g84
g70
NtRp705
(dp706
g73
(dp707
sg82
g661
sg75
(lp708
g68
(g89
g70
NtRp709
(dp710
g73
(dp711
g93
g94
ssg82
g705
sg75
(lp712
g337
asbag68
(g89
g70
NtRp713
(dp714
g73
(dp715
g100
g101
ssg82
g705
sg75
(lp716
S':'
asbag68
(g89
g70
NtRp717
(dp718
g73
(dp719
sg82
g705
sg75
(lp720
g68
(g69
g70
NtRp721
(dp722
g73
(dp723
g81
I3
ssg82
g717
sg75
(lp724
S''
asbasbasbag68
(g84
g70
NtRp725
(dp726
g73
(dp727
sg82
g661
sg75
(lp728
g68
(g89
g70
NtRp729
(dp730
g73
(dp731
g93
g94
ssg82
g725
sg75
(lp732
g358
asbag68
(g89
g70
NtRp733
(dp734
g73
(dp735
g100
g101
ssg82
g725
sg75
(lp736
S':'
asbag68
(g89
g70
NtRp737
(dp738
g73
(dp739
sg82
g725
sg75
(lp740
g68
(g69
g70
NtRp741
(dp742
g73
(dp743
g81
I3
ssg82
g737
sg75
(lp744
S''
asbasbasbag68
(g84
g70
NtRp745
(dp746
g73
(dp747
sg82
g661
sg75
(lp748
g68
(g89
g70
NtRp749
(dp750
g73
(dp751
g93
g94
ssg82
g745
sg75
(lp752
g379
asbag68
(g89
g70
NtRp753
(dp754
g73
(dp755
g100
g101
ssg82
g745
sg75
(lp756
S':'
asbag68
(g89
g70
NtRp757
(dp758
g73
(dp759
sg82
g745
sg75
(lp760
g68
(g69
g70
NtRp761
(dp762
g73
(dp763
g81
I3
ssg82
g757
sg75
(lp764
S''
asbasbasbag68
(g84
g70
NtRp765
(dp766
g73
(dp767
sg82
g661
sg75
(lp768
g68
(g89
g70
NtRp769
(dp770
g73
(dp771
g93
g94
ssg82
g765
sg75
(lp772
g400
asbag68
(g89
g70
NtRp773
(dp774
g73
(dp775
g100
g101
ssg82
g765
sg75
(lp776
S':'
asbag68
(g89
g70
NtRp777
(dp778
g73
(dp779
sg82
g765
sg75
(lp780
g68
(g69
g70
NtRp781
(dp782
g73
(dp783
g81
I3
ssg82
g777
sg75
(lp784
S''
asbasbasbag68
(g84
g70
NtRp785
(dp786
g73
(dp787
sg82
g661
sg75
(lp788
g68
(g89
g70
NtRp789
(dp790
g73
(dp791
g93
g94
ssg82
g785
sg75
(lp792
g421
asbag68
(g89
g70
NtRp793
(dp794
g73
(dp795
g100
g101
ssg82
g785
sg75
(lp796
S':'
asbag68
(g89
g70
NtRp797
(dp798
g73
(dp799
sg82
g785
sg75
(lp800
g68
(g69
g70
NtRp801
(dp802
g73
(dp803
g81
I3
ssg82
g797
sg75
(lp804
S''
asbasbasbag68
(g84
g70
NtRp805
(dp806
g73
(dp807
sg82
g661
sg75
(lp808
g68
(g89
g70
NtRp809
(dp810
g73
(dp811
g93
g94
ssg82
g805
sg75
(lp812
g442
asbag68
(g89
g70
NtRp813
(dp814
g73
(dp815
g100
g101
ssg82
g805
sg75
(lp816
S':'
asbag68
(g89
g70
NtRp817
(dp818
g73
(dp819
sg82
g805
sg75
(lp820
g68
(g69
g70
NtRp821
(dp822
g73
(dp823
g81
I3
ssg82
g817
sg75
(lp824
S''
asbasbasbasbasbasbasbag68
(g84
g70
NtRp825
(dp826
g73
(dp827
sg82
g258
sg75
(lp828
g68
(g89
g70
NtRp829
(dp830
g73
(dp831
g93
g94
ssg82
g825
sg75
(lp832
S'session_id_welcome'
p833
asbag68
(g89
g70
NtRp834
(dp835
g73
(dp836
g100
g101
ssg82
g825
sg75
(lp837
S':'
asbag68
(g89
g70
NtRp838
(dp839
g73
(dp840
sg82
g825
sg75
(lp841
g68
(g69
g70
NtRp842
(dp843
g73
(dp844
g81
I4
ssg82
g838
sg75
(lp845
g68
(g77
g70
NtRp846
(dp847
g73
(dp848
g81
I3
ssg82
Nsg75
(lp849
g68
(g84
g70
NtRp850
(dp851
g73
(dp852
sg82
g846
sg75
(lp853
g68
(g89
g70
NtRp854
(dp855
g73
(dp856
g93
g94
ssg82
g850
sg75
(lp857
g295
asbag68
(g89
g70
NtRp858
(dp859
g73
(dp860
g100
g101
ssg82
g850
sg75
(lp861
S':'
asbag68
(g89
g70
NtRp862
(dp863
g73
(dp864
sg82
g850
sg75
(lp865
g68
(g69
g70
NtRp866
(dp867
g73
(dp868
g81
I3
ssg82
g862
sg75
(lp869
S''
asbasbasbag68
(g84
g70
NtRp870
(dp871
g73
(dp872
sg82
g846
sg75
(lp873
g68
(g89
g70
NtRp874
(dp875
g73
(dp876
g93
g94
ssg82
g870
sg75
(lp877
g316
asbag68
(g89
g70
NtRp878
(dp879
g73
(dp880
g100
g101
ssg82
g870
sg75
(lp881
S':'
asbag68
(g89
g70
NtRp882
(dp883
g73
(dp884
sg82
g870
sg75
(lp885
g68
(g69
g70
NtRp886
(dp887
g73
(dp888
g81
I3
ssg82
g882
sg75
(lp889
S''
asbasbasbag68
(g84
g70
NtRp890
(dp891
g73
(dp892
sg82
g846
sg75
(lp893
g68
(g89
g70
NtRp894
(dp895
g73
(dp896
g93
g94
ssg82
g890
sg75
(lp897
g337
asbag68
(g89
g70
NtRp898
(dp899
g73
(dp900
g100
g101
ssg82
g890
sg75
(lp901
S':'
asbag68
(g89
g70
NtRp902
(dp903
g73
(dp904
sg82
g890
sg75
(lp905
g68
(g69
g70
NtRp906
(dp907
g73
(dp908
g81
I3
ssg82
g902
sg75
(lp909
S''
asbasbasbag68
(g84
g70
NtRp910
(dp911
g73
(dp912
sg82
g846
sg75
(lp913
g68
(g89
g70
NtRp914
(dp915
g73
(dp916
g93
g94
ssg82
g910
sg75
(lp917
g358
asbag68
(g89
g70
NtRp918
(dp919
g73
(dp920
g100
g101
ssg82
g910
sg75
(lp921
S':'
asbag68
(g89
g70
NtRp922
(dp923
g73
(dp924
sg82
g910
sg75
(lp925
g68
(g69
g70
NtRp926
(dp927
g73
(dp928
g81
I3
ssg82
g922
sg75
(lp929
S''
asbasbasbag68
(g84
g70
NtRp930
(dp931
g73
(dp932
sg82
g846
sg75
(lp933
g68
(g89
g70
NtRp934
(dp935
g73
(dp936
g93
g94
ssg82
g930
sg75
(lp937
g379
asbag68
(g89
g70
NtRp938
(dp939
g73
(dp940
g100
g101
ssg82
g930
sg75
(lp941
S':'
asbag68
(g89
g70
NtRp942
(dp943
g73
(dp944
sg82
g930
sg75
(lp945
g68
(g69
g70
NtRp946
(dp947
g73
(dp948
g81
I3
ssg82
g942
sg75
(lp949
S''
asbasbasbag68
(g84
g70
NtRp950
(dp951
g73
(dp952
sg82
g846
sg75
(lp953
g68
(g89
g70
NtRp954
(dp955
g73
(dp956
g93
g94
ssg82
g950
sg75
(lp957
g400
asbag68
(g89
g70
NtRp958
(dp959
g73
(dp960
g100
g101
ssg82
g950
sg75
(lp961
S':'
asbag68
(g89
g70
NtRp962
(dp963
g73
(dp964
sg82
g950
sg75
(lp965
g68
(g69
g70
NtRp966
(dp967
g73
(dp968
g81
I3
ssg82
g962
sg75
(lp969
S''
asbasbasbag68
(g84
g70
NtRp970
(dp971
g73
(dp972
sg82
g846
sg75
(lp973
g68
(g89
g70
NtRp974
(dp975
g73
(dp976
g93
g94
ssg82
g970
sg75
(lp977
g421
asbag68
(g89
g70
NtRp978
(dp979
g73
(dp980
g100
g101
ssg82
g970
sg75
(lp981
S':'
asbag68
(g89
g70
NtRp982
(dp983
g73
(dp984
sg82
g970
sg75
(lp985
g68
(g69
g70
NtRp986
(dp987
g73
(dp988
g81
I3
ssg82
g982
sg75
(lp989
S''
asbasbasbag68
(g84
g70
NtRp990
(dp991
g73
(dp992
sg82
g846
sg75
(lp993
g68
(g89
g70
NtRp994
(dp995
g73
(dp996
g93
g94
ssg82
g990
sg75
(lp997
g442
asbag68
(g89
g70
NtRp998
(dp999
g73
(dp1000
g100
g101
ssg82
g990
sg75
(lp1001
S':'
asbag68
(g89
g70
NtRp1002
(dp1003
g73
(dp1004
sg82
g990
sg75
(lp1005
g68
(g69
g70
NtRp1006
(dp1007
g73
(dp1008
g81
I3
ssg82
g1002
sg75
(lp1009
S''
asbasbasbasbasbasbasbasbasbasbasbag68
(g84
g70
NtRp1010
(dp1011
g73
(dp1012
sg82
g78
sg75
(lp1013
g68
(g89
g70
NtRp1014
(dp1015
g73
(dp1016
g93
g94
ssg82
g1010
sg75
(lp1017
S'env'
p1018
asbag68
(g89
g70
NtRp1019
(dp1020
g73
(dp1021
g100
g101
ssg82
g1010
sg75
(lp1022
S':'
asbag68
(g89
g70
NtRp1023
(dp1024
g73
(dp1025
sg82
g1010
sg75
(lp1026
g68
(g69
g70
NtRp1027
(dp1028
g73
(dp1029
g81
I5
ssg82
g1023
sg75
(lp1030
g68
(g77
g70
NtRp1031
(dp1032
g73
(dp1033
g81
I4
ssg82
Nsg75
(lp1034
g68
(g84
g70
NtRp1035
(dp1036
g73
(dp1037
sg82
g1031
sg75
(lp1038
g68
(g89
g70
NtRp1039
(dp1040
g73
(dp1041
g93
g94
ssg82
g1035
sg75
(lp1042
S'app_folders'
p1043
asbag68
(g89
g70
NtRp1044
(dp1045
g73
(dp1046
g100
g101
ssg82
g1035
sg75
(lp1047
S':'
asbag68
(g89
g70
NtRp1048
(dp1049
g73
(dp1050
sg82
g1035
sg75
(lp1051
g68
(g69
g70
NtRp1052
(dp1053
g73
(dp1054
g81
I4
ssg82
g1048
sg75
(lp1055
S"set(['/home/iscott/web/web2py/applications/paideia/', '/home/iscott/web/web2py/applications/welcome/'])"
p1056
asbasbasbag68
(g84
g70
NtRp1057
(dp1058
g73
(dp1059
sg82
g1031
sg75
(lp1060
g68
(g89
g70
NtRp1061
(dp1062
g73
(dp1063
g93
g94
ssg82
g1057
sg75
(lp1064
S'applications_parent'
p1065
asbag68
(g89
g70
NtRp1066
(dp1067
g73
(dp1068
g100
g101
ssg82
g1057
sg75
(lp1069
S':'
asbag68
(g89
g70
NtRp1070
(dp1071
g73
(dp1072
sg82
g1057
sg75
(lp1073
g68
(g69
g70
NtRp1074
(dp1075
g73
(dp1076
g81
I4
ssg82
g1070
sg75
(lp1077
S'/home/iscott/web/web2py'
p1078
asbasbasbag68
(g84
g70
NtRp1079
(dp1080
g73
(dp1081
sg82
g1031
sg75
(lp1082
g68
(g89
g70
NtRp1083
(dp1084
g73
(dp1085
g93
g94
ssg82
g1079
sg75
(lp1086
S'cmd_args'
p1087
asbag68
(g89
g70
NtRp1088
(dp1089
g73
(dp1090
g100
g101
ssg82
g1079
sg75
(lp1091
S':'
asbag68
(g89
g70
NtRp1092
(dp1093
g73
(dp1094
sg82
g1079
sg75
(lp1095
g68
(g69
g70
NtRp1096
(dp1097
g73
(dp1098
g81
I4
ssg82
g1092
sg75
(lp1099
g68
(g77
g70
NtRp1100
(dp1101
g73
(dp1102
g81
I3
ssg82
Nsg75
(lp1103
sbasbasbasbag68
(g84
g70
NtRp1104
(dp1105
g73
(dp1106
sg82
g1031
sg75
(lp1107
g68
(g89
g70
NtRp1108
(dp1109
g73
(dp1110
g93
g94
ssg82
g1104
sg75
(lp1111
S'cmd_options'
p1112
asbag68
(g89
g70
NtRp1113
(dp1114
g73
(dp1115
g100
g101
ssg82
g1104
sg75
(lp1116
S':'
asbag68
(g89
g70
NtRp1117
(dp1118
g73
(dp1119
sg82
g1104
sg75
(lp1120
g68
(g69
g70
NtRp1121
(dp1122
g73
(dp1123
g81
I4
ssg82
g1117
sg75
(lp1124
S"<Values at 0x9f96b8c: {'verbose': False, 'ip': '127.0.0.1', 'shutdown_timeout': 5, 'taskbar': False, 'nocron': False, 'pid_filename': 'httpserver.pid', 'maxthreads': None, 'softcron': False, 'server_name': 'ubuntu', 'bpython': False, 'nogui': False, 'port': 8000, 'extcron': False, 'debuglevel': 30, 'test': None, 'folder': '/home/iscott/web/web2py', 'config': '', 'import_models': False, 'winservice': '', 'shell': None, 'run': '', 'log_filename': 'httpserver.log', 'args': [''], 'socket_timeout': 1, 'ssl_ca_certificate': None, 'scheduler': None, 'profiler_filename': None, 'ssl_private_key': '', 'password': '<ask>', 'request_queue_size': 5, 'ssl_certificate': '', 'cronjob': False, 'numthreads': None, 'quiet': False, 'interfaces': None, 'minthreads': None, 'timeout': 10, 'plain': False, 'nobanner': False}>"
p1125
asbasbasbag68
(g84
g70
NtRp1126
(dp1127
g73
(dp1128
sg82
g1031
sg75
(lp1129
g68
(g89
g70
NtRp1130
(dp1131
g73
(dp1132
g93
g94
ssg82
g1126
sg75
(lp1133
S'db_sessions'
p1134
asbag68
(g89
g70
NtRp1135
(dp1136
g73
(dp1137
g100
g101
ssg82
g1126
sg75
(lp1138
S':'
asbag68
(g89
g70
NtRp1139
(dp1140
g73
(dp1141
sg82
g1126
sg75
(lp1142
g68
(g69
g70
NtRp1143
(dp1144
g73
(dp1145
g81
I4
ssg82
g1139
sg75
(lp1146
S'set([])'
p1147
asbasbasbag68
(g84
g70
NtRp1148
(dp1149
g73
(dp1150
sg82
g1031
sg75
(lp1151
g68
(g89
g70
NtRp1152
(dp1153
g73
(dp1154
g93
g94
ssg82
g1148
sg75
(lp1155
S'debugging'
p1156
asbag68
(g89
g70
NtRp1157
(dp1158
g73
(dp1159
g100
g101
ssg82
g1148
sg75
(lp1160
S':'
asbag68
(g89
g70
NtRp1161
(dp1162
g73
(dp1163
sg82
g1148
sg75
(lp1164
g68
(g69
g70
NtRp1165
(dp1166
g73
(dp1167
g81
I4
ssg82
g1161
sg75
(lp1168
g111
asbasbasbag68
(g84
g70
NtRp1169
(dp1170
g73
(dp1171
sg82
g1031
sg75
(lp1172
g68
(g89
g70
NtRp1173
(dp1174
g73
(dp1175
g93
g94
ssg82
g1169
sg75
(lp1176
S'gluon_parent'
p1177
asbag68
(g89
g70
NtRp1178
(dp1179
g73
(dp1180
g100
g101
ssg82
g1169
sg75
(lp1181
S':'
asbag68
(g89
g70
NtRp1182
(dp1183
g73
(dp1184
sg82
g1169
sg75
(lp1185
g68
(g69
g70
NtRp1186
(dp1187
g73
(dp1188
g81
I4
ssg82
g1182
sg75
(lp1189
S'/home/iscott/web/web2py'
p1190
asbasbasbag68
(g84
g70
NtRp1191
(dp1192
g73
(dp1193
sg82
g1031
sg75
(lp1194
g68
(g89
g70
NtRp1195
(dp1196
g73
(dp1197
g93
g94
ssg82
g1191
sg75
(lp1198
S'http_accept'
p1199
asbag68
(g89
g70
NtRp1200
(dp1201
g73
(dp1202
g100
g101
ssg82
g1191
sg75
(lp1203
S':'
asbag68
(g89
g70
NtRp1204
(dp1205
g73
(dp1206
sg82
g1191
sg75
(lp1207
g68
(g69
g70
NtRp1208
(dp1209
g73
(dp1210
g81
I4
ssg82
g1204
sg75
(lp1211
S'text/html,application/xhtml+xml,application/xml;q=0.9,*/*;q=0.8'
p1212
asbasbasbag68
(g84
g70
NtRp1213
(dp1214
g73
(dp1215
sg82
g1031
sg75
(lp1216
g68
(g89
g70
NtRp1217
(dp1218
g73
(dp1219
g93
g94
ssg82
g1213
sg75
(lp1220
S'http_accept_encoding'
p1221
asbag68
(g89
g70
NtRp1222
(dp1223
g73
(dp1224
g100
g101
ssg82
g1213
sg75
(lp1225
S':'
asbag68
(g89
g70
NtRp1226
(dp1227
g73
(dp1228
sg82
g1213
sg75
(lp1229
g68
(g69
g70
NtRp1230
(dp1231
g73
(dp1232
g81
I4
ssg82
g1226
sg75
(lp1233
S'gzip, deflate'
p1234
asbasbasbag68
(g84
g70
NtRp1235
(dp1236
g73
(dp1237
sg82
g1031
sg75
(lp1238
g68
(g89
g70
NtRp1239
(dp1240
g73
(dp1241
g93
g94
ssg82
g1235
sg75
(lp1242
S'http_accept_language'
p1243
asbag68
(g89
g70
NtRp1244
(dp1245
g73
(dp1246
g100
g101
ssg82
g1235
sg75
(lp1247
S':'
asbag68
(g89
g70
NtRp1248
(dp1249
g73
(dp1250
sg82
g1235
sg75
(lp1251
g68
(g69
g70
NtRp1252
(dp1253
g73
(dp1254
g81
I4
ssg82
g1248
sg75
(lp1255
S'en-us,en;q=0.5'
p1256
asbasbasbag68
(g84
g70
NtRp1257
(dp1258
g73
(dp1259
sg82
g1031
sg75
(lp1260
g68
(g89
g70
NtRp1261
(dp1262
g73
(dp1263
g93
g94
ssg82
g1257
sg75
(lp1264
S'http_cache_control'
p1265
asbag68
(g89
g70
NtRp1266
(dp1267
g73
(dp1268
g100
g101
ssg82
g1257
sg75
(lp1269
S':'
asbag68
(g89
g70
NtRp1270
(dp1271
g73
(dp1272
sg82
g1257
sg75
(lp1273
g68
(g69
g70
NtRp1274
(dp1275
g73
(dp1276
g81
I4
ssg82
g1270
sg75
(lp1277
S'max-age=0'
p1278
asbasbasbag68
(g84
g70
NtRp1279
(dp1280
g73
(dp1281
sg82
g1031
sg75
(lp1282
g68
(g89
g70
NtRp1283
(dp1284
g73
(dp1285
g93
g94
ssg82
g1279
sg75
(lp1286
S'http_connection'
p1287
asbag68
(g89
g70
NtRp1288
(dp1289
g73
(dp1290
g100
g101
ssg82
g1279
sg75
(lp1291
S':'
asbag68
(g89
g70
NtRp1292
(dp1293
g73
(dp1294
sg82
g1279
sg75
(lp1295
g68
(g69
g70
NtRp1296
(dp1297
g73
(dp1298
g81
I4
ssg82
g1292
sg75
(lp1299
S'keep-alive'
p1300
asbasbasbag68
(g84
g70
NtRp1301
(dp1302
g73
(dp1303
sg82
g1031
sg75
(lp1304
g68
(g89
g70
NtRp1305
(dp1306
g73
(dp1307
g93
g94
ssg82
g1301
sg75
(lp1308
S'http_cookie'
p1309
asbag68
(g89
g70
NtRp1310
(dp1311
g73
(dp1312
g100
g101
ssg82
g1301
sg75
(lp1313
S':'
asbag68
(g89
g70
NtRp1314
(dp1315
g73
(dp1316
sg82
g1301
sg75
(lp1317
g68
(g69
g70
NtRp1318
(dp1319
g73
(dp1320
g81
I4
ssg82
g1314
sg75
(lp1321
S'session_id_paideia=127.0.0.1-2edda130-d654-4b0f-a819-06652e443aa6; session_id_bloglet=127.0.0.1-e84b0934-9abc-4375-99c8-24980b610007; session_id_welcome=127.0.0.1-875183c3-33d3-41d0-8035-815b0ac6dec9; session_id_admin=127.0.0.1-b59ac282-8939-4eae-8517-e562b88fb4b9'
p1322
asbasbasbag68
(g84
g70
NtRp1323
(dp1324
g73
(dp1325
sg82
g1031
sg75
(lp1326
g68
(g89
g70
NtRp1327
(dp1328
g73
(dp1329
g93
g94
ssg82
g1323
sg75
(lp1330
S'http_host'
p1331
asbag68
(g89
g70
NtRp1332
(dp1333
g73
(dp1334
g100
g101
ssg82
g1323
sg75
(lp1335
S':'
asbag68
(g89
g70
NtRp1336
(dp1337
g73
(dp1338
sg82
g1323
sg75
(lp1339
g68
(g69
g70
NtRp1340
(dp1341
g73
(dp1342
g81
I4
ssg82
g1336
sg75
(lp1343
S'127.0.0.1:8000'
p1344
asbasbasbag68
(g84
g70
NtRp1345
(dp1346
g73
(dp1347
sg82
g1031
sg75
(lp1348
g68
(g89
g70
NtRp1349
(dp1350
g73
(dp1351
g93
g94
ssg82
g1345
sg75
(lp1352
S'http_referer'
p1353
asbag68
(g89
g70
NtRp1354
(dp1355
g73
(dp1356
g100
g101
ssg82
g1345
sg75
(lp1357
S':'
asbag68
(g89
g70
NtRp1358
(dp1359
g73
(dp1360
sg82
g1345
sg75
(lp1361
g68
(g69
g70
NtRp1362
(dp1363
g73
(dp1364
g81
I4
ssg82
g1358
sg75
(lp1365
S'http://127.0.0.1:8000/paideia/exploring/index'
p1366
asbasbasbag68
(g84
g70
NtRp1367
(dp1368
g73
(dp1369
sg82
g1031
sg75
(lp1370
g68
(g89
g70
NtRp1371
(dp1372
g73
(dp1373
g93
g94
ssg82
g1367
sg75
(lp1374
S'http_user_agent'
p1375
asbag68
(g89
g70
NtRp1376
(dp1377
g73
(dp1378
g100
g101
ssg82
g1367
sg75
(lp1379
S':'
asbag68
(g89
g70
NtRp1380
(dp1381
g73
(dp1382
sg82
g1367
sg75
(lp1383
g68
(g69
g70
NtRp1384
(dp1385
g73
(dp1386
g81
I4
ssg82
g1380
sg75
(lp1387
S'Mozilla/5.0 (X11; Ubuntu; Linux i686; rv:10.0.2) Gecko/20100101 Firefox/10.0.2'
p1388
asbasbasbag68
(g84
g70
NtRp1389
(dp1390
g73
(dp1391
sg82
g1031
sg75
(lp1392
g68
(g89
g70
NtRp1393
(dp1394
g73
(dp1395
g93
g94
ssg82
g1389
sg75
(lp1396
S'is_jython'
p1397
asbag68
(g89
g70
NtRp1398
(dp1399
g73
(dp1400
g100
g101
ssg82
g1389
sg75
(lp1401
S':'
asbag68
(g89
g70
NtRp1402
(dp1403
g73
(dp1404
sg82
g1389
sg75
(lp1405
g68
(g69
g70
NtRp1406
(dp1407
g73
(dp1408
g81
I4
ssg82
g1402
sg75
(lp1409
g111
asbasbasbag68
(g84
g70
NtRp1410
(dp1411
g73
(dp1412
sg82
g1031
sg75
(lp1413
g68
(g89
g70
NtRp1414
(dp1415
g73
(dp1416
g93
g94
ssg82
g1410
sg75
(lp1417
S'is_pypy'
p1418
asbag68
(g89
g70
NtRp1419
(dp1420
g73
(dp1421
g100
g101
ssg82
g1410
sg75
(lp1422
S':'
asbag68
(g89
g70
NtRp1423
(dp1424
g73
(dp1425
sg82
g1410
sg75
(lp1426
g68
(g69
g70
NtRp1427
(dp1428
g73
(dp1429
g81
I4
ssg82
g1423
sg75
(lp1430
g111
asbasbasbag68
(g84
g70
NtRp1431
(dp1432
g73
(dp1433
sg82
g1031
sg75
(lp1434
g68
(g89
g70
NtRp1435
(dp1436
g73
(dp1437
g93
g94
ssg82
g1431
sg75
(lp1438
S'path_info'
p1439
asbag68
(g89
g70
NtRp1440
(dp1441
g73
(dp1442
g100
g101
ssg82
g1431
sg75
(lp1443
S':'
asbag68
(g89
g70
NtRp1444
(dp1445
g73
(dp1446
sg82
g1431
sg75
(lp1447
g68
(g69
g70
NtRp1448
(dp1449
g73
(dp1450
g81
I4
ssg82
g1444
sg75
(lp1451
S'/paideia/plugin_listandedit/listing.html/paths'
p1452
asbasbasbag68
(g84
g70
NtRp1453
(dp1454
g73
(dp1455
sg82
g1031
sg75
(lp1456
g68
(g89
g70
NtRp1457
(dp1458
g73
(dp1459
g93
g94
ssg82
g1453
sg75
(lp1460
S'query_string'
p1461
asbag68
(g89
g70
NtRp1462
(dp1463
g73
(dp1464
g100
g101
ssg82
g1453
sg75
(lp1465
S':'
asbag68
(g89
g70
NtRp1466
(dp1467
g73
(dp1468
sg82
g1453
sg75
(lp1469
g68
(g69
g70
NtRp1470
(dp1471
g73
(dp1472
g81
I4
ssg82
g1466
sg75
(lp1473
S''
asbasbasbag68
(g84
g70
NtRp1474
(dp1475
g73
(dp1476
sg82
g1031
sg75
(lp1477
g68
(g89
g70
NtRp1478
(dp1479
g73
(dp1480
g93
g94
ssg82
g1474
sg75
(lp1481
S'remote_addr'
p1482
asbag68
(g89
g70
NtRp1483
(dp1484
g73
(dp1485
g100
g101
ssg82
g1474
sg75
(lp1486
S':'
asbag68
(g89
g70
NtRp1487
(dp1488
g73
(dp1489
sg82
g1474
sg75
(lp1490
g68
(g69
g70
NtRp1491
(dp1492
g73
(dp1493
g81
I4
ssg82
g1487
sg75
(lp1494
g214
asbasbasbag68
(g84
g70
NtRp1495
(dp1496
g73
(dp1497
sg82
g1031
sg75
(lp1498
g68
(g89
g70
NtRp1499
(dp1500
g73
(dp1501
g93
g94
ssg82
g1495
sg75
(lp1502
S'remote_port'
p1503
asbag68
(g89
g70
NtRp1504
(dp1505
g73
(dp1506
g100
g101
ssg82
g1495
sg75
(lp1507
S':'
asbag68
(g89
g70
NtRp1508
(dp1509
g73
(dp1510
sg82
g1495
sg75
(lp1511
g68
(g69
g70
NtRp1512
(dp1513
g73
(dp1514
g81
I4
ssg82
g1508
sg75
(lp1515
S'36980'
p1516
asbasbasbag68
(g84
g70
NtRp1517
(dp1518
g73
(dp1519
sg82
g1031
sg75
(lp1520
g68
(g89
g70
NtRp1521
(dp1522
g73
(dp1523
g93
g94
ssg82
g1517
sg75
(lp1524
S'request_method'
p1525
asbag68
(g89
g70
NtRp1526
(dp1527
g73
(dp1528
g100
g101
ssg82
g1517
sg75
(lp1529
S':'
asbag68
(g89
g70
NtRp1530
(dp1531
g73
(dp1532
sg82
g1517
sg75
(lp1533
g68
(g69
g70
NtRp1534
(dp1535
g73
(dp1536
g81
I4
ssg82
g1530
sg75
(lp1537
S'GET'
p1538
asbasbasbag68
(g84
g70
NtRp1539
(dp1540
g73
(dp1541
sg82
g1031
sg75
(lp1542
g68
(g89
g70
NtRp1543
(dp1544
g73
(dp1545
g93
g94
ssg82
g1539
sg75
(lp1546
S'script_name'
p1547
asbag68
(g89
g70
NtRp1548
(dp1549
g73
(dp1550
g100
g101
ssg82
g1539
sg75
(lp1551
S':'
asbag68
(g89
g70
NtRp1552
(dp1553
g73
(dp1554
sg82
g1539
sg75
(lp1555
g68
(g69
g70
NtRp1556
(dp1557
g73
(dp1558
g81
I4
ssg82
g1552
sg75
(lp1559
S''
asbasbasbag68
(g84
g70
NtRp1560
(dp1561
g73
(dp1562
sg82
g1031
sg75
(lp1563
g68
(g89
g70
NtRp1564
(dp1565
g73
(dp1566
g93
g94
ssg82
g1560
sg75
(lp1567
S'server_name'
p1568
asbag68
(g89
g70
NtRp1569
(dp1570
g73
(dp1571
g100
g101
ssg82
g1560
sg75
(lp1572
S':'
asbag68
(g89
g70
NtRp1573
(dp1574
g73
(dp1575
sg82
g1560
sg75
(lp1576
g68
(g69
g70
NtRp1577
(dp1578
g73
(dp1579
g81
I4
ssg82
g1573
sg75
(lp1580
S'ubuntu'
p1581
asbasbasbag68
(g84
g70
NtRp1582
(dp1583
g73
(dp1584
sg82
g1031
sg75
(lp1585
g68
(g89
g70
NtRp1586
(dp1587
g73
(dp1588
g93
g94
ssg82
g1582
sg75
(lp1589
S'server_port'
p1590
asbag68
(g89
g70
NtRp1591
(dp1592
g73
(dp1593
g100
g101
ssg82
g1582
sg75
(lp1594
S':'
asbag68
(g89
g70
NtRp1595
(dp1596
g73
(dp1597
sg82
g1582
sg75
(lp1598
g68
(g69
g70
NtRp1599
(dp1600
g73
(dp1601
g81
I4
ssg82
g1595
sg75
(lp1602
S'8000'
p1603
asbasbasbag68
(g84
g70
NtRp1604
(dp1605
g73
(dp1606
sg82
g1031
sg75
(lp1607
g68
(g89
g70
NtRp1608
(dp1609
g73
(dp1610
g93
g94
ssg82
g1604
sg75
(lp1611
S'server_protocol'
p1612
asbag68
(g89
g70
NtRp1613
(dp1614
g73
(dp1615
g100
g101
ssg82
g1604
sg75
(lp1616
S':'
asbag68
(g89
g70
NtRp1617
(dp1618
g73
(dp1619
sg82
g1604
sg75
(lp1620
g68
(g69
g70
NtRp1621
(dp1622
g73
(dp1623
g81
I4
ssg82
g1617
sg75
(lp1624
S'HTTP/1.1'
p1625
asbasbasbag68
(g84
g70
NtRp1626
(dp1627
g73
(dp1628
sg82
g1031
sg75
(lp1629
g68
(g89
g70
NtRp1630
(dp1631
g73
(dp1632
g93
g94
ssg82
g1626
sg75
(lp1633
S'server_software'
p1634
asbag68
(g89
g70
NtRp1635
(dp1636
g73
(dp1637
g100
g101
ssg82
g1626
sg75
(lp1638
S':'
asbag68
(g89
g70
NtRp1639
(dp1640
g73
(dp1641
sg82
g1626
sg75
(lp1642
g68
(g69
g70
NtRp1643
(dp1644
g73
(dp1645
g81
I4
ssg82
g1639
sg75
(lp1646
S'Rocket 1.2.4'
p1647
asbasbasbag68
(g84
g70
NtRp1648
(dp1649
g73
(dp1650
sg82
g1031
sg75
(lp1651
g68
(g89
g70
NtRp1652
(dp1653
g73
(dp1654
g93
g94
ssg82
g1648
sg75
(lp1655
S'web2py_crontype'
p1656
asbag68
(g89
g70
NtRp1657
(dp1658
g73
(dp1659
g100
g101
ssg82
g1648
sg75
(lp1660
S':'
asbag68
(g89
g70
NtRp1661
(dp1662
g73
(dp1663
sg82
g1648
sg75
(lp1664
g68
(g69
g70
NtRp1665
(dp1666
g73
(dp1667
g81
I4
ssg82
g1661
sg75
(lp1668
S'hard'
p1669
asbasbasbag68
(g84
g70
NtRp1670
(dp1671
g73
(dp1672
sg82
g1031
sg75
(lp1673
g68
(g89
g70
NtRp1674
(dp1675
g73
(dp1676
g93
g94
ssg82
g1670
sg75
(lp1677
S'web2py_path'
p1678
asbag68
(g89
g70
NtRp1679
(dp1680
g73
(dp1681
g100
g101
ssg82
g1670
sg75
(lp1682
S':'
asbag68
(g89
g70
NtRp1683
(dp1684
g73
(dp1685
sg82
g1670
sg75
(lp1686
g68
(g69
g70
NtRp1687
(dp1688
g73
(dp1689
g81
I4
ssg82
g1683
sg75
(lp1690
g1078
asbasbasbag68
(g84
g70
NtRp1691
(dp1692
g73
(dp1693
sg82
g1031
sg75
(lp1694
g68
(g89
g70
NtRp1695
(dp1696
g73
(dp1697
g93
g94
ssg82
g1691
sg75
(lp1698
S'web2py_version'
p1699
asbag68
(g89
g70
NtRp1700
(dp1701
g73
(dp1702
g100
g101
ssg82
g1691
sg75
(lp1703
S':'
asbag68
(g89
g70
NtRp1704
(dp1705
g73
(dp1706
sg82
g1691
sg75
(lp1707
g68
(g69
g70
NtRp1708
(dp1709
g73
(dp1710
g81
I4
ssg82
g1704
sg75
(lp1711
g68
(g77
g70
NtRp1712
(dp1713
g73
(dp1714
g81
I3
ssg82
Nsg75
(lp1715
g68
(g84
g70
NtRp1716
(dp1717
g73
(dp1718
sg82
g1712
sg75
(lp1719
g68
(g89
g70
NtRp1720
(dp1721
g73
(dp1722
sg82
g1716
sg75
(lp1723
g68
(g69
g70
NtRp1724
(dp1725
g73
(dp1726
g81
I3
ssg82
g1720
sg75
(lp1727
S'1'
asbasbasbag68
(g84
g70
NtRp1728
(dp1729
g73
(dp1730
sg82
g1712
sg75
(lp1731
g68
(g89
g70
NtRp1732
(dp1733
g73
(dp1734
sg82
g1728
sg75
(lp1735
g68
(g69
g70
NtRp1736
(dp1737
g73
(dp1738
g81
I3
ssg82
g1732
sg75
(lp1739
S'99'
p1740
asbasbasbag68
(g84
g70
NtRp1741
(dp1742
g73
(dp1743
sg82
g1712
sg75
(lp1744
g68
(g89
g70
NtRp1745
(dp1746
g73
(dp1747
sg82
g1741
sg75
(lp1748
g68
(g69
g70
NtRp1749
(dp1750
g73
(dp1751
g81
I3
ssg82
g1745
sg75
(lp1752
S'4'
asbasbasbag68
(g84
g70
NtRp1753
(dp1754
g73
(dp1755
sg82
g1712
sg75
(lp1756
g68
(g89
g70
NtRp1757
(dp1758
g73
(dp1759
sg82
g1753
sg75
(lp1760
g68
(g69
g70
NtRp1761
(dp1762
g73
(dp1763
g81
I3
ssg82
g1757
sg75
(lp1764
S'datetime.datetime(2011, 12, 14, 14, 46, 14)'
p1765
asbasbasbag68
(g84
g70
NtRp1766
(dp1767
g73
(dp1768
sg82
g1712
sg75
(lp1769
g68
(g89
g70
NtRp1770
(dp1771
g73
(dp1772
sg82
g1766
sg75
(lp1773
g68
(g69
g70
NtRp1774
(dp1775
g73
(dp1776
g81
I3
ssg82
g1770
sg75
(lp1777
S'stable'
p1778
asbasbasbasbasbasbasbag68
(g84
g70
NtRp1779
(dp1780
g73
(dp1781
sg82
g1031
sg75
(lp1782
g68
(g89
g70
NtRp1783
(dp1784
g73
(dp1785
g93
g94
ssg82
g1779
sg75
(lp1786
S'wsgi_errors'
p1787
asbag68
(g89
g70
NtRp1788
(dp1789
g73
(dp1790
g100
g101
ssg82
g1779
sg75
(lp1791
S':'
asbag68
(g89
g70
NtRp1792
(dp1793
g73
(dp1794
sg82
g1779
sg75
(lp1795
g68
(g69
g70
NtRp1796
(dp1797
g73
(dp1798
g81
I4
ssg82
g1792
sg75
(lp1799
S"<open file '<stderr>', mode 'w' at 0xb776b0d0>"
p1800
asbasbasbag68
(g84
g70
NtRp1801
(dp1802
g73
(dp1803
sg82
g1031
sg75
(lp1804
g68
(g89
g70
NtRp1805
(dp1806
g73
(dp1807
g93
g94
ssg82
g1801
sg75
(lp1808
S'wsgi_file_wrapper'
p1809
asbag68
(g89
g70
NtRp1810
(dp1811
g73
(dp1812
g100
g101
ssg82
g1801
sg75
(lp1813
S':'
asbag68
(g89
g70
NtRp1814
(dp1815
g73
(dp1816
sg82
g1801
sg75
(lp1817
g68
(g69
g70
NtRp1818
(dp1819
g73
(dp1820
g81
I4
ssg82
g1814
sg75
(lp1821
S'<class wsgiref.util.FileWrapper at 0x9edf20c>'
p1822
asbasbasbag68
(g84
g70
NtRp1823
(dp1824
g73
(dp1825
sg82
g1031
sg75
(lp1826
g68
(g89
g70
NtRp1827
(dp1828
g73
(dp1829
g93
g94
ssg82
g1823
sg75
(lp1830
S'wsgi_input'
p1831
asbag68
(g89
g70
NtRp1832
(dp1833
g73
(dp1834
g100
g101
ssg82
g1823
sg75
(lp1835
S':'
asbag68
(g89
g70
NtRp1836
(dp1837
g73
(dp1838
sg82
g1823
sg75
(lp1839
g68
(g69
g70
NtRp1840
(dp1841
g73
(dp1842
g81
I4
ssg82
g1836
sg75
(lp1843
S'<socket._fileobject object at 0xa48702c>'
p1844
asbasbasbag68
(g84
g70
NtRp1845
(dp1846
g73
(dp1847
sg82
g1031
sg75
(lp1848
g68
(g89
g70
NtRp1849
(dp1850
g73
(dp1851
g93
g94
ssg82
g1845
sg75
(lp1852
S'wsgi_multiprocess'
p1853
asbag68
(g89
g70
NtRp1854
(dp1855
g73
(dp1856
g100
g101
ssg82
g1845
sg75
(lp1857
S':'
asbag68
(g89
g70
NtRp1858
(dp1859
g73
(dp1860
sg82
g1845
sg75
(lp1861
g68
(g69
g70
NtRp1862
(dp1863
g73
(dp1864
g81
I4
ssg82
g1858
sg75
(lp1865
g111
asbasbasbag68
(g84
g70
NtRp1866
(dp1867
g73
(dp1868
sg82
g1031
sg75
(lp1869
g68
(g89
g70
NtRp1870
(dp1871
g73
(dp1872
g93
g94
ssg82
g1866
sg75
(lp1873
S'wsgi_multithread'
p1874
asbag68
(g89
g70
NtRp1875
(dp1876
g73
(dp1877
g100
g101
ssg82
g1866
sg75
(lp1878
S':'
asbag68
(g89
g70
NtRp1879
(dp1880
g73
(dp1881
sg82
g1866
sg75
(lp1882
g68
(g69
g70
NtRp1883
(dp1884
g73
(dp1885
g81
I4
ssg82
g1879
sg75
(lp1886
S'True'
p1887
asbasbasbag68
(g84
g70
NtRp1888
(dp1889
g73
(dp1890
sg82
g1031
sg75
(lp1891
g68
(g89
g70
NtRp1892
(dp1893
g73
(dp1894
g93
g94
ssg82
g1888
sg75
(lp1895
S'wsgi_run_once'
p1896
asbag68
(g89
g70
NtRp1897
(dp1898
g73
(dp1899
g100
g101
ssg82
g1888
sg75
(lp1900
S':'
asbag68
(g89
g70
NtRp1901
(dp1902
g73
(dp1903
sg82
g1888
sg75
(lp1904
g68
(g69
g70
NtRp1905
(dp1906
g73
(dp1907
g81
I4
ssg82
g1901
sg75
(lp1908
g111
asbasbasbag68
(g84
g70
NtRp1909
(dp1910
g73
(dp1911
sg82
g1031
sg75
(lp1912
g68
(g89
g70
NtRp1913
(dp1914
g73
(dp1915
g93
g94
ssg82
g1909
sg75
(lp1916
S'wsgi_url_scheme'
p1917
asbag68
(g89
g70
NtRp1918
(dp1919
g73
(dp1920
g100
g101
ssg82
g1909
sg75
(lp1921
S':'
asbag68
(g89
g70
NtRp1922
(dp1923
g73
(dp1924
sg82
g1909
sg75
(lp1925
g68
(g69
g70
NtRp1926
(dp1927
g73
(dp1928
g81
I4
ssg82
g1922
sg75
(lp1929
S'http'
p1930
asbasbasbag68
(g84
g70
NtRp1931
(dp1932
g73
(dp1933
sg82
g1031
sg75
(lp1934
g68
(g89
g70
NtRp1935
(dp1936
g73
(dp1937
g93
g94
ssg82
g1931
sg75
(lp1938
S'wsgi_version'
p1939
asbag68
(g89
g70
NtRp1940
(dp1941
g73
(dp1942
g100
g101
ssg82
g1931
sg75
(lp1943
S':'
asbag68
(g89
g70
NtRp1944
(dp1945
g73
(dp1946
sg82
g1931
sg75
(lp1947
g68
(g69
g70
NtRp1948
(dp1949
g73
(dp1950
g81
I4
ssg82
g1944
sg75
(lp1951
g68
(g77
g70
NtRp1952
(dp1953
g73
(dp1954
g81
I3
ssg82
Nsg75
(lp1955
g68
(g84
g70
NtRp1956
(dp1957
g73
(dp1958
sg82
g1952
sg75
(lp1959
g68
(g89
g70
NtRp1960
(dp1961
g73
(dp1962
sg82
g1956
sg75
(lp1963
g68
(g69
g70
NtRp1964
(dp1965
g73
(dp1966
g81
I3
ssg82
g1960
sg75
(lp1967
S'1'
asbasbasbag68
(g84
g70
NtRp1968
(dp1969
g73
(dp1970
sg82
g1952
sg75
(lp1971
g68
(g89
g70
NtRp1972
(dp1973
g73
(dp1974
sg82
g1968
sg75
(lp1975
g68
(g69
g70
NtRp1976
(dp1977
g73
(dp1978
g81
I3
ssg82
g1972
sg75
(lp1979
S'0'
asbasbasbasbasbasbasbasbasbasbasbag68
(g84
g70
NtRp1980
(dp1981
g73
(dp1982
sg82
g78
sg75
(lp1983
g68
(g89
g70
NtRp1984
(dp1985
g73
(dp1986
g93
g94
ssg82
g1980
sg75
(lp1987
S'extension'
p1988
asbag68
(g89
g70
NtRp1989
(dp1990
g73
(dp1991
g100
g101
ssg82
g1980
sg75
(lp1992
S':'
asbag68
(g89
g70
NtRp1993
(dp1994
g73
(dp1995
sg82
g1980
sg75
(lp1996
g68
(g69
g70
NtRp1997
(dp1998
g73
(dp1999
g81
I5
ssg82
g1993
sg75
(lp2000
S'html'
p2001
asbasbasbag68
(g84
g70
NtRp2002
(dp2003
g73
(dp2004
sg82
g78
sg75
(lp2005
g68
(g89
g70
NtRp2006
(dp2007
g73
(dp2008
g93
g94
ssg82
g2002
sg75
(lp2009
S'folder'
p2010
asbag68
(g89
g70
NtRp2011
(dp2012
g73
(dp2013
g100
g101
ssg82
g2002
sg75
(lp2014
S':'
asbag68
(g89
g70
NtRp2015
(dp2016
g73
(dp2017
sg82
g2002
sg75
(lp2018
g68
(g69
g70
NtRp2019
(dp2020
g73
(dp2021
g81
I5
ssg82
g2015
sg75
(lp2022
S'/home/iscott/web/web2py/applications/paideia/'
p2023
asbasbasbag68
(g84
g70
NtRp2024
(dp2025
g73
(dp2026
sg82
g78
sg75
(lp2027
g68
(g89
g70
NtRp2028
(dp2029
g73
(dp2030
g93
g94
ssg82
g2024
sg75
(lp2031
S'function'
p2032
asbag68
(g89
g70
NtRp2033
(dp2034
g73
(dp2035
g100
g101
ssg82
g2024
sg75
(lp2036
S':'
asbag68
(g89
g70
NtRp2037
(dp2038
g73
(dp2039
sg82
g2024
sg75
(lp2040
g68
(g69
g70
NtRp2041
(dp2042
g73
(dp2043
g81
I5
ssg82
g2037
sg75
(lp2044
S'listing'
p2045
asbasbasbag68
(g84
g70
NtRp2046
(dp2047
g73
(dp2048
sg82
g78
sg75
(lp2049
g68
(g89
g70
NtRp2050
(dp2051
g73
(dp2052
g93
g94
ssg82
g2046
sg75
(lp2053
S'get_vars'
p2054
asbag68
(g89
g70
NtRp2055
(dp2056
g73
(dp2057
g100
g101
ssg82
g2046
sg75
(lp2058
S':'
asbag68
(g89
g70
NtRp2059
(dp2060
g73
(dp2061
sg82
g2046
sg75
(lp2062
g68
(g69
g70
NtRp2063
(dp2064
g73
(dp2065
g81
I5
ssg82
g2059
sg75
(lp2066
g68
(g77
g70
NtRp2067
(dp2068
g73
(dp2069
g81
I4
ssg82
Nsg75
(lp2070
sbasbasbasbag68
(g84
g70
NtRp2071
(dp2072
g73
(dp2073
sg82
g78
sg75
(lp2074
g68
(g89
g70
NtRp2075
(dp2076
g73
(dp2077
g93
g94
ssg82
g2071
sg75
(lp2078
S'global_settings'
p2079
asbag68
(g89
g70
NtRp2080
(dp2081
g73
(dp2082
g100
g101
ssg82
g2071
sg75
(lp2083
S':'
asbag68
(g89
g70
NtRp2084
(dp2085
g73
(dp2086
sg82
g2071
sg75
(lp2087
g68
(g69
g70
NtRp2088
(dp2089
g73
(dp2090
g81
I5
ssg82
g2084
sg75
(lp2091
g68
(g77
g70
NtRp2092
(dp2093
g73
(dp2094
g81
I4
ssg82
Nsg75
(lp2095
g68
(g84
g70
NtRp2096
(dp2097
g73
(dp2098
sg82
g2092
sg75
(lp2099
g68
(g89
g70
NtRp2100
(dp2101
g73
(dp2102
g93
g94
ssg82
g2096
sg75
(lp2103
g1043
asbag68
(g89
g70
NtRp2104
(dp2105
g73
(dp2106
g100
g101
ssg82
g2096
sg75
(lp2107
S':'
asbag68
(g89
g70
NtRp2108
(dp2109
g73
(dp2110
sg82
g2096
sg75
(lp2111
g68
(g69
g70
NtRp2112
(dp2113
g73
(dp2114
g81
I4
ssg82
g2108
sg75
(lp2115
S"set(['/home/iscott/web/web2py/applications/paideia/', '/home/iscott/web/web2py/applications/welcome/'])"
p2116
asbasbasbag68
(g84
g70
NtRp2117
(dp2118
g73
(dp2119
sg82
g2092
sg75
(lp2120
g68
(g89
g70
NtRp2121
(dp2122
g73
(dp2123
g93
g94
ssg82
g2117
sg75
(lp2124
g1065
asbag68
(g89
g70
NtRp2125
(dp2126
g73
(dp2127
g100
g101
ssg82
g2117
sg75
(lp2128
S':'
asbag68
(g89
g70
NtRp2129
(dp2130
g73
(dp2131
sg82
g2117
sg75
(lp2132
g68
(g69
g70
NtRp2133
(dp2134
g73
(dp2135
g81
I4
ssg82
g2129
sg75
(lp2136
g1078
asbasbasbag68
(g84
g70
NtRp2137
(dp2138
g73
(dp2139
sg82
g2092
sg75
(lp2140
g68
(g89
g70
NtRp2141
(dp2142
g73
(dp2143
g93
g94
ssg82
g2137
sg75
(lp2144
g1087
asbag68
(g89
g70
NtRp2145
(dp2146
g73
(dp2147
g100
g101
ssg82
g2137
sg75
(lp2148
S':'
asbag68
(g89
g70
NtRp2149
(dp2150
g73
(dp2151
sg82
g2137
sg75
(lp2152
g68
(g69
g70
NtRp2153
(dp2154
g73
(dp2155
g81
I4
ssg82
g2149
sg75
(lp2156
g68
(g77
g70
NtRp2157
(dp2158
g73
(dp2159
g81
I3
ssg82
Nsg75
(lp2160
sbasbasbasbag68
(g84
g70
NtRp2161
(dp2162
g73
(dp2163
sg82
g2092
sg75
(lp2164
g68
(g89
g70
NtRp2165
(dp2166
g73
(dp2167
g93
g94
ssg82
g2161
sg75
(lp2168
g1112
asbag68
(g89
g70
NtRp2169
(dp2170
g73
(dp2171
g100
g101
ssg82
g2161
sg75
(lp2172
S':'
asbag68
(g89
g70
NtRp2173
(dp2174
g73
(dp2175
sg82
g2161
sg75
(lp2176
g68
(g69
g70
NtRp2177
(dp2178
g73
(dp2179
g81
I4
ssg82
g2173
sg75
(lp2180
S"<Values at 0x9f96b8c: {'verbose': False, 'ip': '127.0.0.1', 'shutdown_timeout': 5, 'taskbar': False, 'nocron': False, 'pid_filename': 'httpserver.pid', 'maxthreads': None, 'softcron': False, 'server_name': 'ubuntu', 'bpython': False, 'nogui': False, 'port': 8000, 'extcron': False, 'debuglevel': 30, 'test': None, 'folder': '/home/iscott/web/web2py', 'config': '', 'import_models': False, 'winservice': '', 'shell': None, 'run': '', 'log_filename': 'httpserver.log', 'args': [''], 'socket_timeout': 1, 'ssl_ca_certificate': None, 'scheduler': None, 'profiler_filename': None, 'ssl_private_key': '', 'password': '<ask>', 'request_queue_size': 5, 'ssl_certificate': '', 'cronjob': False, 'numthreads': None, 'quiet': False, 'interfaces': None, 'minthreads': None, 'timeout': 10, 'plain': False, 'nobanner': False}>"
p2181
asbasbasbag68
(g84
g70
NtRp2182
(dp2183
g73
(dp2184
sg82
g2092
sg75
(lp2185
g68
(g89
g70
NtRp2186
(dp2187
g73
(dp2188
g93
g94
ssg82
g2182
sg75
(lp2189
g1134
asbag68
(g89
g70
NtRp2190
(dp2191
g73
(dp2192
g100
g101
ssg82
g2182
sg75
(lp2193
S':'
asbag68
(g89
g70
NtRp2194
(dp2195
g73
(dp2196
sg82
g2182
sg75
(lp2197
g68
(g69
g70
NtRp2198
(dp2199
g73
(dp2200
g81
I4
ssg82
g2194
sg75
(lp2201
S'set([])'
p2202
asbasbasbag68
(g84
g70
NtRp2203
(dp2204
g73
(dp2205
sg82
g2092
sg75
(lp2206
g68
(g89
g70
NtRp2207
(dp2208
g73
(dp2209
g93
g94
ssg82
g2203
sg75
(lp2210
g1156
asbag68
(g89
g70
NtRp2211
(dp2212
g73
(dp2213
g100
g101
ssg82
g2203
sg75
(lp2214
S':'
asbag68
(g89
g70
NtRp2215
(dp2216
g73
(dp2217
sg82
g2203
sg75
(lp2218
g68
(g69
g70
NtRp2219
(dp2220
g73
(dp2221
g81
I4
ssg82
g2215
sg75
(lp2222
g111
asbasbasbag68
(g84
g70
NtRp2223
(dp2224
g73
(dp2225
sg82
g2092
sg75
(lp2226
g68
(g89
g70
NtRp2227
(dp2228
g73
(dp2229
g93
g94
ssg82
g2223
sg75
(lp2230
g1177
asbag68
(g89
g70
NtRp2231
(dp2232
g73
(dp2233
g100
g101
ssg82
g2223
sg75
(lp2234
S':'
asbag68
(g89
g70
NtRp2235
(dp2236
g73
(dp2237
sg82
g2223
sg75
(lp2238
g68
(g69
g70
NtRp2239
(dp2240
g73
(dp2241
g81
I4
ssg82
g2235
sg75
(lp2242
g1190
asbasbasbag68
(g84
g70
NtRp2243
(dp2244
g73
(dp2245
sg82
g2092
sg75
(lp2246
g68
(g89
g70
NtRp2247
(dp2248
g73
(dp2249
g93
g94
ssg82
g2243
sg75
(lp2250
g1397
asbag68
(g89
g70
NtRp2251
(dp2252
g73
(dp2253
g100
g101
ssg82
g2243
sg75
(lp2254
S':'
asbag68
(g89
g70
NtRp2255
(dp2256
g73
(dp2257
sg82
g2243
sg75
(lp2258
g68
(g69
g70
NtRp2259
(dp2260
g73
(dp2261
g81
I4
ssg82
g2255
sg75
(lp2262
g111
asbasbasbag68
(g84
g70
NtRp2263
(dp2264
g73
(dp2265
sg82
g2092
sg75
(lp2266
g68
(g89
g70
NtRp2267
(dp2268
g73
(dp2269
g93
g94
ssg82
g2263
sg75
(lp2270
g1418
asbag68
(g89
g70
NtRp2271
(dp2272
g73
(dp2273
g100
g101
ssg82
g2263
sg75
(lp2274
S':'
asbag68
(g89
g70
NtRp2275
(dp2276
g73
(dp2277
sg82
g2263
sg75
(lp2278
g68
(g69
g70
NtRp2279
(dp2280
g73
(dp2281
g81
I4
ssg82
g2275
sg75
(lp2282
g111
asbasbasbag68
(g84
g70
NtRp2283
(dp2284
g73
(dp2285
sg82
g2092
sg75
(lp2286
g68
(g89
g70
NtRp2287
(dp2288
g73
(dp2289
g93
g94
ssg82
g2283
sg75
(lp2290
g1656
asbag68
(g89
g70
NtRp2291
(dp2292
g73
(dp2293
g100
g101
ssg82
g2283
sg75
(lp2294
S':'
asbag68
(g89
g70
NtRp2295
(dp2296
g73
(dp2297
sg82
g2283
sg75
(lp2298
g68
(g69
g70
NtRp2299
(dp2300
g73
(dp2301
g81
I4
ssg82
g2295
sg75
(lp2302
g1669
asbasbasbag68
(g84
g70
NtRp2303
(dp2304
g73
(dp2305
sg82
g2092
sg75
(lp2306
g68
(g89
g70
NtRp2307
(dp2308
g73
(dp2309
g93
g94
ssg82
g2303
sg75
(lp2310
g1699
asbag68
(g89
g70
NtRp2311
(dp2312
g73
(dp2313
g100
g101
ssg82
g2303
sg75
(lp2314
S':'
asbag68
(g89
g70
NtRp2315
(dp2316
g73
(dp2317
sg82
g2303
sg75
(lp2318
g68
(g69
g70
NtRp2319
(dp2320
g73
(dp2321
g81
I4
ssg82
g2315
sg75
(lp2322
g68
(g77
g70
NtRp2323
(dp2324
g73
(dp2325
g81
I3
ssg82
Nsg75
(lp2326
g68
(g84
g70
NtRp2327
(dp2328
g73
(dp2329
sg82
g2323
sg75
(lp2330
g68
(g89
g70
NtRp2331
(dp2332
g73
(dp2333
sg82
g2327
sg75
(lp2334
g68
(g69
g70
NtRp2335
(dp2336
g73
(dp2337
g81
I3
ssg82
g2331
sg75
(lp2338
S'1'
asbasbasbag68
(g84
g70
NtRp2339
(dp2340
g73
(dp2341
sg82
g2323
sg75
(lp2342
g68
(g89
g70
NtRp2343
(dp2344
g73
(dp2345
sg82
g2339
sg75
(lp2346
g68
(g69
g70
NtRp2347
(dp2348
g73
(dp2349
g81
I3
ssg82
g2343
sg75
(lp2350
S'99'
p2351
asbasbasbag68
(g84
g70
NtRp2352
(dp2353
g73
(dp2354
sg82
g2323
sg75
(lp2355
g68
(g89
g70
NtRp2356
(dp2357
g73
(dp2358
sg82
g2352
sg75
(lp2359
g68
(g69
g70
NtRp2360
(dp2361
g73
(dp2362
g81
I3
ssg82
g2356
sg75
(lp2363
S'4'
asbasbasbag68
(g84
g70
NtRp2364
(dp2365
g73
(dp2366
sg82
g2323
sg75
(lp2367
g68
(g89
g70
NtRp2368
(dp2369
g73
(dp2370
sg82
g2364
sg75
(lp2371
g68
(g69
g70
NtRp2372
(dp2373
g73
(dp2374
g81
I3
ssg82
g2368
sg75
(lp2375
S'datetime.datetime(2011, 12, 14, 14, 46, 14)'
p2376
asbasbasbag68
(g84
g70
NtRp2377
(dp2378
g73
(dp2379
sg82
g2323
sg75
(lp2380
g68
(g89
g70
NtRp2381
(dp2382
g73
(dp2383
sg82
g2377
sg75
(lp2384
g68
(g69
g70
NtRp2385
(dp2386
g73
(dp2387
g81
I3
ssg82
g2381
sg75
(lp2388
g1778
asbasbasbasbasbasbasbasbasbasbasbag68
(g84
g70
NtRp2389
(dp2390
g73
(dp2391
sg82
g78
sg75
(lp2392
g68
(g89
g70
NtRp2393
(dp2394
g73
(dp2395
g93
g94
ssg82
g2389
sg75
(lp2396
S'is_https'
p2397
asbag68
(g89
g70
NtRp2398
(dp2399
g73
(dp2400
g100
g101
ssg82
g2389
sg75
(lp2401
S':'
asbag68
(g89
g70
NtRp2402
(dp2403
g73
(dp2404
sg82
g2389
sg75
(lp2405
g68
(g69
g70
NtRp2406
(dp2407
g73
(dp2408
g81
I5
ssg82
g2402
sg75
(lp2409
g111
asbasbasbag68
(g84
g70
NtRp2410
(dp2411
g73
(dp2412
sg82
g78
sg75
(lp2413
g68
(g89
g70
NtRp2414
(dp2415
g73
(dp2416
g93
g94
ssg82
g2410
sg75
(lp2417
S'is_local'
p2418
asbag68
(g89
g70
NtRp2419
(dp2420
g73
(dp2421
g100
g101
ssg82
g2410
sg75
(lp2422
S':'
asbag68
(g89
g70
NtRp2423
(dp2424
g73
(dp2425
sg82
g2410
sg75
(lp2426
g68
(g69
g70
NtRp2427
(dp2428
g73
(dp2429
g81
I5
ssg82
g2423
sg75
(lp2430
g1887
asbasbasbag68
(g84
g70
NtRp2431
(dp2432
g73
(dp2433
sg82
g78
sg75
(lp2434
g68
(g89
g70
NtRp2435
(dp2436
g73
(dp2437
g93
g94
ssg82
g2431
sg75
(lp2438
S'is_restful'
p2439
asbag68
(g89
g70
NtRp2440
(dp2441
g73
(dp2442
g100
g101
ssg82
g2431
sg75
(lp2443
S':'
asbag68
(g89
g70
NtRp2444
(dp2445
g73
(dp2446
sg82
g2431
sg75
(lp2447
g68
(g69
g70
NtRp2448
(dp2449
g73
(dp2450
g81
I5
ssg82
g2444
sg75
(lp2451
g111
asbasbasbag68
(g84
g70
NtRp2452
(dp2453
g73
(dp2454
sg82
g78
sg75
(lp2455
g68
(g89
g70
NtRp2456
(dp2457
g73
(dp2458
g93
g94
ssg82
g2452
sg75
(lp2459
S'now'
p2460
asbag68
(g89
g70
NtRp2461
(dp2462
g73
(dp2463
g100
g101
ssg82
g2452
sg75
(lp2464
S':'
asbag68
(g89
g70
NtRp2465
(dp2466
g73
(dp2467
sg82
g2452
sg75
(lp2468
g68
(g69
g70
NtRp2469
(dp2470
g73
(dp2471
g81
I5
ssg82
g2465
sg75
(lp2472
S'datetime.datetime(2012, 3, 1, 12, 16, 1, 418551)'
p2473
asbasbasbag68
(g84
g70
NtRp2474
(dp2475
g73
(dp2476
sg82
g78
sg75
(lp2477
g68
(g89
g70
NtRp2478
(dp2479
g73
(dp2480
g93
g94
ssg82
g2474
sg75
(lp2481
S'post_vars'
p2482
asbag68
(g89
g70
NtRp2483
(dp2484
g73
(dp2485
g100
g101
ssg82
g2474
sg75
(lp2486
S':'
asbag68
(g89
g70
NtRp2487
(dp2488
g73
(dp2489
sg82
g2474
sg75
(lp2490
g68
(g69
g70
NtRp2491
(dp2492
g73
(dp2493
g81
I5
ssg82
g2487
sg75
(lp2494
g68
(g77
g70
NtRp2495
(dp2496
g73
(dp2497
g81
I4
ssg82
Nsg75
(lp2498
sbasbasbasbag68
(g84
g70
NtRp2499
(dp2500
g73
(dp2501
sg82
g78
sg75
(lp2502
g68
(g89
g70
NtRp2503
(dp2504
g73
(dp2505
g93
g94
ssg82
g2499
sg75
(lp2506
S'raw_args'
p2507
asbag68
(g89
g70
NtRp2508
(dp2509
g73
(dp2510
g100
g101
ssg82
g2499
sg75
(lp2511
S':'
asbag68
(g89
g70
NtRp2512
(dp2513
g73
(dp2514
sg82
g2499
sg75
(lp2515
g68
(g69
g70
NtRp2516
(dp2517
g73
(dp2518
g81
I5
ssg82
g2512
sg75
(lp2519
g170
asbasbasbag68
(g84
g70
NtRp2520
(dp2521
g73
(dp2522
sg82
g78
sg75
(lp2523
g68
(g89
g70
NtRp2524
(dp2525
g73
(dp2526
g93
g94
ssg82
g2520
sg75
(lp2527
S'raw_extension'
p2528
asbag68
(g89
g70
NtRp2529
(dp2530
g73
(dp2531
g100
g101
ssg82
g2520
sg75
(lp2532
S':'
asbag68
(g89
g70
NtRp2533
(dp2534
g73
(dp2535
sg82
g2520
sg75
(lp2536
g68
(g69
g70
NtRp2537
(dp2538
g73
(dp2539
g81
I5
ssg82
g2533
sg75
(lp2540
g2001
asbasbasbag68
(g84
g70
NtRp2541
(dp2542
g73
(dp2543
sg82
g78
sg75
(lp2544
g68
(g89
g70
NtRp2545
(dp2546
g73
(dp2547
g93
g94
ssg82
g2541
sg75
(lp2548
S'url'
p2549
asbag68
(g89
g70
NtRp2550
(dp2551
g73
(dp2552
g100
g101
ssg82
g2541
sg75
(lp2553
S':'
asbag68
(g89
g70
NtRp2554
(dp2555
g73
(dp2556
sg82
g2541
sg75
(lp2557
g68
(g69
g70
NtRp2558
(dp2559
g73
(dp2560
g81
I5
ssg82
g2554
sg75
(lp2561
S'/paideia/plugin_listandedit/listing.html/paths'
p2562
asbasbasbag68
(g84
g70
NtRp2563
(dp2564
g73
(dp2565
sg82
g78
sg75
(lp2566
g68
(g89
g70
NtRp2567
(dp2568
g73
(dp2569
g93
g94
ssg82
g2563
sg75
(lp2570
S'utcnow'
p2571
asbag68
(g89
g70
NtRp2572
(dp2573
g73
(dp2574
g100
g101
ssg82
g2563
sg75
(lp2575
S':'
asbag68
(g89
g70
NtRp2576
(dp2577
g73
(dp2578
sg82
g2563
sg75
(lp2579
g68
(g69
g70
NtRp2580
(dp2581
g73
(dp2582
g81
I5
ssg82
g2576
sg75
(lp2583
S'datetime.datetime(2012, 3, 1, 17, 16, 1, 418614)'
p2584
asbasbasbag68
(g84
g70
NtRp2585
(dp2586
g73
(dp2587
sg82
g78
sg75
(lp2588
g68
(g89
g70
NtRp2589
(dp2590
g73
(dp2591
g93
g94
ssg82
g2585
sg75
(lp2592
S'uuid'
p2593
asbag68
(g89
g70
NtRp2594
(dp2595
g73
(dp2596
g100
g101
ssg82
g2585
sg75
(lp2597
S':'
asbag68
(g89
g70
NtRp2598
(dp2599
g73
(dp2600
sg82
g2585
sg75
(lp2601
g68
(g69
g70
NtRp2602
(dp2603
g73
(dp2604
g81
I5
ssg82
g2598
sg75
(lp2605
S'paideia/127.0.0.1.2012-03-01.12-16-01.008c705b-89eb-4080-9225-0e5ea2292461'
p2606
asbasbasbag68
(g84
g70
NtRp2607
(dp2608
g73
(dp2609
sg82
g78
sg75
(lp2610
g68
(g89
g70
NtRp2611
(dp2612
g73
(dp2613
g93
g94
ssg82
g2607
sg75
(lp2614
S'vars'
p2615
asbag68
(g89
g70
NtRp2616
(dp2617
g73
(dp2618
g100
g101
ssg82
g2607
sg75
(lp2619
S':'
asbag68
(g89
g70
NtRp2620
(dp2621
g73
(dp2622
sg82
g2607
sg75
(lp2623
g68
(g69
g70
NtRp2624
(dp2625
g73
(dp2626
g81
I5
ssg82
g2620
sg75
(lp2627
g68
(g77
g70
NtRp2628
(dp2629
g73
(dp2630
g81
I4
ssg82
Nsg75
(lp2631
sbasbasbasbag68
(g84
g70
NtRp2632
(dp2633
g73
(dp2634
sg82
g78
sg75
(lp2635
g68
(g89
g70
NtRp2636
(dp2637
g73
(dp2638
g93
g94
ssg82
g2632
sg75
(lp2639
S'wsgi'
p2640
asbag68
(g89
g70
NtRp2641
(dp2642
g73
(dp2643
g100
g101
ssg82
g2632
sg75
(lp2644
S':'
asbag68
(g89
g70
NtRp2645
(dp2646
g73
(dp2647
sg82
g2632
sg75
(lp2648
g68
(g69
g70
NtRp2649
(dp2650
g73
(dp2651
g81
I5
ssg82
g2645
sg75
(lp2652
g68
(g77
g70
NtRp2653
(dp2654
g73
(dp2655
g81
I4
ssg82
Nsg75
(lp2656
g68
(g84
g70
NtRp2657
(dp2658
g73
(dp2659
sg82
g2653
sg75
(lp2660
g68
(g89
g70
NtRp2661
(dp2662
g73
(dp2663
g93
g94
ssg82
g2657
sg75
(lp2664
S'environ'
p2665
asbag68
(g89
g70
NtRp2666
(dp2667
g73
(dp2668
g100
g101
ssg82
g2657
sg75
(lp2669
S':'
asbag68
(g89
g70
NtRp2670
(dp2671
g73
(dp2672
sg82
g2657
sg75
(lp2673
g68
(g69
g70
NtRp2674
(dp2675
g73
(dp2676
g81
I4
ssg82
g2670
sg75
(lp2677
g68
(g77
g70
NtRp2678
(dp2679
g73
(dp2680
g81
I3
ssg82
Nsg75
(lp2681
g68
(g84
g70
NtRp2682
(dp2683
g73
(dp2684
sg82
g2678
sg75
(lp2685
g68
(g89
g70
NtRp2686
(dp2687
g73
(dp2688
g93
g94
ssg82
g2682
sg75
(lp2689
S'HTTP_ACCEPT'
p2690
asbag68
(g89
g70
NtRp2691
(dp2692
g73
(dp2693
g100
g101
ssg82
g2682
sg75
(lp2694
S':'
asbag68
(g89
g70
NtRp2695
(dp2696
g73
(dp2697
sg82
g2682
sg75
(lp2698
g68
(g69
g70
NtRp2699
(dp2700
g73
(dp2701
g81
I3
ssg82
g2695
sg75
(lp2702
g1212
asbasbasbag68
(g84
g70
NtRp2703
(dp2704
g73
(dp2705
sg82
g2678
sg75
(lp2706
g68
(g89
g70
NtRp2707
(dp2708
g73
(dp2709
g93
g94
ssg82
g2703
sg75
(lp2710
S'HTTP_ACCEPT_ENCODING'
p2711
asbag68
(g89
g70
NtRp2712
(dp2713
g73
(dp2714
g100
g101
ssg82
g2703
sg75
(lp2715
S':'
asbag68
(g89
g70
NtRp2716
(dp2717
g73
(dp2718
sg82
g2703
sg75
(lp2719
g68
(g69
g70
NtRp2720
(dp2721
g73
(dp2722
g81
I3
ssg82
g2716
sg75
(lp2723
g1234
asbasbasbag68
(g84
g70
NtRp2724
(dp2725
g73
(dp2726
sg82
g2678
sg75
(lp2727
g68
(g89
g70
NtRp2728
(dp2729
g73
(dp2730
g93
g94
ssg82
g2724
sg75
(lp2731
S'HTTP_ACCEPT_LANGUAGE'
p2732
asbag68
(g89
g70
NtRp2733
(dp2734
g73
(dp2735
g100
g101
ssg82
g2724
sg75
(lp2736
S':'
asbag68
(g89
g70
NtRp2737
(dp2738
g73
(dp2739
sg82
g2724
sg75
(lp2740
g68
(g69
g70
NtRp2741
(dp2742
g73
(dp2743
g81
I3
ssg82
g2737
sg75
(lp2744
g1256
asbasbasbag68
(g84
g70
NtRp2745
(dp2746
g73
(dp2747
sg82
g2678
sg75
(lp2748
g68
(g89
g70
NtRp2749
(dp2750
g73
(dp2751
g93
g94
ssg82
g2745
sg75
(lp2752
S'HTTP_CACHE_CONTROL'
p2753
asbag68
(g89
g70
NtRp2754
(dp2755
g73
(dp2756
g100
g101
ssg82
g2745
sg75
(lp2757
S':'
asbag68
(g89
g70
NtRp2758
(dp2759
g73
(dp2760
sg82
g2745
sg75
(lp2761
g68
(g69
g70
NtRp2762
(dp2763
g73
(dp2764
g81
I3
ssg82
g2758
sg75
(lp2765
g1278
asbasbasbag68
(g84
g70
NtRp2766
(dp2767
g73
(dp2768
sg82
g2678
sg75
(lp2769
g68
(g89
g70
NtRp2770
(dp2771
g73
(dp2772
g93
g94
ssg82
g2766
sg75
(lp2773
S'HTTP_CONNECTION'
p2774
asbag68
(g89
g70
NtRp2775
(dp2776
g73
(dp2777
g100
g101
ssg82
g2766
sg75
(lp2778
S':'
asbag68
(g89
g70
NtRp2779
(dp2780
g73
(dp2781
sg82
g2766
sg75
(lp2782
g68
(g69
g70
NtRp2783
(dp2784
g73
(dp2785
g81
I3
ssg82
g2779
sg75
(lp2786
g1300
asbasbasbag68
(g84
g70
NtRp2787
(dp2788
g73
(dp2789
sg82
g2678
sg75
(lp2790
g68
(g89
g70
NtRp2791
(dp2792
g73
(dp2793
g93
g94
ssg82
g2787
sg75
(lp2794
S'HTTP_COOKIE'
p2795
asbag68
(g89
g70
NtRp2796
(dp2797
g73
(dp2798
g100
g101
ssg82
g2787
sg75
(lp2799
S':'
asbag68
(g89
g70
NtRp2800
(dp2801
g73
(dp2802
sg82
g2787
sg75
(lp2803
g68
(g69
g70
NtRp2804
(dp2805
g73
(dp2806
g81
I3
ssg82
g2800
sg75
(lp2807
g1322
asbasbasbag68
(g84
g70
NtRp2808
(dp2809
g73
(dp2810
sg82
g2678
sg75
(lp2811
g68
(g89
g70
NtRp2812
(dp2813
g73
(dp2814
g93
g94
ssg82
g2808
sg75
(lp2815
S'HTTP_HOST'
p2816
asbag68
(g89
g70
NtRp2817
(dp2818
g73
(dp2819
g100
g101
ssg82
g2808
sg75
(lp2820
S':'
asbag68
(g89
g70
NtRp2821
(dp2822
g73
(dp2823
sg82
g2808
sg75
(lp2824
g68
(g69
g70
NtRp2825
(dp2826
g73
(dp2827
g81
I3
ssg82
g2821
sg75
(lp2828
g1344
asbasbasbag68
(g84
g70
NtRp2829
(dp2830
g73
(dp2831
sg82
g2678
sg75
(lp2832
g68
(g89
g70
NtRp2833
(dp2834
g73
(dp2835
g93
g94
ssg82
g2829
sg75
(lp2836
S'HTTP_REFERER'
p2837
asbag68
(g89
g70
NtRp2838
(dp2839
g73
(dp2840
g100
g101
ssg82
g2829
sg75
(lp2841
S':'
asbag68
(g89
g70
NtRp2842
(dp2843
g73
(dp2844
sg82
g2829
sg75
(lp2845
g68
(g69
g70
NtRp2846
(dp2847
g73
(dp2848
g81
I3
ssg82
g2842
sg75
(lp2849
g1366
asbasbasbag68
(g84
g70
NtRp2850
(dp2851
g73
(dp2852
sg82
g2678
sg75
(lp2853
g68
(g89
g70
NtRp2854
(dp2855
g73
(dp2856
g93
g94
ssg82
g2850
sg75
(lp2857
S'HTTP_USER_AGENT'
p2858
asbag68
(g89
g70
NtRp2859
(dp2860
g73
(dp2861
g100
g101
ssg82
g2850
sg75
(lp2862
S':'
asbag68
(g89
g70
NtRp2863
(dp2864
g73
(dp2865
sg82
g2850
sg75
(lp2866
g68
(g69
g70
NtRp2867
(dp2868
g73
(dp2869
g81
I3
ssg82
g2863
sg75
(lp2870
g1388
asbasbasbag68
(g84
g70
NtRp2871
(dp2872
g73
(dp2873
sg82
g2678
sg75
(lp2874
g68
(g89
g70
NtRp2875
(dp2876
g73
(dp2877
g93
g94
ssg82
g2871
sg75
(lp2878
S'PATH_INFO'
p2879
asbag68
(g89
g70
NtRp2880
(dp2881
g73
(dp2882
g100
g101
ssg82
g2871
sg75
(lp2883
S':'
asbag68
(g89
g70
NtRp2884
(dp2885
g73
(dp2886
sg82
g2871
sg75
(lp2887
g68
(g69
g70
NtRp2888
(dp2889
g73
(dp2890
g81
I3
ssg82
g2884
sg75
(lp2891
g1452
asbasbasbag68
(g84
g70
NtRp2892
(dp2893
g73
(dp2894
sg82
g2678
sg75
(lp2895
g68
(g89
g70
NtRp2896
(dp2897
g73
(dp2898
g93
g94
ssg82
g2892
sg75
(lp2899
S'QUERY_STRING'
p2900
asbag68
(g89
g70
NtRp2901
(dp2902
g73
(dp2903
g100
g101
ssg82
g2892
sg75
(lp2904
S':'
asbag68
(g89
g70
NtRp2905
(dp2906
g73
(dp2907
sg82
g2892
sg75
(lp2908
g68
(g69
g70
NtRp2909
(dp2910
g73
(dp2911
g81
I3
ssg82
g2905
sg75
(lp2912
S''
asbasbasbag68
(g84
g70
NtRp2913
(dp2914
g73
(dp2915
sg82
g2678
sg75
(lp2916
g68
(g89
g70
NtRp2917
(dp2918
g73
(dp2919
g93
g94
ssg82
g2913
sg75
(lp2920
S'REMOTE_ADDR'
p2921
asbag68
(g89
g70
NtRp2922
(dp2923
g73
(dp2924
g100
g101
ssg82
g2913
sg75
(lp2925
S':'
asbag68
(g89
g70
NtRp2926
(dp2927
g73
(dp2928
sg82
g2913
sg75
(lp2929
g68
(g69
g70
NtRp2930
(dp2931
g73
(dp2932
g81
I3
ssg82
g2926
sg75
(lp2933
g214
asbasbasbag68
(g84
g70
NtRp2934
(dp2935
g73
(dp2936
sg82
g2678
sg75
(lp2937
g68
(g89
g70
NtRp2938
(dp2939
g73
(dp2940
g93
g94
ssg82
g2934
sg75
(lp2941
S'REMOTE_PORT'
p2942
asbag68
(g89
g70
NtRp2943
(dp2944
g73
(dp2945
g100
g101
ssg82
g2934
sg75
(lp2946
S':'
asbag68
(g89
g70
NtRp2947
(dp2948
g73
(dp2949
sg82
g2934
sg75
(lp2950
g68
(g69
g70
NtRp2951
(dp2952
g73
(dp2953
g81
I3
ssg82
g2947
sg75
(lp2954
g1516
asbasbasbag68
(g84
g70
NtRp2955
(dp2956
g73
(dp2957
sg82
g2678
sg75
(lp2958
g68
(g89
g70
NtRp2959
(dp2960
g73
(dp2961
g93
g94
ssg82
g2955
sg75
(lp2962
S'REQUEST_METHOD'
p2963
asbag68
(g89
g70
NtRp2964
(dp2965
g73
(dp2966
g100
g101
ssg82
g2955
sg75
(lp2967
S':'
asbag68
(g89
g70
NtRp2968
(dp2969
g73
(dp2970
sg82
g2955
sg75
(lp2971
g68
(g69
g70
NtRp2972
(dp2973
g73
(dp2974
g81
I3
ssg82
g2968
sg75
(lp2975
g1538
asbasbasbag68
(g84
g70
NtRp2976
(dp2977
g73
(dp2978
sg82
g2678
sg75
(lp2979
g68
(g89
g70
NtRp2980
(dp2981
g73
(dp2982
g93
g94
ssg82
g2976
sg75
(lp2983
S'SCRIPT_NAME'
p2984
asbag68
(g89
g70
NtRp2985
(dp2986
g73
(dp2987
g100
g101
ssg82
g2976
sg75
(lp2988
S':'
asbag68
(g89
g70
NtRp2989
(dp2990
g73
(dp2991
sg82
g2976
sg75
(lp2992
g68
(g69
g70
NtRp2993
(dp2994
g73
(dp2995
g81
I3
ssg82
g2989
sg75
(lp2996
S''
asbasbasbag68
(g84
g70
NtRp2997
(dp2998
g73
(dp2999
sg82
g2678
sg75
(lp3000
g68
(g89
g70
NtRp3001
(dp3002
g73
(dp3003
g93
g94
ssg82
g2997
sg75
(lp3004
S'SERVER_NAME'
p3005
asbag68
(g89
g70
NtRp3006
(dp3007
g73
(dp3008
g100
g101
ssg82
g2997
sg75
(lp3009
S':'
asbag68
(g89
g70
NtRp3010
(dp3011
g73
(dp3012
sg82
g2997
sg75
(lp3013
g68
(g69
g70
NtRp3014
(dp3015
g73
(dp3016
g81
I3
ssg82
g3010
sg75
(lp3017
g1581
asbasbasbag68
(g84
g70
NtRp3018
(dp3019
g73
(dp3020
sg82
g2678
sg75
(lp3021
g68
(g89
g70
NtRp3022
(dp3023
g73
(dp3024
g93
g94
ssg82
g3018
sg75
(lp3025
S'SERVER_PORT'
p3026
asbag68
(g89
g70
NtRp3027
(dp3028
g73
(dp3029
g100
g101
ssg82
g3018
sg75
(lp3030
S':'
asbag68
(g89
g70
NtRp3031
(dp3032
g73
(dp3033
sg82
g3018
sg75
(lp3034
g68
(g69
g70
NtRp3035
(dp3036
g73
(dp3037
g81
I3
ssg82
g3031
sg75
(lp3038
g1603
asbasbasbag68
(g84
g70
NtRp3039
(dp3040
g73
(dp3041
sg82
g2678
sg75
(lp3042
g68
(g89
g70
NtRp3043
(dp3044
g73
(dp3045
g93
g94
ssg82
g3039
sg75
(lp3046
S'SERVER_PROTOCOL'
p3047
asbag68
(g89
g70
NtRp3048
(dp3049
g73
(dp3050
g100
g101
ssg82
g3039
sg75
(lp3051
S':'
asbag68
(g89
g70
NtRp3052
(dp3053
g73
(dp3054
sg82
g3039
sg75
(lp3055
g68
(g69
g70
NtRp3056
(dp3057
g73
(dp3058
g81
I3
ssg82
g3052
sg75
(lp3059
g1625
asbasbasbag68
(g84
g70
NtRp3060
(dp3061
g73
(dp3062
sg82
g2678
sg75
(lp3063
g68
(g89
g70
NtRp3064
(dp3065
g73
(dp3066
g93
g94
ssg82
g3060
sg75
(lp3067
S'SERVER_SOFTWARE'
p3068
asbag68
(g89
g70
NtRp3069
(dp3070
g73
(dp3071
g100
g101
ssg82
g3060
sg75
(lp3072
S':'
asbag68
(g89
g70
NtRp3073
(dp3074
g73
(dp3075
sg82
g3060
sg75
(lp3076
g68
(g69
g70
NtRp3077
(dp3078
g73
(dp3079
g81
I3
ssg82
g3073
sg75
(lp3080
g1647
asbasbasbag68
(g84
g70
NtRp3081
(dp3082
g73
(dp3083
sg82
g2678
sg75
(lp3084
g68
(g89
g70
NtRp3085
(dp3086
g73
(dp3087
g93
g94
ssg82
g3081
sg75
(lp3088
S'wsgi.errors'
p3089
asbag68
(g89
g70
NtRp3090
(dp3091
g73
(dp3092
g100
g101
ssg82
g3081
sg75
(lp3093
S':'
asbag68
(g89
g70
NtRp3094
(dp3095
g73
(dp3096
sg82
g3081
sg75
(lp3097
g68
(g69
g70
NtRp3098
(dp3099
g73
(dp3100
g81
I3
ssg82
g3094
sg75
(lp3101
S"<open file '<stderr>', mode 'w' at 0xb776b0d0>"
p3102
asbasbasbag68
(g84
g70
NtRp3103
(dp3104
g73
(dp3105
sg82
g2678
sg75
(lp3106
g68
(g89
g70
NtRp3107
(dp3108
g73
(dp3109
g93
g94
ssg82
g3103
sg75
(lp3110
S'wsgi.file_wrapper'
p3111
asbag68
(g89
g70
NtRp3112
(dp3113
g73
(dp3114
g100
g101
ssg82
g3103
sg75
(lp3115
S':'
asbag68
(g89
g70
NtRp3116
(dp3117
g73
(dp3118
sg82
g3103
sg75
(lp3119
g68
(g69
g70
NtRp3120
(dp3121
g73
(dp3122
g81
I3
ssg82
g3116
sg75
(lp3123
S'<class wsgiref.util.FileWrapper at 0x9edf20c>'
p3124
asbasbasbag68
(g84
g70
NtRp3125
(dp3126
g73
(dp3127
sg82
g2678
sg75
(lp3128
g68
(g89
g70
NtRp3129
(dp3130
g73
(dp3131
g93
g94
ssg82
g3125
sg75
(lp3132
S'wsgi.input'
p3133
asbag68
(g89
g70
NtRp3134
(dp3135
g73
(dp3136
g100
g101
ssg82
g3125
sg75
(lp3137
S':'
asbag68
(g89
g70
NtRp3138
(dp3139
g73
(dp3140
sg82
g3125
sg75
(lp3141
g68
(g69
g70
NtRp3142
(dp3143
g73
(dp3144
g81
I3
ssg82
g3138
sg75
(lp3145
S'<cStringIO.StringO object at 0xa55d4a0>'
p3146
asbasbasbag68
(g84
g70
NtRp3147
(dp3148
g73
(dp3149
sg82
g2678
sg75
(lp3150
g68
(g89
g70
NtRp3151
(dp3152
g73
(dp3153
g93
g94
ssg82
g3147
sg75
(lp3154
S'wsgi.multiprocess'
p3155
asbag68
(g89
g70
NtRp3156
(dp3157
g73
(dp3158
g100
g101
ssg82
g3147
sg75
(lp3159
S':'
asbag68
(g89
g70
NtRp3160
(dp3161
g73
(dp3162
sg82
g3147
sg75
(lp3163
g68
(g69
g70
NtRp3164
(dp3165
g73
(dp3166
g81
I3
ssg82
g3160
sg75
(lp3167
g111
asbasbasbag68
(g84
g70
NtRp3168
(dp3169
g73
(dp3170
sg82
g2678
sg75
(lp3171
g68
(g89
g70
NtRp3172
(dp3173
g73
(dp3174
g93
g94
ssg82
g3168
sg75
(lp3175
S'wsgi.multithread'
p3176
asbag68
(g89
g70
NtRp3177
(dp3178
g73
(dp3179
g100
g101
ssg82
g3168
sg75
(lp3180
S':'
asbag68
(g89
g70
NtRp3181
(dp3182
g73
(dp3183
sg82
g3168
sg75
(lp3184
g68
(g69
g70
NtRp3185
(dp3186
g73
(dp3187
g81
I3
ssg82
g3181
sg75
(lp3188
g1887
asbasbasbag68
(g84
g70
NtRp3189
(dp3190
g73
(dp3191
sg82
g2678
sg75
(lp3192
g68
(g89
g70
NtRp3193
(dp3194
g73
(dp3195
g93
g94
ssg82
g3189
sg75
(lp3196
S'wsgi.run_once'
p3197
asbag68
(g89
g70
NtRp3198
(dp3199
g73
(dp3200
g100
g101
ssg82
g3189
sg75
(lp3201
S':'
asbag68
(g89
g70
NtRp3202
(dp3203
g73
(dp3204
sg82
g3189
sg75
(lp3205
g68
(g69
g70
NtRp3206
(dp3207
g73
(dp3208
g81
I3
ssg82
g3202
sg75
(lp3209
g111
asbasbasbag68
(g84
g70
NtRp3210
(dp3211
g73
(dp3212
sg82
g2678
sg75
(lp3213
g68
(g89
g70
NtRp3214
(dp3215
g73
(dp3216
g93
g94
ssg82
g3210
sg75
(lp3217
S'wsgi.url_scheme'
p3218
asbag68
(g89
g70
NtRp3219
(dp3220
g73
(dp3221
g100
g101
ssg82
g3210
sg75
(lp3222
S':'
asbag68
(g89
g70
NtRp3223
(dp3224
g73
(dp3225
sg82
g3210
sg75
(lp3226
g68
(g69
g70
NtRp3227
(dp3228
g73
(dp3229
g81
I3
ssg82
g3223
sg75
(lp3230
g1930
asbasbasbag68
(g84
g70
NtRp3231
(dp3232
g73
(dp3233
sg82
g2678
sg75
(lp3234
g68
(g89
g70
NtRp3235
(dp3236
g73
(dp3237
g93
g94
ssg82
g3231
sg75
(lp3238
S'wsgi.version'
p3239
asbag68
(g89
g70
NtRp3240
(dp3241
g73
(dp3242
g100
g101
ssg82
g3231
sg75
(lp3243
S':'
asbag68
(g89
g70
NtRp3244
(dp3245
g73
(dp3246
sg82
g3231
sg75
(lp3247
g68
(g69
g70
NtRp3248
(dp3249
g73
(dp3250
g81
I3
ssg82
g3244
sg75
(lp3251
S'1'
asbasbasbasbasbasbasbasbasbasbasbasbasbsS'frames'
p3252
(lp3253
(dp3254
S'file'
p3255
S'/home/iscott/web/web2py/gluon/restricted.py'
p3256
sS'dump'
p3257
(dp3258
S'environment'
p3259
S"{'A': <class 'gluon.html.A'>, 'Auth': <class 'gluon.tools.Auth'>, 'B': <class 'gluon.html.B'>, 'BEAUTIFY': <class 'gluon.html.BEAUTIFY'>, 'BODY': <class 'gluon.html.BODY'>, 'BR': <class 'gluon.html.BR'>, 'BUTTON': <class 'gluon.html.BUTTON'>, 'CAT': <class 'gluon.html.CAT'>, 'CENTER': <class 'gluon.html.CENTER'>, 'CLEANUP': <class 'gluon.validators.CLEANUP'>, ...}"
p3260
sS'ccode'
p3261
S'<code object <module> at 0xa73d920, file "/home/...applications/paideia/models/paideia.py", line 13>'
p3262
ssS'lnum'
p3263
I204
sS'lines'
p3264
(dp3265
I199
S'    try:'
p3266
sI200
S'        if type(code) == types.CodeType:'
p3267
sI201
S'            ccode = code'
p3268
sI202
S'        else:'
p3269
sI203
S'            ccode = compile2(code,layer)'
p3270
sI204
S'        exec ccode in environment'
p3271
sI205
S'    except HTTP:'
p3272
sI206
S'        raise'
p3273
sI207
S'    except RestrictedError:'
p3274
sI208
S'        # do not encapsulate (obfuscate) the original RestrictedError'
p3275
ssS'call'
p3276
S'(code="# coding: utf8\\n\\n#hack for PyDev error checking a...me\', default = dtnow),\\n    format = \'%(title)s\')\\n", environment={\'A\': <class \'gluon.html.A\'>, \'Auth\': <class \'gluon.tools.Auth\'>, \'B\': <class \'gluon.html.B\'>, \'BEAUTIFY\': <class \'gluon.html.BEAUTIFY\'>, \'BODY\': <class \'gluon.html.BODY\'>, \'BR\': <class \'gluon.html.BR\'>, \'BUTTON\': <class \'gluon.html.BUTTON\'>, \'CAT\': <class \'gluon.html.CAT\'>, \'CENTER\': <class \'gluon.html.CENTER\'>, \'CLEANUP\': <class \'gluon.validators.CLEANUP\'>, ...}, layer=\'/home/iscott/web/web2py/applications/paideia/models/paideia.py\')'
p3277
sS'func'
p3278
S'restricted'
p3279
sa(dp3280
g3255
S'/home/iscott/web/web2py/applications/paideia/models/paideia.py'
p3281
sg3257
(dp3282
S'plugin_ajaxselect'
p3283
S'undefined'
p3284
sS'AjaxSelect'
p3285
g3284
ssg3263
I13
sg3264
(dp3286
I8
S'    #auth = Auth()'
p3287
sI9
S'    #db = DAL()'
p3288
sI10
S'    #request = current.request'
p3289
sI11
S'    #from applications.paideia.modules.plugin_ajaxselect import AjaxSelect'
p3290
sI12
S''
sI13
S'from plugin_ajaxselect import AjaxSelect'
p3291
sI14
S'import datetime, os'
p3292
sI15
S''
sI16
S'dtnow = datetime.datetime.utcnow()'
p3293
sI17
S''
ssg3276
S'()'
p3294
sg3278
S'<module>'
p3295
sa(dp3296
g3255
S'/home/iscott/web/web2py/gluon/custom_import.py'
p3297
sg3257
(dp3298
S'fromlist'
p3299
S"('AjaxSelect',)"
p3300
sS'globals'
p3301
S"{'A': <class 'gluon.html.A'>, 'Auth': <class 'gluon.tools.Auth'>, 'B': <class 'gluon.html.B'>, 'BEAUTIFY': <class 'gluon.html.BEAUTIFY'>, 'BODY': <class 'gluon.html.BODY'>, 'BR': <class 'gluon.html.BR'>, 'BUTTON': <class 'gluon.html.BUTTON'>, 'CAT': <class 'gluon.html.CAT'>, 'CENTER': <class 'gluon.html.CENTER'>, 'CLEANUP': <class 'gluon.validators.CLEANUP'>, ...}"
p3302
sS'locals'
p3303
S"{'A': <class 'gluon.html.A'>, 'Auth': <class 'gluon.tools.Auth'>, 'B': <class 'gluon.html.B'>, 'BEAUTIFY': <class 'gluon.html.BEAUTIFY'>, 'BODY': <class 'gluon.html.BODY'>, 'BR': <class 'gluon.html.BR'>, 'BUTTON': <class 'gluon.html.BUTTON'>, 'CAT': <class 'gluon.html.CAT'>, 'CENTER': <class 'gluon.html.CENTER'>, 'CLEANUP': <class 'gluon.validators.CLEANUP'>, ...}"
p3304
sS'level'
p3305
S'-1'
p3306
ssg3263
I289
sg3264
(dp3307
I288
S'                            .__call__(modules_prefix+"."+name,'
p3308
sI289
S'                                    globals, locals, fromlist, level)'
p3309
sI290
S'                except ImportError:'
p3310
sI291
S'                    pass'
p3311
sI292
S'        return super(_Web2pyImporter, self).__call__(name, globals, locals,'
p3312
sI293
S'                                                    fromlist, level)'
p3313
sI284
S'                            globals, locals, fromlist, level)'
p3314
sI285
S'                    else:'
p3315
sI286
S'                        # import like "from x import a, b, ..."'
p3316
sI287
S'                        return super(_Web2pyImporter, self) \\'
p3317
ssg3276
S"(self=<gluon.custom_import._Web2pyDateTrackerImporter object>, name='plugin_ajaxselect', globals={'A': <class 'gluon.html.A'>, 'Auth': <class 'gluon.tools.Auth'>, 'B': <class 'gluon.html.B'>, 'BEAUTIFY': <class 'gluon.html.BEAUTIFY'>, 'BODY': <class 'gluon.html.BODY'>, 'BR': <class 'gluon.html.BR'>, 'BUTTON': <class 'gluon.html.BUTTON'>, 'CAT': <class 'gluon.html.CAT'>, 'CENTER': <class 'gluon.html.CENTER'>, 'CLEANUP': <class 'gluon.validators.CLEANUP'>, ...}, locals={'A': <class 'gluon.html.A'>, 'Auth': <class 'gluon.tools.Auth'>, 'B': <class 'gluon.html.B'>, 'BEAUTIFY': <class 'gluon.html.BEAUTIFY'>, 'BODY': <class 'gluon.html.BODY'>, 'BR': <class 'gluon.html.BR'>, 'BUTTON': <class 'gluon.html.BUTTON'>, 'CAT': <class 'gluon.html.CAT'>, 'CENTER': <class 'gluon.html.CENTER'>, 'CLEANUP': <class 'gluon.validators.CLEANUP'>, ...}, fromlist=('AjaxSelect',), level=-1)"
p3318
sg3278
S'__call__'
p3319
sa(dp3320
g3255
S'/home/iscott/web/web2py/gluon/custom_import.py'
p3321
sg3257
(dp3322
S'e'
S"SyntaxError('invalid syntax', ('applications/pai...162, 7, '    def create_widget(self):       \\n'))"
p3323
ssg3263
I132
sg3264
(dp3324
I128
S'            # Module maybe loaded for the 1st time so we need to set the date'
p3325
sI129
S'            self._update_dates(name, fromlist)'
p3326
sI130
S'            return result'
p3327
sI131
S'        except Exception, e:'
p3328
sI132
S"            raise e  # Don't hide something that went wrong"
p3329
sI133
S'        finally:'
p3330
sI134
S'            if call_begin_end:'
p3331
sI135
S'                self.end()'
p3332
sI136
S''
sI127
S'              .__call__(name, globals, locals, fromlist, level)'
p3333
ssg3276
S"(self=<gluon.custom_import._Web2pyDateTrackerImporter object>, name='applications.paideia.modules.plugin_ajaxselect', globals={'A': <class 'gluon.html.A'>, 'Auth': <class 'gluon.tools.Auth'>, 'B': <class 'gluon.html.B'>, 'BEAUTIFY': <class 'gluon.html.BEAUTIFY'>, 'BODY': <class 'gluon.html.BODY'>, 'BR': <class 'gluon.html.BR'>, 'BUTTON': <class 'gluon.html.BUTTON'>, 'CAT': <class 'gluon.html.CAT'>, 'CENTER': <class 'gluon.html.CENTER'>, 'CLEANUP': <class 'gluon.validators.CLEANUP'>, ...}, locals={'A': <class 'gluon.html.A'>, 'Auth': <class 'gluon.tools.Auth'>, 'B': <class 'gluon.html.B'>, 'BEAUTIFY': <class 'gluon.html.BEAUTIFY'>, 'BODY': <class 'gluon.html.BODY'>, 'BR': <class 'gluon.html.BR'>, 'BUTTON': <class 'gluon.html.BUTTON'>, 'CAT': <class 'gluon.html.CAT'>, 'CENTER': <class 'gluon.html.CENTER'>, 'CLEANUP': <class 'gluon.validators.CLEANUP'>, ...}, fromlist=('AjaxSelect',), level=-1)"
p3334
sg3278
g3319
sasS'pyver'
p3335
S'Python 2.7.2+: /usr/bin/python2.7'
p3336
sS'session'
p3337
g68
(g69
g70
NtRp3338
(dp3339
g73
(dp3340
sg75
(lp3341
g68
(g77
g70
NtRp3342
(dp3343
g73
(dp3344
g81
I5
ssg82
Nsg75
(lp3345
g68
(g84
g70
NtRp3346
(dp3347
g73
(dp3348
sg82
g3342
sg75
(lp3349
g68
(g89
g70
NtRp3350
(dp3351
g73
(dp3352
g93
g94
ssg82
g3346
sg75
(lp3353
S'active_path'
p3354
asbag68
(g89
g70
NtRp3355
(dp3356
g73
(dp3357
g100
g101
ssg82
g3346
sg75
(lp3358
S':'
asbag68
(g89
g70
NtRp3359
(dp3360
g73
(dp3361
sg82
g3346
sg75
(lp3362
g68
(g69
g70
NtRp3363
(dp3364
g73
(dp3365
g81
I5
ssg82
g3359
sg75
(lp3366
S'None'
p3367
asbasbasbag68
(g84
g70
NtRp3368
(dp3369
g73
(dp3370
sg82
g3342
sg75
(lp3371
g68
(g89
g70
NtRp3372
(dp3373
g73
(dp3374
g93
g94
ssg82
g3368
sg75
(lp3375
S'answer'
p3376
asbag68
(g89
g70
NtRp3377
(dp3378
g73
(dp3379
g100
g101
ssg82
g3368
sg75
(lp3380
S':'
asbag68
(g89
g70
NtRp3381
(dp3382
g73
(dp3383
sg82
g3368
sg75
(lp3384
g68
(g69
g70
NtRp3385
(dp3386
g73
(dp3387
g81
I5
ssg82
g3381
sg75
(lp3388
S'^(through )(the |a )(road|street|way)( )*$'
p3389
asbasbasbag68
(g84
g70
NtRp3390
(dp3391
g73
(dp3392
sg82
g3342
sg75
(lp3393
g68
(g89
g70
NtRp3394
(dp3395
g73
(dp3396
g93
g94
ssg82
g3390
sg75
(lp3397
S'answer2'
p3398
asbag68
(g89
g70
NtRp3399
(dp3400
g73
(dp3401
g100
g101
ssg82
g3390
sg75
(lp3402
S':'
asbag68
(g89
g70
NtRp3403
(dp3404
g73
(dp3405
sg82
g3390
sg75
(lp3406
g68
(g69
g70
NtRp3407
(dp3408
g73
(dp3409
g81
I5
ssg82
g3403
sg75
(lp3410
S'null'
p3411
asbasbasbag68
(g84
g70
NtRp3412
(dp3413
g73
(dp3414
sg82
g3342
sg75
(lp3415
g68
(g89
g70
NtRp3416
(dp3417
g73
(dp3418
g93
g94
ssg82
g3412
sg75
(lp3419
S'answer3'
p3420
asbag68
(g89
g70
NtRp3421
(dp3422
g73
(dp3423
g100
g101
ssg82
g3412
sg75
(lp3424
S':'
asbag68
(g89
g70
NtRp3425
(dp3426
g73
(dp3427
sg82
g3412
sg75
(lp3428
g68
(g69
g70
NtRp3429
(dp3430
g73
(dp3431
g81
I5
ssg82
g3425
sg75
(lp3432
S'null'
p3433
asbasbasbag68
(g84
g70
NtRp3434
(dp3435
g73
(dp3436
sg82
g3342
sg75
(lp3437
g68
(g89
g70
NtRp3438
(dp3439
g73
(dp3440
g93
g94
ssg82
g3434
sg75
(lp3441
S'auth'
p3442
asbag68
(g89
g70
NtRp3443
(dp3444
g73
(dp3445
g100
g101
ssg82
g3434
sg75
(lp3446
S':'
asbag68
(g89
g70
NtRp3447
(dp3448
g73
(dp3449
sg82
g3434
sg75
(lp3450
g68
(g69
g70
NtRp3451
(dp3452
g73
(dp3453
g81
I5
ssg82
g3447
sg75
(lp3454
g68
(g77
g70
NtRp3455
(dp3456
g73
(dp3457
g81
I4
ssg82
Nsg75
(lp3458
g68
(g84
g70
NtRp3459
(dp3460
g73
(dp3461
sg82
g3455
sg75
(lp3462
g68
(g89
g70
NtRp3463
(dp3464
g73
(dp3465
g93
g94
ssg82
g3459
sg75
(lp3466
S'expiration'
p3467
asbag68
(g89
g70
NtRp3468
(dp3469
g73
(dp3470
g100
g101
ssg82
g3459
sg75
(lp3471
S':'
asbag68
(g89
g70
NtRp3472
(dp3473
g73
(dp3474
sg82
g3459
sg75
(lp3475
g68
(g69
g70
NtRp3476
(dp3477
g73
(dp3478
g81
I4
ssg82
g3472
sg75
(lp3479
S'2592000'
p3480
asbasbasbag68
(g84
g70
NtRp3481
(dp3482
g73
(dp3483
sg82
g3455
sg75
(lp3484
g68
(g89
g70
NtRp3485
(dp3486
g73
(dp3487
g93
g94
ssg82
g3481
sg75
(lp3488
S'hmac_key'
p3489
asbag68
(g89
g70
NtRp3490
(dp3491
g73
(dp3492
g100
g101
ssg82
g3481
sg75
(lp3493
S':'
asbag68
(g89
g70
NtRp3494
(dp3495
g73
(dp3496
sg82
g3481
sg75
(lp3497
g68
(g69
g70
NtRp3498
(dp3499
g73
(dp3500
g81
I4
ssg82
g3494
sg75
(lp3501
S'4fdb4f29-9b50-47b9-aae1-81ab0fcf4047'
p3502
asbasbasbag68
(g84
g70
NtRp3503
(dp3504
g73
(dp3505
sg82
g3455
sg75
(lp3506
g68
(g89
g70
NtRp3507
(dp3508
g73
(dp3509
g93
g94
ssg82
g3503
sg75
(lp3510
S'last_visit'
p3511
asbag68
(g89
g70
NtRp3512
(dp3513
g73
(dp3514
g100
g101
ssg82
g3503
sg75
(lp3515
S':'
asbag68
(g89
g70
NtRp3516
(dp3517
g73
(dp3518
sg82
g3503
sg75
(lp3519
g68
(g69
g70
NtRp3520
(dp3521
g73
(dp3522
g81
I4
ssg82
g3516
sg75
(lp3523
S'datetime.datetime(2012, 2, 14, 14, 39, 31, 426995)'
p3524
asbasbasbag68
(g84
g70
NtRp3525
(dp3526
g73
(dp3527
sg82
g3455
sg75
(lp3528
g68
(g89
g70
NtRp3529
(dp3530
g73
(dp3531
g93
g94
ssg82
g3525
sg75
(lp3532
S'remember'
p3533
asbag68
(g89
g70
NtRp3534
(dp3535
g73
(dp3536
g100
g101
ssg82
g3525
sg75
(lp3537
S':'
asbag68
(g89
g70
NtRp3538
(dp3539
g73
(dp3540
sg82
g3525
sg75
(lp3541
g68
(g69
g70
NtRp3542
(dp3543
g73
(dp3544
g81
I4
ssg82
g3538
sg75
(lp3545
g1887
asbasbasbag68
(g84
g70
NtRp3546
(dp3547
g73
(dp3548
sg82
g3455
sg75
(lp3549
g68
(g89
g70
NtRp3550
(dp3551
g73
(dp3552
g93
g94
ssg82
g3546
sg75
(lp3553
S'user'
p3554
asbag68
(g89
g70
NtRp3555
(dp3556
g73
(dp3557
g100
g101
ssg82
g3546
sg75
(lp3558
S':'
asbag68
(g89
g70
NtRp3559
(dp3560
g73
(dp3561
sg82
g3546
sg75
(lp3562
g68
(g69
g70
NtRp3563
(dp3564
g73
(dp3565
g81
I4
ssg82
g3559
sg75
(lp3566
g68
(g77
g70
NtRp3567
(dp3568
g73
(dp3569
g81
I3
ssg82
Nsg75
(lp3570
g68
(g84
g70
NtRp3571
(dp3572
g73
(dp3573
sg82
g3567
sg75
(lp3574
g68
(g89
g70
NtRp3575
(dp3576
g73
(dp3577
g93
g94
ssg82
g3571
sg75
(lp3578
S'email'
p3579
asbag68
(g89
g70
NtRp3580
(dp3581
g73
(dp3582
g100
g101
ssg82
g3571
sg75
(lp3583
S':'
asbag68
(g89
g70
NtRp3584
(dp3585
g73
(dp3586
sg82
g3571
sg75
(lp3587
g68
(g69
g70
NtRp3588
(dp3589
g73
(dp3590
g81
I3
ssg82
g3584
sg75
(lp3591
S'scottianw@gmail.com'
p3592
asbasbasbag68
(g84
g70
NtRp3593
(dp3594
g73
(dp3595
sg82
g3567
sg75
(lp3596
g68
(g89
g70
NtRp3597
(dp3598
g73
(dp3599
g93
g94
ssg82
g3593
sg75
(lp3600
S'first_name'
p3601
asbag68
(g89
g70
NtRp3602
(dp3603
g73
(dp3604
g100
g101
ssg82
g3593
sg75
(lp3605
S':'
asbag68
(g89
g70
NtRp3606
(dp3607
g73
(dp3608
sg82
g3593
sg75
(lp3609
g68
(g69
g70
NtRp3610
(dp3611
g73
(dp3612
g81
I3
ssg82
g3606
sg75
(lp3613
S'Ian'
p3614
asbasbasbag68
(g84
g70
NtRp3615
(dp3616
g73
(dp3617
sg82
g3567
sg75
(lp3618
g68
(g89
g70
NtRp3619
(dp3620
g73
(dp3621
g93
g94
ssg82
g3615
sg75
(lp3622
S'id'
p3623
asbag68
(g89
g70
NtRp3624
(dp3625
g73
(dp3626
g100
g101
ssg82
g3615
sg75
(lp3627
S':'
asbag68
(g89
g70
NtRp3628
(dp3629
g73
(dp3630
sg82
g3615
sg75
(lp3631
g68
(g69
g70
NtRp3632
(dp3633
g73
(dp3634
g81
I3
ssg82
g3628
sg75
(lp3635
S'2'
asbasbasbag68
(g84
g70
NtRp3636
(dp3637
g73
(dp3638
sg82
g3567
sg75
(lp3639
g68
(g89
g70
NtRp3640
(dp3641
g73
(dp3642
g93
g94
ssg82
g3636
sg75
(lp3643
S'last_name'
p3644
asbag68
(g89
g70
NtRp3645
(dp3646
g73
(dp3647
g100
g101
ssg82
g3636
sg75
(lp3648
S':'
asbag68
(g89
g70
NtRp3649
(dp3650
g73
(dp3651
sg82
g3636
sg75
(lp3652
g68
(g69
g70
NtRp3653
(dp3654
g73
(dp3655
g81
I3
ssg82
g3649
sg75
(lp3656
S'Scott'
p3657
asbasbasbag68
(g84
g70
NtRp3658
(dp3659
g73
(dp3660
sg82
g3567
sg75
(lp3661
g68
(g89
g70
NtRp3662
(dp3663
g73
(dp3664
g93
g94
ssg82
g3658
sg75
(lp3665
S'password'
p3666
asbag68
(g89
g70
NtRp3667
(dp3668
g73
(dp3669
g100
g101
ssg82
g3658
sg75
(lp3670
S':'
asbag68
(g89
g70
NtRp3671
(dp3672
g73
(dp3673
sg82
g3658
sg75
(lp3674
g68
(g69
g70
NtRp3675
(dp3676
g73
(dp3677
g81
I3
ssg82
g3671
sg75
(lp3678
S'19738f1e9a2c8eaac81936a86bf608a1a6995e02f527fa31723cb88a2e513a1efae33471354a02805bf25ea2ea17a59c025a5fc8eca6b3bb2137bda74e538737'
p3679
asbasbasbag68
(g84
g70
NtRp3680
(dp3681
g73
(dp3682
sg82
g3567
sg75
(lp3683
g68
(g89
g70
NtRp3684
(dp3685
g73
(dp3686
g93
g94
ssg82
g3680
sg75
(lp3687
S'registration_id'
p3688
asbag68
(g89
g70
NtRp3689
(dp3690
g73
(dp3691
g100
g101
ssg82
g3680
sg75
(lp3692
S':'
asbag68
(g89
g70
NtRp3693
(dp3694
g73
(dp3695
sg82
g3680
sg75
(lp3696
g68
(g69
g70
NtRp3697
(dp3698
g73
(dp3699
g81
I3
ssg82
g3693
sg75
(lp3700
S'None'
p3701
asbasbasbag68
(g84
g70
NtRp3702
(dp3703
g73
(dp3704
sg82
g3567
sg75
(lp3705
g68
(g89
g70
NtRp3706
(dp3707
g73
(dp3708
g93
g94
ssg82
g3702
sg75
(lp3709
S'registration_key'
p3710
asbag68
(g89
g70
NtRp3711
(dp3712
g73
(dp3713
g100
g101
ssg82
g3702
sg75
(lp3714
S':'
asbag68
(g89
g70
NtRp3715
(dp3716
g73
(dp3717
sg82
g3702
sg75
(lp3718
g68
(g69
g70
NtRp3719
(dp3720
g73
(dp3721
g81
I3
ssg82
g3715
sg75
(lp3722
S''
asbasbasbag68
(g84
g70
NtRp3723
(dp3724
g73
(dp3725
sg82
g3567
sg75
(lp3726
g68
(g89
g70
NtRp3727
(dp3728
g73
(dp3729
g93
g94
ssg82
g3723
sg75
(lp3730
S'reset_password_key'
p3731
asbag68
(g89
g70
NtRp3732
(dp3733
g73
(dp3734
g100
g101
ssg82
g3723
sg75
(lp3735
S':'
asbag68
(g89
g70
NtRp3736
(dp3737
g73
(dp3738
sg82
g3723
sg75
(lp3739
g68
(g69
g70
NtRp3740
(dp3741
g73
(dp3742
g81
I3
ssg82
g3736
sg75
(lp3743
S'1327083713-2cc5b0bb-81c6-473e-adeb-2160a9624c63'
p3744
asbasbasbasbasbasbasbasbasbasbasbag68
(g84
g70
NtRp3745
(dp3746
g73
(dp3747
sg82
g3342
sg75
(lp3748
g68
(g89
g70
NtRp3749
(dp3750
g73
(dp3751
g93
g94
ssg82
g3745
sg75
(lp3752
S'blocks'
p3753
asbag68
(g89
g70
NtRp3754
(dp3755
g73
(dp3756
g100
g101
ssg82
g3745
sg75
(lp3757
S':'
asbag68
(g89
g70
NtRp3758
(dp3759
g73
(dp3760
sg82
g3745
sg75
(lp3761
g68
(g69
g70
NtRp3762
(dp3763
g73
(dp3764
g81
I5
ssg82
g3758
sg75
(lp3765
S'None'
p3766
asbasbasbag68
(g84
g70
NtRp3767
(dp3768
g73
(dp3769
sg82
g3342
sg75
(lp3770
g68
(g89
g70
NtRp3771
(dp3772
g73
(dp3773
g93
g94
ssg82
g3767
sg75
(lp3774
S'completed_paths'
p3775
asbag68
(g89
g70
NtRp3776
(dp3777
g73
(dp3778
g100
g101
ssg82
g3767
sg75
(lp3779
S':'
asbag68
(g89
g70
NtRp3780
(dp3781
g73
(dp3782
sg82
g3767
sg75
(lp3783
g68
(g69
g70
NtRp3784
(dp3785
g73
(dp3786
g81
I5
ssg82
g3780
sg75
(lp3787
S'None'
p3788
asbasbasbag68
(g84
g70
NtRp3789
(dp3790
g73
(dp3791
sg82
g3342
sg75
(lp3792
g68
(g89
g70
NtRp3793
(dp3794
g73
(dp3795
g93
g94
ssg82
g3789
sg75
(lp3796
S'debug'
p3797
asbag68
(g89
g70
NtRp3798
(dp3799
g73
(dp3800
g100
g101
ssg82
g3789
sg75
(lp3801
S':'
asbag68
(g89
g70
NtRp3802
(dp3803
g73
(dp3804
sg82
g3789
sg75
(lp3805
g68
(g69
g70
NtRp3806
(dp3807
g73
(dp3808
g81
I5
ssg82
g3802
sg75
(lp3809
g68
(g77
g70
NtRp3810
(dp3811
g73
(dp3812
g81
I4
ssg82
Nsg75
(lp3813
sbasbasbasbag68
(g84
g70
NtRp3814
(dp3815
g73
(dp3816
sg82
g3342
sg75
(lp3817
g68
(g89
g70
NtRp3818
(dp3819
g73
(dp3820
g93
g94
ssg82
g3814
sg75
(lp3821
S'eval'
p3822
asbag68
(g89
g70
NtRp3823
(dp3824
g73
(dp3825
g100
g101
ssg82
g3814
sg75
(lp3826
S':'
asbag68
(g89
g70
NtRp3827
(dp3828
g73
(dp3829
sg82
g3814
sg75
(lp3830
g68
(g69
g70
NtRp3831
(dp3832
g73
(dp3833
g81
I5
ssg82
g3827
sg75
(lp3834
S'correct'
p3835
asbasbasbag68
(g84
g70
NtRp3836
(dp3837
g73
(dp3838
sg82
g3342
sg75
(lp3839
g68
(g89
g70
NtRp3840
(dp3841
g73
(dp3842
g93
g94
ssg82
g3836
sg75
(lp3843
S'last_query'
p3844
asbag68
(g89
g70
NtRp3845
(dp3846
g73
(dp3847
g100
g101
ssg82
g3836
sg75
(lp3848
S':'
asbag68
(g89
g70
NtRp3849
(dp3850
g73
(dp3851
sg82
g3836
sg75
(lp3852
g68
(g69
g70
NtRp3853
(dp3854
g73
(dp3855
g81
I5
ssg82
g3849
sg75
(lp3856
S'db.npcs.id>0'
p3857
asbasbasbag68
(g84
g70
NtRp3858
(dp3859
g73
(dp3860
sg82
g3342
sg75
(lp3861
g68
(g89
g70
NtRp3862
(dp3863
g73
(dp3864
g93
g94
ssg82
g3858
sg75
(lp3865
S'path_freq'
p3866
asbag68
(g89
g70
NtRp3867
(dp3868
g73
(dp3869
g100
g101
ssg82
g3858
sg75
(lp3870
S':'
asbag68
(g89
g70
NtRp3871
(dp3872
g73
(dp3873
sg82
g3858
sg75
(lp3874
g68
(g69
g70
NtRp3875
(dp3876
g73
(dp3877
g81
I5
ssg82
g3871
sg75
(lp3878
S'70'
p3879
asbasbasbag68
(g84
g70
NtRp3880
(dp3881
g73
(dp3882
sg82
g3342
sg75
(lp3883
g68
(g89
g70
NtRp3884
(dp3885
g73
(dp3886
g93
g94
ssg82
g3880
sg75
(lp3887
S'path_id'
p3888
asbag68
(g89
g70
NtRp3889
(dp3890
g73
(dp3891
g100
g101
ssg82
g3880
sg75
(lp3892
S':'
asbag68
(g89
g70
NtRp3893
(dp3894
g73
(dp3895
sg82
g3880
sg75
(lp3896
g68
(g69
g70
NtRp3897
(dp3898
g73
(dp3899
g81
I5
ssg82
g3893
sg75
(lp3900
S'1'
asbasbasbag68
(g84
g70
NtRp3901
(dp3902
g73
(dp3903
sg82
g3342
sg75
(lp3904
g68
(g89
g70
NtRp3905
(dp3906
g73
(dp3907
g93
g94
ssg82
g3901
sg75
(lp3908
S'path_length'
p3909
asbag68
(g89
g70
NtRp3910
(dp3911
g73
(dp3912
g100
g101
ssg82
g3901
sg75
(lp3913
S':'
asbag68
(g89
g70
NtRp3914
(dp3915
g73
(dp3916
sg82
g3901
sg75
(lp3917
g68
(g69
g70
NtRp3918
(dp3919
g73
(dp3920
g81
I5
ssg82
g3914
sg75
(lp3921
S'20'
p3922
asbasbasbag68
(g84
g70
NtRp3923
(dp3924
g73
(dp3925
sg82
g3342
sg75
(lp3926
g68
(g89
g70
NtRp3927
(dp3928
g73
(dp3929
g93
g94
ssg82
g3923
sg75
(lp3930
S'path_name'
p3931
asbag68
(g89
g70
NtRp3932
(dp3933
g73
(dp3934
g100
g101
ssg82
g3923
sg75
(lp3935
S':'
asbag68
(g89
g70
NtRp3936
(dp3937
g73
(dp3938
sg82
g3923
sg75
(lp3939
g68
(g69
g70
NtRp3940
(dp3941
g73
(dp3942
g81
I5
ssg82
g3936
sg75
(lp3943
S'Tyndale - Greek Exegesis I - Week 1'
p3944
asbasbasbag68
(g84
g70
NtRp3945
(dp3946
g73
(dp3947
sg82
g3342
sg75
(lp3948
g68
(g89
g70
NtRp3949
(dp3950
g73
(dp3951
g93
g94
ssg82
g3945
sg75
(lp3952
S'path_tags'
p3953
asbag68
(g89
g70
NtRp3954
(dp3955
g73
(dp3956
g100
g101
ssg82
g3945
sg75
(lp3957
S':'
asbag68
(g89
g70
NtRp3958
(dp3959
g73
(dp3960
sg82
g3945
sg75
(lp3961
g68
(g69
g70
NtRp3962
(dp3963
g73
(dp3964
g81
I5
ssg82
g3958
sg75
(lp3965
g68
(g77
g70
NtRp3966
(dp3967
g73
(dp3968
g81
I4
ssg82
Nsg75
(lp3969
g68
(g84
g70
NtRp3970
(dp3971
g73
(dp3972
sg82
g3966
sg75
(lp3973
g68
(g89
g70
NtRp3974
(dp3975
g73
(dp3976
sg82
g3970
sg75
(lp3977
g68
(g69
g70
NtRp3978
(dp3979
g73
(dp3980
g81
I4
ssg82
g3974
sg75
(lp3981
S'6'
asbasbasbag68
(g84
g70
NtRp3982
(dp3983
g73
(dp3984
sg82
g3966
sg75
(lp3985
g68
(g89
g70
NtRp3986
(dp3987
g73
(dp3988
sg82
g3982
sg75
(lp3989
g68
(g69
g70
NtRp3990
(dp3991
g73
(dp3992
g81
I4
ssg82
g3986
sg75
(lp3993
S'1'
asbasbasbag68
(g84
g70
NtRp3994
(dp3995
g73
(dp3996
sg82
g3966
sg75
(lp3997
g68
(g89
g70
NtRp3998
(dp3999
g73
(dp4000
sg82
g3994
sg75
(lp4001
g68
(g69
g70
NtRp4002
(dp4003
g73
(dp4004
g81
I4
ssg82
g3998
sg75
(lp4005
S'7'
asbasbasbag68
(g84
g70
NtRp4006
(dp4007
g73
(dp4008
sg82
g3966
sg75
(lp4009
g68
(g89
g70
NtRp4010
(dp4011
g73
(dp4012
sg82
g4006
sg75
(lp4013
g68
(g69
g70
NtRp4014
(dp4015
g73
(dp4016
g81
I4
ssg82
g4010
sg75
(lp4017
S'8'
asbasbasbag68
(g84
g70
NtRp4018
(dp4019
g73
(dp4020
sg82
g3966
sg75
(lp4021
g68
(g89
g70
NtRp4022
(dp4023
g73
(dp4024
sg82
g4018
sg75
(lp4025
g68
(g69
g70
NtRp4026
(dp4027
g73
(dp4028
g81
I4
ssg82
g4022
sg75
(lp4029
S'9'
asbasbasbasbasbasbasbag68
(g84
g70
NtRp4030
(dp4031
g73
(dp4032
sg82
g3342
sg75
(lp4033
g68
(g89
g70
NtRp4034
(dp4035
g73
(dp4036
g93
g94
ssg82
g4030
sg75
(lp4037
S'qID'
p4038
asbag68
(g89
g70
NtRp4039
(dp4040
g73
(dp4041
g100
g101
ssg82
g4030
sg75
(lp4042
S':'
asbag68
(g89
g70
NtRp4043
(dp4044
g73
(dp4045
sg82
g4030
sg75
(lp4046
g68
(g69
g70
NtRp4047
(dp4048
g73
(dp4049
g81
I5
ssg82
g4043
sg75
(lp4050
S'32'
p4051
asbasbasbag68
(g84
g70
NtRp4052
(dp4053
g73
(dp4054
sg82
g3342
sg75
(lp4055
g68
(g89
g70
NtRp4056
(dp4057
g73
(dp4058
g93
g94
ssg82
g4052
sg75
(lp4059
S'q_counter'
p4060
asbag68
(g89
g70
NtRp4061
(dp4062
g73
(dp4063
g100
g101
ssg82
g4052
sg75
(lp4064
S':'
asbag68
(g89
g70
NtRp4065
(dp4066
g73
(dp4067
sg82
g4052
sg75
(lp4068
g68
(g69
g70
NtRp4069
(dp4070
g73
(dp4071
g81
I5
ssg82
g4065
sg75
(lp4072
S'17'
p4073
asbasbasbag68
(g84
g70
NtRp4074
(dp4075
g73
(dp4076
sg82
g3342
sg75
(lp4077
g68
(g89
g70
NtRp4078
(dp4079
g73
(dp4080
g93
g94
ssg82
g4074
sg75
(lp4081
S'question_text'
p4082
asbag68
(g89
g70
NtRp4083
(dp4084
g73
(dp4085
g100
g101
ssg82
g4074
sg75
(lp4086
S':'
asbag68
(g89
g70
NtRp4087
(dp4088
g73
(dp4089
sg82
g4074
sg75
(lp4090
g68
(g69
g70
NtRp4091
(dp4092
g73
(dp4093
g81
I5
ssg82
g4087
sg75
(lp4094
S'What does \xce\xb4\xce\xb9\xe1\xbd\xb0 \xcf\x84\xe1\xbd\xb4\xcf\x82 \xe1\xbd\x85\xce\xb4\xce\xbf\xcf\x85 mean?'
p4095
asbasbasbag68
(g84
g70
NtRp4096
(dp4097
g73
(dp4098
sg82
g3342
sg75
(lp4099
g68
(g89
g70
NtRp4100
(dp4101
g73
(dp4102
g93
g94
ssg82
g4096
sg75
(lp4103
S'quiz_type'
p4104
asbag68
(g89
g70
NtRp4105
(dp4106
g73
(dp4107
g100
g101
ssg82
g4096
sg75
(lp4108
S':'
asbag68
(g89
g70
NtRp4109
(dp4110
g73
(dp4111
sg82
g4096
sg75
(lp4112
g68
(g69
g70
NtRp4113
(dp4114
g73
(dp4115
g81
I5
ssg82
g4109
sg75
(lp4116
S'random'
p4117
asbasbasbag68
(g84
g70
NtRp4118
(dp4119
g73
(dp4120
sg82
g3342
sg75
(lp4121
g68
(g89
g70
NtRp4122
(dp4123
g73
(dp4124
g93
g94
ssg82
g4118
sg75
(lp4125
S'readable_answer'
p4126
asbag68
(g89
g70
NtRp4127
(dp4128
g73
(dp4129
g100
g101
ssg82
g4118
sg75
(lp4130
S':'
asbag68
(g89
g70
NtRp4131
(dp4132
g73
(dp4133
sg82
g4118
sg75
(lp4134
g68
(g69
g70
NtRp4135
(dp4136
g73
(dp4137
g81
I5
ssg82
g4131
sg75
(lp4138
S'through the road; through the street'
p4139
asbasbasbag68
(g84
g70
NtRp4140
(dp4141
g73
(dp4142
sg82
g3342
sg75
(lp4143
g68
(g89
g70
NtRp4144
(dp4145
g73
(dp4146
g93
g94
ssg82
g4140
sg75
(lp4147
S'response'
p4148
asbag68
(g89
g70
NtRp4149
(dp4150
g73
(dp4151
g100
g101
ssg82
g4140
sg75
(lp4152
S':'
asbag68
(g89
g70
NtRp4153
(dp4154
g73
(dp4155
sg82
g4140
sg75
(lp4156
g68
(g69
g70
NtRp4157
(dp4158
g73
(dp4159
g81
I5
ssg82
g4153
sg75
(lp4160
S'through the road'
p4161
asbasbasbasbasbsS'etype'
p4162
S"<type 'exceptions.SyntaxError'>"
p4163
sS'date'
p4164
S'Thu Mar  1 12:16:01 2012'
p4165
sS'response'
p4166
g68
(g69
g70
NtRp4167
(dp4168
g73
(dp4169
sg75
(lp4170
g68
(g77
g70
NtRp4171
(dp4172
g73
(dp4173
g81
I5
ssg82
Nsg75
(lp4174
g68
(g84
g70
NtRp4175
(dp4176
g73
(dp4177
sg82
g4171
sg75
(lp4178
g68
(g89
g70
NtRp4179
(dp4180
g73
(dp4181
g93
g94
ssg82
g4175
sg75
(lp4182
g179
asbag68
(g89
g70
NtRp4183
(dp4184
g73
(dp4185
g100
g101
ssg82
g4175
sg75
(lp4186
S':'
asbag68
(g89
g70
NtRp4187
(dp4188
g73
(dp4189
sg82
g4175
sg75
(lp4190
g68
(g69
g70
NtRp4191
(dp4192
g73
(dp4193
g81
I5
ssg82
g4187
sg75
(lp4194
S'<cStringIO.StringO object at 0xa56a3a0>'
p4195
asbasbasbag68
(g84
g70
NtRp4196
(dp4197
g73
(dp4198
sg82
g4171
sg75
(lp4199
g68
(g89
g70
NtRp4200
(dp4201
g73
(dp4202
g93
g94
ssg82
g4196
sg75
(lp4203
g245
asbag68
(g89
g70
NtRp4204
(dp4205
g73
(dp4206
g100
g101
ssg82
g4196
sg75
(lp4207
S':'
asbag68
(g89
g70
NtRp4208
(dp4209
g73
(dp4210
sg82
g4196
sg75
(lp4211
g68
(g69
g70
NtRp4212
(dp4213
g73
(dp4214
g81
I5
ssg82
g4208
sg75
(lp4215
g68
(g77
g70
NtRp4216
(dp4217
g73
(dp4218
g81
I4
ssg82
Nsg75
(lp4219
g68
(g84
g70
NtRp4220
(dp4221
g73
(dp4222
sg82
g4216
sg75
(lp4223
g68
(g89
g70
NtRp4224
(dp4225
g73
(dp4226
g93
g94
ssg82
g4220
sg75
(lp4227
S'session_id_paideia'
p4228
asbag68
(g89
g70
NtRp4229
(dp4230
g73
(dp4231
g100
g101
ssg82
g4220
sg75
(lp4232
S':'
asbag68
(g89
g70
NtRp4233
(dp4234
g73
(dp4235
sg82
g4220
sg75
(lp4236
g68
(g69
g70
NtRp4237
(dp4238
g73
(dp4239
g81
I4
ssg82
g4233
sg75
(lp4240
g68
(g77
g70
NtRp4241
(dp4242
g73
(dp4243
g81
I3
ssg82
Nsg75
(lp4244
g68
(g84
g70
NtRp4245
(dp4246
g73
(dp4247
sg82
g4241
sg75
(lp4248
g68
(g89
g70
NtRp4249
(dp4250
g73
(dp4251
g93
g94
ssg82
g4245
sg75
(lp4252
g295
asbag68
(g89
g70
NtRp4253
(dp4254
g73
(dp4255
g100
g101
ssg82
g4245
sg75
(lp4256
S':'
asbag68
(g89
g70
NtRp4257
(dp4258
g73
(dp4259
sg82
g4245
sg75
(lp4260
g68
(g69
g70
NtRp4261
(dp4262
g73
(dp4263
g81
I3
ssg82
g4257
sg75
(lp4264
S''
asbasbasbag68
(g84
g70
NtRp4265
(dp4266
g73
(dp4267
sg82
g4241
sg75
(lp4268
g68
(g89
g70
NtRp4269
(dp4270
g73
(dp4271
g93
g94
ssg82
g4265
sg75
(lp4272
g316
asbag68
(g89
g70
NtRp4273
(dp4274
g73
(dp4275
g100
g101
ssg82
g4265
sg75
(lp4276
S':'
asbag68
(g89
g70
NtRp4277
(dp4278
g73
(dp4279
sg82
g4265
sg75
(lp4280
g68
(g69
g70
NtRp4281
(dp4282
g73
(dp4283
g81
I3
ssg82
g4277
sg75
(lp4284
S''
asbasbasbag68
(g84
g70
NtRp4285
(dp4286
g73
(dp4287
sg82
g4241
sg75
(lp4288
g68
(g89
g70
NtRp4289
(dp4290
g73
(dp4291
g93
g94
ssg82
g4285
sg75
(lp4292
g337
asbag68
(g89
g70
NtRp4293
(dp4294
g73
(dp4295
g100
g101
ssg82
g4285
sg75
(lp4296
S':'
asbag68
(g89
g70
NtRp4297
(dp4298
g73
(dp4299
sg82
g4285
sg75
(lp4300
g68
(g69
g70
NtRp4301
(dp4302
g73
(dp4303
g81
I3
ssg82
g4297
sg75
(lp4304
S'2592000'
p4305
asbasbasbag68
(g84
g70
NtRp4306
(dp4307
g73
(dp4308
sg82
g4241
sg75
(lp4309
g68
(g89
g70
NtRp4310
(dp4311
g73
(dp4312
g93
g94
ssg82
g4306
sg75
(lp4313
g358
asbag68
(g89
g70
NtRp4314
(dp4315
g73
(dp4316
g100
g101
ssg82
g4306
sg75
(lp4317
S':'
asbag68
(g89
g70
NtRp4318
(dp4319
g73
(dp4320
sg82
g4306
sg75
(lp4321
g68
(g69
g70
NtRp4322
(dp4323
g73
(dp4324
g81
I3
ssg82
g4318
sg75
(lp4325
S''
asbasbasbag68
(g84
g70
NtRp4326
(dp4327
g73
(dp4328
sg82
g4241
sg75
(lp4329
g68
(g89
g70
NtRp4330
(dp4331
g73
(dp4332
g93
g94
ssg82
g4326
sg75
(lp4333
g379
asbag68
(g89
g70
NtRp4334
(dp4335
g73
(dp4336
g100
g101
ssg82
g4326
sg75
(lp4337
S':'
asbag68
(g89
g70
NtRp4338
(dp4339
g73
(dp4340
sg82
g4326
sg75
(lp4341
g68
(g69
g70
NtRp4342
(dp4343
g73
(dp4344
g81
I3
ssg82
g4338
sg75
(lp4345
S''
asbasbasbag68
(g84
g70
NtRp4346
(dp4347
g73
(dp4348
sg82
g4241
sg75
(lp4349
g68
(g89
g70
NtRp4350
(dp4351
g73
(dp4352
g93
g94
ssg82
g4346
sg75
(lp4353
g400
asbag68
(g89
g70
NtRp4354
(dp4355
g73
(dp4356
g100
g101
ssg82
g4346
sg75
(lp4357
S':'
asbag68
(g89
g70
NtRp4358
(dp4359
g73
(dp4360
sg82
g4346
sg75
(lp4361
g68
(g69
g70
NtRp4362
(dp4363
g73
(dp4364
g81
I3
ssg82
g4358
sg75
(lp4365
S'/'
asbasbasbag68
(g84
g70
NtRp4366
(dp4367
g73
(dp4368
sg82
g4241
sg75
(lp4369
g68
(g89
g70
NtRp4370
(dp4371
g73
(dp4372
g93
g94
ssg82
g4366
sg75
(lp4373
g421
asbag68
(g89
g70
NtRp4374
(dp4375
g73
(dp4376
g100
g101
ssg82
g4366
sg75
(lp4377
S':'
asbag68
(g89
g70
NtRp4378
(dp4379
g73
(dp4380
sg82
g4366
sg75
(lp4381
g68
(g69
g70
NtRp4382
(dp4383
g73
(dp4384
g81
I3
ssg82
g4378
sg75
(lp4385
S''
asbasbasbag68
(g84
g70
NtRp4386
(dp4387
g73
(dp4388
sg82
g4241
sg75
(lp4389
g68
(g89
g70
NtRp4390
(dp4391
g73
(dp4392
g93
g94
ssg82
g4386
sg75
(lp4393
g442
asbag68
(g89
g70
NtRp4394
(dp4395
g73
(dp4396
g100
g101
ssg82
g4386
sg75
(lp4397
S':'
asbag68
(g89
g70
NtRp4398
(dp4399
g73
(dp4400
sg82
g4386
sg75
(lp4401
g68
(g69
g70
NtRp4402
(dp4403
g73
(dp4404
g81
I3
ssg82
g4398
sg75
(lp4405
S''
asbasbasbasbasbasbasbasbasbasbasbag68
(g84
g70
NtRp4406
(dp4407
g73
(dp4408
sg82
g4171
sg75
(lp4409
g68
(g89
g70
NtRp4410
(dp4411
g73
(dp4412
g93
g94
ssg82
g4406
sg75
(lp4413
S'files'
p4414
asbag68
(g89
g70
NtRp4415
(dp4416
g73
(dp4417
g100
g101
ssg82
g4406
sg75
(lp4418
S':'
asbag68
(g89
g70
NtRp4419
(dp4420
g73
(dp4421
sg82
g4406
sg75
(lp4422
g68
(g69
g70
NtRp4423
(dp4424
g73
(dp4425
g81
I5
ssg82
g4419
sg75
(lp4426
g68
(g77
g70
NtRp4427
(dp4428
g73
(dp4429
g81
I4
ssg82
Nsg75
(lp4430
sbasbasbasbag68
(g84
g70
NtRp4431
(dp4432
g73
(dp4433
sg82
g4171
sg75
(lp4434
g68
(g89
g70
NtRp4435
(dp4436
g73
(dp4437
g93
g94
ssg82
g4431
sg75
(lp4438
S'flash'
p4439
asbag68
(g89
g70
NtRp4440
(dp4441
g73
(dp4442
g100
g101
ssg82
g4431
sg75
(lp4443
S':'
asbag68
(g89
g70
NtRp4444
(dp4445
g73
(dp4446
sg82
g4431
sg75
(lp4447
g68
(g69
g70
NtRp4448
(dp4449
g73
(dp4450
g81
I5
ssg82
g4444
sg75
(lp4451
S''
asbasbasbag68
(g84
g70
NtRp4452
(dp4453
g73
(dp4454
sg82
g4171
sg75
(lp4455
g68
(g89
g70
NtRp4456
(dp4457
g73
(dp4458
g93
g94
ssg82
g4452
sg75
(lp4459
S'generic_patterns'
p4460
asbag68
(g89
g70
NtRp4461
(dp4462
g73
(dp4463
g100
g101
ssg82
g4452
sg75
(lp4464
S':'
asbag68
(g89
g70
NtRp4465
(dp4466
g73
(dp4467
sg82
g4452
sg75
(lp4468
g68
(g69
g70
NtRp4469
(dp4470
g73
(dp4471
g81
I5
ssg82
g4465
sg75
(lp4472
g68
(g77
g70
NtRp4473
(dp4474
g73
(dp4475
g81
I4
ssg82
Nsg75
(lp4476
g68
(g84
g70
NtRp4477
(dp4478
g73
(dp4479
sg82
g4473
sg75
(lp4480
g68
(g89
g70
NtRp4481
(dp4482
g73
(dp4483
sg82
g4477
sg75
(lp4484
g68
(g69
g70
NtRp4485
(dp4486
g73
(dp4487
g81
I4
ssg82
g4481
sg75
(lp4488
S'*'
asbasbasbasbasbasbasbag68
(g84
g70
NtRp4489
(dp4490
g73
(dp4491
sg82
g4171
sg75
(lp4492
g68
(g89
g70
NtRp4493
(dp4494
g73
(dp4495
g93
g94
ssg82
g4489
sg75
(lp4496
S'headers'
p4497
asbag68
(g89
g70
NtRp4498
(dp4499
g73
(dp4500
g100
g101
ssg82
g4489
sg75
(lp4501
S':'
asbag68
(g89
g70
NtRp4502
(dp4503
g73
(dp4504
sg82
g4489
sg75
(lp4505
g68
(g69
g70
NtRp4506
(dp4507
g73
(dp4508
g81
I5
ssg82
g4502
sg75
(lp4509
g68
(g77
g70
NtRp4510
(dp4511
g73
(dp4512
g81
I4
ssg82
Nsg75
(lp4513
g68
(g84
g70
NtRp4514
(dp4515
g73
(dp4516
sg82
g4510
sg75
(lp4517
g68
(g89
g70
NtRp4518
(dp4519
g73
(dp4520
g93
g94
ssg82
g4514
sg75
(lp4521
S'Cache-Control'
p4522
asbag68
(g89
g70
NtRp4523
(dp4524
g73
(dp4525
g100
g101
ssg82
g4514
sg75
(lp4526
S':'
asbag68
(g89
g70
NtRp4527
(dp4528
g73
(dp4529
sg82
g4514
sg75
(lp4530
g68
(g69
g70
NtRp4531
(dp4532
g73
(dp4533
g81
I4
ssg82
g4527
sg75
(lp4534
S'no-store, no-cache, must-revalidate, post-check=0, pre-check=0'
p4535
asbasbasbag68
(g84
g70
NtRp4536
(dp4537
g73
(dp4538
sg82
g4510
sg75
(lp4539
g68
(g89
g70
NtRp4540
(dp4541
g73
(dp4542
g93
g94
ssg82
g4536
sg75
(lp4543
S'Content-Type'
p4544
asbag68
(g89
g70
NtRp4545
(dp4546
g73
(dp4547
g100
g101
ssg82
g4536
sg75
(lp4548
S':'
asbag68
(g89
g70
NtRp4549
(dp4550
g73
(dp4551
sg82
g4536
sg75
(lp4552
g68
(g69
g70
NtRp4553
(dp4554
g73
(dp4555
g81
I4
ssg82
g4549
sg75
(lp4556
S'text/html; charset=utf-8'
p4557
asbasbasbag68
(g84
g70
NtRp4558
(dp4559
g73
(dp4560
sg82
g4510
sg75
(lp4561
g68
(g89
g70
NtRp4562
(dp4563
g73
(dp4564
g93
g94
ssg82
g4558
sg75
(lp4565
S'Expires'
p4566
asbag68
(g89
g70
NtRp4567
(dp4568
g73
(dp4569
g100
g101
ssg82
g4558
sg75
(lp4570
S':'
asbag68
(g89
g70
NtRp4571
(dp4572
g73
(dp4573
sg82
g4558
sg75
(lp4574
g68
(g69
g70
NtRp4575
(dp4576
g73
(dp4577
g81
I4
ssg82
g4571
sg75
(lp4578
S'Thu, 01 Mar 2012 17:16:01 GMT'
p4579
asbasbasbag68
(g84
g70
NtRp4580
(dp4581
g73
(dp4582
sg82
g4510
sg75
(lp4583
g68
(g89
g70
NtRp4584
(dp4585
g73
(dp4586
g93
g94
ssg82
g4580
sg75
(lp4587
S'Pragma'
p4588
asbag68
(g89
g70
NtRp4589
(dp4590
g73
(dp4591
g100
g101
ssg82
g4580
sg75
(lp4592
S':'
asbag68
(g89
g70
NtRp4593
(dp4594
g73
(dp4595
sg82
g4580
sg75
(lp4596
g68
(g69
g70
NtRp4597
(dp4598
g73
(dp4599
g81
I4
ssg82
g4593
sg75
(lp4600
S'no-cache'
p4601
asbasbasbag68
(g84
g70
NtRp4602
(dp4603
g73
(dp4604
sg82
g4510
sg75
(lp4605
g68
(g89
g70
NtRp4606
(dp4607
g73
(dp4608
g93
g94
ssg82
g4602
sg75
(lp4609
S'X-Powered-By'
p4610
asbag68
(g89
g70
NtRp4611
(dp4612
g73
(dp4613
g100
g101
ssg82
g4602
sg75
(lp4614
S':'
asbag68
(g89
g70
NtRp4615
(dp4616
g73
(dp4617
sg82
g4602
sg75
(lp4618
g68
(g69
g70
NtRp4619
(dp4620
g73
(dp4621
g81
I4
ssg82
g4615
sg75
(lp4622
S'web2py'
p4623
asbasbasbasbasbasbasbag68
(g84
g70
NtRp4624
(dp4625
g73
(dp4626
sg82
g4171
sg75
(lp4627
g68
(g89
g70
NtRp4628
(dp4629
g73
(dp4630
g93
g94
ssg82
g4624
sg75
(lp4631
S'menu'
p4632
asbag68
(g89
g70
NtRp4633
(dp4634
g73
(dp4635
g100
g101
ssg82
g4624
sg75
(lp4636
S':'
asbag68
(g89
g70
NtRp4637
(dp4638
g73
(dp4639
sg82
g4624
sg75
(lp4640
g68
(g69
g70
NtRp4641
(dp4642
g73
(dp4643
g81
I5
ssg82
g4637
sg75
(lp4644
g68
(g77
g70
NtRp4645
(dp4646
g73
(dp4647
g81
I4
ssg82
Nsg75
(lp4648
g68
(g84
g70
NtRp4649
(dp4650
g73
(dp4651
sg82
g4645
sg75
(lp4652
g68
(g89
g70
NtRp4653
(dp4654
g73
(dp4655
sg82
g4649
sg75
(lp4656
g68
(g69
g70
NtRp4657
(dp4658
g73
(dp4659
g81
I4
ssg82
g4653
sg75
(lp4660
g68
(g77
g70
NtRp4661
(dp4662
g73
(dp4663
g81
I3
ssg82
Nsg75
(lp4664
g68
(g84
g70
NtRp4665
(dp4666
g73
(dp4667
sg82
g4661
sg75
(lp4668
g68
(g89
g70
NtRp4669
(dp4670
g73
(dp4671
sg82
g4665
sg75
(lp4672
g68
(g69
g70
NtRp4673
(dp4674
g73
(dp4675
g81
I3
ssg82
g4669
sg75
(lp4676
cgluon.languages
lazyT_unpickle
p4677
(S't\x04\x00\x00\x00Home'
tRp4678
asbasbasbag68
(g84
g70
NtRp4679
(dp4680
g73
(dp4681
sg82
g4661
sg75
(lp4682
g68
(g89
g70
NtRp4683
(dp4684
g73
(dp4685
sg82
g4679
sg75
(lp4686
g68
(g69
g70
NtRp4687
(dp4688
g73
(dp4689
g81
I3
ssg82
g4683
sg75
(lp4690
g111
asbasbasbag68
(g84
g70
NtRp4691
(dp4692
g73
(dp4693
sg82
g4661
sg75
(lp4694
g68
(g89
g70
NtRp4695
(dp4696
g73
(dp4697
sg82
g4691
sg75
(lp4698
g68
(g69
g70
NtRp4699
(dp4700
g73
(dp4701
g81
I3
ssg82
g4695
sg75
(lp4702
S'/paideia/default/index'
p4703
asbasbasbag68
(g84
g70
NtRp4704
(dp4705
g73
(dp4706
sg82
g4661
sg75
(lp4707
g68
(g89
g70
NtRp4708
(dp4709
g73
(dp4710
sg82
g4704
sg75
(lp4711
g68
(g69
g70
NtRp4712
(dp4713
g73
(dp4714
g81
I3
ssg82
g4708
sg75
(lp4715
g68
(g77
g70
NtRp4716
(dp4717
g73
(dp4718
g81
I2
ssg82
Nsg75
(lp4719
sbasbasbasbasbasbasbasbag68
(g84
g70
NtRp4720
(dp4721
g73
(dp4722
sg82
g4645
sg75
(lp4723
g68
(g89
g70
NtRp4724
(dp4725
g73
(dp4726
sg82
g4720
sg75
(lp4727
g68
(g69
g70
NtRp4728
(dp4729
g73
(dp4730
g81
I4
ssg82
g4724
sg75
(lp4731
g68
(g77
g70
NtRp4732
(dp4733
g73
(dp4734
g81
I3
ssg82
Nsg75
(lp4735
g68
(g84
g70
NtRp4736
(dp4737
g73
(dp4738
sg82
g4732
sg75
(lp4739
g68
(g89
g70
NtRp4740
(dp4741
g73
(dp4742
sg82
g4736
sg75
(lp4743
g68
(g69
g70
NtRp4744
(dp4745
g73
(dp4746
g81
I3
ssg82
g4740
sg75
(lp4747
g4677
(S't\x05\x00\x00\x00Admin'
tRp4748
asbasbasbag68
(g84
g70
NtRp4749
(dp4750
g73
(dp4751
sg82
g4732
sg75
(lp4752
g68
(g89
g70
NtRp4753
(dp4754
g73
(dp4755
sg82
g4749
sg75
(lp4756
g68
(g69
g70
NtRp4757
(dp4758
g73
(dp4759
g81
I3
ssg82
g4753
sg75
(lp4760
g111
asbasbasbag68
(g84
g70
NtRp4761
(dp4762
g73
(dp4763
sg82
g4732
sg75
(lp4764
g68
(g89
g70
NtRp4765
(dp4766
g73
(dp4767
sg82
g4761
sg75
(lp4768
g68
(g69
g70
NtRp4769
(dp4770
g73
(dp4771
g81
I3
ssg82
g4765
sg75
(lp4772
S'None'
p4773
asbasbasbag68
(g84
g70
NtRp4774
(dp4775
g73
(dp4776
sg82
g4732
sg75
(lp4777
g68
(g89
g70
NtRp4778
(dp4779
g73
(dp4780
sg82
g4774
sg75
(lp4781
g68
(g69
g70
NtRp4782
(dp4783
g73
(dp4784
g81
I3
ssg82
g4778
sg75
(lp4785
g68
(g77
g70
NtRp4786
(dp4787
g73
(dp4788
g81
I2
ssg82
Nsg75
(lp4789
g68
(g84
g70
NtRp4790
(dp4791
g73
(dp4792
sg82
g4786
sg75
(lp4793
g68
(g89
g70
NtRp4794
(dp4795
g73
(dp4796
sg82
g4790
sg75
(lp4797
g68
(g69
g70
NtRp4798
(dp4799
g73
(dp4800
g81
I2
ssg82
g4794
sg75
(lp4801
g68
(g77
g70
NtRp4802
(dp4803
g73
(dp4804
g81
I1
ssg82
Nsg75
(lp4805
g68
(g84
g70
NtRp4806
(dp4807
g73
(dp4808
sg82
g4802
sg75
(lp4809
g68
(g89
g70
NtRp4810
(dp4811
g73
(dp4812
sg82
g4806
sg75
(lp4813
g68
(g69
g70
NtRp4814
(dp4815
g73
(dp4816
g81
I1
ssg82
g4810
sg75
(lp4817
g4677
(S's\x07\x00\x00\x00Web IDE'
tRp4818
asbasbasbag68
(g84
g70
NtRp4819
(dp4820
g73
(dp4821
sg82
g4802
sg75
(lp4822
g68
(g89
g70
NtRp4823
(dp4824
g73
(dp4825
sg82
g4819
sg75
(lp4826
g68
(g69
g70
NtRp4827
(dp4828
g73
(dp4829
g81
I1
ssg82
g4823
sg75
(lp4830
I00
asbasbasbag68
(g84
g70
NtRp4831
(dp4832
g73
(dp4833
sg82
g4802
sg75
(lp4834
g68
(g89
g70
NtRp4835
(dp4836
g73
(dp4837
sg82
g4831
sg75
(lp4838
g68
(g69
g70
NtRp4839
(dp4840
g73
(dp4841
g81
I1
ssg82
g4835
sg75
(lp4842
S'/admin/default/index'
p4843
asbasbasbasbasbasbasbag68
(g84
g70
NtRp4844
(dp4845
g73
(dp4846
sg82
g4786
sg75
(lp4847
g68
(g89
g70
NtRp4848
(dp4849
g73
(dp4850
sg82
g4844
sg75
(lp4851
g68
(g69
g70
NtRp4852
(dp4853
g73
(dp4854
g81
I2
ssg82
g4848
sg75
(lp4855
g68
(g77
g70
NtRp4856
(dp4857
g73
(dp4858
g81
I1
ssg82
Nsg75
(lp4859
g68
(g84
g70
NtRp4860
(dp4861
g73
(dp4862
sg82
g4856
sg75
(lp4863
g68
(g89
g70
NtRp4864
(dp4865
g73
(dp4866
sg82
g4860
sg75
(lp4867
g68
(g69
g70
NtRp4868
(dp4869
g73
(dp4870
g81
I1
ssg82
g4864
sg75
(lp4871
g4677
(S't\x08\x00\x00\x00Database'
tRp4872
asbasbasbag68
(g84
g70
NtRp4873
(dp4874
g73
(dp4875
sg82
g4856
sg75
(lp4876
g68
(g89
g70
NtRp4877
(dp4878
g73
(dp4879
sg82
g4873
sg75
(lp4880
g68
(g69
g70
NtRp4881
(dp4882
g73
(dp4883
g81
I1
ssg82
g4877
sg75
(lp4884
I00
asbasbasbag68
(g84
g70
NtRp4885
(dp4886
g73
(dp4887
sg82
g4856
sg75
(lp4888
g68
(g89
g70
NtRp4889
(dp4890
g73
(dp4891
sg82
g4885
sg75
(lp4892
g68
(g69
g70
NtRp4893
(dp4894
g73
(dp4895
g81
I1
ssg82
g4889
sg75
(lp4896
S'/paideia/appadmin/index'
p4897
asbasbasbasbasbasbasbag68
(g84
g70
NtRp4898
(dp4899
g73
(dp4900
sg82
g4786
sg75
(lp4901
g68
(g89
g70
NtRp4902
(dp4903
g73
(dp4904
sg82
g4898
sg75
(lp4905
g68
(g69
g70
NtRp4906
(dp4907
g73
(dp4908
g81
I2
ssg82
g4902
sg75
(lp4909
g68
(g77
g70
NtRp4910
(dp4911
g73
(dp4912
g81
I1
ssg82
Nsg75
(lp4913
g68
(g84
g70
NtRp4914
(dp4915
g73
(dp4916
sg82
g4910
sg75
(lp4917
g68
(g89
g70
NtRp4918
(dp4919
g73
(dp4920
sg82
g4914
sg75
(lp4921
g68
(g69
g70
NtRp4922
(dp4923
g73
(dp4924
g81
I1
ssg82
g4918
sg75
(lp4925
g4677
(S't\x05\x00\x00\x00Users'
tRp4926
asbasbasbag68
(g84
g70
NtRp4927
(dp4928
g73
(dp4929
sg82
g4910
sg75
(lp4930
g68
(g89
g70
NtRp4931
(dp4932
g73
(dp4933
sg82
g4927
sg75
(lp4934
g68
(g69
g70
NtRp4935
(dp4936
g73
(dp4937
g81
I1
ssg82
g4931
sg75
(lp4938
I00
asbasbasbag68
(g84
g70
NtRp4939
(dp4940
g73
(dp4941
sg82
g4910
sg75
(lp4942
g68
(g89
g70
NtRp4943
(dp4944
g73
(dp4945
sg82
g4939
sg75
(lp4946
g68
(g69
g70
NtRp4947
(dp4948
g73
(dp4949
g81
I1
ssg82
g4943
sg75
(lp4950
S'/paideia/listing/user'
p4951
asbasbasbasbasbasbasbag68
(g84
g70
NtRp4952
(dp4953
g73
(dp4954
sg82
g4786
sg75
(lp4955
g68
(g89
g70
NtRp4956
(dp4957
g73
(dp4958
sg82
g4952
sg75
(lp4959
g68
(g69
g70
NtRp4960
(dp4961
g73
(dp4962
g81
I2
ssg82
g4956
sg75
(lp4963
g68
(g77
g70
NtRp4964
(dp4965
g73
(dp4966
g81
I1
ssg82
Nsg75
(lp4967
g68
(g84
g70
NtRp4968
(dp4969
g73
(dp4970
sg82
g4964
sg75
(lp4971
g68
(g89
g70
NtRp4972
(dp4973
g73
(dp4974
sg82
g4968
sg75
(lp4975
g68
(g69
g70
NtRp4976
(dp4977
g73
(dp4978
g81
I1
ssg82
g4972
sg75
(lp4979
g4677
(S't\x05\x00\x00\x00Paths'
tRp4980
asbasbasbag68
(g84
g70
NtRp4981
(dp4982
g73
(dp4983
sg82
g4964
sg75
(lp4984
g68
(g89
g70
NtRp4985
(dp4986
g73
(dp4987
sg82
g4981
sg75
(lp4988
g68
(g69
g70
NtRp4989
(dp4990
g73
(dp4991
g81
I1
ssg82
g4985
sg75
(lp4992
I00
asbasbasbag68
(g84
g70
NtRp4993
(dp4994
g73
(dp4995
sg82
g4964
sg75
(lp4996
g68
(g89
g70
NtRp4997
(dp4998
g73
(dp4999
sg82
g4993
sg75
(lp5000
g68
(g69
g70
NtRp5001
(dp5002
g73
(dp5003
g81
I1
ssg82
g4997
sg75
(lp5004
S'/paideia/plugin_listandedit/listing.html/paths'
p5005
asbasbasbasbasbasbasbag68
(g84
g70
NtRp5006
(dp5007
g73
(dp5008
sg82
g4786
sg75
(lp5009
g68
(g89
g70
NtRp5010
(dp5011
g73
(dp5012
sg82
g5006
sg75
(lp5013
g68
(g69
g70
NtRp5014
(dp5015
g73
(dp5016
g81
I2
ssg82
g5010
sg75
(lp5017
g68
(g77
g70
NtRp5018
(dp5019
g73
(dp5020
g81
I1
ssg82
Nsg75
(lp5021
g68
(g84
g70
NtRp5022
(dp5023
g73
(dp5024
sg82
g5018
sg75
(lp5025
g68
(g89
g70
NtRp5026
(dp5027
g73
(dp5028
sg82
g5022
sg75
(lp5029
g68
(g69
g70
NtRp5030
(dp5031
g73
(dp5032
g81
I1
ssg82
g5026
sg75
(lp5033
g4677
(S't\x05\x00\x00\x00Steps'
tRp5034
asbasbasbag68
(g84
g70
NtRp5035
(dp5036
g73
(dp5037
sg82
g5018
sg75
(lp5038
g68
(g89
g70
NtRp5039
(dp5040
g73
(dp5041
sg82
g5035
sg75
(lp5042
g68
(g69
g70
NtRp5043
(dp5044
g73
(dp5045
g81
I1
ssg82
g5039
sg75
(lp5046
I00
asbasbasbag68
(g84
g70
NtRp5047
(dp5048
g73
(dp5049
sg82
g5018
sg75
(lp5050
g68
(g89
g70
NtRp5051
(dp5052
g73
(dp5053
sg82
g5047
sg75
(lp5054
g68
(g69
g70
NtRp5055
(dp5056
g73
(dp5057
g81
I1
ssg82
g5051
sg75
(lp5058
S'/paideia/plugin_listandedit/listing.html/steps'
p5059
asbasbasbasbasbasbasbag68
(g84
g70
NtRp5060
(dp5061
g73
(dp5062
sg82
g4786
sg75
(lp5063
g68
(g89
g70
NtRp5064
(dp5065
g73
(dp5066
sg82
g5060
sg75
(lp5067
g68
(g69
g70
NtRp5068
(dp5069
g73
(dp5070
g81
I2
ssg82
g5064
sg75
(lp5071
g68
(g77
g70
NtRp5072
(dp5073
g73
(dp5074
g81
I1
ssg82
Nsg75
(lp5075
g68
(g84
g70
NtRp5076
(dp5077
g73
(dp5078
sg82
g5072
sg75
(lp5079
g68
(g89
g70
NtRp5080
(dp5081
g73
(dp5082
sg82
g5076
sg75
(lp5083
g68
(g69
g70
NtRp5084
(dp5085
g73
(dp5086
g81
I1
ssg82
g5080
sg75
(lp5087
g4677
(S't\t\x00\x00\x00Questions'
tRp5088
asbasbasbag68
(g84
g70
NtRp5089
(dp5090
g73
(dp5091
sg82
g5072
sg75
(lp5092
g68
(g89
g70
NtRp5093
(dp5094
g73
(dp5095
sg82
g5089
sg75
(lp5096
g68
(g69
g70
NtRp5097
(dp5098
g73
(dp5099
g81
I1
ssg82
g5093
sg75
(lp5100
I00
asbasbasbag68
(g84
g70
NtRp5101
(dp5102
g73
(dp5103
sg82
g5072
sg75
(lp5104
g68
(g89
g70
NtRp5105
(dp5106
g73
(dp5107
sg82
g5101
sg75
(lp5108
g68
(g69
g70
NtRp5109
(dp5110
g73
(dp5111
g81
I1
ssg82
g5105
sg75
(lp5112
S'/paideia/plugin_listandedit/listing.html/questions'
p5113
asbasbasbasbasbasbasbag68
(g84
g70
NtRp5114
(dp5115
g73
(dp5116
sg82
g4786
sg75
(lp5117
g68
(g89
g70
NtRp5118
(dp5119
g73
(dp5120
sg82
g5114
sg75
(lp5121
g68
(g69
g70
NtRp5122
(dp5123
g73
(dp5124
g81
I2
ssg82
g5118
sg75
(lp5125
g68
(g77
g70
NtRp5126
(dp5127
g73
(dp5128
g81
I1
ssg82
Nsg75
(lp5129
g68
(g84
g70
NtRp5130
(dp5131
g73
(dp5132
sg82
g5126
sg75
(lp5133
g68
(g89
g70
NtRp5134
(dp5135
g73
(dp5136
sg82
g5130
sg75
(lp5137
g68
(g69
g70
NtRp5138
(dp5139
g73
(dp5140
g81
I1
ssg82
g5134
sg75
(lp5141
g4677
(S't\x07\x00\x00\x00Quizzes'
tRp5142
asbasbasbag68
(g84
g70
NtRp5143
(dp5144
g73
(dp5145
sg82
g5126
sg75
(lp5146
g68
(g89
g70
NtRp5147
(dp5148
g73
(dp5149
sg82
g5143
sg75
(lp5150
g68
(g69
g70
NtRp5151
(dp5152
g73
(dp5153
g81
I1
ssg82
g5147
sg75
(lp5154
I00
asbasbasbag68
(g84
g70
NtRp5155
(dp5156
g73
(dp5157
sg82
g5126
sg75
(lp5158
g68
(g89
g70
NtRp5159
(dp5160
g73
(dp5161
sg82
g5155
sg75
(lp5162
g68
(g69
g70
NtRp5163
(dp5164
g73
(dp5165
g81
I1
ssg82
g5159
sg75
(lp5166
S'/paideia/plugin_listandedit/listing.html/quizzes'
p5167
asbasbasbasbasbasbasbag68
(g84
g70
NtRp5168
(dp5169
g73
(dp5170
sg82
g4786
sg75
(lp5171
g68
(g89
g70
NtRp5172
(dp5173
g73
(dp5174
sg82
g5168
sg75
(lp5175
g68
(g69
g70
NtRp5176
(dp5177
g73
(dp5178
g81
I2
ssg82
g5172
sg75
(lp5179
g68
(g77
g70
NtRp5180
(dp5181
g73
(dp5182
g81
I1
ssg82
Nsg75
(lp5183
g68
(g84
g70
NtRp5184
(dp5185
g73
(dp5186
sg82
g5180
sg75
(lp5187
g68
(g89
g70
NtRp5188
(dp5189
g73
(dp5190
sg82
g5184
sg75
(lp5191
g68
(g69
g70
NtRp5192
(dp5193
g73
(dp5194
g81
I1
ssg82
g5188
sg75
(lp5195
g4677
(S't\x04\x00\x00\x00Tags'
tRp5196
asbasbasbag68
(g84
g70
NtRp5197
(dp5198
g73
(dp5199
sg82
g5180
sg75
(lp5200
g68
(g89
g70
NtRp5201
(dp5202
g73
(dp5203
sg82
g5197
sg75
(lp5204
g68
(g69
g70
NtRp5205
(dp5206
g73
(dp5207
g81
I1
ssg82
g5201
sg75
(lp5208
I00
asbasbasbag68
(g84
g70
NtRp5209
(dp5210
g73
(dp5211
sg82
g5180
sg75
(lp5212
g68
(g89
g70
NtRp5213
(dp5214
g73
(dp5215
sg82
g5209
sg75
(lp5216
g68
(g69
g70
NtRp5217
(dp5218
g73
(dp5219
g81
I1
ssg82
g5213
sg75
(lp5220
S'/paideia/plugin_listandedit/listing.html/tags'
p5221
asbasbasbasbasbasbasbag68
(g84
g70
NtRp5222
(dp5223
g73
(dp5224
sg82
g4786
sg75
(lp5225
g68
(g89
g70
NtRp5226
(dp5227
g73
(dp5228
sg82
g5222
sg75
(lp5229
g68
(g69
g70
NtRp5230
(dp5231
g73
(dp5232
g81
I2
ssg82
g5226
sg75
(lp5233
g68
(g77
g70
NtRp5234
(dp5235
g73
(dp5236
g81
I1
ssg82
Nsg75
(lp5237
g68
(g84
g70
NtRp5238
(dp5239
g73
(dp5240
sg82
g5234
sg75
(lp5241
g68
(g89
g70
NtRp5242
(dp5243
g73
(dp5244
sg82
g5238
sg75
(lp5245
g68
(g69
g70
NtRp5246
(dp5247
g73
(dp5248
g81
I1
ssg82
g5242
sg75
(lp5249
g4677
(S't\x04\x00\x00\x00NPCs'
tRp5250
asbasbasbag68
(g84
g70
NtRp5251
(dp5252
g73
(dp5253
sg82
g5234
sg75
(lp5254
g68
(g89
g70
NtRp5255
(dp5256
g73
(dp5257
sg82
g5251
sg75
(lp5258
g68
(g69
g70
NtRp5259
(dp5260
g73
(dp5261
g81
I1
ssg82
g5255
sg75
(lp5262
I00
asbasbasbag68
(g84
g70
NtRp5263
(dp5264
g73
(dp5265
sg82
g5234
sg75
(lp5266
g68
(g89
g70
NtRp5267
(dp5268
g73
(dp5269
sg82
g5263
sg75
(lp5270
g68
(g69
g70
NtRp5271
(dp5272
g73
(dp5273
g81
I1
ssg82
g5267
sg75
(lp5274
S'/paideia/plugin_listandedit/listing.html/npcs'
p5275
asbasbasbasbasbasbasbag68
(g84
g70
NtRp5276
(dp5277
g73
(dp5278
sg82
g4786
sg75
(lp5279
g68
(g89
g70
NtRp5280
(dp5281
g73
(dp5282
sg82
g5276
sg75
(lp5283
g68
(g69
g70
NtRp5284
(dp5285
g73
(dp5286
g81
I2
ssg82
g5280
sg75
(lp5287
g68
(g77
g70
NtRp5288
(dp5289
g73
(dp5290
g81
I1
ssg82
Nsg75
(lp5291
g68
(g84
g70
NtRp5292
(dp5293
g73
(dp5294
sg82
g5288
sg75
(lp5295
g68
(g89
g70
NtRp5296
(dp5297
g73
(dp5298
sg82
g5292
sg75
(lp5299
g68
(g69
g70
NtRp5300
(dp5301
g73
(dp5302
g81
I1
ssg82
g5296
sg75
(lp5303
g4677
(S't\t\x00\x00\x00locations'
tRp5304
asbasbasbag68
(g84
g70
NtRp5305
(dp5306
g73
(dp5307
sg82
g5288
sg75
(lp5308
g68
(g89
g70
NtRp5309
(dp5310
g73
(dp5311
sg82
g5305
sg75
(lp5312
g68
(g69
g70
NtRp5313
(dp5314
g73
(dp5315
g81
I1
ssg82
g5309
sg75
(lp5316
I00
asbasbasbag68
(g84
g70
NtRp5317
(dp5318
g73
(dp5319
sg82
g5288
sg75
(lp5320
g68
(g89
g70
NtRp5321
(dp5322
g73
(dp5323
sg82
g5317
sg75
(lp5324
g68
(g69
g70
NtRp5325
(dp5326
g73
(dp5327
g81
I1
ssg82
g5321
sg75
(lp5328
S'/paideia/plugin_listandedit/listing.html/locations'
p5329
asbasbasbasbasbasbasbasbasbasbasbasbasbasbasbasbasbasbasbag68
(g84
g70
NtRp5330
(dp5331
g73
(dp5332
sg82
g4171
sg75
(lp5333
g68
(g89
g70
NtRp5334
(dp5335
g73
(dp5336
g93
g94
ssg82
g5330
sg75
(lp5337
S'meta'
p5338
asbag68
(g89
g70
NtRp5339
(dp5340
g73
(dp5341
g100
g101
ssg82
g5330
sg75
(lp5342
S':'
asbag68
(g89
g70
NtRp5343
(dp5344
g73
(dp5345
sg82
g5330
sg75
(lp5346
g68
(g69
g70
NtRp5347
(dp5348
g73
(dp5349
g81
I5
ssg82
g5343
sg75
(lp5350
g68
(g77
g70
NtRp5351
(dp5352
g73
(dp5353
g81
I4
ssg82
Nsg75
(lp5354
g68
(g84
g70
NtRp5355
(dp5356
g73
(dp5357
sg82
g5351
sg75
(lp5358
g68
(g89
g70
NtRp5359
(dp5360
g73
(dp5361
g93
g94
ssg82
g5355
sg75
(lp5362
S'author'
p5363
asbag68
(g89
g70
NtRp5364
(dp5365
g73
(dp5366
g100
g101
ssg82
g5355
sg75
(lp5367
S':'
asbag68
(g89
g70
NtRp5368
(dp5369
g73
(dp5370
sg82
g5355
sg75
(lp5371
g68
(g69
g70
NtRp5372
(dp5373
g73
(dp5374
g81
I4
ssg82
g5368
sg75
(lp5375
S'Ian W. Scott'
p5376
asbasbasbag68
(g84
g70
NtRp5377
(dp5378
g73
(dp5379
sg82
g5351
sg75
(lp5380
g68
(g89
g70
NtRp5381
(dp5382
g73
(dp5383
g93
g94
ssg82
g5377
sg75
(lp5384
S'copyright'
p5385
asbag68
(g89
g70
NtRp5386
(dp5387
g73
(dp5388
g100
g101
ssg82
g5377
sg75
(lp5389
S':'
asbag68
(g89
g70
NtRp5390
(dp5391
g73
(dp5392
sg82
g5377
sg75
(lp5393
g68
(g69
g70
NtRp5394
(dp5395
g73
(dp5396
g81
I4
ssg82
g5390
sg75
(lp5397
S'Copyright 2011'
p5398
asbasbasbag68
(g84
g70
NtRp5399
(dp5400
g73
(dp5401
sg82
g5351
sg75
(lp5402
g68
(g89
g70
NtRp5403
(dp5404
g73
(dp5405
g93
g94
ssg82
g5399
sg75
(lp5406
S'description'
p5407
asbag68
(g89
g70
NtRp5408
(dp5409
g73
(dp5410
g100
g101
ssg82
g5399
sg75
(lp5411
S':'
asbag68
(g89
g70
NtRp5412
(dp5413
g73
(dp5414
sg82
g5399
sg75
(lp5415
g68
(g69
g70
NtRp5416
(dp5417
g73
(dp5418
g81
I4
ssg82
g5412
sg75
(lp5419
S'An online space for learning New Testament Greek'
p5420
asbasbasbag68
(g84
g70
NtRp5421
(dp5422
g73
(dp5423
sg82
g5351
sg75
(lp5424
g68
(g89
g70
NtRp5425
(dp5426
g73
(dp5427
g93
g94
ssg82
g5421
sg75
(lp5428
S'generator'
p5429
asbag68
(g89
g70
NtRp5430
(dp5431
g73
(dp5432
g100
g101
ssg82
g5421
sg75
(lp5433
S':'
asbag68
(g89
g70
NtRp5434
(dp5435
g73
(dp5436
sg82
g5421
sg75
(lp5437
g68
(g69
g70
NtRp5438
(dp5439
g73
(dp5440
g81
I4
ssg82
g5434
sg75
(lp5441
S'Web2py Enterprise Framework'
p5442
asbasbasbag68
(g84
g70
NtRp5443
(dp5444
g73
(dp5445
sg82
g5351
sg75
(lp5446
g68
(g89
g70
NtRp5447
(dp5448
g73
(dp5449
g93
g94
ssg82
g5443
sg75
(lp5450
S'keywords'
p5451
asbag68
(g89
g70
NtRp5452
(dp5453
g73
(dp5454
g100
g101
ssg82
g5443
sg75
(lp5455
S':'
asbag68
(g89
g70
NtRp5456
(dp5457
g73
(dp5458
sg82
g5443
sg75
(lp5459
g68
(g69
g70
NtRp5460
(dp5461
g73
(dp5462
g81
I4
ssg82
g5456
sg75
(lp5463
S'Greek, koine, New Testament, language, education, learning'
p5464
asbasbasbasbasbasbasbag68
(g84
g70
NtRp5465
(dp5466
g73
(dp5467
sg82
g4171
sg75
(lp5468
g68
(g89
g70
NtRp5469
(dp5470
g73
(dp5471
g93
g94
ssg82
g5465
sg75
(lp5472
S'postprocessing'
p5473
asbag68
(g89
g70
NtRp5474
(dp5475
g73
(dp5476
g100
g101
ssg82
g5465
sg75
(lp5477
S':'
asbag68
(g89
g70
NtRp5478
(dp5479
g73
(dp5480
sg82
g5465
sg75
(lp5481
g68
(g69
g70
NtRp5482
(dp5483
g73
(dp5484
g81
I5
ssg82
g5478
sg75
(lp5485
g68
(g77
g70
NtRp5486
(dp5487
g73
(dp5488
g81
I4
ssg82
Nsg75
(lp5489
sbasbasbasbag68
(g84
g70
NtRp5490
(dp5491
g73
(dp5492
sg82
g4171
sg75
(lp5493
g68
(g89
g70
NtRp5494
(dp5495
g73
(dp5496
g93
g94
ssg82
g5490
sg75
(lp5497
S'session_file'
p5498
asbag68
(g89
g70
NtRp5499
(dp5500
g73
(dp5501
g100
g101
ssg82
g5490
sg75
(lp5502
S':'
asbag68
(g89
g70
NtRp5503
(dp5504
g73
(dp5505
sg82
g5490
sg75
(lp5506
g68
(g69
g70
NtRp5507
(dp5508
g73
(dp5509
g81
I5
ssg82
g5503
sg75
(lp5510
S"<open file '/home/iscott/web/web2py/applications/paideia/sessions/127.0.0.1-2edda130-d654-4b0f-a819-06652e443aa6', mode 'rb+' at 0xa655e38>"
p5511
asbasbasbag68
(g84
g70
NtRp5512
(dp5513
g73
(dp5514
sg82
g4171
sg75
(lp5515
g68
(g89
g70
NtRp5516
(dp5517
g73
(dp5518
g93
g94
ssg82
g5512
sg75
(lp5519
S'session_filename'
p5520
asbag68
(g89
g70
NtRp5521
(dp5522
g73
(dp5523
g100
g101
ssg82
g5512
sg75
(lp5524
S':'
asbag68
(g89
g70
NtRp5525
(dp5526
g73
(dp5527
sg82
g5512
sg75
(lp5528
g68
(g69
g70
NtRp5529
(dp5530
g73
(dp5531
g81
I5
ssg82
g5525
sg75
(lp5532
S'/home/iscott/web/web2py/applications/paideia/sessions/127.0.0.1-2edda130-d654-4b0f-a819-06652e443aa6'
p5533
asbasbasbag68
(g84
g70
NtRp5534
(dp5535
g73
(dp5536
sg82
g4171
sg75
(lp5537
g68
(g89
g70
NtRp5538
(dp5539
g73
(dp5540
g93
g94
ssg82
g5534
sg75
(lp5541
S'session_id'
p5542
asbag68
(g89
g70
NtRp5543
(dp5544
g73
(dp5545
g100
g101
ssg82
g5534
sg75
(lp5546
S':'
asbag68
(g89
g70
NtRp5547
(dp5548
g73
(dp5549
sg82
g5534
sg75
(lp5550
g68
(g69
g70
NtRp5551
(dp5552
g73
(dp5553
g81
I5
ssg82
g5547
sg75
(lp5554
S'127.0.0.1-2edda130-d654-4b0f-a819-06652e443aa6'
p5555
asbasbasbag68
(g84
g70
NtRp5556
(dp5557
g73
(dp5558
sg82
g4171
sg75
(lp5559
g68
(g89
g70
NtRp5560
(dp5561
g73
(dp5562
g93
g94
ssg82
g5556
sg75
(lp5563
S'session_id_name'
p5564
asbag68
(g89
g70
NtRp5565
(dp5566
g73
(dp5567
g100
g101
ssg82
g5556
sg75
(lp5568
S':'
asbag68
(g89
g70
NtRp5569
(dp5570
g73
(dp5571
sg82
g5556
sg75
(lp5572
g68
(g69
g70
NtRp5573
(dp5574
g73
(dp5575
g81
I5
ssg82
g5569
sg75
(lp5576
g4228
asbasbasbag68
(g84
g70
NtRp5577
(dp5578
g73
(dp5579
sg82
g4171
sg75
(lp5580
g68
(g89
g70
NtRp5581
(dp5582
g73
(dp5583
g93
g94
ssg82
g5577
sg75
(lp5584
S'session_locked'
p5585
asbag68
(g89
g70
NtRp5586
(dp5587
g73
(dp5588
g100
g101
ssg82
g5577
sg75
(lp5589
S':'
asbag68
(g89
g70
NtRp5590
(dp5591
g73
(dp5592
sg82
g5577
sg75
(lp5593
g68
(g69
g70
NtRp5594
(dp5595
g73
(dp5596
g81
I5
ssg82
g5590
sg75
(lp5597
g1887
asbasbasbag68
(g84
g70
NtRp5598
(dp5599
g73
(dp5600
sg82
g4171
sg75
(lp5601
g68
(g89
g70
NtRp5602
(dp5603
g73
(dp5604
g93
g94
ssg82
g5598
sg75
(lp5605
S'session_new'
p5606
asbag68
(g89
g70
NtRp5607
(dp5608
g73
(dp5609
g100
g101
ssg82
g5598
sg75
(lp5610
S':'
asbag68
(g89
g70
NtRp5611
(dp5612
g73
(dp5613
sg82
g5598
sg75
(lp5614
g68
(g69
g70
NtRp5615
(dp5616
g73
(dp5617
g81
I5
ssg82
g5611
sg75
(lp5618
g111
asbasbasbag68
(g84
g70
NtRp5619
(dp5620
g73
(dp5621
sg82
g4171
sg75
(lp5622
g68
(g89
g70
NtRp5623
(dp5624
g73
(dp5625
g93
g94
ssg82
g5619
sg75
(lp5626
S'status'
p5627
asbag68
(g89
g70
NtRp5628
(dp5629
g73
(dp5630
g100
g101
ssg82
g5619
sg75
(lp5631
S':'
asbag68
(g89
g70
NtRp5632
(dp5633
g73
(dp5634
sg82
g5619
sg75
(lp5635
g68
(g69
g70
NtRp5636
(dp5637
g73
(dp5638
g81
I5
ssg82
g5632
sg75
(lp5639
S'200'
p5640
asbasbasbag68
(g84
g70
NtRp5641
(dp5642
g73
(dp5643
sg82
g4171
sg75
(lp5644
g68
(g89
g70
NtRp5645
(dp5646
g73
(dp5647
g93
g94
ssg82
g5641
sg75
(lp5648
S'subtitle'
p5649
asbag68
(g89
g70
NtRp5650
(dp5651
g73
(dp5652
g100
g101
ssg82
g5641
sg75
(lp5653
S':'
asbag68
(g89
g70
NtRp5654
(dp5655
g73
(dp5656
sg82
g5641
sg75
(lp5657
g68
(g69
g70
NtRp5658
(dp5659
g73
(dp5660
g81
I5
ssg82
g5654
sg75
(lp5661
g4677
(S's0\x00\x00\x00An online space for learning New Testament Greek'
tRp5662
asbasbasbag68
(g84
g70
NtRp5663
(dp5664
g73
(dp5665
sg82
g4171
sg75
(lp5666
g68
(g89
g70
NtRp5667
(dp5668
g73
(dp5669
g93
g94
ssg82
g5663
sg75
(lp5670
S'title'
p5671
asbag68
(g89
g70
NtRp5672
(dp5673
g73
(dp5674
g100
g101
ssg82
g5663
sg75
(lp5675
S':'
asbag68
(g89
g70
NtRp5676
(dp5677
g73
(dp5678
sg82
g5663
sg75
(lp5679
g68
(g69
g70
NtRp5680
(dp5681
g73
(dp5682
g81
I5
ssg82
g5676
sg75
(lp5683
g133
asbasbasbag68
(g84
g70
NtRp5684
(dp5685
g73
(dp5686
sg82
g4171
sg75
(lp5687
g68
(g89
g70
NtRp5688
(dp5689
g73
(dp5690
g93
g94
ssg82
g5684
sg75
(lp5691
g2593
asbag68
(g89
g70
NtRp5692
(dp5693
g73
(dp5694
g100
g101
ssg82
g5684
sg75
(lp5695
S':'
asbag68
(g89
g70
NtRp5696
(dp5697
g73
(dp5698
sg82
g5684
sg75
(lp5699
g68
(g69
g70
NtRp5700
(dp5701
g73
(dp5702
g81
I5
ssg82
g5696
sg75
(lp5703
g2606
asbasbasbag68
(g84
g70
NtRp5704
(dp5705
g73
(dp5706
sg82
g4171
sg75
(lp5707
g68
(g89
g70
NtRp5708
(dp5709
g73
(dp5710
g93
g94
ssg82
g5704
sg75
(lp5711
S'view'
p5712
asbag68
(g89
g70
NtRp5713
(dp5714
g73
(dp5715
g100
g101
ssg82
g5704
sg75
(lp5716
S':'
asbag68
(g89
g70
NtRp5717
(dp5718
g73
(dp5719
sg82
g5704
sg75
(lp5720
g68
(g69
g70
NtRp5721
(dp5722
g73
(dp5723
g81
I5
ssg82
g5717
sg75
(lp5724
S'plugin_listandedit/listing.html'
p5725
asbasbasbasbasbsS'locals'
p5726
(dp5727
S'fromlist'
p5728
S"('AjaxSelect',)"
p5729
sS'e'
S"SyntaxError('invalid syntax', ('applications/pai...162, 7, '    def create_widget(self):       \\n'))"
p5730
sS'name'
p5731
S"'applications.paideia.modules.plugin_ajaxselect'"
p5732
sg81
S'-1'
p5733
sS'self'
p5734
S'<gluon.custom_import._Web2pyDateTrackerImporter object>'
p5735
sS'globals'
p5736
S"{'A': <class 'gluon.html.A'>, 'Auth': <class 'gluon.tools.Auth'>, 'B': <class 'gluon.html.B'>, 'BEAUTIFY': <class 'gluon.html.BEAUTIFY'>, 'BODY': <class 'gluon.html.BODY'>, 'BR': <class 'gluon.html.BR'>, 'BUTTON': <class 'gluon.html.BUTTON'>, 'CAT': <class 'gluon.html.CAT'>, 'CENTER': <class 'gluon.html.CENTER'>, 'CLEANUP': <class 'gluon.validators.CLEANUP'>, ...}"
p5737
sS'call_begin_end'
p5738
g111
sg5726
S"{'A': <class 'gluon.html.A'>, 'Auth': <class 'gluon.tools.Auth'>, 'B': <class 'gluon.html.B'>, 'BEAUTIFY': <class 'gluon.html.BEAUTIFY'>, 'BODY': <class 'gluon.html.BODY'>, 'BR': <class 'gluon.html.BR'>, 'BUTTON': <class 'gluon.html.BUTTON'>, 'CAT': <class 'gluon.html.CAT'>, 'CENTER': <class 'gluon.html.CENTER'>, 'CLEANUP': <class 'gluon.validators.CLEANUP'>, ...}"
p5739
sssS'traceback'
p5740
S'Traceback (most recent call last):\n  File "/home/iscott/web/web2py/gluon/restricted.py", line 204, in restricted\n    exec ccode in environment\n  File "/home/iscott/web/web2py/applications/paideia/models/paideia.py", line 13, in <module>\n    from plugin_ajaxselect import AjaxSelect\n  File "/home/iscott/web/web2py/gluon/custom_import.py", line 289, in __call__\n    globals, locals, fromlist, level)\n  File "/home/iscott/web/web2py/gluon/custom_import.py", line 132, in __call__\n    raise e  # Don\'t hide something that went wrong\n  File "applications/paideia/modules/plugin_ajaxselect.py", line 162\n    def create_widget(self):\n      ^\nSyntaxError: invalid syntax\n'
p5741
s.