(dp1
S'output'
p2
S"<type 'exceptions.AttributeError'> 'NoneType' object has no attribute 'Table'"
p3
sS'layer'
p4
S'/home/ian/web2py/applications/paideia/controllers/default.py'
p5
sS'code'
p6
S'# -*- coding: utf-8 -*-\n\nimport datetime\n\nif 0:\n    from gluon import current\n    from gluon.tools import Auth\n    from gluon.dal import DAL\n    db = DAL()\n    auth = Auth()\n    response, session, request, T = current.response, current.session, current.request, current.T\n\nfrom paideia_stats import paideia_stats, paideia_timestats, paideia_weeklycount\nfrom paideia_bugs import *\n\n\ndef index():\n    """\n    example action using the internationalization operator T and flash\n    rendered by views/default/index.html or views/generic.html\n    """\n    return dict(message=T(\'Hello World\'))\n\ndef user():\n    """\n    exposes:\n    http://..../[app]/default/user/login\n    http://..../[app]/default/user/logout\n    http://..../[app]/default/user/register\n    http://..../[app]/default/user/profile\n    http://..../[app]/default/user/retrieve_password\n    http://..../[app]/default/user/change_password\n    use @auth.requires_login()\n        @auth.requires_membership(\'group name\')\n        @auth.requires_permission(\'read\',\'table name\',record_id)\n    to decorate functions that need access control\n    """\n    # create instance of paideia_stats class from models\n    s = paideia_stats(auth.user_id)\n    t = paideia_timestats(auth.user_id)\n    w = paideia_weeklycount(auth.user_id)\n    b = paideia_bugs()\n    blist = b.bugresponse(auth.user_id)\n    return dict(form=auth(), score_avg=s.score_avg, total_len = t.total_len, total_cat1 = t.total_cat1, total_cat2 = t.total_cat2, total_cat3 = t.total_cat3, percent_cat1 = t.percent_cat1, percent_cat2 = t.percent_cat2, percent_cat3 = t.percent_cat3, total_cat4 = t.total_cat4, percent_cat4 = t.percent_cat4, htmlcal = w.htmlcal, blist = blist)\n\ndef download():\n    """\n    allows downloading of uploaded files\n    http://..../[app]/default/download/[filename]\n    """\n    return response.download(request,db)\n\n\ndef call():\n    """\n    exposes services. for example:\n    http://..../[app]/default/call/jsonrpc\n    decorate with @services.jsonrpc the functions to expose\n    supports xml, json, xmlrpc, jsonrpc, amfrpc, rss, csv\n    """\n    return service()\n\n\n@auth.requires_signature()\ndef data():\n    """\n    http://..../[app]/default/data/tables\n    http://..../[app]/default/data/create/[table]\n    http://..../[app]/default/data/read/[table]/[id]\n    http://..../[app]/default/data/update/[table]/[id]\n    http://..../[app]/default/data/delete/[table]/[id[\n    http://..../[app]/default/data/select/[table]\n    http://..../[app]/default/data/search/[table]\n    but URLs bust be signed, i.e. linked with\n      A(\'table\',_href=URL(\'data/tables\',user_signature=True))\n    or with the signed load operator\n      LOAD(\'default\',\'data.load\',args=\'tables\',ajax=True,user_signature=True)\n    """\n    return dict(form=crud())\n\n@auth.requires_membership(role=\'administrators\')\ndef send_mail():\n    addr = db(db.auth_user.id == session.the_student).select(db.auth_user.email)\n    subj = session.mail_subject\n    msg = session.mail_message\n\n    if mail.send(to=addr, subject=subj, message=msg):\n        response.flash(\'mail sent successfully\')\n    else:\n        response.flash(\'There was a problem sending the mail.\')\n\n    return\n\n@auth.requires_membership(role=\'administrators\')\ndef bulk_cat_qs():\n    records = db(db.question_records.id > 0).select()\n    counter = 0\n    for record in records:\n        #figure out how the student is doing with this question\n        last_right = record.last_right\n        last_wrong = record.last_wrong\n        now_date = datetime.date.today()\n        right_dur = now_date-last_right\n        wrong_dur = now_date-last_wrong\n        rightWrong_dur = last_right - last_wrong\n        #categorize this question based on student\'s performance\n        if right_dur < wrong_dur:\n            if (right_dur < rightWrong_dur) and (right_dur < datetime.timedelta(days=170)):\n                if right_dur > datetime.timedelta(days=14):\n                    cat = 4\n                else:\n                    cat = 3\n            else:\n                cat = 2\n        else:\n            cat = 1\n        # update database with categorization\n        db(db.question_records.id == record.id).update(category = cat)\n        # count each record updated\n        counter += 1\n        session.debug = record.id\n\n    message = "Success. I categorized ", counter, " records."\n\n    return dict(message = message)\n\nresponse._vars=response._caller(user)\n'
p7
sS'snapshot'
p8
(dp9
S'exception'
p10
(dp11
S'__hash__'
p12
S"<method-wrapper '__hash__' of exceptions.AttributeError object>"
p13
sS'__setattr__'
p14
S"<method-wrapper '__setattr__' of exceptions.AttributeError object>"
p15
sS'__reduce_ex__'
p16
S'<built-in method __reduce_ex__ of exceptions.AttributeError object>'
p17
sS'__getslice__'
p18
S"<method-wrapper '__getslice__' of exceptions.AttributeError object>"
p19
sS'__getitem__'
p20
S"<method-wrapper '__getitem__' of exceptions.AttributeError object>"
p21
sS'__setstate__'
p22
S'<built-in method __setstate__ of exceptions.AttributeError object>'
p23
sS'args'
p24
S'("\'NoneType\' object has no attribute \'Table\'",)'
p25
sS'__reduce__'
p26
S'<built-in method __reduce__ of exceptions.AttributeError object>'
p27
sS'__str__'
p28
S"<method-wrapper '__str__' of exceptions.AttributeError object>"
p29
sS'__format__'
p30
S'<built-in method __format__ of exceptions.AttributeError object>'
p31
sS'__getattribute__'
p32
S"<method-wrapper '__getattribute__' of exceptions.AttributeError object>"
p33
sS'__class__'
p34
S"<type 'exceptions.AttributeError'>"
p35
sS'__unicode__'
p36
S'<built-in method __unicode__ of exceptions.AttributeError object>'
p37
sS'__delattr__'
p38
S"<method-wrapper '__delattr__' of exceptions.AttributeError object>"
p39
sS'__subclasshook__'
p40
S'<built-in method __subclasshook__ of type object>'
p41
sS'__repr__'
p42
S"<method-wrapper '__repr__' of exceptions.AttributeError object>"
p43
sS'__dict__'
p44
S'{}'
p45
sS'__sizeof__'
p46
S'<built-in method __sizeof__ of exceptions.AttributeError object>'
p47
sS'__doc__'
p48
S"'Attribute not found.'"
p49
sS'__init__'
p50
S"<method-wrapper '__init__' of exceptions.AttributeError object>"
p51
sS'__new__'
p52
S'<built-in method __new__ of type object>'
p53
ssS'evalue'
p54
S"'NoneType' object has no attribute 'Table'"
p55
sS'request'
p56
ccopy_reg
_reconstructor
p57
(cgluon.html
BEAUTIFY
p58
c__builtin__
object
p59
NtRp60
(dp61
S'attributes'
p62
(dp63
sS'components'
p64
(lp65
g57
(cgluon.html
TABLE
p66
g59
NtRp67
(dp68
g62
(dp69
S'level'
p70
I5
ssS'parent'
p71
Nsg64
(lp72
g57
(cgluon.html
TR
p73
g59
NtRp74
(dp75
g62
(dp76
sg71
g67
sg64
(lp77
g57
(cgluon.html
TD
p78
g59
NtRp79
(dp80
g62
(dp81
S'_style'
p82
S'font-weight:bold;vertical-align:top'
p83
ssg71
g74
sg64
(lp84
S'ajax'
p85
asbag57
(g78
g59
NtRp86
(dp87
g62
(dp88
S'_valign'
p89
S'top'
p90
ssg71
g74
sg64
(lp91
S':'
asbag57
(g78
g59
NtRp92
(dp93
g62
(dp94
sg71
g74
sg64
(lp95
g57
(g58
g59
NtRp96
(dp97
g62
(dp98
g70
I5
ssg71
g92
sg64
(lp99
S'False'
p100
asbasbasbag57
(g73
g59
NtRp101
(dp102
g62
(dp103
sg71
g67
sg64
(lp104
g57
(g78
g59
NtRp105
(dp106
g62
(dp107
g82
g83
ssg71
g101
sg64
(lp108
S'application'
p109
asbag57
(g78
g59
NtRp110
(dp111
g62
(dp112
g89
g90
ssg71
g101
sg64
(lp113
S':'
asbag57
(g78
g59
NtRp114
(dp115
g62
(dp116
sg71
g101
sg64
(lp117
g57
(g58
g59
NtRp118
(dp119
g62
(dp120
g70
I5
ssg71
g114
sg64
(lp121
S'paideia'
p122
asbasbasbag57
(g73
g59
NtRp123
(dp124
g62
(dp125
sg71
g67
sg64
(lp126
g57
(g78
g59
NtRp127
(dp128
g62
(dp129
g82
g83
ssg71
g123
sg64
(lp130
g24
asbag57
(g78
g59
NtRp131
(dp132
g62
(dp133
g89
g90
ssg71
g123
sg64
(lp134
S':'
asbag57
(g78
g59
NtRp135
(dp136
g62
(dp137
sg71
g123
sg64
(lp138
g57
(g58
g59
NtRp139
(dp140
g62
(dp141
g70
I5
ssg71
g135
sg64
(lp142
g57
(g66
g59
NtRp143
(dp144
g62
(dp145
g70
I4
ssg71
Nsg64
(lp146
g57
(g73
g59
NtRp147
(dp148
g62
(dp149
sg71
g143
sg64
(lp150
g57
(g78
g59
NtRp151
(dp152
g62
(dp153
sg71
g147
sg64
(lp154
g57
(g58
g59
NtRp155
(dp156
g62
(dp157
g70
I4
ssg71
g151
sg64
(lp158
S'profile'
p159
asbasbasbasbasbasbasbag57
(g73
g59
NtRp160
(dp161
g62
(dp162
sg71
g67
sg64
(lp163
g57
(g78
g59
NtRp164
(dp165
g62
(dp166
g82
g83
ssg71
g160
sg64
(lp167
S'body'
p168
asbag57
(g78
g59
NtRp169
(dp170
g62
(dp171
g89
g90
ssg71
g160
sg64
(lp172
S':'
asbag57
(g78
g59
NtRp173
(dp174
g62
(dp175
sg71
g160
sg64
(lp176
g57
(g58
g59
NtRp177
(dp178
g62
(dp179
g70
I5
ssg71
g173
sg64
(lp180
S'<cStringIO.StringO object at 0x2d78f80>'
p181
asbasbasbag57
(g73
g59
NtRp182
(dp183
g62
(dp184
sg71
g67
sg64
(lp185
g57
(g78
g59
NtRp186
(dp187
g62
(dp188
g82
g83
ssg71
g182
sg64
(lp189
S'client'
p190
asbag57
(g78
g59
NtRp191
(dp192
g62
(dp193
g89
g90
ssg71
g182
sg64
(lp194
S':'
asbag57
(g78
g59
NtRp195
(dp196
g62
(dp197
sg71
g182
sg64
(lp198
g57
(g58
g59
NtRp199
(dp200
g62
(dp201
g70
I5
ssg71
g195
sg64
(lp202
S'127.0.0.1'
p203
asbasbasbag57
(g73
g59
NtRp204
(dp205
g62
(dp206
sg71
g67
sg64
(lp207
g57
(g78
g59
NtRp208
(dp209
g62
(dp210
g82
g83
ssg71
g204
sg64
(lp211
S'controller'
p212
asbag57
(g78
g59
NtRp213
(dp214
g62
(dp215
g89
g90
ssg71
g204
sg64
(lp216
S':'
asbag57
(g78
g59
NtRp217
(dp218
g62
(dp219
sg71
g204
sg64
(lp220
g57
(g58
g59
NtRp221
(dp222
g62
(dp223
g70
I5
ssg71
g217
sg64
(lp224
S'default'
p225
asbasbasbag57
(g73
g59
NtRp226
(dp227
g62
(dp228
sg71
g67
sg64
(lp229
g57
(g78
g59
NtRp230
(dp231
g62
(dp232
g82
g83
ssg71
g226
sg64
(lp233
S'cookies'
p234
asbag57
(g78
g59
NtRp235
(dp236
g62
(dp237
g89
g90
ssg71
g226
sg64
(lp238
S':'
asbag57
(g78
g59
NtRp239
(dp240
g62
(dp241
sg71
g226
sg64
(lp242
g57
(g58
g59
NtRp243
(dp244
g62
(dp245
g70
I5
ssg71
g239
sg64
(lp246
g57
(g66
g59
NtRp247
(dp248
g62
(dp249
g70
I4
ssg71
Nsg64
(lp250
g57
(g73
g59
NtRp251
(dp252
g62
(dp253
sg71
g247
sg64
(lp254
g57
(g78
g59
NtRp255
(dp256
g62
(dp257
g82
g83
ssg71
g251
sg64
(lp258
S'session_id_admin'
p259
asbag57
(g78
g59
NtRp260
(dp261
g62
(dp262
g89
g90
ssg71
g251
sg64
(lp263
S':'
asbag57
(g78
g59
NtRp264
(dp265
g62
(dp266
sg71
g251
sg64
(lp267
g57
(g58
g59
NtRp268
(dp269
g62
(dp270
g70
I4
ssg71
g264
sg64
(lp271
g57
(g66
g59
NtRp272
(dp273
g62
(dp274
g70
I3
ssg71
Nsg64
(lp275
g57
(g73
g59
NtRp276
(dp277
g62
(dp278
sg71
g272
sg64
(lp279
g57
(g78
g59
NtRp280
(dp281
g62
(dp282
g82
g83
ssg71
g276
sg64
(lp283
S'comment'
p284
asbag57
(g78
g59
NtRp285
(dp286
g62
(dp287
g89
g90
ssg71
g276
sg64
(lp288
S':'
asbag57
(g78
g59
NtRp289
(dp290
g62
(dp291
sg71
g276
sg64
(lp292
g57
(g58
g59
NtRp293
(dp294
g62
(dp295
g70
I3
ssg71
g289
sg64
(lp296
S''
asbasbasbag57
(g73
g59
NtRp297
(dp298
g62
(dp299
sg71
g272
sg64
(lp300
g57
(g78
g59
NtRp301
(dp302
g62
(dp303
g82
g83
ssg71
g297
sg64
(lp304
S'domain'
p305
asbag57
(g78
g59
NtRp306
(dp307
g62
(dp308
g89
g90
ssg71
g297
sg64
(lp309
S':'
asbag57
(g78
g59
NtRp310
(dp311
g62
(dp312
sg71
g297
sg64
(lp313
g57
(g58
g59
NtRp314
(dp315
g62
(dp316
g70
I3
ssg71
g310
sg64
(lp317
S''
asbasbasbag57
(g73
g59
NtRp318
(dp319
g62
(dp320
sg71
g272
sg64
(lp321
g57
(g78
g59
NtRp322
(dp323
g62
(dp324
g82
g83
ssg71
g318
sg64
(lp325
S'expires'
p326
asbag57
(g78
g59
NtRp327
(dp328
g62
(dp329
g89
g90
ssg71
g318
sg64
(lp330
S':'
asbag57
(g78
g59
NtRp331
(dp332
g62
(dp333
sg71
g318
sg64
(lp334
g57
(g58
g59
NtRp335
(dp336
g62
(dp337
g70
I3
ssg71
g331
sg64
(lp338
S''
asbasbasbag57
(g73
g59
NtRp339
(dp340
g62
(dp341
sg71
g272
sg64
(lp342
g57
(g78
g59
NtRp343
(dp344
g62
(dp345
g82
g83
ssg71
g339
sg64
(lp346
S'httponly'
p347
asbag57
(g78
g59
NtRp348
(dp349
g62
(dp350
g89
g90
ssg71
g339
sg64
(lp351
S':'
asbag57
(g78
g59
NtRp352
(dp353
g62
(dp354
sg71
g339
sg64
(lp355
g57
(g58
g59
NtRp356
(dp357
g62
(dp358
g70
I3
ssg71
g352
sg64
(lp359
S''
asbasbasbag57
(g73
g59
NtRp360
(dp361
g62
(dp362
sg71
g272
sg64
(lp363
g57
(g78
g59
NtRp364
(dp365
g62
(dp366
g82
g83
ssg71
g360
sg64
(lp367
S'max-age'
p368
asbag57
(g78
g59
NtRp369
(dp370
g62
(dp371
g89
g90
ssg71
g360
sg64
(lp372
S':'
asbag57
(g78
g59
NtRp373
(dp374
g62
(dp375
sg71
g360
sg64
(lp376
g57
(g58
g59
NtRp377
(dp378
g62
(dp379
g70
I3
ssg71
g373
sg64
(lp380
S''
asbasbasbag57
(g73
g59
NtRp381
(dp382
g62
(dp383
sg71
g272
sg64
(lp384
g57
(g78
g59
NtRp385
(dp386
g62
(dp387
g82
g83
ssg71
g381
sg64
(lp388
S'path'
p389
asbag57
(g78
g59
NtRp390
(dp391
g62
(dp392
g89
g90
ssg71
g381
sg64
(lp393
S':'
asbag57
(g78
g59
NtRp394
(dp395
g62
(dp396
sg71
g381
sg64
(lp397
g57
(g58
g59
NtRp398
(dp399
g62
(dp400
g70
I3
ssg71
g394
sg64
(lp401
S''
asbasbasbag57
(g73
g59
NtRp402
(dp403
g62
(dp404
sg71
g272
sg64
(lp405
g57
(g78
g59
NtRp406
(dp407
g62
(dp408
g82
g83
ssg71
g402
sg64
(lp409
S'secure'
p410
asbag57
(g78
g59
NtRp411
(dp412
g62
(dp413
g89
g90
ssg71
g402
sg64
(lp414
S':'
asbag57
(g78
g59
NtRp415
(dp416
g62
(dp417
sg71
g402
sg64
(lp418
g57
(g58
g59
NtRp419
(dp420
g62
(dp421
g70
I3
ssg71
g415
sg64
(lp422
S''
asbasbasbag57
(g73
g59
NtRp423
(dp424
g62
(dp425
sg71
g272
sg64
(lp426
g57
(g78
g59
NtRp427
(dp428
g62
(dp429
g82
g83
ssg71
g423
sg64
(lp430
S'version'
p431
asbag57
(g78
g59
NtRp432
(dp433
g62
(dp434
g89
g90
ssg71
g423
sg64
(lp435
S':'
asbag57
(g78
g59
NtRp436
(dp437
g62
(dp438
sg71
g423
sg64
(lp439
g57
(g58
g59
NtRp440
(dp441
g62
(dp442
g70
I3
ssg71
g436
sg64
(lp443
S''
asbasbasbasbasbasbasbag57
(g73
g59
NtRp444
(dp445
g62
(dp446
sg71
g247
sg64
(lp447
g57
(g78
g59
NtRp448
(dp449
g62
(dp450
g82
g83
ssg71
g444
sg64
(lp451
S'session_id_paideia'
p452
asbag57
(g78
g59
NtRp453
(dp454
g62
(dp455
g89
g90
ssg71
g444
sg64
(lp456
S':'
asbag57
(g78
g59
NtRp457
(dp458
g62
(dp459
sg71
g444
sg64
(lp460
g57
(g58
g59
NtRp461
(dp462
g62
(dp463
g70
I4
ssg71
g457
sg64
(lp464
g57
(g66
g59
NtRp465
(dp466
g62
(dp467
g70
I3
ssg71
Nsg64
(lp468
g57
(g73
g59
NtRp469
(dp470
g62
(dp471
sg71
g465
sg64
(lp472
g57
(g78
g59
NtRp473
(dp474
g62
(dp475
g82
g83
ssg71
g469
sg64
(lp476
g284
asbag57
(g78
g59
NtRp477
(dp478
g62
(dp479
g89
g90
ssg71
g469
sg64
(lp480
S':'
asbag57
(g78
g59
NtRp481
(dp482
g62
(dp483
sg71
g469
sg64
(lp484
g57
(g58
g59
NtRp485
(dp486
g62
(dp487
g70
I3
ssg71
g481
sg64
(lp488
S''
asbasbasbag57
(g73
g59
NtRp489
(dp490
g62
(dp491
sg71
g465
sg64
(lp492
g57
(g78
g59
NtRp493
(dp494
g62
(dp495
g82
g83
ssg71
g489
sg64
(lp496
g305
asbag57
(g78
g59
NtRp497
(dp498
g62
(dp499
g89
g90
ssg71
g489
sg64
(lp500
S':'
asbag57
(g78
g59
NtRp501
(dp502
g62
(dp503
sg71
g489
sg64
(lp504
g57
(g58
g59
NtRp505
(dp506
g62
(dp507
g70
I3
ssg71
g501
sg64
(lp508
S''
asbasbasbag57
(g73
g59
NtRp509
(dp510
g62
(dp511
sg71
g465
sg64
(lp512
g57
(g78
g59
NtRp513
(dp514
g62
(dp515
g82
g83
ssg71
g509
sg64
(lp516
g326
asbag57
(g78
g59
NtRp517
(dp518
g62
(dp519
g89
g90
ssg71
g509
sg64
(lp520
S':'
asbag57
(g78
g59
NtRp521
(dp522
g62
(dp523
sg71
g509
sg64
(lp524
g57
(g58
g59
NtRp525
(dp526
g62
(dp527
g70
I3
ssg71
g521
sg64
(lp528
S''
asbasbasbag57
(g73
g59
NtRp529
(dp530
g62
(dp531
sg71
g465
sg64
(lp532
g57
(g78
g59
NtRp533
(dp534
g62
(dp535
g82
g83
ssg71
g529
sg64
(lp536
g347
asbag57
(g78
g59
NtRp537
(dp538
g62
(dp539
g89
g90
ssg71
g529
sg64
(lp540
S':'
asbag57
(g78
g59
NtRp541
(dp542
g62
(dp543
sg71
g529
sg64
(lp544
g57
(g58
g59
NtRp545
(dp546
g62
(dp547
g70
I3
ssg71
g541
sg64
(lp548
S''
asbasbasbag57
(g73
g59
NtRp549
(dp550
g62
(dp551
sg71
g465
sg64
(lp552
g57
(g78
g59
NtRp553
(dp554
g62
(dp555
g82
g83
ssg71
g549
sg64
(lp556
g368
asbag57
(g78
g59
NtRp557
(dp558
g62
(dp559
g89
g90
ssg71
g549
sg64
(lp560
S':'
asbag57
(g78
g59
NtRp561
(dp562
g62
(dp563
sg71
g549
sg64
(lp564
g57
(g58
g59
NtRp565
(dp566
g62
(dp567
g70
I3
ssg71
g561
sg64
(lp568
S''
asbasbasbag57
(g73
g59
NtRp569
(dp570
g62
(dp571
sg71
g465
sg64
(lp572
g57
(g78
g59
NtRp573
(dp574
g62
(dp575
g82
g83
ssg71
g569
sg64
(lp576
g389
asbag57
(g78
g59
NtRp577
(dp578
g62
(dp579
g89
g90
ssg71
g569
sg64
(lp580
S':'
asbag57
(g78
g59
NtRp581
(dp582
g62
(dp583
sg71
g569
sg64
(lp584
g57
(g58
g59
NtRp585
(dp586
g62
(dp587
g70
I3
ssg71
g581
sg64
(lp588
S''
asbasbasbag57
(g73
g59
NtRp589
(dp590
g62
(dp591
sg71
g465
sg64
(lp592
g57
(g78
g59
NtRp593
(dp594
g62
(dp595
g82
g83
ssg71
g589
sg64
(lp596
g410
asbag57
(g78
g59
NtRp597
(dp598
g62
(dp599
g89
g90
ssg71
g589
sg64
(lp600
S':'
asbag57
(g78
g59
NtRp601
(dp602
g62
(dp603
sg71
g589
sg64
(lp604
g57
(g58
g59
NtRp605
(dp606
g62
(dp607
g70
I3
ssg71
g601
sg64
(lp608
S''
asbasbasbag57
(g73
g59
NtRp609
(dp610
g62
(dp611
sg71
g465
sg64
(lp612
g57
(g78
g59
NtRp613
(dp614
g62
(dp615
g82
g83
ssg71
g609
sg64
(lp616
g431
asbag57
(g78
g59
NtRp617
(dp618
g62
(dp619
g89
g90
ssg71
g609
sg64
(lp620
S':'
asbag57
(g78
g59
NtRp621
(dp622
g62
(dp623
sg71
g609
sg64
(lp624
g57
(g58
g59
NtRp625
(dp626
g62
(dp627
g70
I3
ssg71
g621
sg64
(lp628
S''
asbasbasbasbasbasbasbag57
(g73
g59
NtRp629
(dp630
g62
(dp631
sg71
g247
sg64
(lp632
g57
(g78
g59
NtRp633
(dp634
g62
(dp635
g82
g83
ssg71
g629
sg64
(lp636
S'session_id_topoi'
p637
asbag57
(g78
g59
NtRp638
(dp639
g62
(dp640
g89
g90
ssg71
g629
sg64
(lp641
S':'
asbag57
(g78
g59
NtRp642
(dp643
g62
(dp644
sg71
g629
sg64
(lp645
g57
(g58
g59
NtRp646
(dp647
g62
(dp648
g70
I4
ssg71
g642
sg64
(lp649
g57
(g66
g59
NtRp650
(dp651
g62
(dp652
g70
I3
ssg71
Nsg64
(lp653
g57
(g73
g59
NtRp654
(dp655
g62
(dp656
sg71
g650
sg64
(lp657
g57
(g78
g59
NtRp658
(dp659
g62
(dp660
g82
g83
ssg71
g654
sg64
(lp661
g284
asbag57
(g78
g59
NtRp662
(dp663
g62
(dp664
g89
g90
ssg71
g654
sg64
(lp665
S':'
asbag57
(g78
g59
NtRp666
(dp667
g62
(dp668
sg71
g654
sg64
(lp669
g57
(g58
g59
NtRp670
(dp671
g62
(dp672
g70
I3
ssg71
g666
sg64
(lp673
S''
asbasbasbag57
(g73
g59
NtRp674
(dp675
g62
(dp676
sg71
g650
sg64
(lp677
g57
(g78
g59
NtRp678
(dp679
g62
(dp680
g82
g83
ssg71
g674
sg64
(lp681
g305
asbag57
(g78
g59
NtRp682
(dp683
g62
(dp684
g89
g90
ssg71
g674
sg64
(lp685
S':'
asbag57
(g78
g59
NtRp686
(dp687
g62
(dp688
sg71
g674
sg64
(lp689
g57
(g58
g59
NtRp690
(dp691
g62
(dp692
g70
I3
ssg71
g686
sg64
(lp693
S''
asbasbasbag57
(g73
g59
NtRp694
(dp695
g62
(dp696
sg71
g650
sg64
(lp697
g57
(g78
g59
NtRp698
(dp699
g62
(dp700
g82
g83
ssg71
g694
sg64
(lp701
g326
asbag57
(g78
g59
NtRp702
(dp703
g62
(dp704
g89
g90
ssg71
g694
sg64
(lp705
S':'
asbag57
(g78
g59
NtRp706
(dp707
g62
(dp708
sg71
g694
sg64
(lp709
g57
(g58
g59
NtRp710
(dp711
g62
(dp712
g70
I3
ssg71
g706
sg64
(lp713
S''
asbasbasbag57
(g73
g59
NtRp714
(dp715
g62
(dp716
sg71
g650
sg64
(lp717
g57
(g78
g59
NtRp718
(dp719
g62
(dp720
g82
g83
ssg71
g714
sg64
(lp721
g347
asbag57
(g78
g59
NtRp722
(dp723
g62
(dp724
g89
g90
ssg71
g714
sg64
(lp725
S':'
asbag57
(g78
g59
NtRp726
(dp727
g62
(dp728
sg71
g714
sg64
(lp729
g57
(g58
g59
NtRp730
(dp731
g62
(dp732
g70
I3
ssg71
g726
sg64
(lp733
S''
asbasbasbag57
(g73
g59
NtRp734
(dp735
g62
(dp736
sg71
g650
sg64
(lp737
g57
(g78
g59
NtRp738
(dp739
g62
(dp740
g82
g83
ssg71
g734
sg64
(lp741
g368
asbag57
(g78
g59
NtRp742
(dp743
g62
(dp744
g89
g90
ssg71
g734
sg64
(lp745
S':'
asbag57
(g78
g59
NtRp746
(dp747
g62
(dp748
sg71
g734
sg64
(lp749
g57
(g58
g59
NtRp750
(dp751
g62
(dp752
g70
I3
ssg71
g746
sg64
(lp753
S''
asbasbasbag57
(g73
g59
NtRp754
(dp755
g62
(dp756
sg71
g650
sg64
(lp757
g57
(g78
g59
NtRp758
(dp759
g62
(dp760
g82
g83
ssg71
g754
sg64
(lp761
g389
asbag57
(g78
g59
NtRp762
(dp763
g62
(dp764
g89
g90
ssg71
g754
sg64
(lp765
S':'
asbag57
(g78
g59
NtRp766
(dp767
g62
(dp768
sg71
g754
sg64
(lp769
g57
(g58
g59
NtRp770
(dp771
g62
(dp772
g70
I3
ssg71
g766
sg64
(lp773
S''
asbasbasbag57
(g73
g59
NtRp774
(dp775
g62
(dp776
sg71
g650
sg64
(lp777
g57
(g78
g59
NtRp778
(dp779
g62
(dp780
g82
g83
ssg71
g774
sg64
(lp781
g410
asbag57
(g78
g59
NtRp782
(dp783
g62
(dp784
g89
g90
ssg71
g774
sg64
(lp785
S':'
asbag57
(g78
g59
NtRp786
(dp787
g62
(dp788
sg71
g774
sg64
(lp789
g57
(g58
g59
NtRp790
(dp791
g62
(dp792
g70
I3
ssg71
g786
sg64
(lp793
S''
asbasbasbag57
(g73
g59
NtRp794
(dp795
g62
(dp796
sg71
g650
sg64
(lp797
g57
(g78
g59
NtRp798
(dp799
g62
(dp800
g82
g83
ssg71
g794
sg64
(lp801
g431
asbag57
(g78
g59
NtRp802
(dp803
g62
(dp804
g89
g90
ssg71
g794
sg64
(lp805
S':'
asbag57
(g78
g59
NtRp806
(dp807
g62
(dp808
sg71
g794
sg64
(lp809
g57
(g58
g59
NtRp810
(dp811
g62
(dp812
g70
I3
ssg71
g806
sg64
(lp813
S''
asbasbasbasbasbasbasbag57
(g73
g59
NtRp814
(dp815
g62
(dp816
sg71
g247
sg64
(lp817
g57
(g78
g59
NtRp818
(dp819
g62
(dp820
g82
g83
ssg71
g814
sg64
(lp821
S'session_id_welcome'
p822
asbag57
(g78
g59
NtRp823
(dp824
g62
(dp825
g89
g90
ssg71
g814
sg64
(lp826
S':'
asbag57
(g78
g59
NtRp827
(dp828
g62
(dp829
sg71
g814
sg64
(lp830
g57
(g58
g59
NtRp831
(dp832
g62
(dp833
g70
I4
ssg71
g827
sg64
(lp834
g57
(g66
g59
NtRp835
(dp836
g62
(dp837
g70
I3
ssg71
Nsg64
(lp838
g57
(g73
g59
NtRp839
(dp840
g62
(dp841
sg71
g835
sg64
(lp842
g57
(g78
g59
NtRp843
(dp844
g62
(dp845
g82
g83
ssg71
g839
sg64
(lp846
g284
asbag57
(g78
g59
NtRp847
(dp848
g62
(dp849
g89
g90
ssg71
g839
sg64
(lp850
S':'
asbag57
(g78
g59
NtRp851
(dp852
g62
(dp853
sg71
g839
sg64
(lp854
g57
(g58
g59
NtRp855
(dp856
g62
(dp857
g70
I3
ssg71
g851
sg64
(lp858
S''
asbasbasbag57
(g73
g59
NtRp859
(dp860
g62
(dp861
sg71
g835
sg64
(lp862
g57
(g78
g59
NtRp863
(dp864
g62
(dp865
g82
g83
ssg71
g859
sg64
(lp866
g305
asbag57
(g78
g59
NtRp867
(dp868
g62
(dp869
g89
g90
ssg71
g859
sg64
(lp870
S':'
asbag57
(g78
g59
NtRp871
(dp872
g62
(dp873
sg71
g859
sg64
(lp874
g57
(g58
g59
NtRp875
(dp876
g62
(dp877
g70
I3
ssg71
g871
sg64
(lp878
S''
asbasbasbag57
(g73
g59
NtRp879
(dp880
g62
(dp881
sg71
g835
sg64
(lp882
g57
(g78
g59
NtRp883
(dp884
g62
(dp885
g82
g83
ssg71
g879
sg64
(lp886
g326
asbag57
(g78
g59
NtRp887
(dp888
g62
(dp889
g89
g90
ssg71
g879
sg64
(lp890
S':'
asbag57
(g78
g59
NtRp891
(dp892
g62
(dp893
sg71
g879
sg64
(lp894
g57
(g58
g59
NtRp895
(dp896
g62
(dp897
g70
I3
ssg71
g891
sg64
(lp898
S''
asbasbasbag57
(g73
g59
NtRp899
(dp900
g62
(dp901
sg71
g835
sg64
(lp902
g57
(g78
g59
NtRp903
(dp904
g62
(dp905
g82
g83
ssg71
g899
sg64
(lp906
g347
asbag57
(g78
g59
NtRp907
(dp908
g62
(dp909
g89
g90
ssg71
g899
sg64
(lp910
S':'
asbag57
(g78
g59
NtRp911
(dp912
g62
(dp913
sg71
g899
sg64
(lp914
g57
(g58
g59
NtRp915
(dp916
g62
(dp917
g70
I3
ssg71
g911
sg64
(lp918
S''
asbasbasbag57
(g73
g59
NtRp919
(dp920
g62
(dp921
sg71
g835
sg64
(lp922
g57
(g78
g59
NtRp923
(dp924
g62
(dp925
g82
g83
ssg71
g919
sg64
(lp926
g368
asbag57
(g78
g59
NtRp927
(dp928
g62
(dp929
g89
g90
ssg71
g919
sg64
(lp930
S':'
asbag57
(g78
g59
NtRp931
(dp932
g62
(dp933
sg71
g919
sg64
(lp934
g57
(g58
g59
NtRp935
(dp936
g62
(dp937
g70
I3
ssg71
g931
sg64
(lp938
S''
asbasbasbag57
(g73
g59
NtRp939
(dp940
g62
(dp941
sg71
g835
sg64
(lp942
g57
(g78
g59
NtRp943
(dp944
g62
(dp945
g82
g83
ssg71
g939
sg64
(lp946
g389
asbag57
(g78
g59
NtRp947
(dp948
g62
(dp949
g89
g90
ssg71
g939
sg64
(lp950
S':'
asbag57
(g78
g59
NtRp951
(dp952
g62
(dp953
sg71
g939
sg64
(lp954
g57
(g58
g59
NtRp955
(dp956
g62
(dp957
g70
I3
ssg71
g951
sg64
(lp958
S''
asbasbasbag57
(g73
g59
NtRp959
(dp960
g62
(dp961
sg71
g835
sg64
(lp962
g57
(g78
g59
NtRp963
(dp964
g62
(dp965
g82
g83
ssg71
g959
sg64
(lp966
g410
asbag57
(g78
g59
NtRp967
(dp968
g62
(dp969
g89
g90
ssg71
g959
sg64
(lp970
S':'
asbag57
(g78
g59
NtRp971
(dp972
g62
(dp973
sg71
g959
sg64
(lp974
g57
(g58
g59
NtRp975
(dp976
g62
(dp977
g70
I3
ssg71
g971
sg64
(lp978
S''
asbasbasbag57
(g73
g59
NtRp979
(dp980
g62
(dp981
sg71
g835
sg64
(lp982
g57
(g78
g59
NtRp983
(dp984
g62
(dp985
g82
g83
ssg71
g979
sg64
(lp986
g431
asbag57
(g78
g59
NtRp987
(dp988
g62
(dp989
g89
g90
ssg71
g979
sg64
(lp990
S':'
asbag57
(g78
g59
NtRp991
(dp992
g62
(dp993
sg71
g979
sg64
(lp994
g57
(g58
g59
NtRp995
(dp996
g62
(dp997
g70
I3
ssg71
g991
sg64
(lp998
S''
asbasbasbasbasbasbasbasbasbasbasbag57
(g73
g59
NtRp999
(dp1000
g62
(dp1001
sg71
g67
sg64
(lp1002
g57
(g78
g59
NtRp1003
(dp1004
g62
(dp1005
g82
g83
ssg71
g999
sg64
(lp1006
S'env'
p1007
asbag57
(g78
g59
NtRp1008
(dp1009
g62
(dp1010
g89
g90
ssg71
g999
sg64
(lp1011
S':'
asbag57
(g78
g59
NtRp1012
(dp1013
g62
(dp1014
sg71
g999
sg64
(lp1015
g57
(g58
g59
NtRp1016
(dp1017
g62
(dp1018
g70
I5
ssg71
g1012
sg64
(lp1019
g57
(g66
g59
NtRp1020
(dp1021
g62
(dp1022
g70
I4
ssg71
Nsg64
(lp1023
g57
(g73
g59
NtRp1024
(dp1025
g62
(dp1026
sg71
g1020
sg64
(lp1027
g57
(g78
g59
NtRp1028
(dp1029
g62
(dp1030
g82
g83
ssg71
g1024
sg64
(lp1031
S'app_folders'
p1032
asbag57
(g78
g59
NtRp1033
(dp1034
g62
(dp1035
g89
g90
ssg71
g1024
sg64
(lp1036
S':'
asbag57
(g78
g59
NtRp1037
(dp1038
g62
(dp1039
sg71
g1024
sg64
(lp1040
g57
(g58
g59
NtRp1041
(dp1042
g62
(dp1043
g70
I4
ssg71
g1037
sg64
(lp1044
S"set(['/home/ian/web2py/applications/welcome/', '/home/ian/web2py/applications/paideia/', '/home/ian/web2py/applications/admin/'])"
p1045
asbasbasbag57
(g73
g59
NtRp1046
(dp1047
g62
(dp1048
sg71
g1020
sg64
(lp1049
g57
(g78
g59
NtRp1050
(dp1051
g62
(dp1052
g82
g83
ssg71
g1046
sg64
(lp1053
S'applications_parent'
p1054
asbag57
(g78
g59
NtRp1055
(dp1056
g62
(dp1057
g89
g90
ssg71
g1046
sg64
(lp1058
S':'
asbag57
(g78
g59
NtRp1059
(dp1060
g62
(dp1061
sg71
g1046
sg64
(lp1062
g57
(g58
g59
NtRp1063
(dp1064
g62
(dp1065
g70
I4
ssg71
g1059
sg64
(lp1066
S'/home/ian/web2py'
p1067
asbasbasbag57
(g73
g59
NtRp1068
(dp1069
g62
(dp1070
sg71
g1020
sg64
(lp1071
g57
(g78
g59
NtRp1072
(dp1073
g62
(dp1074
g82
g83
ssg71
g1068
sg64
(lp1075
S'cmd_args'
p1076
asbag57
(g78
g59
NtRp1077
(dp1078
g62
(dp1079
g89
g90
ssg71
g1068
sg64
(lp1080
S':'
asbag57
(g78
g59
NtRp1081
(dp1082
g62
(dp1083
sg71
g1068
sg64
(lp1084
g57
(g58
g59
NtRp1085
(dp1086
g62
(dp1087
g70
I4
ssg71
g1081
sg64
(lp1088
g57
(g66
g59
NtRp1089
(dp1090
g62
(dp1091
g70
I3
ssg71
Nsg64
(lp1092
sbasbasbasbag57
(g73
g59
NtRp1093
(dp1094
g62
(dp1095
sg71
g1020
sg64
(lp1096
g57
(g78
g59
NtRp1097
(dp1098
g62
(dp1099
g82
g83
ssg71
g1093
sg64
(lp1100
S'cmd_options'
p1101
asbag57
(g78
g59
NtRp1102
(dp1103
g62
(dp1104
g89
g90
ssg71
g1093
sg64
(lp1105
S':'
asbag57
(g78
g59
NtRp1106
(dp1107
g62
(dp1108
sg71
g1093
sg64
(lp1109
g57
(g58
g59
NtRp1110
(dp1111
g62
(dp1112
g70
I4
ssg71
g1106
sg64
(lp1113
S"<Values at 0x2102a70: {'verbose': False, 'ip': '127.0.0.1', 'shutdown_timeout': 5, 'taskbar': False, 'nocron': False, 'pid_filename': 'httpserver.pid', 'maxthreads': None, 'softcron': False, 'server_name': 'uriel', 'bpython': False, 'nogui': False, 'port': 8000, 'extcron': False, 'debuglevel': 30, 'test': None, 'folder': '/home/ian/web2py', 'config': '', 'import_models': False, 'winservice': '', 'shell': None, 'run': '', 'log_filename': 'httpserver.log', 'args': [''], 'socket_timeout': 1, 'ssl_ca_certificate': None, 'scheduler': None, 'profiler_filename': None, 'ssl_private_key': '', 'password': '<ask>', 'request_queue_size': 5, 'ssl_certificate': '', 'cronjob': False, 'numthreads': None, 'quiet': False, 'interfaces': None, 'minthreads': None, 'timeout': 10, 'plain': False, 'nobanner': False}>"
p1114
asbasbasbag57
(g73
g59
NtRp1115
(dp1116
g62
(dp1117
sg71
g1020
sg64
(lp1118
g57
(g78
g59
NtRp1119
(dp1120
g62
(dp1121
g82
g83
ssg71
g1115
sg64
(lp1122
S'db_sessions'
p1123
asbag57
(g78
g59
NtRp1124
(dp1125
g62
(dp1126
g89
g90
ssg71
g1115
sg64
(lp1127
S':'
asbag57
(g78
g59
NtRp1128
(dp1129
g62
(dp1130
sg71
g1115
sg64
(lp1131
g57
(g58
g59
NtRp1132
(dp1133
g62
(dp1134
g70
I4
ssg71
g1128
sg64
(lp1135
S'set([])'
p1136
asbasbasbag57
(g73
g59
NtRp1137
(dp1138
g62
(dp1139
sg71
g1020
sg64
(lp1140
g57
(g78
g59
NtRp1141
(dp1142
g62
(dp1143
g82
g83
ssg71
g1137
sg64
(lp1144
S'debugging'
p1145
asbag57
(g78
g59
NtRp1146
(dp1147
g62
(dp1148
g89
g90
ssg71
g1137
sg64
(lp1149
S':'
asbag57
(g78
g59
NtRp1150
(dp1151
g62
(dp1152
sg71
g1137
sg64
(lp1153
g57
(g58
g59
NtRp1154
(dp1155
g62
(dp1156
g70
I4
ssg71
g1150
sg64
(lp1157
g100
asbasbasbag57
(g73
g59
NtRp1158
(dp1159
g62
(dp1160
sg71
g1020
sg64
(lp1161
g57
(g78
g59
NtRp1162
(dp1163
g62
(dp1164
g82
g83
ssg71
g1158
sg64
(lp1165
S'gluon_parent'
p1166
asbag57
(g78
g59
NtRp1167
(dp1168
g62
(dp1169
g89
g90
ssg71
g1158
sg64
(lp1170
S':'
asbag57
(g78
g59
NtRp1171
(dp1172
g62
(dp1173
sg71
g1158
sg64
(lp1174
g57
(g58
g59
NtRp1175
(dp1176
g62
(dp1177
g70
I4
ssg71
g1171
sg64
(lp1178
S'/home/ian/web2py'
p1179
asbasbasbag57
(g73
g59
NtRp1180
(dp1181
g62
(dp1182
sg71
g1020
sg64
(lp1183
g57
(g78
g59
NtRp1184
(dp1185
g62
(dp1186
g82
g83
ssg71
g1180
sg64
(lp1187
S'http_accept'
p1188
asbag57
(g78
g59
NtRp1189
(dp1190
g62
(dp1191
g89
g90
ssg71
g1180
sg64
(lp1192
S':'
asbag57
(g78
g59
NtRp1193
(dp1194
g62
(dp1195
sg71
g1180
sg64
(lp1196
g57
(g58
g59
NtRp1197
(dp1198
g62
(dp1199
g70
I4
ssg71
g1193
sg64
(lp1200
S'text/html,application/xhtml+xml,application/xml;q=0.9,*/*;q=0.8'
p1201
asbasbasbag57
(g73
g59
NtRp1202
(dp1203
g62
(dp1204
sg71
g1020
sg64
(lp1205
g57
(g78
g59
NtRp1206
(dp1207
g62
(dp1208
g82
g83
ssg71
g1202
sg64
(lp1209
S'http_accept_charset'
p1210
asbag57
(g78
g59
NtRp1211
(dp1212
g62
(dp1213
g89
g90
ssg71
g1202
sg64
(lp1214
S':'
asbag57
(g78
g59
NtRp1215
(dp1216
g62
(dp1217
sg71
g1202
sg64
(lp1218
g57
(g58
g59
NtRp1219
(dp1220
g62
(dp1221
g70
I4
ssg71
g1215
sg64
(lp1222
S'UTF-8,*'
p1223
asbasbasbag57
(g73
g59
NtRp1224
(dp1225
g62
(dp1226
sg71
g1020
sg64
(lp1227
g57
(g78
g59
NtRp1228
(dp1229
g62
(dp1230
g82
g83
ssg71
g1224
sg64
(lp1231
S'http_accept_encoding'
p1232
asbag57
(g78
g59
NtRp1233
(dp1234
g62
(dp1235
g89
g90
ssg71
g1224
sg64
(lp1236
S':'
asbag57
(g78
g59
NtRp1237
(dp1238
g62
(dp1239
sg71
g1224
sg64
(lp1240
g57
(g58
g59
NtRp1241
(dp1242
g62
(dp1243
g70
I4
ssg71
g1237
sg64
(lp1244
S'gzip, deflate'
p1245
asbasbasbag57
(g73
g59
NtRp1246
(dp1247
g62
(dp1248
sg71
g1020
sg64
(lp1249
g57
(g78
g59
NtRp1250
(dp1251
g62
(dp1252
g82
g83
ssg71
g1246
sg64
(lp1253
S'http_accept_language'
p1254
asbag57
(g78
g59
NtRp1255
(dp1256
g62
(dp1257
g89
g90
ssg71
g1246
sg64
(lp1258
S':'
asbag57
(g78
g59
NtRp1259
(dp1260
g62
(dp1261
sg71
g1246
sg64
(lp1262
g57
(g58
g59
NtRp1263
(dp1264
g62
(dp1265
g70
I4
ssg71
g1259
sg64
(lp1266
S'en-us,en;q=0.5'
p1267
asbasbasbag57
(g73
g59
NtRp1268
(dp1269
g62
(dp1270
sg71
g1020
sg64
(lp1271
g57
(g78
g59
NtRp1272
(dp1273
g62
(dp1274
g82
g83
ssg71
g1268
sg64
(lp1275
S'http_cache_control'
p1276
asbag57
(g78
g59
NtRp1277
(dp1278
g62
(dp1279
g89
g90
ssg71
g1268
sg64
(lp1280
S':'
asbag57
(g78
g59
NtRp1281
(dp1282
g62
(dp1283
sg71
g1268
sg64
(lp1284
g57
(g58
g59
NtRp1285
(dp1286
g62
(dp1287
g70
I4
ssg71
g1281
sg64
(lp1288
S'max-age=0'
p1289
asbasbasbag57
(g73
g59
NtRp1290
(dp1291
g62
(dp1292
sg71
g1020
sg64
(lp1293
g57
(g78
g59
NtRp1294
(dp1295
g62
(dp1296
g82
g83
ssg71
g1290
sg64
(lp1297
S'http_connection'
p1298
asbag57
(g78
g59
NtRp1299
(dp1300
g62
(dp1301
g89
g90
ssg71
g1290
sg64
(lp1302
S':'
asbag57
(g78
g59
NtRp1303
(dp1304
g62
(dp1305
sg71
g1290
sg64
(lp1306
g57
(g58
g59
NtRp1307
(dp1308
g62
(dp1309
g70
I4
ssg71
g1303
sg64
(lp1310
S'keep-alive'
p1311
asbasbasbag57
(g73
g59
NtRp1312
(dp1313
g62
(dp1314
sg71
g1020
sg64
(lp1315
g57
(g78
g59
NtRp1316
(dp1317
g62
(dp1318
g82
g83
ssg71
g1312
sg64
(lp1319
S'http_cookie'
p1320
asbag57
(g78
g59
NtRp1321
(dp1322
g62
(dp1323
g89
g90
ssg71
g1312
sg64
(lp1324
S':'
asbag57
(g78
g59
NtRp1325
(dp1326
g62
(dp1327
sg71
g1312
sg64
(lp1328
g57
(g58
g59
NtRp1329
(dp1330
g62
(dp1331
g70
I4
ssg71
g1325
sg64
(lp1332
S'session_id_paideia=127.0.0.1-26fbb861-2ba5-4c09-9362-c3a45f2c5fe2; session_id_welcome=127.0.0.1-3d74dcac-0e82-452e-8ee7-4a7d3b0689f4; session_id_topoi=127.0.0.1-fbfd7fa3-57f5-4d42-8f08-594178070e93; session_id_admin=127.0.0.1-82b37cff-79b6-466f-9717-cf2f25d60dbe'
p1333
asbasbasbag57
(g73
g59
NtRp1334
(dp1335
g62
(dp1336
sg71
g1020
sg64
(lp1337
g57
(g78
g59
NtRp1338
(dp1339
g62
(dp1340
g82
g83
ssg71
g1334
sg64
(lp1341
S'http_host'
p1342
asbag57
(g78
g59
NtRp1343
(dp1344
g62
(dp1345
g89
g90
ssg71
g1334
sg64
(lp1346
S':'
asbag57
(g78
g59
NtRp1347
(dp1348
g62
(dp1349
sg71
g1334
sg64
(lp1350
g57
(g58
g59
NtRp1351
(dp1352
g62
(dp1353
g70
I4
ssg71
g1347
sg64
(lp1354
S'127.0.0.1:8000'
p1355
asbasbasbag57
(g73
g59
NtRp1356
(dp1357
g62
(dp1358
sg71
g1020
sg64
(lp1359
g57
(g78
g59
NtRp1360
(dp1361
g62
(dp1362
g82
g83
ssg71
g1356
sg64
(lp1363
S'http_referer'
p1364
asbag57
(g78
g59
NtRp1365
(dp1366
g62
(dp1367
g89
g90
ssg71
g1356
sg64
(lp1368
S':'
asbag57
(g78
g59
NtRp1369
(dp1370
g62
(dp1371
sg71
g1356
sg64
(lp1372
g57
(g58
g59
NtRp1373
(dp1374
g62
(dp1375
g70
I4
ssg71
g1369
sg64
(lp1376
S'http://127.0.0.1:8000/paideia/'
p1377
asbasbasbag57
(g73
g59
NtRp1378
(dp1379
g62
(dp1380
sg71
g1020
sg64
(lp1381
g57
(g78
g59
NtRp1382
(dp1383
g62
(dp1384
g82
g83
ssg71
g1378
sg64
(lp1385
S'http_user_agent'
p1386
asbag57
(g78
g59
NtRp1387
(dp1388
g62
(dp1389
g89
g90
ssg71
g1378
sg64
(lp1390
S':'
asbag57
(g78
g59
NtRp1391
(dp1392
g62
(dp1393
sg71
g1378
sg64
(lp1394
g57
(g58
g59
NtRp1395
(dp1396
g62
(dp1397
g70
I4
ssg71
g1391
sg64
(lp1398
S'Mozilla/5.0 (Ubuntu; X11; Linux x86_64; rv:9.0.1) Gecko/20100101 Firefox/9.0.1'
p1399
asbasbasbag57
(g73
g59
NtRp1400
(dp1401
g62
(dp1402
sg71
g1020
sg64
(lp1403
g57
(g78
g59
NtRp1404
(dp1405
g62
(dp1406
g82
g83
ssg71
g1400
sg64
(lp1407
S'is_jython'
p1408
asbag57
(g78
g59
NtRp1409
(dp1410
g62
(dp1411
g89
g90
ssg71
g1400
sg64
(lp1412
S':'
asbag57
(g78
g59
NtRp1413
(dp1414
g62
(dp1415
sg71
g1400
sg64
(lp1416
g57
(g58
g59
NtRp1417
(dp1418
g62
(dp1419
g70
I4
ssg71
g1413
sg64
(lp1420
g100
asbasbasbag57
(g73
g59
NtRp1421
(dp1422
g62
(dp1423
sg71
g1020
sg64
(lp1424
g57
(g78
g59
NtRp1425
(dp1426
g62
(dp1427
g82
g83
ssg71
g1421
sg64
(lp1428
S'is_pypy'
p1429
asbag57
(g78
g59
NtRp1430
(dp1431
g62
(dp1432
g89
g90
ssg71
g1421
sg64
(lp1433
S':'
asbag57
(g78
g59
NtRp1434
(dp1435
g62
(dp1436
sg71
g1421
sg64
(lp1437
g57
(g58
g59
NtRp1438
(dp1439
g62
(dp1440
g70
I4
ssg71
g1434
sg64
(lp1441
g100
asbasbasbag57
(g73
g59
NtRp1442
(dp1443
g62
(dp1444
sg71
g1020
sg64
(lp1445
g57
(g78
g59
NtRp1446
(dp1447
g62
(dp1448
g82
g83
ssg71
g1442
sg64
(lp1449
S'path_info'
p1450
asbag57
(g78
g59
NtRp1451
(dp1452
g62
(dp1453
g89
g90
ssg71
g1442
sg64
(lp1454
S':'
asbag57
(g78
g59
NtRp1455
(dp1456
g62
(dp1457
sg71
g1442
sg64
(lp1458
g57
(g58
g59
NtRp1459
(dp1460
g62
(dp1461
g70
I4
ssg71
g1455
sg64
(lp1462
S'/paideia/default/user/profile'
p1463
asbasbasbag57
(g73
g59
NtRp1464
(dp1465
g62
(dp1466
sg71
g1020
sg64
(lp1467
g57
(g78
g59
NtRp1468
(dp1469
g62
(dp1470
g82
g83
ssg71
g1464
sg64
(lp1471
S'query_string'
p1472
asbag57
(g78
g59
NtRp1473
(dp1474
g62
(dp1475
g89
g90
ssg71
g1464
sg64
(lp1476
S':'
asbag57
(g78
g59
NtRp1477
(dp1478
g62
(dp1479
sg71
g1464
sg64
(lp1480
g57
(g58
g59
NtRp1481
(dp1482
g62
(dp1483
g70
I4
ssg71
g1477
sg64
(lp1484
S'_next=/paideia/default/index'
p1485
asbasbasbag57
(g73
g59
NtRp1486
(dp1487
g62
(dp1488
sg71
g1020
sg64
(lp1489
g57
(g78
g59
NtRp1490
(dp1491
g62
(dp1492
g82
g83
ssg71
g1486
sg64
(lp1493
S'remote_addr'
p1494
asbag57
(g78
g59
NtRp1495
(dp1496
g62
(dp1497
g89
g90
ssg71
g1486
sg64
(lp1498
S':'
asbag57
(g78
g59
NtRp1499
(dp1500
g62
(dp1501
sg71
g1486
sg64
(lp1502
g57
(g58
g59
NtRp1503
(dp1504
g62
(dp1505
g70
I4
ssg71
g1499
sg64
(lp1506
g203
asbasbasbag57
(g73
g59
NtRp1507
(dp1508
g62
(dp1509
sg71
g1020
sg64
(lp1510
g57
(g78
g59
NtRp1511
(dp1512
g62
(dp1513
g82
g83
ssg71
g1507
sg64
(lp1514
S'remote_port'
p1515
asbag57
(g78
g59
NtRp1516
(dp1517
g62
(dp1518
g89
g90
ssg71
g1507
sg64
(lp1519
S':'
asbag57
(g78
g59
NtRp1520
(dp1521
g62
(dp1522
sg71
g1507
sg64
(lp1523
g57
(g58
g59
NtRp1524
(dp1525
g62
(dp1526
g70
I4
ssg71
g1520
sg64
(lp1527
S'46611'
p1528
asbasbasbag57
(g73
g59
NtRp1529
(dp1530
g62
(dp1531
sg71
g1020
sg64
(lp1532
g57
(g78
g59
NtRp1533
(dp1534
g62
(dp1535
g82
g83
ssg71
g1529
sg64
(lp1536
S'request_method'
p1537
asbag57
(g78
g59
NtRp1538
(dp1539
g62
(dp1540
g89
g90
ssg71
g1529
sg64
(lp1541
S':'
asbag57
(g78
g59
NtRp1542
(dp1543
g62
(dp1544
sg71
g1529
sg64
(lp1545
g57
(g58
g59
NtRp1546
(dp1547
g62
(dp1548
g70
I4
ssg71
g1542
sg64
(lp1549
S'GET'
p1550
asbasbasbag57
(g73
g59
NtRp1551
(dp1552
g62
(dp1553
sg71
g1020
sg64
(lp1554
g57
(g78
g59
NtRp1555
(dp1556
g62
(dp1557
g82
g83
ssg71
g1551
sg64
(lp1558
S'script_name'
p1559
asbag57
(g78
g59
NtRp1560
(dp1561
g62
(dp1562
g89
g90
ssg71
g1551
sg64
(lp1563
S':'
asbag57
(g78
g59
NtRp1564
(dp1565
g62
(dp1566
sg71
g1551
sg64
(lp1567
g57
(g58
g59
NtRp1568
(dp1569
g62
(dp1570
g70
I4
ssg71
g1564
sg64
(lp1571
S''
asbasbasbag57
(g73
g59
NtRp1572
(dp1573
g62
(dp1574
sg71
g1020
sg64
(lp1575
g57
(g78
g59
NtRp1576
(dp1577
g62
(dp1578
g82
g83
ssg71
g1572
sg64
(lp1579
S'server_name'
p1580
asbag57
(g78
g59
NtRp1581
(dp1582
g62
(dp1583
g89
g90
ssg71
g1572
sg64
(lp1584
S':'
asbag57
(g78
g59
NtRp1585
(dp1586
g62
(dp1587
sg71
g1572
sg64
(lp1588
g57
(g58
g59
NtRp1589
(dp1590
g62
(dp1591
g70
I4
ssg71
g1585
sg64
(lp1592
S'uriel'
p1593
asbasbasbag57
(g73
g59
NtRp1594
(dp1595
g62
(dp1596
sg71
g1020
sg64
(lp1597
g57
(g78
g59
NtRp1598
(dp1599
g62
(dp1600
g82
g83
ssg71
g1594
sg64
(lp1601
S'server_port'
p1602
asbag57
(g78
g59
NtRp1603
(dp1604
g62
(dp1605
g89
g90
ssg71
g1594
sg64
(lp1606
S':'
asbag57
(g78
g59
NtRp1607
(dp1608
g62
(dp1609
sg71
g1594
sg64
(lp1610
g57
(g58
g59
NtRp1611
(dp1612
g62
(dp1613
g70
I4
ssg71
g1607
sg64
(lp1614
S'8000'
p1615
asbasbasbag57
(g73
g59
NtRp1616
(dp1617
g62
(dp1618
sg71
g1020
sg64
(lp1619
g57
(g78
g59
NtRp1620
(dp1621
g62
(dp1622
g82
g83
ssg71
g1616
sg64
(lp1623
S'server_protocol'
p1624
asbag57
(g78
g59
NtRp1625
(dp1626
g62
(dp1627
g89
g90
ssg71
g1616
sg64
(lp1628
S':'
asbag57
(g78
g59
NtRp1629
(dp1630
g62
(dp1631
sg71
g1616
sg64
(lp1632
g57
(g58
g59
NtRp1633
(dp1634
g62
(dp1635
g70
I4
ssg71
g1629
sg64
(lp1636
S'HTTP/1.1'
p1637
asbasbasbag57
(g73
g59
NtRp1638
(dp1639
g62
(dp1640
sg71
g1020
sg64
(lp1641
g57
(g78
g59
NtRp1642
(dp1643
g62
(dp1644
g82
g83
ssg71
g1638
sg64
(lp1645
S'server_software'
p1646
asbag57
(g78
g59
NtRp1647
(dp1648
g62
(dp1649
g89
g90
ssg71
g1638
sg64
(lp1650
S':'
asbag57
(g78
g59
NtRp1651
(dp1652
g62
(dp1653
sg71
g1638
sg64
(lp1654
g57
(g58
g59
NtRp1655
(dp1656
g62
(dp1657
g70
I4
ssg71
g1651
sg64
(lp1658
S'Rocket 1.2.4'
p1659
asbasbasbag57
(g73
g59
NtRp1660
(dp1661
g62
(dp1662
sg71
g1020
sg64
(lp1663
g57
(g78
g59
NtRp1664
(dp1665
g62
(dp1666
g82
g83
ssg71
g1660
sg64
(lp1667
S'web2py_crontype'
p1668
asbag57
(g78
g59
NtRp1669
(dp1670
g62
(dp1671
g89
g90
ssg71
g1660
sg64
(lp1672
S':'
asbag57
(g78
g59
NtRp1673
(dp1674
g62
(dp1675
sg71
g1660
sg64
(lp1676
g57
(g58
g59
NtRp1677
(dp1678
g62
(dp1679
g70
I4
ssg71
g1673
sg64
(lp1680
S'hard'
p1681
asbasbasbag57
(g73
g59
NtRp1682
(dp1683
g62
(dp1684
sg71
g1020
sg64
(lp1685
g57
(g78
g59
NtRp1686
(dp1687
g62
(dp1688
g82
g83
ssg71
g1682
sg64
(lp1689
S'web2py_path'
p1690
asbag57
(g78
g59
NtRp1691
(dp1692
g62
(dp1693
g89
g90
ssg71
g1682
sg64
(lp1694
S':'
asbag57
(g78
g59
NtRp1695
(dp1696
g62
(dp1697
sg71
g1682
sg64
(lp1698
g57
(g58
g59
NtRp1699
(dp1700
g62
(dp1701
g70
I4
ssg71
g1695
sg64
(lp1702
g1067
asbasbasbag57
(g73
g59
NtRp1703
(dp1704
g62
(dp1705
sg71
g1020
sg64
(lp1706
g57
(g78
g59
NtRp1707
(dp1708
g62
(dp1709
g82
g83
ssg71
g1703
sg64
(lp1710
S'web2py_version'
p1711
asbag57
(g78
g59
NtRp1712
(dp1713
g62
(dp1714
g89
g90
ssg71
g1703
sg64
(lp1715
S':'
asbag57
(g78
g59
NtRp1716
(dp1717
g62
(dp1718
sg71
g1703
sg64
(lp1719
g57
(g58
g59
NtRp1720
(dp1721
g62
(dp1722
g70
I4
ssg71
g1716
sg64
(lp1723
g57
(g66
g59
NtRp1724
(dp1725
g62
(dp1726
g70
I3
ssg71
Nsg64
(lp1727
g57
(g73
g59
NtRp1728
(dp1729
g62
(dp1730
sg71
g1724
sg64
(lp1731
g57
(g78
g59
NtRp1732
(dp1733
g62
(dp1734
sg71
g1728
sg64
(lp1735
g57
(g58
g59
NtRp1736
(dp1737
g62
(dp1738
g70
I3
ssg71
g1732
sg64
(lp1739
S'1'
asbasbasbag57
(g73
g59
NtRp1740
(dp1741
g62
(dp1742
sg71
g1724
sg64
(lp1743
g57
(g78
g59
NtRp1744
(dp1745
g62
(dp1746
sg71
g1740
sg64
(lp1747
g57
(g58
g59
NtRp1748
(dp1749
g62
(dp1750
g70
I3
ssg71
g1744
sg64
(lp1751
S'99'
p1752
asbasbasbag57
(g73
g59
NtRp1753
(dp1754
g62
(dp1755
sg71
g1724
sg64
(lp1756
g57
(g78
g59
NtRp1757
(dp1758
g62
(dp1759
sg71
g1753
sg64
(lp1760
g57
(g58
g59
NtRp1761
(dp1762
g62
(dp1763
g70
I3
ssg71
g1757
sg64
(lp1764
S'4'
asbasbasbag57
(g73
g59
NtRp1765
(dp1766
g62
(dp1767
sg71
g1724
sg64
(lp1768
g57
(g78
g59
NtRp1769
(dp1770
g62
(dp1771
sg71
g1765
sg64
(lp1772
g57
(g58
g59
NtRp1773
(dp1774
g62
(dp1775
g70
I3
ssg71
g1769
sg64
(lp1776
S'datetime.datetime(2011, 12, 14, 14, 46, 14)'
p1777
asbasbasbag57
(g73
g59
NtRp1778
(dp1779
g62
(dp1780
sg71
g1724
sg64
(lp1781
g57
(g78
g59
NtRp1782
(dp1783
g62
(dp1784
sg71
g1778
sg64
(lp1785
g57
(g58
g59
NtRp1786
(dp1787
g62
(dp1788
g70
I3
ssg71
g1782
sg64
(lp1789
S'stable'
p1790
asbasbasbasbasbasbasbag57
(g73
g59
NtRp1791
(dp1792
g62
(dp1793
sg71
g1020
sg64
(lp1794
g57
(g78
g59
NtRp1795
(dp1796
g62
(dp1797
g82
g83
ssg71
g1791
sg64
(lp1798
S'wsgi_errors'
p1799
asbag57
(g78
g59
NtRp1800
(dp1801
g62
(dp1802
g89
g90
ssg71
g1791
sg64
(lp1803
S':'
asbag57
(g78
g59
NtRp1804
(dp1805
g62
(dp1806
sg71
g1791
sg64
(lp1807
g57
(g58
g59
NtRp1808
(dp1809
g62
(dp1810
g70
I4
ssg71
g1804
sg64
(lp1811
S"<open file '<stderr>', mode 'w' at 0x7f9014619270>"
p1812
asbasbasbag57
(g73
g59
NtRp1813
(dp1814
g62
(dp1815
sg71
g1020
sg64
(lp1816
g57
(g78
g59
NtRp1817
(dp1818
g62
(dp1819
g82
g83
ssg71
g1813
sg64
(lp1820
S'wsgi_file_wrapper'
p1821
asbag57
(g78
g59
NtRp1822
(dp1823
g62
(dp1824
g89
g90
ssg71
g1813
sg64
(lp1825
S':'
asbag57
(g78
g59
NtRp1826
(dp1827
g62
(dp1828
sg71
g1813
sg64
(lp1829
g57
(g58
g59
NtRp1830
(dp1831
g62
(dp1832
g70
I4
ssg71
g1826
sg64
(lp1833
S'<class wsgiref.util.FileWrapper at 0x1fbfce8>'
p1834
asbasbasbag57
(g73
g59
NtRp1835
(dp1836
g62
(dp1837
sg71
g1020
sg64
(lp1838
g57
(g78
g59
NtRp1839
(dp1840
g62
(dp1841
g82
g83
ssg71
g1835
sg64
(lp1842
S'wsgi_input'
p1843
asbag57
(g78
g59
NtRp1844
(dp1845
g62
(dp1846
g89
g90
ssg71
g1835
sg64
(lp1847
S':'
asbag57
(g78
g59
NtRp1848
(dp1849
g62
(dp1850
sg71
g1835
sg64
(lp1851
g57
(g58
g59
NtRp1852
(dp1853
g62
(dp1854
g70
I4
ssg71
g1848
sg64
(lp1855
S'<socket._fileobject object at 0x2d6ef50>'
p1856
asbasbasbag57
(g73
g59
NtRp1857
(dp1858
g62
(dp1859
sg71
g1020
sg64
(lp1860
g57
(g78
g59
NtRp1861
(dp1862
g62
(dp1863
g82
g83
ssg71
g1857
sg64
(lp1864
S'wsgi_multiprocess'
p1865
asbag57
(g78
g59
NtRp1866
(dp1867
g62
(dp1868
g89
g90
ssg71
g1857
sg64
(lp1869
S':'
asbag57
(g78
g59
NtRp1870
(dp1871
g62
(dp1872
sg71
g1857
sg64
(lp1873
g57
(g58
g59
NtRp1874
(dp1875
g62
(dp1876
g70
I4
ssg71
g1870
sg64
(lp1877
g100
asbasbasbag57
(g73
g59
NtRp1878
(dp1879
g62
(dp1880
sg71
g1020
sg64
(lp1881
g57
(g78
g59
NtRp1882
(dp1883
g62
(dp1884
g82
g83
ssg71
g1878
sg64
(lp1885
S'wsgi_multithread'
p1886
asbag57
(g78
g59
NtRp1887
(dp1888
g62
(dp1889
g89
g90
ssg71
g1878
sg64
(lp1890
S':'
asbag57
(g78
g59
NtRp1891
(dp1892
g62
(dp1893
sg71
g1878
sg64
(lp1894
g57
(g58
g59
NtRp1895
(dp1896
g62
(dp1897
g70
I4
ssg71
g1891
sg64
(lp1898
S'True'
p1899
asbasbasbag57
(g73
g59
NtRp1900
(dp1901
g62
(dp1902
sg71
g1020
sg64
(lp1903
g57
(g78
g59
NtRp1904
(dp1905
g62
(dp1906
g82
g83
ssg71
g1900
sg64
(lp1907
S'wsgi_run_once'
p1908
asbag57
(g78
g59
NtRp1909
(dp1910
g62
(dp1911
g89
g90
ssg71
g1900
sg64
(lp1912
S':'
asbag57
(g78
g59
NtRp1913
(dp1914
g62
(dp1915
sg71
g1900
sg64
(lp1916
g57
(g58
g59
NtRp1917
(dp1918
g62
(dp1919
g70
I4
ssg71
g1913
sg64
(lp1920
g100
asbasbasbag57
(g73
g59
NtRp1921
(dp1922
g62
(dp1923
sg71
g1020
sg64
(lp1924
g57
(g78
g59
NtRp1925
(dp1926
g62
(dp1927
g82
g83
ssg71
g1921
sg64
(lp1928
S'wsgi_url_scheme'
p1929
asbag57
(g78
g59
NtRp1930
(dp1931
g62
(dp1932
g89
g90
ssg71
g1921
sg64
(lp1933
S':'
asbag57
(g78
g59
NtRp1934
(dp1935
g62
(dp1936
sg71
g1921
sg64
(lp1937
g57
(g58
g59
NtRp1938
(dp1939
g62
(dp1940
g70
I4
ssg71
g1934
sg64
(lp1941
S'http'
p1942
asbasbasbag57
(g73
g59
NtRp1943
(dp1944
g62
(dp1945
sg71
g1020
sg64
(lp1946
g57
(g78
g59
NtRp1947
(dp1948
g62
(dp1949
g82
g83
ssg71
g1943
sg64
(lp1950
S'wsgi_version'
p1951
asbag57
(g78
g59
NtRp1952
(dp1953
g62
(dp1954
g89
g90
ssg71
g1943
sg64
(lp1955
S':'
asbag57
(g78
g59
NtRp1956
(dp1957
g62
(dp1958
sg71
g1943
sg64
(lp1959
g57
(g58
g59
NtRp1960
(dp1961
g62
(dp1962
g70
I4
ssg71
g1956
sg64
(lp1963
g57
(g66
g59
NtRp1964
(dp1965
g62
(dp1966
g70
I3
ssg71
Nsg64
(lp1967
g57
(g73
g59
NtRp1968
(dp1969
g62
(dp1970
sg71
g1964
sg64
(lp1971
g57
(g78
g59
NtRp1972
(dp1973
g62
(dp1974
sg71
g1968
sg64
(lp1975
g57
(g58
g59
NtRp1976
(dp1977
g62
(dp1978
g70
I3
ssg71
g1972
sg64
(lp1979
S'1'
asbasbasbag57
(g73
g59
NtRp1980
(dp1981
g62
(dp1982
sg71
g1964
sg64
(lp1983
g57
(g78
g59
NtRp1984
(dp1985
g62
(dp1986
sg71
g1980
sg64
(lp1987
g57
(g58
g59
NtRp1988
(dp1989
g62
(dp1990
g70
I3
ssg71
g1984
sg64
(lp1991
S'0'
asbasbasbasbasbasbasbasbasbasbasbag57
(g73
g59
NtRp1992
(dp1993
g62
(dp1994
sg71
g67
sg64
(lp1995
g57
(g78
g59
NtRp1996
(dp1997
g62
(dp1998
g82
g83
ssg71
g1992
sg64
(lp1999
S'extension'
p2000
asbag57
(g78
g59
NtRp2001
(dp2002
g62
(dp2003
g89
g90
ssg71
g1992
sg64
(lp2004
S':'
asbag57
(g78
g59
NtRp2005
(dp2006
g62
(dp2007
sg71
g1992
sg64
(lp2008
g57
(g58
g59
NtRp2009
(dp2010
g62
(dp2011
g70
I5
ssg71
g2005
sg64
(lp2012
S'html'
p2013
asbasbasbag57
(g73
g59
NtRp2014
(dp2015
g62
(dp2016
sg71
g67
sg64
(lp2017
g57
(g78
g59
NtRp2018
(dp2019
g62
(dp2020
g82
g83
ssg71
g2014
sg64
(lp2021
S'folder'
p2022
asbag57
(g78
g59
NtRp2023
(dp2024
g62
(dp2025
g89
g90
ssg71
g2014
sg64
(lp2026
S':'
asbag57
(g78
g59
NtRp2027
(dp2028
g62
(dp2029
sg71
g2014
sg64
(lp2030
g57
(g58
g59
NtRp2031
(dp2032
g62
(dp2033
g70
I5
ssg71
g2027
sg64
(lp2034
S'/home/ian/web2py/applications/paideia/'
p2035
asbasbasbag57
(g73
g59
NtRp2036
(dp2037
g62
(dp2038
sg71
g67
sg64
(lp2039
g57
(g78
g59
NtRp2040
(dp2041
g62
(dp2042
g82
g83
ssg71
g2036
sg64
(lp2043
S'function'
p2044
asbag57
(g78
g59
NtRp2045
(dp2046
g62
(dp2047
g89
g90
ssg71
g2036
sg64
(lp2048
S':'
asbag57
(g78
g59
NtRp2049
(dp2050
g62
(dp2051
sg71
g2036
sg64
(lp2052
g57
(g58
g59
NtRp2053
(dp2054
g62
(dp2055
g70
I5
ssg71
g2049
sg64
(lp2056
S'user'
p2057
asbasbasbag57
(g73
g59
NtRp2058
(dp2059
g62
(dp2060
sg71
g67
sg64
(lp2061
g57
(g78
g59
NtRp2062
(dp2063
g62
(dp2064
g82
g83
ssg71
g2058
sg64
(lp2065
S'get_vars'
p2066
asbag57
(g78
g59
NtRp2067
(dp2068
g62
(dp2069
g89
g90
ssg71
g2058
sg64
(lp2070
S':'
asbag57
(g78
g59
NtRp2071
(dp2072
g62
(dp2073
sg71
g2058
sg64
(lp2074
g57
(g58
g59
NtRp2075
(dp2076
g62
(dp2077
g70
I5
ssg71
g2071
sg64
(lp2078
g57
(g66
g59
NtRp2079
(dp2080
g62
(dp2081
g70
I4
ssg71
Nsg64
(lp2082
sbasbasbasbag57
(g73
g59
NtRp2083
(dp2084
g62
(dp2085
sg71
g67
sg64
(lp2086
g57
(g78
g59
NtRp2087
(dp2088
g62
(dp2089
g82
g83
ssg71
g2083
sg64
(lp2090
S'global_settings'
p2091
asbag57
(g78
g59
NtRp2092
(dp2093
g62
(dp2094
g89
g90
ssg71
g2083
sg64
(lp2095
S':'
asbag57
(g78
g59
NtRp2096
(dp2097
g62
(dp2098
sg71
g2083
sg64
(lp2099
g57
(g58
g59
NtRp2100
(dp2101
g62
(dp2102
g70
I5
ssg71
g2096
sg64
(lp2103
g57
(g66
g59
NtRp2104
(dp2105
g62
(dp2106
g70
I4
ssg71
Nsg64
(lp2107
g57
(g73
g59
NtRp2108
(dp2109
g62
(dp2110
sg71
g2104
sg64
(lp2111
g57
(g78
g59
NtRp2112
(dp2113
g62
(dp2114
g82
g83
ssg71
g2108
sg64
(lp2115
g1032
asbag57
(g78
g59
NtRp2116
(dp2117
g62
(dp2118
g89
g90
ssg71
g2108
sg64
(lp2119
S':'
asbag57
(g78
g59
NtRp2120
(dp2121
g62
(dp2122
sg71
g2108
sg64
(lp2123
g57
(g58
g59
NtRp2124
(dp2125
g62
(dp2126
g70
I4
ssg71
g2120
sg64
(lp2127
S"set(['/home/ian/web2py/applications/welcome/', '/home/ian/web2py/applications/paideia/', '/home/ian/web2py/applications/admin/'])"
p2128
asbasbasbag57
(g73
g59
NtRp2129
(dp2130
g62
(dp2131
sg71
g2104
sg64
(lp2132
g57
(g78
g59
NtRp2133
(dp2134
g62
(dp2135
g82
g83
ssg71
g2129
sg64
(lp2136
g1054
asbag57
(g78
g59
NtRp2137
(dp2138
g62
(dp2139
g89
g90
ssg71
g2129
sg64
(lp2140
S':'
asbag57
(g78
g59
NtRp2141
(dp2142
g62
(dp2143
sg71
g2129
sg64
(lp2144
g57
(g58
g59
NtRp2145
(dp2146
g62
(dp2147
g70
I4
ssg71
g2141
sg64
(lp2148
g1067
asbasbasbag57
(g73
g59
NtRp2149
(dp2150
g62
(dp2151
sg71
g2104
sg64
(lp2152
g57
(g78
g59
NtRp2153
(dp2154
g62
(dp2155
g82
g83
ssg71
g2149
sg64
(lp2156
g1076
asbag57
(g78
g59
NtRp2157
(dp2158
g62
(dp2159
g89
g90
ssg71
g2149
sg64
(lp2160
S':'
asbag57
(g78
g59
NtRp2161
(dp2162
g62
(dp2163
sg71
g2149
sg64
(lp2164
g57
(g58
g59
NtRp2165
(dp2166
g62
(dp2167
g70
I4
ssg71
g2161
sg64
(lp2168
g57
(g66
g59
NtRp2169
(dp2170
g62
(dp2171
g70
I3
ssg71
Nsg64
(lp2172
sbasbasbasbag57
(g73
g59
NtRp2173
(dp2174
g62
(dp2175
sg71
g2104
sg64
(lp2176
g57
(g78
g59
NtRp2177
(dp2178
g62
(dp2179
g82
g83
ssg71
g2173
sg64
(lp2180
g1101
asbag57
(g78
g59
NtRp2181
(dp2182
g62
(dp2183
g89
g90
ssg71
g2173
sg64
(lp2184
S':'
asbag57
(g78
g59
NtRp2185
(dp2186
g62
(dp2187
sg71
g2173
sg64
(lp2188
g57
(g58
g59
NtRp2189
(dp2190
g62
(dp2191
g70
I4
ssg71
g2185
sg64
(lp2192
S"<Values at 0x2102a70: {'verbose': False, 'ip': '127.0.0.1', 'shutdown_timeout': 5, 'taskbar': False, 'nocron': False, 'pid_filename': 'httpserver.pid', 'maxthreads': None, 'softcron': False, 'server_name': 'uriel', 'bpython': False, 'nogui': False, 'port': 8000, 'extcron': False, 'debuglevel': 30, 'test': None, 'folder': '/home/ian/web2py', 'config': '', 'import_models': False, 'winservice': '', 'shell': None, 'run': '', 'log_filename': 'httpserver.log', 'args': [''], 'socket_timeout': 1, 'ssl_ca_certificate': None, 'scheduler': None, 'profiler_filename': None, 'ssl_private_key': '', 'password': '<ask>', 'request_queue_size': 5, 'ssl_certificate': '', 'cronjob': False, 'numthreads': None, 'quiet': False, 'interfaces': None, 'minthreads': None, 'timeout': 10, 'plain': False, 'nobanner': False}>"
p2193
asbasbasbag57
(g73
g59
NtRp2194
(dp2195
g62
(dp2196
sg71
g2104
sg64
(lp2197
g57
(g78
g59
NtRp2198
(dp2199
g62
(dp2200
g82
g83
ssg71
g2194
sg64
(lp2201
g1123
asbag57
(g78
g59
NtRp2202
(dp2203
g62
(dp2204
g89
g90
ssg71
g2194
sg64
(lp2205
S':'
asbag57
(g78
g59
NtRp2206
(dp2207
g62
(dp2208
sg71
g2194
sg64
(lp2209
g57
(g58
g59
NtRp2210
(dp2211
g62
(dp2212
g70
I4
ssg71
g2206
sg64
(lp2213
S'set([])'
p2214
asbasbasbag57
(g73
g59
NtRp2215
(dp2216
g62
(dp2217
sg71
g2104
sg64
(lp2218
g57
(g78
g59
NtRp2219
(dp2220
g62
(dp2221
g82
g83
ssg71
g2215
sg64
(lp2222
g1145
asbag57
(g78
g59
NtRp2223
(dp2224
g62
(dp2225
g89
g90
ssg71
g2215
sg64
(lp2226
S':'
asbag57
(g78
g59
NtRp2227
(dp2228
g62
(dp2229
sg71
g2215
sg64
(lp2230
g57
(g58
g59
NtRp2231
(dp2232
g62
(dp2233
g70
I4
ssg71
g2227
sg64
(lp2234
g100
asbasbasbag57
(g73
g59
NtRp2235
(dp2236
g62
(dp2237
sg71
g2104
sg64
(lp2238
g57
(g78
g59
NtRp2239
(dp2240
g62
(dp2241
g82
g83
ssg71
g2235
sg64
(lp2242
g1166
asbag57
(g78
g59
NtRp2243
(dp2244
g62
(dp2245
g89
g90
ssg71
g2235
sg64
(lp2246
S':'
asbag57
(g78
g59
NtRp2247
(dp2248
g62
(dp2249
sg71
g2235
sg64
(lp2250
g57
(g58
g59
NtRp2251
(dp2252
g62
(dp2253
g70
I4
ssg71
g2247
sg64
(lp2254
g1179
asbasbasbag57
(g73
g59
NtRp2255
(dp2256
g62
(dp2257
sg71
g2104
sg64
(lp2258
g57
(g78
g59
NtRp2259
(dp2260
g62
(dp2261
g82
g83
ssg71
g2255
sg64
(lp2262
g1408
asbag57
(g78
g59
NtRp2263
(dp2264
g62
(dp2265
g89
g90
ssg71
g2255
sg64
(lp2266
S':'
asbag57
(g78
g59
NtRp2267
(dp2268
g62
(dp2269
sg71
g2255
sg64
(lp2270
g57
(g58
g59
NtRp2271
(dp2272
g62
(dp2273
g70
I4
ssg71
g2267
sg64
(lp2274
g100
asbasbasbag57
(g73
g59
NtRp2275
(dp2276
g62
(dp2277
sg71
g2104
sg64
(lp2278
g57
(g78
g59
NtRp2279
(dp2280
g62
(dp2281
g82
g83
ssg71
g2275
sg64
(lp2282
g1429
asbag57
(g78
g59
NtRp2283
(dp2284
g62
(dp2285
g89
g90
ssg71
g2275
sg64
(lp2286
S':'
asbag57
(g78
g59
NtRp2287
(dp2288
g62
(dp2289
sg71
g2275
sg64
(lp2290
g57
(g58
g59
NtRp2291
(dp2292
g62
(dp2293
g70
I4
ssg71
g2287
sg64
(lp2294
g100
asbasbasbag57
(g73
g59
NtRp2295
(dp2296
g62
(dp2297
sg71
g2104
sg64
(lp2298
g57
(g78
g59
NtRp2299
(dp2300
g62
(dp2301
g82
g83
ssg71
g2295
sg64
(lp2302
g1668
asbag57
(g78
g59
NtRp2303
(dp2304
g62
(dp2305
g89
g90
ssg71
g2295
sg64
(lp2306
S':'
asbag57
(g78
g59
NtRp2307
(dp2308
g62
(dp2309
sg71
g2295
sg64
(lp2310
g57
(g58
g59
NtRp2311
(dp2312
g62
(dp2313
g70
I4
ssg71
g2307
sg64
(lp2314
g1681
asbasbasbag57
(g73
g59
NtRp2315
(dp2316
g62
(dp2317
sg71
g2104
sg64
(lp2318
g57
(g78
g59
NtRp2319
(dp2320
g62
(dp2321
g82
g83
ssg71
g2315
sg64
(lp2322
g1711
asbag57
(g78
g59
NtRp2323
(dp2324
g62
(dp2325
g89
g90
ssg71
g2315
sg64
(lp2326
S':'
asbag57
(g78
g59
NtRp2327
(dp2328
g62
(dp2329
sg71
g2315
sg64
(lp2330
g57
(g58
g59
NtRp2331
(dp2332
g62
(dp2333
g70
I4
ssg71
g2327
sg64
(lp2334
g57
(g66
g59
NtRp2335
(dp2336
g62
(dp2337
g70
I3
ssg71
Nsg64
(lp2338
g57
(g73
g59
NtRp2339
(dp2340
g62
(dp2341
sg71
g2335
sg64
(lp2342
g57
(g78
g59
NtRp2343
(dp2344
g62
(dp2345
sg71
g2339
sg64
(lp2346
g57
(g58
g59
NtRp2347
(dp2348
g62
(dp2349
g70
I3
ssg71
g2343
sg64
(lp2350
S'1'
asbasbasbag57
(g73
g59
NtRp2351
(dp2352
g62
(dp2353
sg71
g2335
sg64
(lp2354
g57
(g78
g59
NtRp2355
(dp2356
g62
(dp2357
sg71
g2351
sg64
(lp2358
g57
(g58
g59
NtRp2359
(dp2360
g62
(dp2361
g70
I3
ssg71
g2355
sg64
(lp2362
S'99'
p2363
asbasbasbag57
(g73
g59
NtRp2364
(dp2365
g62
(dp2366
sg71
g2335
sg64
(lp2367
g57
(g78
g59
NtRp2368
(dp2369
g62
(dp2370
sg71
g2364
sg64
(lp2371
g57
(g58
g59
NtRp2372
(dp2373
g62
(dp2374
g70
I3
ssg71
g2368
sg64
(lp2375
S'4'
asbasbasbag57
(g73
g59
NtRp2376
(dp2377
g62
(dp2378
sg71
g2335
sg64
(lp2379
g57
(g78
g59
NtRp2380
(dp2381
g62
(dp2382
sg71
g2376
sg64
(lp2383
g57
(g58
g59
NtRp2384
(dp2385
g62
(dp2386
g70
I3
ssg71
g2380
sg64
(lp2387
S'datetime.datetime(2011, 12, 14, 14, 46, 14)'
p2388
asbasbasbag57
(g73
g59
NtRp2389
(dp2390
g62
(dp2391
sg71
g2335
sg64
(lp2392
g57
(g78
g59
NtRp2393
(dp2394
g62
(dp2395
sg71
g2389
sg64
(lp2396
g57
(g58
g59
NtRp2397
(dp2398
g62
(dp2399
g70
I3
ssg71
g2393
sg64
(lp2400
g1790
asbasbasbasbasbasbasbasbasbasbasbag57
(g73
g59
NtRp2401
(dp2402
g62
(dp2403
sg71
g67
sg64
(lp2404
g57
(g78
g59
NtRp2405
(dp2406
g62
(dp2407
g82
g83
ssg71
g2401
sg64
(lp2408
S'is_https'
p2409
asbag57
(g78
g59
NtRp2410
(dp2411
g62
(dp2412
g89
g90
ssg71
g2401
sg64
(lp2413
S':'
asbag57
(g78
g59
NtRp2414
(dp2415
g62
(dp2416
sg71
g2401
sg64
(lp2417
g57
(g58
g59
NtRp2418
(dp2419
g62
(dp2420
g70
I5
ssg71
g2414
sg64
(lp2421
g100
asbasbasbag57
(g73
g59
NtRp2422
(dp2423
g62
(dp2424
sg71
g67
sg64
(lp2425
g57
(g78
g59
NtRp2426
(dp2427
g62
(dp2428
g82
g83
ssg71
g2422
sg64
(lp2429
S'is_local'
p2430
asbag57
(g78
g59
NtRp2431
(dp2432
g62
(dp2433
g89
g90
ssg71
g2422
sg64
(lp2434
S':'
asbag57
(g78
g59
NtRp2435
(dp2436
g62
(dp2437
sg71
g2422
sg64
(lp2438
g57
(g58
g59
NtRp2439
(dp2440
g62
(dp2441
g70
I5
ssg71
g2435
sg64
(lp2442
g1899
asbasbasbag57
(g73
g59
NtRp2443
(dp2444
g62
(dp2445
sg71
g67
sg64
(lp2446
g57
(g78
g59
NtRp2447
(dp2448
g62
(dp2449
g82
g83
ssg71
g2443
sg64
(lp2450
S'is_restful'
p2451
asbag57
(g78
g59
NtRp2452
(dp2453
g62
(dp2454
g89
g90
ssg71
g2443
sg64
(lp2455
S':'
asbag57
(g78
g59
NtRp2456
(dp2457
g62
(dp2458
sg71
g2443
sg64
(lp2459
g57
(g58
g59
NtRp2460
(dp2461
g62
(dp2462
g70
I5
ssg71
g2456
sg64
(lp2463
g100
asbasbasbag57
(g73
g59
NtRp2464
(dp2465
g62
(dp2466
sg71
g67
sg64
(lp2467
g57
(g78
g59
NtRp2468
(dp2469
g62
(dp2470
g82
g83
ssg71
g2464
sg64
(lp2471
S'now'
p2472
asbag57
(g78
g59
NtRp2473
(dp2474
g62
(dp2475
g89
g90
ssg71
g2464
sg64
(lp2476
S':'
asbag57
(g78
g59
NtRp2477
(dp2478
g62
(dp2479
sg71
g2464
sg64
(lp2480
g57
(g58
g59
NtRp2481
(dp2482
g62
(dp2483
g70
I5
ssg71
g2477
sg64
(lp2484
S'datetime.datetime(2012, 1, 18, 17, 16, 53, 967154)'
p2485
asbasbasbag57
(g73
g59
NtRp2486
(dp2487
g62
(dp2488
sg71
g67
sg64
(lp2489
g57
(g78
g59
NtRp2490
(dp2491
g62
(dp2492
g82
g83
ssg71
g2486
sg64
(lp2493
S'post_vars'
p2494
asbag57
(g78
g59
NtRp2495
(dp2496
g62
(dp2497
g89
g90
ssg71
g2486
sg64
(lp2498
S':'
asbag57
(g78
g59
NtRp2499
(dp2500
g62
(dp2501
sg71
g2486
sg64
(lp2502
g57
(g58
g59
NtRp2503
(dp2504
g62
(dp2505
g70
I5
ssg71
g2499
sg64
(lp2506
g57
(g66
g59
NtRp2507
(dp2508
g62
(dp2509
g70
I4
ssg71
Nsg64
(lp2510
sbasbasbasbag57
(g73
g59
NtRp2511
(dp2512
g62
(dp2513
sg71
g67
sg64
(lp2514
g57
(g78
g59
NtRp2515
(dp2516
g62
(dp2517
g82
g83
ssg71
g2511
sg64
(lp2518
S'raw_args'
p2519
asbag57
(g78
g59
NtRp2520
(dp2521
g62
(dp2522
g89
g90
ssg71
g2511
sg64
(lp2523
S':'
asbag57
(g78
g59
NtRp2524
(dp2525
g62
(dp2526
sg71
g2511
sg64
(lp2527
g57
(g58
g59
NtRp2528
(dp2529
g62
(dp2530
g70
I5
ssg71
g2524
sg64
(lp2531
g159
asbasbasbag57
(g73
g59
NtRp2532
(dp2533
g62
(dp2534
sg71
g67
sg64
(lp2535
g57
(g78
g59
NtRp2536
(dp2537
g62
(dp2538
g82
g83
ssg71
g2532
sg64
(lp2539
S'url'
p2540
asbag57
(g78
g59
NtRp2541
(dp2542
g62
(dp2543
g89
g90
ssg71
g2532
sg64
(lp2544
S':'
asbag57
(g78
g59
NtRp2545
(dp2546
g62
(dp2547
sg71
g2532
sg64
(lp2548
g57
(g58
g59
NtRp2549
(dp2550
g62
(dp2551
g70
I5
ssg71
g2545
sg64
(lp2552
S'/paideia/default/user/profile'
p2553
asbasbasbag57
(g73
g59
NtRp2554
(dp2555
g62
(dp2556
sg71
g67
sg64
(lp2557
g57
(g78
g59
NtRp2558
(dp2559
g62
(dp2560
g82
g83
ssg71
g2554
sg64
(lp2561
S'utcnow'
p2562
asbag57
(g78
g59
NtRp2563
(dp2564
g62
(dp2565
g89
g90
ssg71
g2554
sg64
(lp2566
S':'
asbag57
(g78
g59
NtRp2567
(dp2568
g62
(dp2569
sg71
g2554
sg64
(lp2570
g57
(g58
g59
NtRp2571
(dp2572
g62
(dp2573
g70
I5
ssg71
g2567
sg64
(lp2574
S'datetime.datetime(2012, 1, 18, 22, 16, 53, 967197)'
p2575
asbasbasbag57
(g73
g59
NtRp2576
(dp2577
g62
(dp2578
sg71
g67
sg64
(lp2579
g57
(g78
g59
NtRp2580
(dp2581
g62
(dp2582
g82
g83
ssg71
g2576
sg64
(lp2583
S'uuid'
p2584
asbag57
(g78
g59
NtRp2585
(dp2586
g62
(dp2587
g89
g90
ssg71
g2576
sg64
(lp2588
S':'
asbag57
(g78
g59
NtRp2589
(dp2590
g62
(dp2591
sg71
g2576
sg64
(lp2592
g57
(g58
g59
NtRp2593
(dp2594
g62
(dp2595
g70
I5
ssg71
g2589
sg64
(lp2596
S'paideia/127.0.0.1.2012-01-18.17-16-53.ffb89c0a-b58a-4156-9172-b0dd4ca7f914'
p2597
asbasbasbag57
(g73
g59
NtRp2598
(dp2599
g62
(dp2600
sg71
g67
sg64
(lp2601
g57
(g78
g59
NtRp2602
(dp2603
g62
(dp2604
g82
g83
ssg71
g2598
sg64
(lp2605
S'vars'
p2606
asbag57
(g78
g59
NtRp2607
(dp2608
g62
(dp2609
g89
g90
ssg71
g2598
sg64
(lp2610
S':'
asbag57
(g78
g59
NtRp2611
(dp2612
g62
(dp2613
sg71
g2598
sg64
(lp2614
g57
(g58
g59
NtRp2615
(dp2616
g62
(dp2617
g70
I5
ssg71
g2611
sg64
(lp2618
g57
(g66
g59
NtRp2619
(dp2620
g62
(dp2621
g70
I4
ssg71
Nsg64
(lp2622
sbasbasbasbag57
(g73
g59
NtRp2623
(dp2624
g62
(dp2625
sg71
g67
sg64
(lp2626
g57
(g78
g59
NtRp2627
(dp2628
g62
(dp2629
g82
g83
ssg71
g2623
sg64
(lp2630
S'wsgi'
p2631
asbag57
(g78
g59
NtRp2632
(dp2633
g62
(dp2634
g89
g90
ssg71
g2623
sg64
(lp2635
S':'
asbag57
(g78
g59
NtRp2636
(dp2637
g62
(dp2638
sg71
g2623
sg64
(lp2639
g57
(g58
g59
NtRp2640
(dp2641
g62
(dp2642
g70
I5
ssg71
g2636
sg64
(lp2643
g57
(g66
g59
NtRp2644
(dp2645
g62
(dp2646
g70
I4
ssg71
Nsg64
(lp2647
g57
(g73
g59
NtRp2648
(dp2649
g62
(dp2650
sg71
g2644
sg64
(lp2651
g57
(g78
g59
NtRp2652
(dp2653
g62
(dp2654
g82
g83
ssg71
g2648
sg64
(lp2655
S'environ'
p2656
asbag57
(g78
g59
NtRp2657
(dp2658
g62
(dp2659
g89
g90
ssg71
g2648
sg64
(lp2660
S':'
asbag57
(g78
g59
NtRp2661
(dp2662
g62
(dp2663
sg71
g2648
sg64
(lp2664
g57
(g58
g59
NtRp2665
(dp2666
g62
(dp2667
g70
I4
ssg71
g2661
sg64
(lp2668
g57
(g66
g59
NtRp2669
(dp2670
g62
(dp2671
g70
I3
ssg71
Nsg64
(lp2672
g57
(g73
g59
NtRp2673
(dp2674
g62
(dp2675
sg71
g2669
sg64
(lp2676
g57
(g78
g59
NtRp2677
(dp2678
g62
(dp2679
g82
g83
ssg71
g2673
sg64
(lp2680
S'HTTP_ACCEPT'
p2681
asbag57
(g78
g59
NtRp2682
(dp2683
g62
(dp2684
g89
g90
ssg71
g2673
sg64
(lp2685
S':'
asbag57
(g78
g59
NtRp2686
(dp2687
g62
(dp2688
sg71
g2673
sg64
(lp2689
g57
(g58
g59
NtRp2690
(dp2691
g62
(dp2692
g70
I3
ssg71
g2686
sg64
(lp2693
g1201
asbasbasbag57
(g73
g59
NtRp2694
(dp2695
g62
(dp2696
sg71
g2669
sg64
(lp2697
g57
(g78
g59
NtRp2698
(dp2699
g62
(dp2700
g82
g83
ssg71
g2694
sg64
(lp2701
S'HTTP_ACCEPT_CHARSET'
p2702
asbag57
(g78
g59
NtRp2703
(dp2704
g62
(dp2705
g89
g90
ssg71
g2694
sg64
(lp2706
S':'
asbag57
(g78
g59
NtRp2707
(dp2708
g62
(dp2709
sg71
g2694
sg64
(lp2710
g57
(g58
g59
NtRp2711
(dp2712
g62
(dp2713
g70
I3
ssg71
g2707
sg64
(lp2714
g1223
asbasbasbag57
(g73
g59
NtRp2715
(dp2716
g62
(dp2717
sg71
g2669
sg64
(lp2718
g57
(g78
g59
NtRp2719
(dp2720
g62
(dp2721
g82
g83
ssg71
g2715
sg64
(lp2722
S'HTTP_ACCEPT_ENCODING'
p2723
asbag57
(g78
g59
NtRp2724
(dp2725
g62
(dp2726
g89
g90
ssg71
g2715
sg64
(lp2727
S':'
asbag57
(g78
g59
NtRp2728
(dp2729
g62
(dp2730
sg71
g2715
sg64
(lp2731
g57
(g58
g59
NtRp2732
(dp2733
g62
(dp2734
g70
I3
ssg71
g2728
sg64
(lp2735
g1245
asbasbasbag57
(g73
g59
NtRp2736
(dp2737
g62
(dp2738
sg71
g2669
sg64
(lp2739
g57
(g78
g59
NtRp2740
(dp2741
g62
(dp2742
g82
g83
ssg71
g2736
sg64
(lp2743
S'HTTP_ACCEPT_LANGUAGE'
p2744
asbag57
(g78
g59
NtRp2745
(dp2746
g62
(dp2747
g89
g90
ssg71
g2736
sg64
(lp2748
S':'
asbag57
(g78
g59
NtRp2749
(dp2750
g62
(dp2751
sg71
g2736
sg64
(lp2752
g57
(g58
g59
NtRp2753
(dp2754
g62
(dp2755
g70
I3
ssg71
g2749
sg64
(lp2756
g1267
asbasbasbag57
(g73
g59
NtRp2757
(dp2758
g62
(dp2759
sg71
g2669
sg64
(lp2760
g57
(g78
g59
NtRp2761
(dp2762
g62
(dp2763
g82
g83
ssg71
g2757
sg64
(lp2764
S'HTTP_CACHE_CONTROL'
p2765
asbag57
(g78
g59
NtRp2766
(dp2767
g62
(dp2768
g89
g90
ssg71
g2757
sg64
(lp2769
S':'
asbag57
(g78
g59
NtRp2770
(dp2771
g62
(dp2772
sg71
g2757
sg64
(lp2773
g57
(g58
g59
NtRp2774
(dp2775
g62
(dp2776
g70
I3
ssg71
g2770
sg64
(lp2777
g1289
asbasbasbag57
(g73
g59
NtRp2778
(dp2779
g62
(dp2780
sg71
g2669
sg64
(lp2781
g57
(g78
g59
NtRp2782
(dp2783
g62
(dp2784
g82
g83
ssg71
g2778
sg64
(lp2785
S'HTTP_CONNECTION'
p2786
asbag57
(g78
g59
NtRp2787
(dp2788
g62
(dp2789
g89
g90
ssg71
g2778
sg64
(lp2790
S':'
asbag57
(g78
g59
NtRp2791
(dp2792
g62
(dp2793
sg71
g2778
sg64
(lp2794
g57
(g58
g59
NtRp2795
(dp2796
g62
(dp2797
g70
I3
ssg71
g2791
sg64
(lp2798
g1311
asbasbasbag57
(g73
g59
NtRp2799
(dp2800
g62
(dp2801
sg71
g2669
sg64
(lp2802
g57
(g78
g59
NtRp2803
(dp2804
g62
(dp2805
g82
g83
ssg71
g2799
sg64
(lp2806
S'HTTP_COOKIE'
p2807
asbag57
(g78
g59
NtRp2808
(dp2809
g62
(dp2810
g89
g90
ssg71
g2799
sg64
(lp2811
S':'
asbag57
(g78
g59
NtRp2812
(dp2813
g62
(dp2814
sg71
g2799
sg64
(lp2815
g57
(g58
g59
NtRp2816
(dp2817
g62
(dp2818
g70
I3
ssg71
g2812
sg64
(lp2819
g1333
asbasbasbag57
(g73
g59
NtRp2820
(dp2821
g62
(dp2822
sg71
g2669
sg64
(lp2823
g57
(g78
g59
NtRp2824
(dp2825
g62
(dp2826
g82
g83
ssg71
g2820
sg64
(lp2827
S'HTTP_HOST'
p2828
asbag57
(g78
g59
NtRp2829
(dp2830
g62
(dp2831
g89
g90
ssg71
g2820
sg64
(lp2832
S':'
asbag57
(g78
g59
NtRp2833
(dp2834
g62
(dp2835
sg71
g2820
sg64
(lp2836
g57
(g58
g59
NtRp2837
(dp2838
g62
(dp2839
g70
I3
ssg71
g2833
sg64
(lp2840
g1355
asbasbasbag57
(g73
g59
NtRp2841
(dp2842
g62
(dp2843
sg71
g2669
sg64
(lp2844
g57
(g78
g59
NtRp2845
(dp2846
g62
(dp2847
g82
g83
ssg71
g2841
sg64
(lp2848
S'HTTP_REFERER'
p2849
asbag57
(g78
g59
NtRp2850
(dp2851
g62
(dp2852
g89
g90
ssg71
g2841
sg64
(lp2853
S':'
asbag57
(g78
g59
NtRp2854
(dp2855
g62
(dp2856
sg71
g2841
sg64
(lp2857
g57
(g58
g59
NtRp2858
(dp2859
g62
(dp2860
g70
I3
ssg71
g2854
sg64
(lp2861
g1377
asbasbasbag57
(g73
g59
NtRp2862
(dp2863
g62
(dp2864
sg71
g2669
sg64
(lp2865
g57
(g78
g59
NtRp2866
(dp2867
g62
(dp2868
g82
g83
ssg71
g2862
sg64
(lp2869
S'HTTP_USER_AGENT'
p2870
asbag57
(g78
g59
NtRp2871
(dp2872
g62
(dp2873
g89
g90
ssg71
g2862
sg64
(lp2874
S':'
asbag57
(g78
g59
NtRp2875
(dp2876
g62
(dp2877
sg71
g2862
sg64
(lp2878
g57
(g58
g59
NtRp2879
(dp2880
g62
(dp2881
g70
I3
ssg71
g2875
sg64
(lp2882
g1399
asbasbasbag57
(g73
g59
NtRp2883
(dp2884
g62
(dp2885
sg71
g2669
sg64
(lp2886
g57
(g78
g59
NtRp2887
(dp2888
g62
(dp2889
g82
g83
ssg71
g2883
sg64
(lp2890
S'PATH_INFO'
p2891
asbag57
(g78
g59
NtRp2892
(dp2893
g62
(dp2894
g89
g90
ssg71
g2883
sg64
(lp2895
S':'
asbag57
(g78
g59
NtRp2896
(dp2897
g62
(dp2898
sg71
g2883
sg64
(lp2899
g57
(g58
g59
NtRp2900
(dp2901
g62
(dp2902
g70
I3
ssg71
g2896
sg64
(lp2903
g1463
asbasbasbag57
(g73
g59
NtRp2904
(dp2905
g62
(dp2906
sg71
g2669
sg64
(lp2907
g57
(g78
g59
NtRp2908
(dp2909
g62
(dp2910
g82
g83
ssg71
g2904
sg64
(lp2911
S'QUERY_STRING'
p2912
asbag57
(g78
g59
NtRp2913
(dp2914
g62
(dp2915
g89
g90
ssg71
g2904
sg64
(lp2916
S':'
asbag57
(g78
g59
NtRp2917
(dp2918
g62
(dp2919
sg71
g2904
sg64
(lp2920
g57
(g58
g59
NtRp2921
(dp2922
g62
(dp2923
g70
I3
ssg71
g2917
sg64
(lp2924
g1485
asbasbasbag57
(g73
g59
NtRp2925
(dp2926
g62
(dp2927
sg71
g2669
sg64
(lp2928
g57
(g78
g59
NtRp2929
(dp2930
g62
(dp2931
g82
g83
ssg71
g2925
sg64
(lp2932
S'REMOTE_ADDR'
p2933
asbag57
(g78
g59
NtRp2934
(dp2935
g62
(dp2936
g89
g90
ssg71
g2925
sg64
(lp2937
S':'
asbag57
(g78
g59
NtRp2938
(dp2939
g62
(dp2940
sg71
g2925
sg64
(lp2941
g57
(g58
g59
NtRp2942
(dp2943
g62
(dp2944
g70
I3
ssg71
g2938
sg64
(lp2945
g203
asbasbasbag57
(g73
g59
NtRp2946
(dp2947
g62
(dp2948
sg71
g2669
sg64
(lp2949
g57
(g78
g59
NtRp2950
(dp2951
g62
(dp2952
g82
g83
ssg71
g2946
sg64
(lp2953
S'REMOTE_PORT'
p2954
asbag57
(g78
g59
NtRp2955
(dp2956
g62
(dp2957
g89
g90
ssg71
g2946
sg64
(lp2958
S':'
asbag57
(g78
g59
NtRp2959
(dp2960
g62
(dp2961
sg71
g2946
sg64
(lp2962
g57
(g58
g59
NtRp2963
(dp2964
g62
(dp2965
g70
I3
ssg71
g2959
sg64
(lp2966
g1528
asbasbasbag57
(g73
g59
NtRp2967
(dp2968
g62
(dp2969
sg71
g2669
sg64
(lp2970
g57
(g78
g59
NtRp2971
(dp2972
g62
(dp2973
g82
g83
ssg71
g2967
sg64
(lp2974
S'REQUEST_METHOD'
p2975
asbag57
(g78
g59
NtRp2976
(dp2977
g62
(dp2978
g89
g90
ssg71
g2967
sg64
(lp2979
S':'
asbag57
(g78
g59
NtRp2980
(dp2981
g62
(dp2982
sg71
g2967
sg64
(lp2983
g57
(g58
g59
NtRp2984
(dp2985
g62
(dp2986
g70
I3
ssg71
g2980
sg64
(lp2987
g1550
asbasbasbag57
(g73
g59
NtRp2988
(dp2989
g62
(dp2990
sg71
g2669
sg64
(lp2991
g57
(g78
g59
NtRp2992
(dp2993
g62
(dp2994
g82
g83
ssg71
g2988
sg64
(lp2995
S'SCRIPT_NAME'
p2996
asbag57
(g78
g59
NtRp2997
(dp2998
g62
(dp2999
g89
g90
ssg71
g2988
sg64
(lp3000
S':'
asbag57
(g78
g59
NtRp3001
(dp3002
g62
(dp3003
sg71
g2988
sg64
(lp3004
g57
(g58
g59
NtRp3005
(dp3006
g62
(dp3007
g70
I3
ssg71
g3001
sg64
(lp3008
S''
asbasbasbag57
(g73
g59
NtRp3009
(dp3010
g62
(dp3011
sg71
g2669
sg64
(lp3012
g57
(g78
g59
NtRp3013
(dp3014
g62
(dp3015
g82
g83
ssg71
g3009
sg64
(lp3016
S'SERVER_NAME'
p3017
asbag57
(g78
g59
NtRp3018
(dp3019
g62
(dp3020
g89
g90
ssg71
g3009
sg64
(lp3021
S':'
asbag57
(g78
g59
NtRp3022
(dp3023
g62
(dp3024
sg71
g3009
sg64
(lp3025
g57
(g58
g59
NtRp3026
(dp3027
g62
(dp3028
g70
I3
ssg71
g3022
sg64
(lp3029
g1593
asbasbasbag57
(g73
g59
NtRp3030
(dp3031
g62
(dp3032
sg71
g2669
sg64
(lp3033
g57
(g78
g59
NtRp3034
(dp3035
g62
(dp3036
g82
g83
ssg71
g3030
sg64
(lp3037
S'SERVER_PORT'
p3038
asbag57
(g78
g59
NtRp3039
(dp3040
g62
(dp3041
g89
g90
ssg71
g3030
sg64
(lp3042
S':'
asbag57
(g78
g59
NtRp3043
(dp3044
g62
(dp3045
sg71
g3030
sg64
(lp3046
g57
(g58
g59
NtRp3047
(dp3048
g62
(dp3049
g70
I3
ssg71
g3043
sg64
(lp3050
g1615
asbasbasbag57
(g73
g59
NtRp3051
(dp3052
g62
(dp3053
sg71
g2669
sg64
(lp3054
g57
(g78
g59
NtRp3055
(dp3056
g62
(dp3057
g82
g83
ssg71
g3051
sg64
(lp3058
S'SERVER_PROTOCOL'
p3059
asbag57
(g78
g59
NtRp3060
(dp3061
g62
(dp3062
g89
g90
ssg71
g3051
sg64
(lp3063
S':'
asbag57
(g78
g59
NtRp3064
(dp3065
g62
(dp3066
sg71
g3051
sg64
(lp3067
g57
(g58
g59
NtRp3068
(dp3069
g62
(dp3070
g70
I3
ssg71
g3064
sg64
(lp3071
g1637
asbasbasbag57
(g73
g59
NtRp3072
(dp3073
g62
(dp3074
sg71
g2669
sg64
(lp3075
g57
(g78
g59
NtRp3076
(dp3077
g62
(dp3078
g82
g83
ssg71
g3072
sg64
(lp3079
S'SERVER_SOFTWARE'
p3080
asbag57
(g78
g59
NtRp3081
(dp3082
g62
(dp3083
g89
g90
ssg71
g3072
sg64
(lp3084
S':'
asbag57
(g78
g59
NtRp3085
(dp3086
g62
(dp3087
sg71
g3072
sg64
(lp3088
g57
(g58
g59
NtRp3089
(dp3090
g62
(dp3091
g70
I3
ssg71
g3085
sg64
(lp3092
g1659
asbasbasbag57
(g73
g59
NtRp3093
(dp3094
g62
(dp3095
sg71
g2669
sg64
(lp3096
g57
(g78
g59
NtRp3097
(dp3098
g62
(dp3099
g82
g83
ssg71
g3093
sg64
(lp3100
S'wsgi.errors'
p3101
asbag57
(g78
g59
NtRp3102
(dp3103
g62
(dp3104
g89
g90
ssg71
g3093
sg64
(lp3105
S':'
asbag57
(g78
g59
NtRp3106
(dp3107
g62
(dp3108
sg71
g3093
sg64
(lp3109
g57
(g58
g59
NtRp3110
(dp3111
g62
(dp3112
g70
I3
ssg71
g3106
sg64
(lp3113
S"<open file '<stderr>', mode 'w' at 0x7f9014619270>"
p3114
asbasbasbag57
(g73
g59
NtRp3115
(dp3116
g62
(dp3117
sg71
g2669
sg64
(lp3118
g57
(g78
g59
NtRp3119
(dp3120
g62
(dp3121
g82
g83
ssg71
g3115
sg64
(lp3122
S'wsgi.file_wrapper'
p3123
asbag57
(g78
g59
NtRp3124
(dp3125
g62
(dp3126
g89
g90
ssg71
g3115
sg64
(lp3127
S':'
asbag57
(g78
g59
NtRp3128
(dp3129
g62
(dp3130
sg71
g3115
sg64
(lp3131
g57
(g58
g59
NtRp3132
(dp3133
g62
(dp3134
g70
I3
ssg71
g3128
sg64
(lp3135
S'<class wsgiref.util.FileWrapper at 0x1fbfce8>'
p3136
asbasbasbag57
(g73
g59
NtRp3137
(dp3138
g62
(dp3139
sg71
g2669
sg64
(lp3140
g57
(g78
g59
NtRp3141
(dp3142
g62
(dp3143
g82
g83
ssg71
g3137
sg64
(lp3144
S'wsgi.input'
p3145
asbag57
(g78
g59
NtRp3146
(dp3147
g62
(dp3148
g89
g90
ssg71
g3137
sg64
(lp3149
S':'
asbag57
(g78
g59
NtRp3150
(dp3151
g62
(dp3152
sg71
g3137
sg64
(lp3153
g57
(g58
g59
NtRp3154
(dp3155
g62
(dp3156
g70
I3
ssg71
g3150
sg64
(lp3157
S'<cStringIO.StringO object at 0x2d78f80>'
p3158
asbasbasbag57
(g73
g59
NtRp3159
(dp3160
g62
(dp3161
sg71
g2669
sg64
(lp3162
g57
(g78
g59
NtRp3163
(dp3164
g62
(dp3165
g82
g83
ssg71
g3159
sg64
(lp3166
S'wsgi.multiprocess'
p3167
asbag57
(g78
g59
NtRp3168
(dp3169
g62
(dp3170
g89
g90
ssg71
g3159
sg64
(lp3171
S':'
asbag57
(g78
g59
NtRp3172
(dp3173
g62
(dp3174
sg71
g3159
sg64
(lp3175
g57
(g58
g59
NtRp3176
(dp3177
g62
(dp3178
g70
I3
ssg71
g3172
sg64
(lp3179
g100
asbasbasbag57
(g73
g59
NtRp3180
(dp3181
g62
(dp3182
sg71
g2669
sg64
(lp3183
g57
(g78
g59
NtRp3184
(dp3185
g62
(dp3186
g82
g83
ssg71
g3180
sg64
(lp3187
S'wsgi.multithread'
p3188
asbag57
(g78
g59
NtRp3189
(dp3190
g62
(dp3191
g89
g90
ssg71
g3180
sg64
(lp3192
S':'
asbag57
(g78
g59
NtRp3193
(dp3194
g62
(dp3195
sg71
g3180
sg64
(lp3196
g57
(g58
g59
NtRp3197
(dp3198
g62
(dp3199
g70
I3
ssg71
g3193
sg64
(lp3200
g1899
asbasbasbag57
(g73
g59
NtRp3201
(dp3202
g62
(dp3203
sg71
g2669
sg64
(lp3204
g57
(g78
g59
NtRp3205
(dp3206
g62
(dp3207
g82
g83
ssg71
g3201
sg64
(lp3208
S'wsgi.run_once'
p3209
asbag57
(g78
g59
NtRp3210
(dp3211
g62
(dp3212
g89
g90
ssg71
g3201
sg64
(lp3213
S':'
asbag57
(g78
g59
NtRp3214
(dp3215
g62
(dp3216
sg71
g3201
sg64
(lp3217
g57
(g58
g59
NtRp3218
(dp3219
g62
(dp3220
g70
I3
ssg71
g3214
sg64
(lp3221
g100
asbasbasbag57
(g73
g59
NtRp3222
(dp3223
g62
(dp3224
sg71
g2669
sg64
(lp3225
g57
(g78
g59
NtRp3226
(dp3227
g62
(dp3228
g82
g83
ssg71
g3222
sg64
(lp3229
S'wsgi.url_scheme'
p3230
asbag57
(g78
g59
NtRp3231
(dp3232
g62
(dp3233
g89
g90
ssg71
g3222
sg64
(lp3234
S':'
asbag57
(g78
g59
NtRp3235
(dp3236
g62
(dp3237
sg71
g3222
sg64
(lp3238
g57
(g58
g59
NtRp3239
(dp3240
g62
(dp3241
g70
I3
ssg71
g3235
sg64
(lp3242
g1942
asbasbasbag57
(g73
g59
NtRp3243
(dp3244
g62
(dp3245
sg71
g2669
sg64
(lp3246
g57
(g78
g59
NtRp3247
(dp3248
g62
(dp3249
g82
g83
ssg71
g3243
sg64
(lp3250
S'wsgi.version'
p3251
asbag57
(g78
g59
NtRp3252
(dp3253
g62
(dp3254
g89
g90
ssg71
g3243
sg64
(lp3255
S':'
asbag57
(g78
g59
NtRp3256
(dp3257
g62
(dp3258
sg71
g3243
sg64
(lp3259
g57
(g58
g59
NtRp3260
(dp3261
g62
(dp3262
g70
I3
ssg71
g3256
sg64
(lp3263
S'1'
asbasbasbasbasbasbasbasbasbasbasbasbasbsS'frames'
p3264
(lp3265
(dp3266
S'file'
p3267
S'/home/ian/web2py/gluon/restricted.py'
p3268
sS'dump'
p3269
(dp3270
S'environment'
p3271
S"{'A': <class 'gluon.html.A'>, 'Auth': <class 'gluon.tools.Auth'>, 'B': <class 'gluon.html.B'>, 'BEAUTIFY': <class 'gluon.html.BEAUTIFY'>, 'BODY': <class 'gluon.html.BODY'>, 'BR': <class 'gluon.html.BR'>, 'BUTTON': <class 'gluon.html.BUTTON'>, 'CAT': <class 'gluon.html.CAT'>, 'CENTER': <class 'gluon.html.CENTER'>, 'CLEANUP': <class 'gluon.validators.CLEANUP'>, ...}"
p3272
sS'ccode'
p3273
S'<code object <module> at 0x31f0430, file "/home/...ications/paideia/controllers/default.py", line 3>'
p3274
ssS'lnum'
p3275
I204
sS'lines'
p3276
(dp3277
I199
S'    try:'
p3278
sI200
S'        if type(code) == types.CodeType:'
p3279
sI201
S'            ccode = code'
p3280
sI202
S'        else:'
p3281
sI203
S'            ccode = compile2(code,layer)'
p3282
sI204
S'        exec ccode in environment'
p3283
sI205
S'    except HTTP:'
p3284
sI206
S'        raise'
p3285
sI207
S'    except RestrictedError:'
p3286
sI208
S'        # do not encapsulate (obfuscate) the original RestrictedError'
p3287
ssS'call'
p3288
S"(code='# -*- coding: utf-8 -*-\\n\\nimport datetime\\n\\nif 0:\\n... message)\\n\\nresponse._vars=response._caller(user)\\n', environment={'A': <class 'gluon.html.A'>, 'Auth': <class 'gluon.tools.Auth'>, 'B': <class 'gluon.html.B'>, 'BEAUTIFY': <class 'gluon.html.BEAUTIFY'>, 'BODY': <class 'gluon.html.BODY'>, 'BR': <class 'gluon.html.BR'>, 'BUTTON': <class 'gluon.html.BUTTON'>, 'CAT': <class 'gluon.html.CAT'>, 'CENTER': <class 'gluon.html.CENTER'>, 'CLEANUP': <class 'gluon.validators.CLEANUP'>, ...}, layer='/home/ian/web2py/applications/paideia/controllers/default.py')"
p3289
sS'func'
p3290
S'restricted'
p3291
sa(dp3292
g3267
S'/home/ian/web2py/applications/paideia/controllers/default.py'
p3293
sg3269
(dp3294
S'paideia_stats'
p3295
S'undefined'
p3296
sS'paideia_weeklycount'
p3297
g3296
sS'paideia_timestats'
p3298
g3296
ssg3275
I13
sg3276
(dp3299
I8
S'    from gluon.dal import DAL'
p3300
sI9
S'    db = DAL()'
p3301
sI10
S'    auth = Auth()'
p3302
sI11
S'    response, session, request, T = current.response, current.session, current.request, current.T'
p3303
sI12
S''
sI13
S'from paideia_stats import paideia_stats, paideia_timestats, paideia_weeklycount'
p3304
sI14
S'from paideia_bugs import *'
p3305
sI15
S''
sI16
S''
sI17
S'def index():'
p3306
ssg3288
S'()'
p3307
sg3290
S'<module>'
p3308
sa(dp3309
g3267
S'/home/ian/web2py/gluon/custom_import.py'
p3310
sg3269
(dp3311
S'fromlist'
p3312
S"('paideia_stats', 'paideia_timestats', 'paideia_weeklycount')"
p3313
sS'globals'
p3314
S"{'A': <class 'gluon.html.A'>, 'Auth': <class 'gluon.tools.Auth'>, 'B': <class 'gluon.html.B'>, 'BEAUTIFY': <class 'gluon.html.BEAUTIFY'>, 'BODY': <class 'gluon.html.BODY'>, 'BR': <class 'gluon.html.BR'>, 'BUTTON': <class 'gluon.html.BUTTON'>, 'CAT': <class 'gluon.html.CAT'>, 'CENTER': <class 'gluon.html.CENTER'>, 'CLEANUP': <class 'gluon.validators.CLEANUP'>, ...}"
p3315
sS'locals'
p3316
S"{'A': <class 'gluon.html.A'>, 'Auth': <class 'gluon.tools.Auth'>, 'B': <class 'gluon.html.B'>, 'BEAUTIFY': <class 'gluon.html.BEAUTIFY'>, 'BODY': <class 'gluon.html.BODY'>, 'BR': <class 'gluon.html.BR'>, 'BUTTON': <class 'gluon.html.BUTTON'>, 'CAT': <class 'gluon.html.CAT'>, 'CENTER': <class 'gluon.html.CENTER'>, 'CLEANUP': <class 'gluon.validators.CLEANUP'>, ...}"
p3317
sS'level'
p3318
S'-1'
p3319
ssg3275
I289
sg3276
(dp3320
I288
S'                            .__call__(modules_prefix+"."+name,'
p3321
sI289
S'                                    globals, locals, fromlist, level)'
p3322
sI290
S'                except ImportError:'
p3323
sI291
S'                    pass'
p3324
sI292
S'        return super(_Web2pyImporter, self).__call__(name, globals, locals,'
p3325
sI293
S'                                                    fromlist, level)'
p3326
sI284
S'                            globals, locals, fromlist, level)'
p3327
sI285
S'                    else:'
p3328
sI286
S'                        # import like "from x import a, b, ..."'
p3329
sI287
S'                        return super(_Web2pyImporter, self) \\'
p3330
ssg3288
S"(self=<gluon.custom_import._Web2pyImporter object>, name='paideia_stats', globals={'A': <class 'gluon.html.A'>, 'Auth': <class 'gluon.tools.Auth'>, 'B': <class 'gluon.html.B'>, 'BEAUTIFY': <class 'gluon.html.BEAUTIFY'>, 'BODY': <class 'gluon.html.BODY'>, 'BR': <class 'gluon.html.BR'>, 'BUTTON': <class 'gluon.html.BUTTON'>, 'CAT': <class 'gluon.html.CAT'>, 'CENTER': <class 'gluon.html.CENTER'>, 'CLEANUP': <class 'gluon.validators.CLEANUP'>, ...}, locals={'A': <class 'gluon.html.A'>, 'Auth': <class 'gluon.tools.Auth'>, 'B': <class 'gluon.html.B'>, 'BEAUTIFY': <class 'gluon.html.BEAUTIFY'>, 'BODY': <class 'gluon.html.BODY'>, 'BR': <class 'gluon.html.BR'>, 'BUTTON': <class 'gluon.html.BUTTON'>, 'CAT': <class 'gluon.html.CAT'>, 'CENTER': <class 'gluon.html.CENTER'>, 'CLEANUP': <class 'gluon.validators.CLEANUP'>, ...}, fromlist=('paideia_stats', 'paideia_timestats', 'paideia_weeklycount'), level=-1)"
p3331
sg3290
S'__call__'
p3332
sa(dp3333
g3267
S'/home/ian/web2py/gluon/custom_import.py'
p3334
sg3269
(dp3335
S'level'
p3336
S'-1'
p3337
ssg3275
I78
sg3276
(dp3338
I73
S'        """'
p3339
sI74
S'        return _STANDARD_PYTHON_IMPORTER(name,'
p3340
sI75
S'                                         globals,'
p3341
sI76
S'                                         locals,'
p3342
sI77
S'                                         fromlist,'
p3343
sI78
S'                                         level)'
p3344
sI79
S''
sI80
S'    def end(self):'
p3345
sI81
S'        """'
p3346
sI82
S'        Needed for clean up.'
p3347
ssg3288
S"(self=<gluon.custom_import._Web2pyImporter object>, name='applications.paideia.modules.paideia_stats', globals={'A': <class 'gluon.html.A'>, 'Auth': <class 'gluon.tools.Auth'>, 'B': <class 'gluon.html.B'>, 'BEAUTIFY': <class 'gluon.html.BEAUTIFY'>, 'BODY': <class 'gluon.html.BODY'>, 'BR': <class 'gluon.html.BR'>, 'BUTTON': <class 'gluon.html.BUTTON'>, 'CAT': <class 'gluon.html.CAT'>, 'CENTER': <class 'gluon.html.CENTER'>, 'CLEANUP': <class 'gluon.validators.CLEANUP'>, ...}, locals={'A': <class 'gluon.html.A'>, 'Auth': <class 'gluon.tools.Auth'>, 'B': <class 'gluon.html.B'>, 'BEAUTIFY': <class 'gluon.html.BEAUTIFY'>, 'BODY': <class 'gluon.html.BODY'>, 'BR': <class 'gluon.html.BR'>, 'BUTTON': <class 'gluon.html.BUTTON'>, 'CAT': <class 'gluon.html.CAT'>, 'CENTER': <class 'gluon.html.CENTER'>, 'CLEANUP': <class 'gluon.validators.CLEANUP'>, ...}, fromlist=('paideia_stats', 'paideia_timestats', 'paideia_weeklycount'), level=-1)"
p3348
sg3290
g3332
sa(dp3349
g3267
S'/home/ian/web2py/applications/paideia/modules/paideia_stats.py'
p3350
sg3269
(dp3351
S'Auth'
p3352
S'None'
p3353
sS'auth'
p3354
g3296
ssg3275
I9
sg3276
(dp3355
I4
S'from gluon.tools import Auth, Crud'
p3356
sI5
S'from gluon.dal import DAL'
p3357
sI6
S'from gluon import custom_import'
p3358
sI7
S''
sI8
S'db = DAL()'
p3359
sI9
S'auth = Auth()'
p3360
sI10
S'cache=current.cache'
p3361
sI11
S'T = current.t'
p3362
sI12
S'response = current.response'
p3363
sI13
S'service = current.service'
p3364
ssg3288
S'()'
p3365
sg3290
g3308
sa(dp3366
g3267
S'/home/ian/web2py/gluon/tools.py'
p3367
sg3269
(dp3368
S'represent'
p3369
S'<function represent>'
p3370
sS'lazy_user'
p3371
S'<function lazy_user>'
p3372
sS'builtinFalse'
p3373
g100
sS'default'
p3374
g3296
sS'self.signature'
p3375
g3296
sS'self'
p3376
S'<gluon.tools.Auth object>'
p3377
sS'update'
p3378
g3296
sS'db'
p3379
S'None'
p3380
sS'request'
p3381
S"<Storage {'body': <cStringIO.StringO object at 0...eia/default/index'}>, 'post_vars': <Storage {}>}>"
p3382
sS'request.now'
p3383
S'datetime.datetime(2012, 1, 18, 17, 16, 53, 967154)'
p3384
sS'reference_user'
p3385
S"'reference auth_user'"
p3386
sS'writable'
p3387
g3296
sS'global Field'
p3388
S"<class 'gluon.dal.Field'>"
p3389
sS'readable'
p3390
g3296
sS'db.Table'
p3391
g3296
sS'builtinTrue'
p3392
g1899
sS'self.db'
p3393
S'None'
p3394
ssg3275
I1091
sg3276
(dp3395
I1088
S'                user = s.table_user(id)'
p3396
sI1089
S"                return '%(first_name)s %(last_name)s' % user"
p3397
sI1090
S'            except: return id'
p3398
sI1091
S"        self.signature = db.Table(self.db,'auth_signature',"
p3399
sI1092
S"                                  Field('is_active','boolean',default=True),"
p3400
sI1093
S"                                  Field('created_on','datetime',"
p3401
sI1094
S'                                        default=request.now,'
p3402
sI1095
S'                                        writable=False,readable=False),'
p3403
sI1086
S'        def represent(id,record=None,s=settings):'
p3404
sI1087
S'            try:'
p3405
ssg3288
S"(self=<gluon.tools.Auth object>, environment=None, db=None, mailer=True, hmac_key=None, controller='default', cas_provider=None)"
p3406
sg3290
g50
sasS'pyver'
p3407
S'Python 2.7.2+: /usr/bin/python2.7'
p3408
sS'session'
p3409
g57
(g58
g59
NtRp3410
(dp3411
g62
(dp3412
sg64
(lp3413
g57
(g66
g59
NtRp3414
(dp3415
g62
(dp3416
g70
I5
ssg71
Nsg64
(lp3417
g57
(g73
g59
NtRp3418
(dp3419
g62
(dp3420
sg71
g3414
sg64
(lp3421
g57
(g78
g59
NtRp3422
(dp3423
g62
(dp3424
g82
g83
ssg71
g3418
sg64
(lp3425
S'answer'
p3426
asbag57
(g78
g59
NtRp3427
(dp3428
g62
(dp3429
g89
g90
ssg71
g3418
sg64
(lp3430
S':'
asbag57
(g78
g59
NtRp3431
(dp3432
g62
(dp3433
sg71
g3418
sg64
(lp3434
g57
(g58
g59
NtRp3435
(dp3436
g62
(dp3437
g70
I5
ssg71
g3431
sg64
(lp3438
S'^(he is coming )*(to |toward |towards |near )(to )*(the |this )(city)( )*$'
p3439
asbasbasbag57
(g73
g59
NtRp3440
(dp3441
g62
(dp3442
sg71
g3414
sg64
(lp3443
g57
(g78
g59
NtRp3444
(dp3445
g62
(dp3446
g82
g83
ssg71
g3440
sg64
(lp3447
S'answer2'
p3448
asbag57
(g78
g59
NtRp3449
(dp3450
g62
(dp3451
g89
g90
ssg71
g3440
sg64
(lp3452
S':'
asbag57
(g78
g59
NtRp3453
(dp3454
g62
(dp3455
sg71
g3440
sg64
(lp3456
g57
(g58
g59
NtRp3457
(dp3458
g62
(dp3459
g70
I5
ssg71
g3453
sg64
(lp3460
S'city'
p3461
asbasbasbag57
(g73
g59
NtRp3462
(dp3463
g62
(dp3464
sg71
g3414
sg64
(lp3465
g57
(g78
g59
NtRp3466
(dp3467
g62
(dp3468
g82
g83
ssg71
g3462
sg64
(lp3469
S'answer3'
p3470
asbag57
(g78
g59
NtRp3471
(dp3472
g62
(dp3473
g89
g90
ssg71
g3462
sg64
(lp3474
S':'
asbag57
(g78
g59
NtRp3475
(dp3476
g62
(dp3477
sg71
g3462
sg64
(lp3478
g57
(g58
g59
NtRp3479
(dp3480
g62
(dp3481
g70
I5
ssg71
g3475
sg64
(lp3482
S'null'
p3483
asbasbasbag57
(g73
g59
NtRp3484
(dp3485
g62
(dp3486
sg71
g3414
sg64
(lp3487
g57
(g78
g59
NtRp3488
(dp3489
g62
(dp3490
g82
g83
ssg71
g3484
sg64
(lp3491
S'auth'
p3492
asbag57
(g78
g59
NtRp3493
(dp3494
g62
(dp3495
g89
g90
ssg71
g3484
sg64
(lp3496
S':'
asbag57
(g78
g59
NtRp3497
(dp3498
g62
(dp3499
sg71
g3484
sg64
(lp3500
g57
(g58
g59
NtRp3501
(dp3502
g62
(dp3503
g70
I5
ssg71
g3497
sg64
(lp3504
g57
(g66
g59
NtRp3505
(dp3506
g62
(dp3507
g70
I4
ssg71
Nsg64
(lp3508
g57
(g73
g59
NtRp3509
(dp3510
g62
(dp3511
sg71
g3505
sg64
(lp3512
g57
(g78
g59
NtRp3513
(dp3514
g62
(dp3515
g82
g83
ssg71
g3509
sg64
(lp3516
S'expiration'
p3517
asbag57
(g78
g59
NtRp3518
(dp3519
g62
(dp3520
g89
g90
ssg71
g3509
sg64
(lp3521
S':'
asbag57
(g78
g59
NtRp3522
(dp3523
g62
(dp3524
sg71
g3509
sg64
(lp3525
g57
(g58
g59
NtRp3526
(dp3527
g62
(dp3528
g70
I4
ssg71
g3522
sg64
(lp3529
S'2592000'
p3530
asbasbasbag57
(g73
g59
NtRp3531
(dp3532
g62
(dp3533
sg71
g3505
sg64
(lp3534
g57
(g78
g59
NtRp3535
(dp3536
g62
(dp3537
g82
g83
ssg71
g3531
sg64
(lp3538
S'hmac_key'
p3539
asbag57
(g78
g59
NtRp3540
(dp3541
g62
(dp3542
g89
g90
ssg71
g3531
sg64
(lp3543
S':'
asbag57
(g78
g59
NtRp3544
(dp3545
g62
(dp3546
sg71
g3531
sg64
(lp3547
g57
(g58
g59
NtRp3548
(dp3549
g62
(dp3550
g70
I4
ssg71
g3544
sg64
(lp3551
S'60ece5e3-5323-47ed-9407-5a52e01ac6c8'
p3552
asbasbasbag57
(g73
g59
NtRp3553
(dp3554
g62
(dp3555
sg71
g3505
sg64
(lp3556
g57
(g78
g59
NtRp3557
(dp3558
g62
(dp3559
g82
g83
ssg71
g3553
sg64
(lp3560
S'last_visit'
p3561
asbag57
(g78
g59
NtRp3562
(dp3563
g62
(dp3564
g89
g90
ssg71
g3553
sg64
(lp3565
S':'
asbag57
(g78
g59
NtRp3566
(dp3567
g62
(dp3568
sg71
g3553
sg64
(lp3569
g57
(g58
g59
NtRp3570
(dp3571
g62
(dp3572
g70
I4
ssg71
g3566
sg64
(lp3573
S'datetime.datetime(2012, 1, 2, 15, 42, 40, 42986)'
p3574
asbasbasbag57
(g73
g59
NtRp3575
(dp3576
g62
(dp3577
sg71
g3505
sg64
(lp3578
g57
(g78
g59
NtRp3579
(dp3580
g62
(dp3581
g82
g83
ssg71
g3575
sg64
(lp3582
S'remember'
p3583
asbag57
(g78
g59
NtRp3584
(dp3585
g62
(dp3586
g89
g90
ssg71
g3575
sg64
(lp3587
S':'
asbag57
(g78
g59
NtRp3588
(dp3589
g62
(dp3590
sg71
g3575
sg64
(lp3591
g57
(g58
g59
NtRp3592
(dp3593
g62
(dp3594
g70
I4
ssg71
g3588
sg64
(lp3595
g1899
asbasbasbag57
(g73
g59
NtRp3596
(dp3597
g62
(dp3598
sg71
g3505
sg64
(lp3599
g57
(g78
g59
NtRp3600
(dp3601
g62
(dp3602
g82
g83
ssg71
g3596
sg64
(lp3603
S'user'
p3604
asbag57
(g78
g59
NtRp3605
(dp3606
g62
(dp3607
g89
g90
ssg71
g3596
sg64
(lp3608
S':'
asbag57
(g78
g59
NtRp3609
(dp3610
g62
(dp3611
sg71
g3596
sg64
(lp3612
g57
(g58
g59
NtRp3613
(dp3614
g62
(dp3615
g70
I4
ssg71
g3609
sg64
(lp3616
g57
(g66
g59
NtRp3617
(dp3618
g62
(dp3619
g70
I3
ssg71
Nsg64
(lp3620
g57
(g73
g59
NtRp3621
(dp3622
g62
(dp3623
sg71
g3617
sg64
(lp3624
g57
(g78
g59
NtRp3625
(dp3626
g62
(dp3627
g82
g83
ssg71
g3621
sg64
(lp3628
S'email'
p3629
asbag57
(g78
g59
NtRp3630
(dp3631
g62
(dp3632
g89
g90
ssg71
g3621
sg64
(lp3633
S':'
asbag57
(g78
g59
NtRp3634
(dp3635
g62
(dp3636
sg71
g3621
sg64
(lp3637
g57
(g58
g59
NtRp3638
(dp3639
g62
(dp3640
g70
I3
ssg71
g3634
sg64
(lp3641
S'scottianw@gmail.com'
p3642
asbasbasbag57
(g73
g59
NtRp3643
(dp3644
g62
(dp3645
sg71
g3617
sg64
(lp3646
g57
(g78
g59
NtRp3647
(dp3648
g62
(dp3649
g82
g83
ssg71
g3643
sg64
(lp3650
S'first_name'
p3651
asbag57
(g78
g59
NtRp3652
(dp3653
g62
(dp3654
g89
g90
ssg71
g3643
sg64
(lp3655
S':'
asbag57
(g78
g59
NtRp3656
(dp3657
g62
(dp3658
sg71
g3643
sg64
(lp3659
g57
(g58
g59
NtRp3660
(dp3661
g62
(dp3662
g70
I3
ssg71
g3656
sg64
(lp3663
S'Ian'
p3664
asbasbasbag57
(g73
g59
NtRp3665
(dp3666
g62
(dp3667
sg71
g3617
sg64
(lp3668
g57
(g78
g59
NtRp3669
(dp3670
g62
(dp3671
g82
g83
ssg71
g3665
sg64
(lp3672
S'id'
p3673
asbag57
(g78
g59
NtRp3674
(dp3675
g62
(dp3676
g89
g90
ssg71
g3665
sg64
(lp3677
S':'
asbag57
(g78
g59
NtRp3678
(dp3679
g62
(dp3680
sg71
g3665
sg64
(lp3681
g57
(g58
g59
NtRp3682
(dp3683
g62
(dp3684
g70
I3
ssg71
g3678
sg64
(lp3685
S'2'
asbasbasbag57
(g73
g59
NtRp3686
(dp3687
g62
(dp3688
sg71
g3617
sg64
(lp3689
g57
(g78
g59
NtRp3690
(dp3691
g62
(dp3692
g82
g83
ssg71
g3686
sg64
(lp3693
S'last_name'
p3694
asbag57
(g78
g59
NtRp3695
(dp3696
g62
(dp3697
g89
g90
ssg71
g3686
sg64
(lp3698
S':'
asbag57
(g78
g59
NtRp3699
(dp3700
g62
(dp3701
sg71
g3686
sg64
(lp3702
g57
(g58
g59
NtRp3703
(dp3704
g62
(dp3705
g70
I3
ssg71
g3699
sg64
(lp3706
S'Scott'
p3707
asbasbasbag57
(g73
g59
NtRp3708
(dp3709
g62
(dp3710
sg71
g3617
sg64
(lp3711
g57
(g78
g59
NtRp3712
(dp3713
g62
(dp3714
g82
g83
ssg71
g3708
sg64
(lp3715
S'password'
p3716
asbag57
(g78
g59
NtRp3717
(dp3718
g62
(dp3719
g89
g90
ssg71
g3708
sg64
(lp3720
S':'
asbag57
(g78
g59
NtRp3721
(dp3722
g62
(dp3723
sg71
g3708
sg64
(lp3724
g57
(g58
g59
NtRp3725
(dp3726
g62
(dp3727
g70
I3
ssg71
g3721
sg64
(lp3728
S'19738f1e9a2c8eaac81936a86bf608a1a6995e02f527fa31723cb88a2e513a1efae33471354a02805bf25ea2ea17a59c025a5fc8eca6b3bb2137bda74e538737'
p3729
asbasbasbag57
(g73
g59
NtRp3730
(dp3731
g62
(dp3732
sg71
g3617
sg64
(lp3733
g57
(g78
g59
NtRp3734
(dp3735
g62
(dp3736
g82
g83
ssg71
g3730
sg64
(lp3737
S'registration_id'
p3738
asbag57
(g78
g59
NtRp3739
(dp3740
g62
(dp3741
g89
g90
ssg71
g3730
sg64
(lp3742
S':'
asbag57
(g78
g59
NtRp3743
(dp3744
g62
(dp3745
sg71
g3730
sg64
(lp3746
g57
(g58
g59
NtRp3747
(dp3748
g62
(dp3749
g70
I3
ssg71
g3743
sg64
(lp3750
S'None'
p3751
asbasbasbag57
(g73
g59
NtRp3752
(dp3753
g62
(dp3754
sg71
g3617
sg64
(lp3755
g57
(g78
g59
NtRp3756
(dp3757
g62
(dp3758
g82
g83
ssg71
g3752
sg64
(lp3759
S'registration_key'
p3760
asbag57
(g78
g59
NtRp3761
(dp3762
g62
(dp3763
g89
g90
ssg71
g3752
sg64
(lp3764
S':'
asbag57
(g78
g59
NtRp3765
(dp3766
g62
(dp3767
sg71
g3752
sg64
(lp3768
g57
(g58
g59
NtRp3769
(dp3770
g62
(dp3771
g70
I3
ssg71
g3765
sg64
(lp3772
S''
asbasbasbag57
(g73
g59
NtRp3773
(dp3774
g62
(dp3775
sg71
g3617
sg64
(lp3776
g57
(g78
g59
NtRp3777
(dp3778
g62
(dp3779
g82
g83
ssg71
g3773
sg64
(lp3780
S'reset_password_key'
p3781
asbag57
(g78
g59
NtRp3782
(dp3783
g62
(dp3784
g89
g90
ssg71
g3773
sg64
(lp3785
S':'
asbag57
(g78
g59
NtRp3786
(dp3787
g62
(dp3788
sg71
g3773
sg64
(lp3789
g57
(g58
g59
NtRp3790
(dp3791
g62
(dp3792
g70
I3
ssg71
g3786
sg64
(lp3793
S''
asbasbasbasbasbasbasbasbasbasbasbag57
(g73
g59
NtRp3794
(dp3795
g62
(dp3796
sg71
g3414
sg64
(lp3797
g57
(g78
g59
NtRp3798
(dp3799
g62
(dp3800
g82
g83
ssg71
g3794
sg64
(lp3801
S'debug'
p3802
asbag57
(g78
g59
NtRp3803
(dp3804
g62
(dp3805
g89
g90
ssg71
g3794
sg64
(lp3806
S':'
asbag57
(g78
g59
NtRp3807
(dp3808
g62
(dp3809
sg71
g3794
sg64
(lp3810
g57
(g58
g59
NtRp3811
(dp3812
g62
(dp3813
g70
I5
ssg71
g3807
sg64
(lp3814
g57
(g66
g59
NtRp3815
(dp3816
g62
(dp3817
g70
I4
ssg71
Nsg64
(lp3818
g57
(g73
g59
NtRp3819
(dp3820
g62
(dp3821
sg71
g3815
sg64
(lp3822
g57
(g78
g59
NtRp3823
(dp3824
g62
(dp3825
g82
g83
ssg71
g3819
sg64
(lp3826
S'2011-10-24'
p3827
asbag57
(g78
g59
NtRp3828
(dp3829
g62
(dp3830
g89
g90
ssg71
g3819
sg64
(lp3831
S':'
asbag57
(g78
g59
NtRp3832
(dp3833
g62
(dp3834
sg71
g3819
sg64
(lp3835
g57
(g58
g59
NtRp3836
(dp3837
g62
(dp3838
g70
I4
ssg71
g3832
sg64
(lp3839
S'8'
asbasbasbag57
(g73
g59
NtRp3840
(dp3841
g62
(dp3842
sg71
g3815
sg64
(lp3843
g57
(g78
g59
NtRp3844
(dp3845
g62
(dp3846
g82
g83
ssg71
g3840
sg64
(lp3847
S'2011-10-25'
p3848
asbag57
(g78
g59
NtRp3849
(dp3850
g62
(dp3851
g89
g90
ssg71
g3840
sg64
(lp3852
S':'
asbag57
(g78
g59
NtRp3853
(dp3854
g62
(dp3855
sg71
g3840
sg64
(lp3856
g57
(g58
g59
NtRp3857
(dp3858
g62
(dp3859
g70
I4
ssg71
g3853
sg64
(lp3860
S'2'
asbasbasbag57
(g73
g59
NtRp3861
(dp3862
g62
(dp3863
sg71
g3815
sg64
(lp3864
g57
(g78
g59
NtRp3865
(dp3866
g62
(dp3867
g82
g83
ssg71
g3861
sg64
(lp3868
S'2011-10-26'
p3869
asbag57
(g78
g59
NtRp3870
(dp3871
g62
(dp3872
g89
g90
ssg71
g3861
sg64
(lp3873
S':'
asbag57
(g78
g59
NtRp3874
(dp3875
g62
(dp3876
sg71
g3861
sg64
(lp3877
g57
(g58
g59
NtRp3878
(dp3879
g62
(dp3880
g70
I4
ssg71
g3874
sg64
(lp3881
S'11'
p3882
asbasbasbag57
(g73
g59
NtRp3883
(dp3884
g62
(dp3885
sg71
g3815
sg64
(lp3886
g57
(g78
g59
NtRp3887
(dp3888
g62
(dp3889
g82
g83
ssg71
g3883
sg64
(lp3890
S'2011-10-31'
p3891
asbag57
(g78
g59
NtRp3892
(dp3893
g62
(dp3894
g89
g90
ssg71
g3883
sg64
(lp3895
S':'
asbag57
(g78
g59
NtRp3896
(dp3897
g62
(dp3898
sg71
g3883
sg64
(lp3899
g57
(g58
g59
NtRp3900
(dp3901
g62
(dp3902
g70
I4
ssg71
g3896
sg64
(lp3903
S'29'
p3904
asbasbasbag57
(g73
g59
NtRp3905
(dp3906
g62
(dp3907
sg71
g3815
sg64
(lp3908
g57
(g78
g59
NtRp3909
(dp3910
g62
(dp3911
g82
g83
ssg71
g3905
sg64
(lp3912
S'2011-11-01'
p3913
asbag57
(g78
g59
NtRp3914
(dp3915
g62
(dp3916
g89
g90
ssg71
g3905
sg64
(lp3917
S':'
asbag57
(g78
g59
NtRp3918
(dp3919
g62
(dp3920
sg71
g3905
sg64
(lp3921
g57
(g58
g59
NtRp3922
(dp3923
g62
(dp3924
g70
I4
ssg71
g3918
sg64
(lp3925
S'11'
p3926
asbasbasbag57
(g73
g59
NtRp3927
(dp3928
g62
(dp3929
sg71
g3815
sg64
(lp3930
g57
(g78
g59
NtRp3931
(dp3932
g62
(dp3933
g82
g83
ssg71
g3927
sg64
(lp3934
S'2011-11-09'
p3935
asbag57
(g78
g59
NtRp3936
(dp3937
g62
(dp3938
g89
g90
ssg71
g3927
sg64
(lp3939
S':'
asbag57
(g78
g59
NtRp3940
(dp3941
g62
(dp3942
sg71
g3927
sg64
(lp3943
g57
(g58
g59
NtRp3944
(dp3945
g62
(dp3946
g70
I4
ssg71
g3940
sg64
(lp3947
S'2'
asbasbasbag57
(g73
g59
NtRp3948
(dp3949
g62
(dp3950
sg71
g3815
sg64
(lp3951
g57
(g78
g59
NtRp3952
(dp3953
g62
(dp3954
g82
g83
ssg71
g3948
sg64
(lp3955
S'2011-11-10'
p3956
asbag57
(g78
g59
NtRp3957
(dp3958
g62
(dp3959
g89
g90
ssg71
g3948
sg64
(lp3960
S':'
asbag57
(g78
g59
NtRp3961
(dp3962
g62
(dp3963
sg71
g3948
sg64
(lp3964
g57
(g58
g59
NtRp3965
(dp3966
g62
(dp3967
g70
I4
ssg71
g3961
sg64
(lp3968
S'14'
p3969
asbasbasbag57
(g73
g59
NtRp3970
(dp3971
g62
(dp3972
sg71
g3815
sg64
(lp3973
g57
(g78
g59
NtRp3974
(dp3975
g62
(dp3976
g82
g83
ssg71
g3970
sg64
(lp3977
S'2011-11-11'
p3978
asbag57
(g78
g59
NtRp3979
(dp3980
g62
(dp3981
g89
g90
ssg71
g3970
sg64
(lp3982
S':'
asbag57
(g78
g59
NtRp3983
(dp3984
g62
(dp3985
sg71
g3970
sg64
(lp3986
g57
(g58
g59
NtRp3987
(dp3988
g62
(dp3989
g70
I4
ssg71
g3983
sg64
(lp3990
S'56'
p3991
asbasbasbag57
(g73
g59
NtRp3992
(dp3993
g62
(dp3994
sg71
g3815
sg64
(lp3995
g57
(g78
g59
NtRp3996
(dp3997
g62
(dp3998
g82
g83
ssg71
g3992
sg64
(lp3999
S'2011-11-12'
p4000
asbag57
(g78
g59
NtRp4001
(dp4002
g62
(dp4003
g89
g90
ssg71
g3992
sg64
(lp4004
S':'
asbag57
(g78
g59
NtRp4005
(dp4006
g62
(dp4007
sg71
g3992
sg64
(lp4008
g57
(g58
g59
NtRp4009
(dp4010
g62
(dp4011
g70
I4
ssg71
g4005
sg64
(lp4012
S'23'
p4013
asbasbasbag57
(g73
g59
NtRp4014
(dp4015
g62
(dp4016
sg71
g3815
sg64
(lp4017
g57
(g78
g59
NtRp4018
(dp4019
g62
(dp4020
g82
g83
ssg71
g4014
sg64
(lp4021
S'2011-11-15'
p4022
asbag57
(g78
g59
NtRp4023
(dp4024
g62
(dp4025
g89
g90
ssg71
g4014
sg64
(lp4026
S':'
asbag57
(g78
g59
NtRp4027
(dp4028
g62
(dp4029
sg71
g4014
sg64
(lp4030
g57
(g58
g59
NtRp4031
(dp4032
g62
(dp4033
g70
I4
ssg71
g4027
sg64
(lp4034
S'10'
p4035
asbasbasbag57
(g73
g59
NtRp4036
(dp4037
g62
(dp4038
sg71
g3815
sg64
(lp4039
g57
(g78
g59
NtRp4040
(dp4041
g62
(dp4042
g82
g83
ssg71
g4036
sg64
(lp4043
S'2011-11-16'
p4044
asbag57
(g78
g59
NtRp4045
(dp4046
g62
(dp4047
g89
g90
ssg71
g4036
sg64
(lp4048
S':'
asbag57
(g78
g59
NtRp4049
(dp4050
g62
(dp4051
sg71
g4036
sg64
(lp4052
g57
(g58
g59
NtRp4053
(dp4054
g62
(dp4055
g70
I4
ssg71
g4049
sg64
(lp4056
S'21'
p4057
asbasbasbag57
(g73
g59
NtRp4058
(dp4059
g62
(dp4060
sg71
g3815
sg64
(lp4061
g57
(g78
g59
NtRp4062
(dp4063
g62
(dp4064
g82
g83
ssg71
g4058
sg64
(lp4065
S'2011-11-25'
p4066
asbag57
(g78
g59
NtRp4067
(dp4068
g62
(dp4069
g89
g90
ssg71
g4058
sg64
(lp4070
S':'
asbag57
(g78
g59
NtRp4071
(dp4072
g62
(dp4073
sg71
g4058
sg64
(lp4074
g57
(g58
g59
NtRp4075
(dp4076
g62
(dp4077
g70
I4
ssg71
g4071
sg64
(lp4078
S'5'
asbasbasbag57
(g73
g59
NtRp4079
(dp4080
g62
(dp4081
sg71
g3815
sg64
(lp4082
g57
(g78
g59
NtRp4083
(dp4084
g62
(dp4085
g82
g83
ssg71
g4079
sg64
(lp4086
S'2012-01-16'
p4087
asbag57
(g78
g59
NtRp4088
(dp4089
g62
(dp4090
g89
g90
ssg71
g4079
sg64
(lp4091
S':'
asbag57
(g78
g59
NtRp4092
(dp4093
g62
(dp4094
sg71
g4079
sg64
(lp4095
g57
(g58
g59
NtRp4096
(dp4097
g62
(dp4098
g70
I4
ssg71
g4092
sg64
(lp4099
S'1'
asbasbasbag57
(g73
g59
NtRp4100
(dp4101
g62
(dp4102
sg71
g3815
sg64
(lp4103
g57
(g78
g59
NtRp4104
(dp4105
g62
(dp4106
g82
g83
ssg71
g4100
sg64
(lp4107
S'2012-01-18'
p4108
asbag57
(g78
g59
NtRp4109
(dp4110
g62
(dp4111
g89
g90
ssg71
g4100
sg64
(lp4112
S':'
asbag57
(g78
g59
NtRp4113
(dp4114
g62
(dp4115
sg71
g4100
sg64
(lp4116
g57
(g58
g59
NtRp4117
(dp4118
g62
(dp4119
g70
I4
ssg71
g4113
sg64
(lp4120
S'2'
asbasbasbasbasbasbasbag57
(g73
g59
NtRp4121
(dp4122
g62
(dp4123
sg71
g3414
sg64
(lp4124
g57
(g78
g59
NtRp4125
(dp4126
g62
(dp4127
g82
g83
ssg71
g4121
sg64
(lp4128
S'eval'
p4129
asbag57
(g78
g59
NtRp4130
(dp4131
g62
(dp4132
g89
g90
ssg71
g4121
sg64
(lp4133
S':'
asbag57
(g78
g59
NtRp4134
(dp4135
g62
(dp4136
sg71
g4121
sg64
(lp4137
g57
(g58
g59
NtRp4138
(dp4139
g62
(dp4140
g70
I5
ssg71
g4134
sg64
(lp4141
S'correct'
p4142
asbasbasbag57
(g73
g59
NtRp4143
(dp4144
g62
(dp4145
sg71
g3414
sg64
(lp4146
g57
(g78
g59
NtRp4147
(dp4148
g62
(dp4149
g82
g83
ssg71
g4143
sg64
(lp4150
S'path_freq'
p4151
asbag57
(g78
g59
NtRp4152
(dp4153
g62
(dp4154
g89
g90
ssg71
g4143
sg64
(lp4155
S':'
asbag57
(g78
g59
NtRp4156
(dp4157
g62
(dp4158
sg71
g4143
sg64
(lp4159
g57
(g58
g59
NtRp4160
(dp4161
g62
(dp4162
g70
I5
ssg71
g4156
sg64
(lp4163
S'70'
p4164
asbasbasbag57
(g73
g59
NtRp4165
(dp4166
g62
(dp4167
sg71
g3414
sg64
(lp4168
g57
(g78
g59
NtRp4169
(dp4170
g62
(dp4171
g82
g83
ssg71
g4165
sg64
(lp4172
S'path_id'
p4173
asbag57
(g78
g59
NtRp4174
(dp4175
g62
(dp4176
g89
g90
ssg71
g4165
sg64
(lp4177
S':'
asbag57
(g78
g59
NtRp4178
(dp4179
g62
(dp4180
sg71
g4165
sg64
(lp4181
g57
(g58
g59
NtRp4182
(dp4183
g62
(dp4184
g70
I5
ssg71
g4178
sg64
(lp4185
S'1'
asbasbasbag57
(g73
g59
NtRp4186
(dp4187
g62
(dp4188
sg71
g3414
sg64
(lp4189
g57
(g78
g59
NtRp4190
(dp4191
g62
(dp4192
g82
g83
ssg71
g4186
sg64
(lp4193
S'path_length'
p4194
asbag57
(g78
g59
NtRp4195
(dp4196
g62
(dp4197
g89
g90
ssg71
g4186
sg64
(lp4198
S':'
asbag57
(g78
g59
NtRp4199
(dp4200
g62
(dp4201
sg71
g4186
sg64
(lp4202
g57
(g58
g59
NtRp4203
(dp4204
g62
(dp4205
g70
I5
ssg71
g4199
sg64
(lp4206
S'20'
p4207
asbasbasbag57
(g73
g59
NtRp4208
(dp4209
g62
(dp4210
sg71
g3414
sg64
(lp4211
g57
(g78
g59
NtRp4212
(dp4213
g62
(dp4214
g82
g83
ssg71
g4208
sg64
(lp4215
S'path_name'
p4216
asbag57
(g78
g59
NtRp4217
(dp4218
g62
(dp4219
g89
g90
ssg71
g4208
sg64
(lp4220
S':'
asbag57
(g78
g59
NtRp4221
(dp4222
g62
(dp4223
sg71
g4208
sg64
(lp4224
g57
(g58
g59
NtRp4225
(dp4226
g62
(dp4227
g70
I5
ssg71
g4221
sg64
(lp4228
S'Tyndale - Greek Exegesis I - Week 1'
p4229
asbasbasbag57
(g73
g59
NtRp4230
(dp4231
g62
(dp4232
sg71
g3414
sg64
(lp4233
g57
(g78
g59
NtRp4234
(dp4235
g62
(dp4236
g82
g83
ssg71
g4230
sg64
(lp4237
S'path_tags'
p4238
asbag57
(g78
g59
NtRp4239
(dp4240
g62
(dp4241
g89
g90
ssg71
g4230
sg64
(lp4242
S':'
asbag57
(g78
g59
NtRp4243
(dp4244
g62
(dp4245
sg71
g4230
sg64
(lp4246
g57
(g58
g59
NtRp4247
(dp4248
g62
(dp4249
g70
I5
ssg71
g4243
sg64
(lp4250
g57
(g66
g59
NtRp4251
(dp4252
g62
(dp4253
g70
I4
ssg71
Nsg64
(lp4254
g57
(g73
g59
NtRp4255
(dp4256
g62
(dp4257
sg71
g4251
sg64
(lp4258
g57
(g78
g59
NtRp4259
(dp4260
g62
(dp4261
sg71
g4255
sg64
(lp4262
g57
(g58
g59
NtRp4263
(dp4264
g62
(dp4265
g70
I4
ssg71
g4259
sg64
(lp4266
S'6'
asbasbasbag57
(g73
g59
NtRp4267
(dp4268
g62
(dp4269
sg71
g4251
sg64
(lp4270
g57
(g78
g59
NtRp4271
(dp4272
g62
(dp4273
sg71
g4267
sg64
(lp4274
g57
(g58
g59
NtRp4275
(dp4276
g62
(dp4277
g70
I4
ssg71
g4271
sg64
(lp4278
S'1'
asbasbasbag57
(g73
g59
NtRp4279
(dp4280
g62
(dp4281
sg71
g4251
sg64
(lp4282
g57
(g78
g59
NtRp4283
(dp4284
g62
(dp4285
sg71
g4279
sg64
(lp4286
g57
(g58
g59
NtRp4287
(dp4288
g62
(dp4289
g70
I4
ssg71
g4283
sg64
(lp4290
S'7'
asbasbasbag57
(g73
g59
NtRp4291
(dp4292
g62
(dp4293
sg71
g4251
sg64
(lp4294
g57
(g78
g59
NtRp4295
(dp4296
g62
(dp4297
sg71
g4291
sg64
(lp4298
g57
(g58
g59
NtRp4299
(dp4300
g62
(dp4301
g70
I4
ssg71
g4295
sg64
(lp4302
S'8'
asbasbasbag57
(g73
g59
NtRp4303
(dp4304
g62
(dp4305
sg71
g4251
sg64
(lp4306
g57
(g78
g59
NtRp4307
(dp4308
g62
(dp4309
sg71
g4303
sg64
(lp4310
g57
(g58
g59
NtRp4311
(dp4312
g62
(dp4313
g70
I4
ssg71
g4307
sg64
(lp4314
S'9'
asbasbasbasbasbasbasbag57
(g73
g59
NtRp4315
(dp4316
g62
(dp4317
sg71
g3414
sg64
(lp4318
g57
(g78
g59
NtRp4319
(dp4320
g62
(dp4321
g82
g83
ssg71
g4315
sg64
(lp4322
S'qID'
p4323
asbag57
(g78
g59
NtRp4324
(dp4325
g62
(dp4326
g89
g90
ssg71
g4315
sg64
(lp4327
S':'
asbag57
(g78
g59
NtRp4328
(dp4329
g62
(dp4330
sg71
g4315
sg64
(lp4331
g57
(g58
g59
NtRp4332
(dp4333
g62
(dp4334
g70
I5
ssg71
g4328
sg64
(lp4335
S'29'
p4336
asbasbasbag57
(g73
g59
NtRp4337
(dp4338
g62
(dp4339
sg71
g3414
sg64
(lp4340
g57
(g78
g59
NtRp4341
(dp4342
g62
(dp4343
g82
g83
ssg71
g4337
sg64
(lp4344
S'q_counter'
p4345
asbag57
(g78
g59
NtRp4346
(dp4347
g62
(dp4348
g89
g90
ssg71
g4337
sg64
(lp4349
S':'
asbag57
(g78
g59
NtRp4350
(dp4351
g62
(dp4352
sg71
g4337
sg64
(lp4353
g57
(g58
g59
NtRp4354
(dp4355
g62
(dp4356
g70
I5
ssg71
g4350
sg64
(lp4357
S'8'
asbasbasbag57
(g73
g59
NtRp4358
(dp4359
g62
(dp4360
sg71
g3414
sg64
(lp4361
g57
(g78
g59
NtRp4362
(dp4363
g62
(dp4364
g82
g83
ssg71
g4358
sg64
(lp4365
S'question_text'
p4366
asbag57
(g78
g59
NtRp4367
(dp4368
g62
(dp4369
g89
g90
ssg71
g4358
sg64
(lp4370
S':'
asbag57
(g78
g59
NtRp4371
(dp4372
g62
(dp4373
sg71
g4358
sg64
(lp4374
g57
(g58
g59
NtRp4375
(dp4376
g62
(dp4377
g70
I5
ssg71
g4371
sg64
(lp4378
S'The neighbours say that Plutarch, the famous speaker, is coming \xcf\x80\xcf\x81\xe1\xbd\xb8\xcf\x82 \xcf\x84\xe1\xbd\xb4\xce\xbd \xcf\x80\xcf\x8c\xce\xbb\xce\xb9\xce\xbd. Where is he coming?'
p4379
asbasbasbag57
(g73
g59
NtRp4380
(dp4381
g62
(dp4382
sg71
g3414
sg64
(lp4383
g57
(g78
g59
NtRp4384
(dp4385
g62
(dp4386
g82
g83
ssg71
g4380
sg64
(lp4387
S'quiz_type'
p4388
asbag57
(g78
g59
NtRp4389
(dp4390
g62
(dp4391
g89
g90
ssg71
g4380
sg64
(lp4392
S':'
asbag57
(g78
g59
NtRp4393
(dp4394
g62
(dp4395
sg71
g4380
sg64
(lp4396
g57
(g58
g59
NtRp4397
(dp4398
g62
(dp4399
g70
I5
ssg71
g4393
sg64
(lp4400
S'random'
p4401
asbasbasbag57
(g73
g59
NtRp4402
(dp4403
g62
(dp4404
sg71
g3414
sg64
(lp4405
g57
(g78
g59
NtRp4406
(dp4407
g62
(dp4408
g82
g83
ssg71
g4402
sg64
(lp4409
S'readable_answer'
p4410
asbag57
(g78
g59
NtRp4411
(dp4412
g62
(dp4413
g89
g90
ssg71
g4402
sg64
(lp4414
S':'
asbag57
(g78
g59
NtRp4415
(dp4416
g62
(dp4417
sg71
g4402
sg64
(lp4418
g57
(g58
g59
NtRp4419
(dp4420
g62
(dp4421
g70
I5
ssg71
g4415
sg64
(lp4422
S'to the city; toward the city; near the city'
p4423
asbasbasbag57
(g73
g59
NtRp4424
(dp4425
g62
(dp4426
sg71
g3414
sg64
(lp4427
g57
(g78
g59
NtRp4428
(dp4429
g62
(dp4430
g82
g83
ssg71
g4424
sg64
(lp4431
S'response'
p4432
asbag57
(g78
g59
NtRp4433
(dp4434
g62
(dp4435
g89
g90
ssg71
g4424
sg64
(lp4436
S':'
asbag57
(g78
g59
NtRp4437
(dp4438
g62
(dp4439
sg71
g4424
sg64
(lp4440
g57
(g58
g59
NtRp4441
(dp4442
g62
(dp4443
g70
I5
ssg71
g4437
sg64
(lp4444
S'toward the city'
p4445
asbasbasbasbasbsS'etype'
p4446
S"<type 'exceptions.AttributeError'>"
p4447
sS'date'
p4448
S'Wed Jan 18 17:16:54 2012'
p4449
sS'response'
p4450
g57
(g58
g59
NtRp4451
(dp4452
g62
(dp4453
sg64
(lp4454
g57
(g66
g59
NtRp4455
(dp4456
g62
(dp4457
g70
I5
ssg71
Nsg64
(lp4458
g57
(g73
g59
NtRp4459
(dp4460
g62
(dp4461
sg71
g4455
sg64
(lp4462
g57
(g78
g59
NtRp4463
(dp4464
g62
(dp4465
g82
g83
ssg71
g4459
sg64
(lp4466
g168
asbag57
(g78
g59
NtRp4467
(dp4468
g62
(dp4469
g89
g90
ssg71
g4459
sg64
(lp4470
S':'
asbag57
(g78
g59
NtRp4471
(dp4472
g62
(dp4473
sg71
g4459
sg64
(lp4474
g57
(g58
g59
NtRp4475
(dp4476
g62
(dp4477
g70
I5
ssg71
g4471
sg64
(lp4478
S'<cStringIO.StringO object at 0x2d63730>'
p4479
asbasbasbag57
(g73
g59
NtRp4480
(dp4481
g62
(dp4482
sg71
g4455
sg64
(lp4483
g57
(g78
g59
NtRp4484
(dp4485
g62
(dp4486
g82
g83
ssg71
g4480
sg64
(lp4487
g234
asbag57
(g78
g59
NtRp4488
(dp4489
g62
(dp4490
g89
g90
ssg71
g4480
sg64
(lp4491
S':'
asbag57
(g78
g59
NtRp4492
(dp4493
g62
(dp4494
sg71
g4480
sg64
(lp4495
g57
(g58
g59
NtRp4496
(dp4497
g62
(dp4498
g70
I5
ssg71
g4492
sg64
(lp4499
g57
(g66
g59
NtRp4500
(dp4501
g62
(dp4502
g70
I4
ssg71
Nsg64
(lp4503
g57
(g73
g59
NtRp4504
(dp4505
g62
(dp4506
sg71
g4500
sg64
(lp4507
g57
(g78
g59
NtRp4508
(dp4509
g62
(dp4510
g82
g83
ssg71
g4504
sg64
(lp4511
S'session_id_paideia'
p4512
asbag57
(g78
g59
NtRp4513
(dp4514
g62
(dp4515
g89
g90
ssg71
g4504
sg64
(lp4516
S':'
asbag57
(g78
g59
NtRp4517
(dp4518
g62
(dp4519
sg71
g4504
sg64
(lp4520
g57
(g58
g59
NtRp4521
(dp4522
g62
(dp4523
g70
I4
ssg71
g4517
sg64
(lp4524
g57
(g66
g59
NtRp4525
(dp4526
g62
(dp4527
g70
I3
ssg71
Nsg64
(lp4528
g57
(g73
g59
NtRp4529
(dp4530
g62
(dp4531
sg71
g4525
sg64
(lp4532
g57
(g78
g59
NtRp4533
(dp4534
g62
(dp4535
g82
g83
ssg71
g4529
sg64
(lp4536
g284
asbag57
(g78
g59
NtRp4537
(dp4538
g62
(dp4539
g89
g90
ssg71
g4529
sg64
(lp4540
S':'
asbag57
(g78
g59
NtRp4541
(dp4542
g62
(dp4543
sg71
g4529
sg64
(lp4544
g57
(g58
g59
NtRp4545
(dp4546
g62
(dp4547
g70
I3
ssg71
g4541
sg64
(lp4548
S''
asbasbasbag57
(g73
g59
NtRp4549
(dp4550
g62
(dp4551
sg71
g4525
sg64
(lp4552
g57
(g78
g59
NtRp4553
(dp4554
g62
(dp4555
g82
g83
ssg71
g4549
sg64
(lp4556
g305
asbag57
(g78
g59
NtRp4557
(dp4558
g62
(dp4559
g89
g90
ssg71
g4549
sg64
(lp4560
S':'
asbag57
(g78
g59
NtRp4561
(dp4562
g62
(dp4563
sg71
g4549
sg64
(lp4564
g57
(g58
g59
NtRp4565
(dp4566
g62
(dp4567
g70
I3
ssg71
g4561
sg64
(lp4568
S''
asbasbasbag57
(g73
g59
NtRp4569
(dp4570
g62
(dp4571
sg71
g4525
sg64
(lp4572
g57
(g78
g59
NtRp4573
(dp4574
g62
(dp4575
g82
g83
ssg71
g4569
sg64
(lp4576
g326
asbag57
(g78
g59
NtRp4577
(dp4578
g62
(dp4579
g89
g90
ssg71
g4569
sg64
(lp4580
S':'
asbag57
(g78
g59
NtRp4581
(dp4582
g62
(dp4583
sg71
g4569
sg64
(lp4584
g57
(g58
g59
NtRp4585
(dp4586
g62
(dp4587
g70
I3
ssg71
g4581
sg64
(lp4588
S'2592000'
p4589
asbasbasbag57
(g73
g59
NtRp4590
(dp4591
g62
(dp4592
sg71
g4525
sg64
(lp4593
g57
(g78
g59
NtRp4594
(dp4595
g62
(dp4596
g82
g83
ssg71
g4590
sg64
(lp4597
g347
asbag57
(g78
g59
NtRp4598
(dp4599
g62
(dp4600
g89
g90
ssg71
g4590
sg64
(lp4601
S':'
asbag57
(g78
g59
NtRp4602
(dp4603
g62
(dp4604
sg71
g4590
sg64
(lp4605
g57
(g58
g59
NtRp4606
(dp4607
g62
(dp4608
g70
I3
ssg71
g4602
sg64
(lp4609
S''
asbasbasbag57
(g73
g59
NtRp4610
(dp4611
g62
(dp4612
sg71
g4525
sg64
(lp4613
g57
(g78
g59
NtRp4614
(dp4615
g62
(dp4616
g82
g83
ssg71
g4610
sg64
(lp4617
g368
asbag57
(g78
g59
NtRp4618
(dp4619
g62
(dp4620
g89
g90
ssg71
g4610
sg64
(lp4621
S':'
asbag57
(g78
g59
NtRp4622
(dp4623
g62
(dp4624
sg71
g4610
sg64
(lp4625
g57
(g58
g59
NtRp4626
(dp4627
g62
(dp4628
g70
I3
ssg71
g4622
sg64
(lp4629
S''
asbasbasbag57
(g73
g59
NtRp4630
(dp4631
g62
(dp4632
sg71
g4525
sg64
(lp4633
g57
(g78
g59
NtRp4634
(dp4635
g62
(dp4636
g82
g83
ssg71
g4630
sg64
(lp4637
g389
asbag57
(g78
g59
NtRp4638
(dp4639
g62
(dp4640
g89
g90
ssg71
g4630
sg64
(lp4641
S':'
asbag57
(g78
g59
NtRp4642
(dp4643
g62
(dp4644
sg71
g4630
sg64
(lp4645
g57
(g58
g59
NtRp4646
(dp4647
g62
(dp4648
g70
I3
ssg71
g4642
sg64
(lp4649
S'/'
asbasbasbag57
(g73
g59
NtRp4650
(dp4651
g62
(dp4652
sg71
g4525
sg64
(lp4653
g57
(g78
g59
NtRp4654
(dp4655
g62
(dp4656
g82
g83
ssg71
g4650
sg64
(lp4657
g410
asbag57
(g78
g59
NtRp4658
(dp4659
g62
(dp4660
g89
g90
ssg71
g4650
sg64
(lp4661
S':'
asbag57
(g78
g59
NtRp4662
(dp4663
g62
(dp4664
sg71
g4650
sg64
(lp4665
g57
(g58
g59
NtRp4666
(dp4667
g62
(dp4668
g70
I3
ssg71
g4662
sg64
(lp4669
S''
asbasbasbag57
(g73
g59
NtRp4670
(dp4671
g62
(dp4672
sg71
g4525
sg64
(lp4673
g57
(g78
g59
NtRp4674
(dp4675
g62
(dp4676
g82
g83
ssg71
g4670
sg64
(lp4677
g431
asbag57
(g78
g59
NtRp4678
(dp4679
g62
(dp4680
g89
g90
ssg71
g4670
sg64
(lp4681
S':'
asbag57
(g78
g59
NtRp4682
(dp4683
g62
(dp4684
sg71
g4670
sg64
(lp4685
g57
(g58
g59
NtRp4686
(dp4687
g62
(dp4688
g70
I3
ssg71
g4682
sg64
(lp4689
S''
asbasbasbasbasbasbasbasbasbasbasbag57
(g73
g59
NtRp4690
(dp4691
g62
(dp4692
sg71
g4455
sg64
(lp4693
g57
(g78
g59
NtRp4694
(dp4695
g62
(dp4696
g82
g83
ssg71
g4690
sg64
(lp4697
S'files'
p4698
asbag57
(g78
g59
NtRp4699
(dp4700
g62
(dp4701
g89
g90
ssg71
g4690
sg64
(lp4702
S':'
asbag57
(g78
g59
NtRp4703
(dp4704
g62
(dp4705
sg71
g4690
sg64
(lp4706
g57
(g58
g59
NtRp4707
(dp4708
g62
(dp4709
g70
I5
ssg71
g4703
sg64
(lp4710
g57
(g66
g59
NtRp4711
(dp4712
g62
(dp4713
g70
I4
ssg71
Nsg64
(lp4714
sbasbasbasbag57
(g73
g59
NtRp4715
(dp4716
g62
(dp4717
sg71
g4455
sg64
(lp4718
g57
(g78
g59
NtRp4719
(dp4720
g62
(dp4721
g82
g83
ssg71
g4715
sg64
(lp4722
S'flash'
p4723
asbag57
(g78
g59
NtRp4724
(dp4725
g62
(dp4726
g89
g90
ssg71
g4715
sg64
(lp4727
S':'
asbag57
(g78
g59
NtRp4728
(dp4729
g62
(dp4730
sg71
g4715
sg64
(lp4731
g57
(g58
g59
NtRp4732
(dp4733
g62
(dp4734
g70
I5
ssg71
g4728
sg64
(lp4735
S''
asbasbasbag57
(g73
g59
NtRp4736
(dp4737
g62
(dp4738
sg71
g4455
sg64
(lp4739
g57
(g78
g59
NtRp4740
(dp4741
g62
(dp4742
g82
g83
ssg71
g4736
sg64
(lp4743
S'generic_patterns'
p4744
asbag57
(g78
g59
NtRp4745
(dp4746
g62
(dp4747
g89
g90
ssg71
g4736
sg64
(lp4748
S':'
asbag57
(g78
g59
NtRp4749
(dp4750
g62
(dp4751
sg71
g4736
sg64
(lp4752
g57
(g58
g59
NtRp4753
(dp4754
g62
(dp4755
g70
I5
ssg71
g4749
sg64
(lp4756
g57
(g66
g59
NtRp4757
(dp4758
g62
(dp4759
g70
I4
ssg71
Nsg64
(lp4760
g57
(g73
g59
NtRp4761
(dp4762
g62
(dp4763
sg71
g4757
sg64
(lp4764
g57
(g78
g59
NtRp4765
(dp4766
g62
(dp4767
sg71
g4761
sg64
(lp4768
g57
(g58
g59
NtRp4769
(dp4770
g62
(dp4771
g70
I4
ssg71
g4765
sg64
(lp4772
S'*'
asbasbasbasbasbasbasbag57
(g73
g59
NtRp4773
(dp4774
g62
(dp4775
sg71
g4455
sg64
(lp4776
g57
(g78
g59
NtRp4777
(dp4778
g62
(dp4779
g82
g83
ssg71
g4773
sg64
(lp4780
S'headers'
p4781
asbag57
(g78
g59
NtRp4782
(dp4783
g62
(dp4784
g89
g90
ssg71
g4773
sg64
(lp4785
S':'
asbag57
(g78
g59
NtRp4786
(dp4787
g62
(dp4788
sg71
g4773
sg64
(lp4789
g57
(g58
g59
NtRp4790
(dp4791
g62
(dp4792
g70
I5
ssg71
g4786
sg64
(lp4793
g57
(g66
g59
NtRp4794
(dp4795
g62
(dp4796
g70
I4
ssg71
Nsg64
(lp4797
g57
(g73
g59
NtRp4798
(dp4799
g62
(dp4800
sg71
g4794
sg64
(lp4801
g57
(g78
g59
NtRp4802
(dp4803
g62
(dp4804
g82
g83
ssg71
g4798
sg64
(lp4805
S'Cache-Control'
p4806
asbag57
(g78
g59
NtRp4807
(dp4808
g62
(dp4809
g89
g90
ssg71
g4798
sg64
(lp4810
S':'
asbag57
(g78
g59
NtRp4811
(dp4812
g62
(dp4813
sg71
g4798
sg64
(lp4814
g57
(g58
g59
NtRp4815
(dp4816
g62
(dp4817
g70
I4
ssg71
g4811
sg64
(lp4818
S'no-store, no-cache, must-revalidate, post-check=0, pre-check=0'
p4819
asbasbasbag57
(g73
g59
NtRp4820
(dp4821
g62
(dp4822
sg71
g4794
sg64
(lp4823
g57
(g78
g59
NtRp4824
(dp4825
g62
(dp4826
g82
g83
ssg71
g4820
sg64
(lp4827
S'Content-Type'
p4828
asbag57
(g78
g59
NtRp4829
(dp4830
g62
(dp4831
g89
g90
ssg71
g4820
sg64
(lp4832
S':'
asbag57
(g78
g59
NtRp4833
(dp4834
g62
(dp4835
sg71
g4820
sg64
(lp4836
g57
(g58
g59
NtRp4837
(dp4838
g62
(dp4839
g70
I4
ssg71
g4833
sg64
(lp4840
S'text/html; charset=utf-8'
p4841
asbasbasbag57
(g73
g59
NtRp4842
(dp4843
g62
(dp4844
sg71
g4794
sg64
(lp4845
g57
(g78
g59
NtRp4846
(dp4847
g62
(dp4848
g82
g83
ssg71
g4842
sg64
(lp4849
S'Expires'
p4850
asbag57
(g78
g59
NtRp4851
(dp4852
g62
(dp4853
g89
g90
ssg71
g4842
sg64
(lp4854
S':'
asbag57
(g78
g59
NtRp4855
(dp4856
g62
(dp4857
sg71
g4842
sg64
(lp4858
g57
(g58
g59
NtRp4859
(dp4860
g62
(dp4861
g70
I4
ssg71
g4855
sg64
(lp4862
S'Wed, 18 Jan 2012 22:16:53 GMT'
p4863
asbasbasbag57
(g73
g59
NtRp4864
(dp4865
g62
(dp4866
sg71
g4794
sg64
(lp4867
g57
(g78
g59
NtRp4868
(dp4869
g62
(dp4870
g82
g83
ssg71
g4864
sg64
(lp4871
S'Pragma'
p4872
asbag57
(g78
g59
NtRp4873
(dp4874
g62
(dp4875
g89
g90
ssg71
g4864
sg64
(lp4876
S':'
asbag57
(g78
g59
NtRp4877
(dp4878
g62
(dp4879
sg71
g4864
sg64
(lp4880
g57
(g58
g59
NtRp4881
(dp4882
g62
(dp4883
g70
I4
ssg71
g4877
sg64
(lp4884
S'no-cache'
p4885
asbasbasbag57
(g73
g59
NtRp4886
(dp4887
g62
(dp4888
sg71
g4794
sg64
(lp4889
g57
(g78
g59
NtRp4890
(dp4891
g62
(dp4892
g82
g83
ssg71
g4886
sg64
(lp4893
S'X-Powered-By'
p4894
asbag57
(g78
g59
NtRp4895
(dp4896
g62
(dp4897
g89
g90
ssg71
g4886
sg64
(lp4898
S':'
asbag57
(g78
g59
NtRp4899
(dp4900
g62
(dp4901
sg71
g4886
sg64
(lp4902
g57
(g58
g59
NtRp4903
(dp4904
g62
(dp4905
g70
I4
ssg71
g4899
sg64
(lp4906
S'web2py'
p4907
asbasbasbasbasbasbasbag57
(g73
g59
NtRp4908
(dp4909
g62
(dp4910
sg71
g4455
sg64
(lp4911
g57
(g78
g59
NtRp4912
(dp4913
g62
(dp4914
g82
g83
ssg71
g4908
sg64
(lp4915
S'menu'
p4916
asbag57
(g78
g59
NtRp4917
(dp4918
g62
(dp4919
g89
g90
ssg71
g4908
sg64
(lp4920
S':'
asbag57
(g78
g59
NtRp4921
(dp4922
g62
(dp4923
sg71
g4908
sg64
(lp4924
g57
(g58
g59
NtRp4925
(dp4926
g62
(dp4927
g70
I5
ssg71
g4921
sg64
(lp4928
g57
(g66
g59
NtRp4929
(dp4930
g62
(dp4931
g70
I4
ssg71
Nsg64
(lp4932
g57
(g73
g59
NtRp4933
(dp4934
g62
(dp4935
sg71
g4929
sg64
(lp4936
g57
(g78
g59
NtRp4937
(dp4938
g62
(dp4939
sg71
g4933
sg64
(lp4940
g57
(g58
g59
NtRp4941
(dp4942
g62
(dp4943
g70
I4
ssg71
g4937
sg64
(lp4944
g57
(g66
g59
NtRp4945
(dp4946
g62
(dp4947
g70
I3
ssg71
Nsg64
(lp4948
g57
(g73
g59
NtRp4949
(dp4950
g62
(dp4951
sg71
g4945
sg64
(lp4952
g57
(g78
g59
NtRp4953
(dp4954
g62
(dp4955
sg71
g4949
sg64
(lp4956
g57
(g58
g59
NtRp4957
(dp4958
g62
(dp4959
g70
I3
ssg71
g4953
sg64
(lp4960
cgluon.languages
lazyT_unpickle
p4961
(S't\x04\x00\x00\x00Home'
tRp4962
asbasbasbag57
(g73
g59
NtRp4963
(dp4964
g62
(dp4965
sg71
g4945
sg64
(lp4966
g57
(g78
g59
NtRp4967
(dp4968
g62
(dp4969
sg71
g4963
sg64
(lp4970
g57
(g58
g59
NtRp4971
(dp4972
g62
(dp4973
g70
I3
ssg71
g4967
sg64
(lp4974
g100
asbasbasbag57
(g73
g59
NtRp4975
(dp4976
g62
(dp4977
sg71
g4945
sg64
(lp4978
g57
(g78
g59
NtRp4979
(dp4980
g62
(dp4981
sg71
g4975
sg64
(lp4982
g57
(g58
g59
NtRp4983
(dp4984
g62
(dp4985
g70
I3
ssg71
g4979
sg64
(lp4986
S'/paideia/default/index'
p4987
asbasbasbag57
(g73
g59
NtRp4988
(dp4989
g62
(dp4990
sg71
g4945
sg64
(lp4991
g57
(g78
g59
NtRp4992
(dp4993
g62
(dp4994
sg71
g4988
sg64
(lp4995
g57
(g58
g59
NtRp4996
(dp4997
g62
(dp4998
g70
I3
ssg71
g4992
sg64
(lp4999
g57
(g66
g59
NtRp5000
(dp5001
g62
(dp5002
g70
I2
ssg71
Nsg64
(lp5003
sbasbasbasbasbasbasbasbag57
(g73
g59
NtRp5004
(dp5005
g62
(dp5006
sg71
g4929
sg64
(lp5007
g57
(g78
g59
NtRp5008
(dp5009
g62
(dp5010
sg71
g5004
sg64
(lp5011
g57
(g58
g59
NtRp5012
(dp5013
g62
(dp5014
g70
I4
ssg71
g5008
sg64
(lp5015
g57
(g66
g59
NtRp5016
(dp5017
g62
(dp5018
g70
I3
ssg71
Nsg64
(lp5019
g57
(g73
g59
NtRp5020
(dp5021
g62
(dp5022
sg71
g5016
sg64
(lp5023
g57
(g78
g59
NtRp5024
(dp5025
g62
(dp5026
sg71
g5020
sg64
(lp5027
g57
(g58
g59
NtRp5028
(dp5029
g62
(dp5030
g70
I3
ssg71
g5024
sg64
(lp5031
g4961
(S't\x05\x00\x00\x00Admin'
tRp5032
asbasbasbag57
(g73
g59
NtRp5033
(dp5034
g62
(dp5035
sg71
g5016
sg64
(lp5036
g57
(g78
g59
NtRp5037
(dp5038
g62
(dp5039
sg71
g5033
sg64
(lp5040
g57
(g58
g59
NtRp5041
(dp5042
g62
(dp5043
g70
I3
ssg71
g5037
sg64
(lp5044
g100
asbasbasbag57
(g73
g59
NtRp5045
(dp5046
g62
(dp5047
sg71
g5016
sg64
(lp5048
g57
(g78
g59
NtRp5049
(dp5050
g62
(dp5051
sg71
g5045
sg64
(lp5052
g57
(g58
g59
NtRp5053
(dp5054
g62
(dp5055
g70
I3
ssg71
g5049
sg64
(lp5056
S'None'
p5057
asbasbasbag57
(g73
g59
NtRp5058
(dp5059
g62
(dp5060
sg71
g5016
sg64
(lp5061
g57
(g78
g59
NtRp5062
(dp5063
g62
(dp5064
sg71
g5058
sg64
(lp5065
g57
(g58
g59
NtRp5066
(dp5067
g62
(dp5068
g70
I3
ssg71
g5062
sg64
(lp5069
g57
(g66
g59
NtRp5070
(dp5071
g62
(dp5072
g70
I2
ssg71
Nsg64
(lp5073
g57
(g73
g59
NtRp5074
(dp5075
g62
(dp5076
sg71
g5070
sg64
(lp5077
g57
(g78
g59
NtRp5078
(dp5079
g62
(dp5080
sg71
g5074
sg64
(lp5081
g57
(g58
g59
NtRp5082
(dp5083
g62
(dp5084
g70
I2
ssg71
g5078
sg64
(lp5085
g57
(g66
g59
NtRp5086
(dp5087
g62
(dp5088
g70
I1
ssg71
Nsg64
(lp5089
g57
(g73
g59
NtRp5090
(dp5091
g62
(dp5092
sg71
g5086
sg64
(lp5093
g57
(g78
g59
NtRp5094
(dp5095
g62
(dp5096
sg71
g5090
sg64
(lp5097
g57
(g58
g59
NtRp5098
(dp5099
g62
(dp5100
g70
I1
ssg71
g5094
sg64
(lp5101
g4961
(S't\x06\x00\x00\x00Design'
tRp5102
asbasbasbag57
(g73
g59
NtRp5103
(dp5104
g62
(dp5105
sg71
g5086
sg64
(lp5106
g57
(g78
g59
NtRp5107
(dp5108
g62
(dp5109
sg71
g5103
sg64
(lp5110
g57
(g58
g59
NtRp5111
(dp5112
g62
(dp5113
g70
I1
ssg71
g5107
sg64
(lp5114
I00
asbasbasbag57
(g73
g59
NtRp5115
(dp5116
g62
(dp5117
sg71
g5086
sg64
(lp5118
g57
(g78
g59
NtRp5119
(dp5120
g62
(dp5121
sg71
g5115
sg64
(lp5122
g57
(g58
g59
NtRp5123
(dp5124
g62
(dp5125
g70
I1
ssg71
g5119
sg64
(lp5126
S'/admin/default/index'
p5127
asbasbasbasbasbasbasbag57
(g73
g59
NtRp5128
(dp5129
g62
(dp5130
sg71
g5070
sg64
(lp5131
g57
(g78
g59
NtRp5132
(dp5133
g62
(dp5134
sg71
g5128
sg64
(lp5135
g57
(g58
g59
NtRp5136
(dp5137
g62
(dp5138
g70
I2
ssg71
g5132
sg64
(lp5139
g57
(g66
g59
NtRp5140
(dp5141
g62
(dp5142
g70
I1
ssg71
Nsg64
(lp5143
g57
(g73
g59
NtRp5144
(dp5145
g62
(dp5146
sg71
g5140
sg64
(lp5147
g57
(g78
g59
NtRp5148
(dp5149
g62
(dp5150
sg71
g5144
sg64
(lp5151
g57
(g58
g59
NtRp5152
(dp5153
g62
(dp5154
g70
I1
ssg71
g5148
sg64
(lp5155
g4961
(S't\x08\x00\x00\x00Database'
tRp5156
asbasbasbag57
(g73
g59
NtRp5157
(dp5158
g62
(dp5159
sg71
g5140
sg64
(lp5160
g57
(g78
g59
NtRp5161
(dp5162
g62
(dp5163
sg71
g5157
sg64
(lp5164
g57
(g58
g59
NtRp5165
(dp5166
g62
(dp5167
g70
I1
ssg71
g5161
sg64
(lp5168
I00
asbasbasbag57
(g73
g59
NtRp5169
(dp5170
g62
(dp5171
sg71
g5140
sg64
(lp5172
g57
(g78
g59
NtRp5173
(dp5174
g62
(dp5175
sg71
g5169
sg64
(lp5176
g57
(g58
g59
NtRp5177
(dp5178
g62
(dp5179
g70
I1
ssg71
g5173
sg64
(lp5180
S'/paideia/appadmin/index'
p5181
asbasbasbasbasbasbasbag57
(g73
g59
NtRp5182
(dp5183
g62
(dp5184
sg71
g5070
sg64
(lp5185
g57
(g78
g59
NtRp5186
(dp5187
g62
(dp5188
sg71
g5182
sg64
(lp5189
g57
(g58
g59
NtRp5190
(dp5191
g62
(dp5192
g70
I2
ssg71
g5186
sg64
(lp5193
g57
(g66
g59
NtRp5194
(dp5195
g62
(dp5196
g70
I1
ssg71
Nsg64
(lp5197
g57
(g73
g59
NtRp5198
(dp5199
g62
(dp5200
sg71
g5194
sg64
(lp5201
g57
(g78
g59
NtRp5202
(dp5203
g62
(dp5204
sg71
g5198
sg64
(lp5205
g57
(g58
g59
NtRp5206
(dp5207
g62
(dp5208
g70
I1
ssg71
g5202
sg64
(lp5209
g4961
(S't\x05\x00\x00\x00Users'
tRp5210
asbasbasbag57
(g73
g59
NtRp5211
(dp5212
g62
(dp5213
sg71
g5194
sg64
(lp5214
g57
(g78
g59
NtRp5215
(dp5216
g62
(dp5217
sg71
g5211
sg64
(lp5218
g57
(g58
g59
NtRp5219
(dp5220
g62
(dp5221
g70
I1
ssg71
g5215
sg64
(lp5222
I00
asbasbasbag57
(g73
g59
NtRp5223
(dp5224
g62
(dp5225
sg71
g5194
sg64
(lp5226
g57
(g78
g59
NtRp5227
(dp5228
g62
(dp5229
sg71
g5223
sg64
(lp5230
g57
(g58
g59
NtRp5231
(dp5232
g62
(dp5233
g70
I1
ssg71
g5227
sg64
(lp5234
S'/paideia/listing/user'
p5235
asbasbasbasbasbasbasbag57
(g73
g59
NtRp5236
(dp5237
g62
(dp5238
sg71
g5070
sg64
(lp5239
g57
(g78
g59
NtRp5240
(dp5241
g62
(dp5242
sg71
g5236
sg64
(lp5243
g57
(g58
g59
NtRp5244
(dp5245
g62
(dp5246
g70
I2
ssg71
g5240
sg64
(lp5247
g57
(g66
g59
NtRp5248
(dp5249
g62
(dp5250
g70
I1
ssg71
Nsg64
(lp5251
g57
(g73
g59
NtRp5252
(dp5253
g62
(dp5254
sg71
g5248
sg64
(lp5255
g57
(g78
g59
NtRp5256
(dp5257
g62
(dp5258
sg71
g5252
sg64
(lp5259
g57
(g58
g59
NtRp5260
(dp5261
g62
(dp5262
g70
I1
ssg71
g5256
sg64
(lp5263
g4961
(S't\t\x00\x00\x00Questions'
tRp5264
asbasbasbag57
(g73
g59
NtRp5265
(dp5266
g62
(dp5267
sg71
g5248
sg64
(lp5268
g57
(g78
g59
NtRp5269
(dp5270
g62
(dp5271
sg71
g5265
sg64
(lp5272
g57
(g58
g59
NtRp5273
(dp5274
g62
(dp5275
g70
I1
ssg71
g5269
sg64
(lp5276
I00
asbasbasbag57
(g73
g59
NtRp5277
(dp5278
g62
(dp5279
sg71
g5248
sg64
(lp5280
g57
(g78
g59
NtRp5281
(dp5282
g62
(dp5283
sg71
g5277
sg64
(lp5284
g57
(g58
g59
NtRp5285
(dp5286
g62
(dp5287
g70
I1
ssg71
g5281
sg64
(lp5288
S'/paideia/listing/question'
p5289
asbasbasbasbasbasbasbag57
(g73
g59
NtRp5290
(dp5291
g62
(dp5292
sg71
g5070
sg64
(lp5293
g57
(g78
g59
NtRp5294
(dp5295
g62
(dp5296
sg71
g5290
sg64
(lp5297
g57
(g58
g59
NtRp5298
(dp5299
g62
(dp5300
g70
I2
ssg71
g5294
sg64
(lp5301
g57
(g66
g59
NtRp5302
(dp5303
g62
(dp5304
g70
I1
ssg71
Nsg64
(lp5305
g57
(g73
g59
NtRp5306
(dp5307
g62
(dp5308
sg71
g5302
sg64
(lp5309
g57
(g78
g59
NtRp5310
(dp5311
g62
(dp5312
sg71
g5306
sg64
(lp5313
g57
(g58
g59
NtRp5314
(dp5315
g62
(dp5316
g70
I1
ssg71
g5310
sg64
(lp5317
g4961
(S't\x07\x00\x00\x00Quizzes'
tRp5318
asbasbasbag57
(g73
g59
NtRp5319
(dp5320
g62
(dp5321
sg71
g5302
sg64
(lp5322
g57
(g78
g59
NtRp5323
(dp5324
g62
(dp5325
sg71
g5319
sg64
(lp5326
g57
(g58
g59
NtRp5327
(dp5328
g62
(dp5329
g70
I1
ssg71
g5323
sg64
(lp5330
I00
asbasbasbag57
(g73
g59
NtRp5331
(dp5332
g62
(dp5333
sg71
g5302
sg64
(lp5334
g57
(g78
g59
NtRp5335
(dp5336
g62
(dp5337
sg71
g5331
sg64
(lp5338
g57
(g58
g59
NtRp5339
(dp5340
g62
(dp5341
g70
I1
ssg71
g5335
sg64
(lp5342
S'/paideia/listing/quiz'
p5343
asbasbasbasbasbasbasbag57
(g73
g59
NtRp5344
(dp5345
g62
(dp5346
sg71
g5070
sg64
(lp5347
g57
(g78
g59
NtRp5348
(dp5349
g62
(dp5350
sg71
g5344
sg64
(lp5351
g57
(g58
g59
NtRp5352
(dp5353
g62
(dp5354
g70
I2
ssg71
g5348
sg64
(lp5355
g57
(g66
g59
NtRp5356
(dp5357
g62
(dp5358
g70
I1
ssg71
Nsg64
(lp5359
g57
(g73
g59
NtRp5360
(dp5361
g62
(dp5362
sg71
g5356
sg64
(lp5363
g57
(g78
g59
NtRp5364
(dp5365
g62
(dp5366
sg71
g5360
sg64
(lp5367
g57
(g58
g59
NtRp5368
(dp5369
g62
(dp5370
g70
I1
ssg71
g5364
sg64
(lp5371
g4961
(S't\x04\x00\x00\x00Tags'
tRp5372
asbasbasbag57
(g73
g59
NtRp5373
(dp5374
g62
(dp5375
sg71
g5356
sg64
(lp5376
g57
(g78
g59
NtRp5377
(dp5378
g62
(dp5379
sg71
g5373
sg64
(lp5380
g57
(g58
g59
NtRp5381
(dp5382
g62
(dp5383
g70
I1
ssg71
g5377
sg64
(lp5384
I00
asbasbasbag57
(g73
g59
NtRp5385
(dp5386
g62
(dp5387
sg71
g5356
sg64
(lp5388
g57
(g78
g59
NtRp5389
(dp5390
g62
(dp5391
sg71
g5385
sg64
(lp5392
g57
(g58
g59
NtRp5393
(dp5394
g62
(dp5395
g70
I1
ssg71
g5389
sg64
(lp5396
S'/paideia/listing/tag'
p5397
asbasbasbasbasbasbasbasbasbasbasbasbasbasbasbasbasbasbasbag57
(g73
g59
NtRp5398
(dp5399
g62
(dp5400
sg71
g4455
sg64
(lp5401
g57
(g78
g59
NtRp5402
(dp5403
g62
(dp5404
g82
g83
ssg71
g5398
sg64
(lp5405
S'meta'
p5406
asbag57
(g78
g59
NtRp5407
(dp5408
g62
(dp5409
g89
g90
ssg71
g5398
sg64
(lp5410
S':'
asbag57
(g78
g59
NtRp5411
(dp5412
g62
(dp5413
sg71
g5398
sg64
(lp5414
g57
(g58
g59
NtRp5415
(dp5416
g62
(dp5417
g70
I5
ssg71
g5411
sg64
(lp5418
g57
(g66
g59
NtRp5419
(dp5420
g62
(dp5421
g70
I4
ssg71
Nsg64
(lp5422
g57
(g73
g59
NtRp5423
(dp5424
g62
(dp5425
sg71
g5419
sg64
(lp5426
g57
(g78
g59
NtRp5427
(dp5428
g62
(dp5429
g82
g83
ssg71
g5423
sg64
(lp5430
S'author'
p5431
asbag57
(g78
g59
NtRp5432
(dp5433
g62
(dp5434
g89
g90
ssg71
g5423
sg64
(lp5435
S':'
asbag57
(g78
g59
NtRp5436
(dp5437
g62
(dp5438
sg71
g5423
sg64
(lp5439
g57
(g58
g59
NtRp5440
(dp5441
g62
(dp5442
g70
I4
ssg71
g5436
sg64
(lp5443
S'Ian W. Scott'
p5444
asbasbasbag57
(g73
g59
NtRp5445
(dp5446
g62
(dp5447
sg71
g5419
sg64
(lp5448
g57
(g78
g59
NtRp5449
(dp5450
g62
(dp5451
g82
g83
ssg71
g5445
sg64
(lp5452
S'copyright'
p5453
asbag57
(g78
g59
NtRp5454
(dp5455
g62
(dp5456
g89
g90
ssg71
g5445
sg64
(lp5457
S':'
asbag57
(g78
g59
NtRp5458
(dp5459
g62
(dp5460
sg71
g5445
sg64
(lp5461
g57
(g58
g59
NtRp5462
(dp5463
g62
(dp5464
g70
I4
ssg71
g5458
sg64
(lp5465
S'Copyright 2011'
p5466
asbasbasbag57
(g73
g59
NtRp5467
(dp5468
g62
(dp5469
sg71
g5419
sg64
(lp5470
g57
(g78
g59
NtRp5471
(dp5472
g62
(dp5473
g82
g83
ssg71
g5467
sg64
(lp5474
S'description'
p5475
asbag57
(g78
g59
NtRp5476
(dp5477
g62
(dp5478
g89
g90
ssg71
g5467
sg64
(lp5479
S':'
asbag57
(g78
g59
NtRp5480
(dp5481
g62
(dp5482
sg71
g5467
sg64
(lp5483
g57
(g58
g59
NtRp5484
(dp5485
g62
(dp5486
g70
I4
ssg71
g5480
sg64
(lp5487
S'An online space for learning New Testament Greek'
p5488
asbasbasbag57
(g73
g59
NtRp5489
(dp5490
g62
(dp5491
sg71
g5419
sg64
(lp5492
g57
(g78
g59
NtRp5493
(dp5494
g62
(dp5495
g82
g83
ssg71
g5489
sg64
(lp5496
S'generator'
p5497
asbag57
(g78
g59
NtRp5498
(dp5499
g62
(dp5500
g89
g90
ssg71
g5489
sg64
(lp5501
S':'
asbag57
(g78
g59
NtRp5502
(dp5503
g62
(dp5504
sg71
g5489
sg64
(lp5505
g57
(g58
g59
NtRp5506
(dp5507
g62
(dp5508
g70
I4
ssg71
g5502
sg64
(lp5509
S'Web2py Enterprise Framework'
p5510
asbasbasbag57
(g73
g59
NtRp5511
(dp5512
g62
(dp5513
sg71
g5419
sg64
(lp5514
g57
(g78
g59
NtRp5515
(dp5516
g62
(dp5517
g82
g83
ssg71
g5511
sg64
(lp5518
S'keywords'
p5519
asbag57
(g78
g59
NtRp5520
(dp5521
g62
(dp5522
g89
g90
ssg71
g5511
sg64
(lp5523
S':'
asbag57
(g78
g59
NtRp5524
(dp5525
g62
(dp5526
sg71
g5511
sg64
(lp5527
g57
(g58
g59
NtRp5528
(dp5529
g62
(dp5530
g70
I4
ssg71
g5524
sg64
(lp5531
S'Greek, koine, New Testament, language, education, learning'
p5532
asbasbasbasbasbasbasbag57
(g73
g59
NtRp5533
(dp5534
g62
(dp5535
sg71
g4455
sg64
(lp5536
g57
(g78
g59
NtRp5537
(dp5538
g62
(dp5539
g82
g83
ssg71
g5533
sg64
(lp5540
S'postprocessing'
p5541
asbag57
(g78
g59
NtRp5542
(dp5543
g62
(dp5544
g89
g90
ssg71
g5533
sg64
(lp5545
S':'
asbag57
(g78
g59
NtRp5546
(dp5547
g62
(dp5548
sg71
g5533
sg64
(lp5549
g57
(g58
g59
NtRp5550
(dp5551
g62
(dp5552
g70
I5
ssg71
g5546
sg64
(lp5553
g57
(g66
g59
NtRp5554
(dp5555
g62
(dp5556
g70
I4
ssg71
Nsg64
(lp5557
sbasbasbasbag57
(g73
g59
NtRp5558
(dp5559
g62
(dp5560
sg71
g4455
sg64
(lp5561
g57
(g78
g59
NtRp5562
(dp5563
g62
(dp5564
g82
g83
ssg71
g5558
sg64
(lp5565
S'session_file'
p5566
asbag57
(g78
g59
NtRp5567
(dp5568
g62
(dp5569
g89
g90
ssg71
g5558
sg64
(lp5570
S':'
asbag57
(g78
g59
NtRp5571
(dp5572
g62
(dp5573
sg71
g5558
sg64
(lp5574
g57
(g58
g59
NtRp5575
(dp5576
g62
(dp5577
g70
I5
ssg71
g5571
sg64
(lp5578
S"<open file '/home/ian/web2py/applications/paideia/sessions/127.0.0.1-26fbb861-2ba5-4c09-9362-c3a45f2c5fe2', mode 'rb+' at 0x2eb6390>"
p5579
asbasbasbag57
(g73
g59
NtRp5580
(dp5581
g62
(dp5582
sg71
g4455
sg64
(lp5583
g57
(g78
g59
NtRp5584
(dp5585
g62
(dp5586
g82
g83
ssg71
g5580
sg64
(lp5587
S'session_filename'
p5588
asbag57
(g78
g59
NtRp5589
(dp5590
g62
(dp5591
g89
g90
ssg71
g5580
sg64
(lp5592
S':'
asbag57
(g78
g59
NtRp5593
(dp5594
g62
(dp5595
sg71
g5580
sg64
(lp5596
g57
(g58
g59
NtRp5597
(dp5598
g62
(dp5599
g70
I5
ssg71
g5593
sg64
(lp5600
S'/home/ian/web2py/applications/paideia/sessions/127.0.0.1-26fbb861-2ba5-4c09-9362-c3a45f2c5fe2'
p5601
asbasbasbag57
(g73
g59
NtRp5602
(dp5603
g62
(dp5604
sg71
g4455
sg64
(lp5605
g57
(g78
g59
NtRp5606
(dp5607
g62
(dp5608
g82
g83
ssg71
g5602
sg64
(lp5609
S'session_id'
p5610
asbag57
(g78
g59
NtRp5611
(dp5612
g62
(dp5613
g89
g90
ssg71
g5602
sg64
(lp5614
S':'
asbag57
(g78
g59
NtRp5615
(dp5616
g62
(dp5617
sg71
g5602
sg64
(lp5618
g57
(g58
g59
NtRp5619
(dp5620
g62
(dp5621
g70
I5
ssg71
g5615
sg64
(lp5622
S'127.0.0.1-26fbb861-2ba5-4c09-9362-c3a45f2c5fe2'
p5623
asbasbasbag57
(g73
g59
NtRp5624
(dp5625
g62
(dp5626
sg71
g4455
sg64
(lp5627
g57
(g78
g59
NtRp5628
(dp5629
g62
(dp5630
g82
g83
ssg71
g5624
sg64
(lp5631
S'session_id_name'
p5632
asbag57
(g78
g59
NtRp5633
(dp5634
g62
(dp5635
g89
g90
ssg71
g5624
sg64
(lp5636
S':'
asbag57
(g78
g59
NtRp5637
(dp5638
g62
(dp5639
sg71
g5624
sg64
(lp5640
g57
(g58
g59
NtRp5641
(dp5642
g62
(dp5643
g70
I5
ssg71
g5637
sg64
(lp5644
g4512
asbasbasbag57
(g73
g59
NtRp5645
(dp5646
g62
(dp5647
sg71
g4455
sg64
(lp5648
g57
(g78
g59
NtRp5649
(dp5650
g62
(dp5651
g82
g83
ssg71
g5645
sg64
(lp5652
S'session_locked'
p5653
asbag57
(g78
g59
NtRp5654
(dp5655
g62
(dp5656
g89
g90
ssg71
g5645
sg64
(lp5657
S':'
asbag57
(g78
g59
NtRp5658
(dp5659
g62
(dp5660
sg71
g5645
sg64
(lp5661
g57
(g58
g59
NtRp5662
(dp5663
g62
(dp5664
g70
I5
ssg71
g5658
sg64
(lp5665
g1899
asbasbasbag57
(g73
g59
NtRp5666
(dp5667
g62
(dp5668
sg71
g4455
sg64
(lp5669
g57
(g78
g59
NtRp5670
(dp5671
g62
(dp5672
g82
g83
ssg71
g5666
sg64
(lp5673
S'session_new'
p5674
asbag57
(g78
g59
NtRp5675
(dp5676
g62
(dp5677
g89
g90
ssg71
g5666
sg64
(lp5678
S':'
asbag57
(g78
g59
NtRp5679
(dp5680
g62
(dp5681
sg71
g5666
sg64
(lp5682
g57
(g58
g59
NtRp5683
(dp5684
g62
(dp5685
g70
I5
ssg71
g5679
sg64
(lp5686
g100
asbasbasbag57
(g73
g59
NtRp5687
(dp5688
g62
(dp5689
sg71
g4455
sg64
(lp5690
g57
(g78
g59
NtRp5691
(dp5692
g62
(dp5693
g82
g83
ssg71
g5687
sg64
(lp5694
S'status'
p5695
asbag57
(g78
g59
NtRp5696
(dp5697
g62
(dp5698
g89
g90
ssg71
g5687
sg64
(lp5699
S':'
asbag57
(g78
g59
NtRp5700
(dp5701
g62
(dp5702
sg71
g5687
sg64
(lp5703
g57
(g58
g59
NtRp5704
(dp5705
g62
(dp5706
g70
I5
ssg71
g5700
sg64
(lp5707
S'200'
p5708
asbasbasbag57
(g73
g59
NtRp5709
(dp5710
g62
(dp5711
sg71
g4455
sg64
(lp5712
g57
(g78
g59
NtRp5713
(dp5714
g62
(dp5715
g82
g83
ssg71
g5709
sg64
(lp5716
S'subtitle'
p5717
asbag57
(g78
g59
NtRp5718
(dp5719
g62
(dp5720
g89
g90
ssg71
g5709
sg64
(lp5721
S':'
asbag57
(g78
g59
NtRp5722
(dp5723
g62
(dp5724
sg71
g5709
sg64
(lp5725
g57
(g58
g59
NtRp5726
(dp5727
g62
(dp5728
g70
I5
ssg71
g5722
sg64
(lp5729
g4961
(S's0\x00\x00\x00An online space for learning New Testament Greek'
tRp5730
asbasbasbag57
(g73
g59
NtRp5731
(dp5732
g62
(dp5733
sg71
g4455
sg64
(lp5734
g57
(g78
g59
NtRp5735
(dp5736
g62
(dp5737
g82
g83
ssg71
g5731
sg64
(lp5738
S'title'
p5739
asbag57
(g78
g59
NtRp5740
(dp5741
g62
(dp5742
g89
g90
ssg71
g5731
sg64
(lp5743
S':'
asbag57
(g78
g59
NtRp5744
(dp5745
g62
(dp5746
sg71
g5731
sg64
(lp5747
g57
(g58
g59
NtRp5748
(dp5749
g62
(dp5750
g70
I5
ssg71
g5744
sg64
(lp5751
g122
asbasbasbag57
(g73
g59
NtRp5752
(dp5753
g62
(dp5754
sg71
g4455
sg64
(lp5755
g57
(g78
g59
NtRp5756
(dp5757
g62
(dp5758
g82
g83
ssg71
g5752
sg64
(lp5759
g2584
asbag57
(g78
g59
NtRp5760
(dp5761
g62
(dp5762
g89
g90
ssg71
g5752
sg64
(lp5763
S':'
asbag57
(g78
g59
NtRp5764
(dp5765
g62
(dp5766
sg71
g5752
sg64
(lp5767
g57
(g58
g59
NtRp5768
(dp5769
g62
(dp5770
g70
I5
ssg71
g5764
sg64
(lp5771
g2597
asbasbasbag57
(g73
g59
NtRp5772
(dp5773
g62
(dp5774
sg71
g4455
sg64
(lp5775
g57
(g78
g59
NtRp5776
(dp5777
g62
(dp5778
g82
g83
ssg71
g5772
sg64
(lp5779
S'view'
p5780
asbag57
(g78
g59
NtRp5781
(dp5782
g62
(dp5783
g89
g90
ssg71
g5772
sg64
(lp5784
S':'
asbag57
(g78
g59
NtRp5785
(dp5786
g62
(dp5787
sg71
g5772
sg64
(lp5788
g57
(g58
g59
NtRp5789
(dp5790
g62
(dp5791
g70
I5
ssg71
g5785
sg64
(lp5792
S'default/user.html'
p5793
asbasbasbasbasbsS'locals'
p5794
(dp5795
S'represent'
p5796
S'<function represent>'
p5797
sS'mailer'
p5798
g1899
sS'lazy_user'
p5799
S'<function lazy_user>'
p5800
sS'settings'
p5801
S"<Storage {'showid': False, 'verify_email_onaccep...trieve_username_next': '/paideia/default/index'}>"
p5802
sS'messages'
p5803
S"<Storage {'invalid_email': 'Invalid email', 'del...was emailed to you', 'add_membership_log': None}>"
p5804
sS'self'
p5805
S'<gluon.tools.Auth object>'
p5806
sg56
S"<Storage {'body': <cStringIO.StringO object at 0...eia/default/index'}>, 'post_vars': <Storage {}>}>"
p5807
sS'auth'
p5808
S"<Storage {'hmac_key': '60ece5e3-5323-47ed-9407-5...012, 1, 2, 15, 42, 40, 42986), 'remember': True}>"
p5809
sg4450
S"<Storage {'body': <cStringIO.StringO object at 0...bda> at 0x2d6db90>, 'view': 'default/user.html'}>"
p5810
sS'db'
p5811
S'None'
p5812
sS'cas_provider'
p5813
S'None'
p5814
sg212
S"'default'"
p5815
sg3409
S"<Storage {'path_name': 'Tyndale - Greek Exegesis...reate]': '5bb96d8c-6ef5-435a-9405-4dd637f9a8e1'}>"
p5816
sS'hmac_key'
p5817
S'None'
p5818
sS'reference_user'
p5819
S"'reference auth_user'"
p5820
sS'environment'
p5821
S'None'
p5822
sssS'traceback'
p5823
S'Traceback (most recent call last):\n  File "/home/ian/web2py/gluon/restricted.py", line 204, in restricted\n    exec ccode in environment\n  File "/home/ian/web2py/applications/paideia/controllers/default.py", line 13, in <module>\n    from paideia_stats import paideia_stats, paideia_timestats, paideia_weeklycount\n  File "/home/ian/web2py/gluon/custom_import.py", line 289, in __call__\n    globals, locals, fromlist, level)\n  File "/home/ian/web2py/gluon/custom_import.py", line 78, in __call__\n    level)\n  File "applications/paideia/modules/paideia_stats.py", line 9, in <module>\n    auth = Auth()\n  File "/home/ian/web2py/gluon/tools.py", line 1091, in __init__\n    self.signature = db.Table(self.db,\'auth_signature\',\nAttributeError: \'NoneType\' object has no attribute \'Table\'\n'
p5824
s.