(dp1
S'output'
p2
S'<class \'sqlite3.OperationalError\'> near "<": syntax error'
p3
sS'layer'
p4
S'/home/ian/web/web2py/applications/paideia/controllers/exploring.py'
p5
sS'code'
p6
S'# coding: utf8\nfrom paideia_exploring import paideia_path, paideia_tag, counter, map\nfrom paideia_questions import question\nimport pprint\n\ndef session_init():\n    print \'calling session_init\'\n    #categorize paths for today\n    tags = paideia_tag()\n    session.tagset = tags.categorize_tags()\n    print \'returned categorized tags\'\n    print \'session.tagset: \', pprint.pprint(session.tagset)\n    #add paths that weren\'t finished during last session\n    path = paideia_path()\n    session.active_paths = path.find_unfinished()\n    print \'returned unfinished paths\'\n    print \'session active_paths: \', session.active_paths\n\ndef step_init():\n    print \'calling step_init()\'\n    #find out what location has been entered\n    curr_loc = db(db.locations.alias == request.vars[\'loc\']).select(id).first()\n    print \'current location: \', curr_loc\n\n    #check to see whether any constraints are in place \n    if \'blocks\' in session:\n        print \'active block conditions: \', session.blocks\n        #TODO: Add logic here to handle blocking conditions\n    else:\n        print \'no blocking conditions\'\n    \n    #find out what paths (if any) are currently active\n    paths = session.active_path or None\n    print \'active paths: \', paths\n    \n    #if no constraints and no active path start new path\n    #find paths with tags open to student\n    #look for tags with high priority\n    #if none look for tags with medium priority\n    #if none,  \n    return dict()\n\ndef stepask():\n    #check to see whether a path is active and determines the next step\n    if session.active_path:\n        pass\n    \n    #if not, initiate new path \n    if not request.vars.response:\n        set_path = paideia_path()\n        set_counter = counter()\n        the_question = question()\n        the_question.selectq()\n\n    form = SQLFORM.factory(\n        Field(\'response\', \'string\', requires=IS_NOT_EMPTY())\n    )\n    if form.accepts(request.vars,session):\n        session.response = request.vars.response\n        redirect(URL(\'index\', args=[\'reply\']))\n\n    return dict(question=session.question_text, form=form)\n\ndef stepreply():\n    #see whether answer matches any of the three answer fields\n    q = question()\n    the_eval = q.evalq()\n\n    #build response to user\n    if session.eval == \'correct\':\n        the_reply = "Right. \xce\x9a\xce\xac\xce\xbb\xce\xb7."\n    elif session.eval == \'partial\':\n        the_reply = "\xce\x9f\xe1\xbd\x90 \xce\xba\xce\xac\xce\xba\xce\xbf\xcf\x82. You\'re close."\n    else:\n        the_reply = "Incorrect. Try again!"\n\n    #add a record for this attempt in db.attempt_log\n    db.attempt_log.insert(question=session.q_ID, score=q.score, quiz=session.path_id)\n\n    return dict(reply=the_reply, answer=session.readable_answer, raw_answer=session.answer, score=session.score)\n\n\ndef patherror():\n    if request.args(1) == \'unknown\':\n        db.q_bugs.insert(question=session.qID, a_submitted=request.vars.answer)\n        #TODO: fix problem with changing column name for status\n        #db(db.questions.id==session.qID).update(qqq_status=1);\n    if request.args(1) == \'regex\':\n        db.q_bugs.insert(question=session.qID, a_submitted=request.vars.answer)\n        #db(db.questions.id==session.qID).update(qqq_status=1);\n    message = "Oops! Something about that question confused me, and I\'m not sure whether your answer was right. Let\'s try another one."\n    button = A(\'continue\', _href=URL(\'index\', args=[\'ask\']), _class=\'button-green-grad next_q\', cid=request.cid)\n    #don\'t include this question in counting the number attempted\n    session.q_counter -= 1\n    return dict(message = message, button = button)\n\n@auth.requires_login()\ndef index():\n    #check to see whether this user session has been initialized\n    if not session.tagset:\n        session_init()\n\n    #when user begins exploring (also default) present map\n    if (request.args(0) == \'start\') or (not request.args):\n        the_map = map()\n        for i in [\'blocks\', \'active_paths\', \'completed_paths\']:\n            if not session[i]:\n                print i\n                session[i] = None\n             \n        return dict(locs = the_map.locs, map_image = the_map.image)\n\n    #after user selects quiz (or \'next question\')\n    elif request.args(0) == \'ask\':\n        return step_init()\n\n    #after submitting answer\n    elif request.args(0) == \'reply\':\n        return stepreply()\n    \n    elif request.args(0) == \'error\':\n        return patherror()\n        \n    \nresponse._vars=response._caller(index)\n'
p7
sS'snapshot'
p8
(dp9
S'exception'
p10
(dp11
S'__module__'
p12
S"'sqlite3'"
p13
sS'__getslice__'
p14
S"<method-wrapper '__getslice__' of OperationalError object>"
p15
sS'__str__'
p16
S"<method-wrapper '__str__' of OperationalError object>"
p17
sS'__reduce__'
p18
S'<built-in method __reduce__ of OperationalError object>'
p19
sS'__dict__'
p20
S'{}'
p21
sS'__sizeof__'
p22
S'<built-in method __sizeof__ of OperationalError object>'
p23
sS'__weakref__'
p24
S'None'
p25
sS'__init__'
p26
S"<method-wrapper '__init__' of OperationalError object>"
p27
sS'__setattr__'
p28
S"<method-wrapper '__setattr__' of OperationalError object>"
p29
sS'__reduce_ex__'
p30
S'<built-in method __reduce_ex__ of OperationalError object>'
p31
sS'__new__'
p32
S'<built-in method __new__ of type object>'
p33
sS'__format__'
p34
S'<built-in method __format__ of OperationalError object>'
p35
sS'__class__'
p36
S"<class 'sqlite3.OperationalError'>"
p37
sS'__doc__'
p38
S'None'
p39
sS'__getitem__'
p40
S"<method-wrapper '__getitem__' of OperationalError object>"
p41
sS'__setstate__'
p42
S'<built-in method __setstate__ of OperationalError object>'
p43
sS'__getattribute__'
p44
S"<method-wrapper '__getattribute__' of OperationalError object>"
p45
sS'args'
p46
S'(\'near "<": syntax error\',)'
p47
sS'__subclasshook__'
p48
S'<built-in method __subclasshook__ of type object>'
p49
sS'__unicode__'
p50
S'<built-in method __unicode__ of OperationalError object>'
p51
sS'__delattr__'
p52
S"<method-wrapper '__delattr__' of OperationalError object>"
p53
sS'__repr__'
p54
S"<method-wrapper '__repr__' of OperationalError object>"
p55
sS'__hash__'
p56
S"<method-wrapper '__hash__' of OperationalError object>"
p57
ssS'evalue'
p58
S'near "<": syntax error'
p59
sS'request'
p60
ccopy_reg
_reconstructor
p61
(cgluon.html
BEAUTIFY
p62
c__builtin__
object
p63
NtRp64
(dp65
S'attributes'
p66
(dp67
sS'components'
p68
(lp69
g61
(cgluon.html
TABLE
p70
g63
NtRp71
(dp72
g66
(dp73
S'level'
p74
I5
ssS'parent'
p75
Nsg68
(lp76
g61
(cgluon.html
TR
p77
g63
NtRp78
(dp79
g66
(dp80
sg75
g71
sg68
(lp81
g61
(cgluon.html
TD
p82
g63
NtRp83
(dp84
g66
(dp85
S'_style'
p86
S'font-weight:bold;vertical-align:top'
p87
ssg75
g78
sg68
(lp88
S'ajax'
p89
asbag61
(g82
g63
NtRp90
(dp91
g66
(dp92
S'_valign'
p93
S'top'
p94
ssg75
g78
sg68
(lp95
S':'
asbag61
(g82
g63
NtRp96
(dp97
g66
(dp98
sg75
g78
sg68
(lp99
g61
(g62
g63
NtRp100
(dp101
g66
(dp102
g74
I5
ssg75
g96
sg68
(lp103
S'True'
p104
asbasbasbag61
(g77
g63
NtRp105
(dp106
g66
(dp107
sg75
g71
sg68
(lp108
g61
(g82
g63
NtRp109
(dp110
g66
(dp111
g86
g87
ssg75
g105
sg68
(lp112
S'application'
p113
asbag61
(g82
g63
NtRp114
(dp115
g66
(dp116
g93
g94
ssg75
g105
sg68
(lp117
S':'
asbag61
(g82
g63
NtRp118
(dp119
g66
(dp120
sg75
g105
sg68
(lp121
g61
(g62
g63
NtRp122
(dp123
g66
(dp124
g74
I5
ssg75
g118
sg68
(lp125
S'paideia'
p126
asbasbasbag61
(g77
g63
NtRp127
(dp128
g66
(dp129
sg75
g71
sg68
(lp130
g61
(g82
g63
NtRp131
(dp132
g66
(dp133
g86
g87
ssg75
g127
sg68
(lp134
g46
asbag61
(g82
g63
NtRp135
(dp136
g66
(dp137
g93
g94
ssg75
g127
sg68
(lp138
S':'
asbag61
(g82
g63
NtRp139
(dp140
g66
(dp141
sg75
g127
sg68
(lp142
g61
(g62
g63
NtRp143
(dp144
g66
(dp145
g74
I5
ssg75
g139
sg68
(lp146
g61
(g70
g63
NtRp147
(dp148
g66
(dp149
g74
I4
ssg75
Nsg68
(lp150
g61
(g77
g63
NtRp151
(dp152
g66
(dp153
sg75
g147
sg68
(lp154
g61
(g82
g63
NtRp155
(dp156
g66
(dp157
sg75
g151
sg68
(lp158
g61
(g62
g63
NtRp159
(dp160
g66
(dp161
g74
I4
ssg75
g155
sg68
(lp162
S'ask'
p163
asbasbasbasbasbasbasbag61
(g77
g63
NtRp164
(dp165
g66
(dp166
sg75
g71
sg68
(lp167
g61
(g82
g63
NtRp168
(dp169
g66
(dp170
g86
g87
ssg75
g164
sg68
(lp171
S'body'
p172
asbag61
(g82
g63
NtRp173
(dp174
g66
(dp175
g93
g94
ssg75
g164
sg68
(lp176
S':'
asbag61
(g82
g63
NtRp177
(dp178
g66
(dp179
sg75
g164
sg68
(lp180
g61
(g62
g63
NtRp181
(dp182
g66
(dp183
g74
I5
ssg75
g177
sg68
(lp184
S'<cStringIO.StringO object at 0x7f89b03535e0>'
p185
asbasbasbag61
(g77
g63
NtRp186
(dp187
g66
(dp188
sg75
g71
sg68
(lp189
g61
(g82
g63
NtRp190
(dp191
g66
(dp192
g86
g87
ssg75
g186
sg68
(lp193
S'cid'
p194
asbag61
(g82
g63
NtRp195
(dp196
g66
(dp197
g93
g94
ssg75
g186
sg68
(lp198
S':'
asbag61
(g82
g63
NtRp199
(dp200
g66
(dp201
sg75
g186
sg68
(lp202
g61
(g62
g63
NtRp203
(dp204
g66
(dp205
g74
I5
ssg75
g199
sg68
(lp206
S'page'
p207
asbasbasbag61
(g77
g63
NtRp208
(dp209
g66
(dp210
sg75
g71
sg68
(lp211
g61
(g82
g63
NtRp212
(dp213
g66
(dp214
g86
g87
ssg75
g208
sg68
(lp215
S'client'
p216
asbag61
(g82
g63
NtRp217
(dp218
g66
(dp219
g93
g94
ssg75
g208
sg68
(lp220
S':'
asbag61
(g82
g63
NtRp221
(dp222
g66
(dp223
sg75
g208
sg68
(lp224
g61
(g62
g63
NtRp225
(dp226
g66
(dp227
g74
I5
ssg75
g221
sg68
(lp228
S'127.0.0.1'
p229
asbasbasbag61
(g77
g63
NtRp230
(dp231
g66
(dp232
sg75
g71
sg68
(lp233
g61
(g82
g63
NtRp234
(dp235
g66
(dp236
g86
g87
ssg75
g230
sg68
(lp237
S'controller'
p238
asbag61
(g82
g63
NtRp239
(dp240
g66
(dp241
g93
g94
ssg75
g230
sg68
(lp242
S':'
asbag61
(g82
g63
NtRp243
(dp244
g66
(dp245
sg75
g230
sg68
(lp246
g61
(g62
g63
NtRp247
(dp248
g66
(dp249
g74
I5
ssg75
g243
sg68
(lp250
S'exploring'
p251
asbasbasbag61
(g77
g63
NtRp252
(dp253
g66
(dp254
sg75
g71
sg68
(lp255
g61
(g82
g63
NtRp256
(dp257
g66
(dp258
g86
g87
ssg75
g252
sg68
(lp259
S'cookies'
p260
asbag61
(g82
g63
NtRp261
(dp262
g66
(dp263
g93
g94
ssg75
g252
sg68
(lp264
S':'
asbag61
(g82
g63
NtRp265
(dp266
g66
(dp267
sg75
g252
sg68
(lp268
g61
(g62
g63
NtRp269
(dp270
g66
(dp271
g74
I5
ssg75
g265
sg68
(lp272
g61
(g70
g63
NtRp273
(dp274
g66
(dp275
g74
I4
ssg75
Nsg68
(lp276
g61
(g77
g63
NtRp277
(dp278
g66
(dp279
sg75
g273
sg68
(lp280
g61
(g82
g63
NtRp281
(dp282
g66
(dp283
g86
g87
ssg75
g277
sg68
(lp284
S'session_id_admin'
p285
asbag61
(g82
g63
NtRp286
(dp287
g66
(dp288
g93
g94
ssg75
g277
sg68
(lp289
S':'
asbag61
(g82
g63
NtRp290
(dp291
g66
(dp292
sg75
g277
sg68
(lp293
g61
(g62
g63
NtRp294
(dp295
g66
(dp296
g74
I4
ssg75
g290
sg68
(lp297
g61
(g70
g63
NtRp298
(dp299
g66
(dp300
g74
I3
ssg75
Nsg68
(lp301
g61
(g77
g63
NtRp302
(dp303
g66
(dp304
sg75
g298
sg68
(lp305
g61
(g82
g63
NtRp306
(dp307
g66
(dp308
g86
g87
ssg75
g302
sg68
(lp309
S'comment'
p310
asbag61
(g82
g63
NtRp311
(dp312
g66
(dp313
g93
g94
ssg75
g302
sg68
(lp314
S':'
asbag61
(g82
g63
NtRp315
(dp316
g66
(dp317
sg75
g302
sg68
(lp318
g61
(g62
g63
NtRp319
(dp320
g66
(dp321
g74
I3
ssg75
g315
sg68
(lp322
S''
asbasbasbag61
(g77
g63
NtRp323
(dp324
g66
(dp325
sg75
g298
sg68
(lp326
g61
(g82
g63
NtRp327
(dp328
g66
(dp329
g86
g87
ssg75
g323
sg68
(lp330
S'domain'
p331
asbag61
(g82
g63
NtRp332
(dp333
g66
(dp334
g93
g94
ssg75
g323
sg68
(lp335
S':'
asbag61
(g82
g63
NtRp336
(dp337
g66
(dp338
sg75
g323
sg68
(lp339
g61
(g62
g63
NtRp340
(dp341
g66
(dp342
g74
I3
ssg75
g336
sg68
(lp343
S''
asbasbasbag61
(g77
g63
NtRp344
(dp345
g66
(dp346
sg75
g298
sg68
(lp347
g61
(g82
g63
NtRp348
(dp349
g66
(dp350
g86
g87
ssg75
g344
sg68
(lp351
S'expires'
p352
asbag61
(g82
g63
NtRp353
(dp354
g66
(dp355
g93
g94
ssg75
g344
sg68
(lp356
S':'
asbag61
(g82
g63
NtRp357
(dp358
g66
(dp359
sg75
g344
sg68
(lp360
g61
(g62
g63
NtRp361
(dp362
g66
(dp363
g74
I3
ssg75
g357
sg68
(lp364
S''
asbasbasbag61
(g77
g63
NtRp365
(dp366
g66
(dp367
sg75
g298
sg68
(lp368
g61
(g82
g63
NtRp369
(dp370
g66
(dp371
g86
g87
ssg75
g365
sg68
(lp372
S'httponly'
p373
asbag61
(g82
g63
NtRp374
(dp375
g66
(dp376
g93
g94
ssg75
g365
sg68
(lp377
S':'
asbag61
(g82
g63
NtRp378
(dp379
g66
(dp380
sg75
g365
sg68
(lp381
g61
(g62
g63
NtRp382
(dp383
g66
(dp384
g74
I3
ssg75
g378
sg68
(lp385
S''
asbasbasbag61
(g77
g63
NtRp386
(dp387
g66
(dp388
sg75
g298
sg68
(lp389
g61
(g82
g63
NtRp390
(dp391
g66
(dp392
g86
g87
ssg75
g386
sg68
(lp393
S'max-age'
p394
asbag61
(g82
g63
NtRp395
(dp396
g66
(dp397
g93
g94
ssg75
g386
sg68
(lp398
S':'
asbag61
(g82
g63
NtRp399
(dp400
g66
(dp401
sg75
g386
sg68
(lp402
g61
(g62
g63
NtRp403
(dp404
g66
(dp405
g74
I3
ssg75
g399
sg68
(lp406
S''
asbasbasbag61
(g77
g63
NtRp407
(dp408
g66
(dp409
sg75
g298
sg68
(lp410
g61
(g82
g63
NtRp411
(dp412
g66
(dp413
g86
g87
ssg75
g407
sg68
(lp414
S'path'
p415
asbag61
(g82
g63
NtRp416
(dp417
g66
(dp418
g93
g94
ssg75
g407
sg68
(lp419
S':'
asbag61
(g82
g63
NtRp420
(dp421
g66
(dp422
sg75
g407
sg68
(lp423
g61
(g62
g63
NtRp424
(dp425
g66
(dp426
g74
I3
ssg75
g420
sg68
(lp427
S''
asbasbasbag61
(g77
g63
NtRp428
(dp429
g66
(dp430
sg75
g298
sg68
(lp431
g61
(g82
g63
NtRp432
(dp433
g66
(dp434
g86
g87
ssg75
g428
sg68
(lp435
S'secure'
p436
asbag61
(g82
g63
NtRp437
(dp438
g66
(dp439
g93
g94
ssg75
g428
sg68
(lp440
S':'
asbag61
(g82
g63
NtRp441
(dp442
g66
(dp443
sg75
g428
sg68
(lp444
g61
(g62
g63
NtRp445
(dp446
g66
(dp447
g74
I3
ssg75
g441
sg68
(lp448
S''
asbasbasbag61
(g77
g63
NtRp449
(dp450
g66
(dp451
sg75
g298
sg68
(lp452
g61
(g82
g63
NtRp453
(dp454
g66
(dp455
g86
g87
ssg75
g449
sg68
(lp456
S'version'
p457
asbag61
(g82
g63
NtRp458
(dp459
g66
(dp460
g93
g94
ssg75
g449
sg68
(lp461
S':'
asbag61
(g82
g63
NtRp462
(dp463
g66
(dp464
sg75
g449
sg68
(lp465
g61
(g62
g63
NtRp466
(dp467
g66
(dp468
g74
I3
ssg75
g462
sg68
(lp469
S''
asbasbasbasbasbasbasbag61
(g77
g63
NtRp470
(dp471
g66
(dp472
sg75
g273
sg68
(lp473
g61
(g82
g63
NtRp474
(dp475
g66
(dp476
g86
g87
ssg75
g470
sg68
(lp477
S'session_id_grammateus3'
p478
asbag61
(g82
g63
NtRp479
(dp480
g66
(dp481
g93
g94
ssg75
g470
sg68
(lp482
S':'
asbag61
(g82
g63
NtRp483
(dp484
g66
(dp485
sg75
g470
sg68
(lp486
g61
(g62
g63
NtRp487
(dp488
g66
(dp489
g74
I4
ssg75
g483
sg68
(lp490
g61
(g70
g63
NtRp491
(dp492
g66
(dp493
g74
I3
ssg75
Nsg68
(lp494
g61
(g77
g63
NtRp495
(dp496
g66
(dp497
sg75
g491
sg68
(lp498
g61
(g82
g63
NtRp499
(dp500
g66
(dp501
g86
g87
ssg75
g495
sg68
(lp502
g310
asbag61
(g82
g63
NtRp503
(dp504
g66
(dp505
g93
g94
ssg75
g495
sg68
(lp506
S':'
asbag61
(g82
g63
NtRp507
(dp508
g66
(dp509
sg75
g495
sg68
(lp510
g61
(g62
g63
NtRp511
(dp512
g66
(dp513
g74
I3
ssg75
g507
sg68
(lp514
S''
asbasbasbag61
(g77
g63
NtRp515
(dp516
g66
(dp517
sg75
g491
sg68
(lp518
g61
(g82
g63
NtRp519
(dp520
g66
(dp521
g86
g87
ssg75
g515
sg68
(lp522
g331
asbag61
(g82
g63
NtRp523
(dp524
g66
(dp525
g93
g94
ssg75
g515
sg68
(lp526
S':'
asbag61
(g82
g63
NtRp527
(dp528
g66
(dp529
sg75
g515
sg68
(lp530
g61
(g62
g63
NtRp531
(dp532
g66
(dp533
g74
I3
ssg75
g527
sg68
(lp534
S''
asbasbasbag61
(g77
g63
NtRp535
(dp536
g66
(dp537
sg75
g491
sg68
(lp538
g61
(g82
g63
NtRp539
(dp540
g66
(dp541
g86
g87
ssg75
g535
sg68
(lp542
g352
asbag61
(g82
g63
NtRp543
(dp544
g66
(dp545
g93
g94
ssg75
g535
sg68
(lp546
S':'
asbag61
(g82
g63
NtRp547
(dp548
g66
(dp549
sg75
g535
sg68
(lp550
g61
(g62
g63
NtRp551
(dp552
g66
(dp553
g74
I3
ssg75
g547
sg68
(lp554
S''
asbasbasbag61
(g77
g63
NtRp555
(dp556
g66
(dp557
sg75
g491
sg68
(lp558
g61
(g82
g63
NtRp559
(dp560
g66
(dp561
g86
g87
ssg75
g555
sg68
(lp562
g373
asbag61
(g82
g63
NtRp563
(dp564
g66
(dp565
g93
g94
ssg75
g555
sg68
(lp566
S':'
asbag61
(g82
g63
NtRp567
(dp568
g66
(dp569
sg75
g555
sg68
(lp570
g61
(g62
g63
NtRp571
(dp572
g66
(dp573
g74
I3
ssg75
g567
sg68
(lp574
S''
asbasbasbag61
(g77
g63
NtRp575
(dp576
g66
(dp577
sg75
g491
sg68
(lp578
g61
(g82
g63
NtRp579
(dp580
g66
(dp581
g86
g87
ssg75
g575
sg68
(lp582
g394
asbag61
(g82
g63
NtRp583
(dp584
g66
(dp585
g93
g94
ssg75
g575
sg68
(lp586
S':'
asbag61
(g82
g63
NtRp587
(dp588
g66
(dp589
sg75
g575
sg68
(lp590
g61
(g62
g63
NtRp591
(dp592
g66
(dp593
g74
I3
ssg75
g587
sg68
(lp594
S''
asbasbasbag61
(g77
g63
NtRp595
(dp596
g66
(dp597
sg75
g491
sg68
(lp598
g61
(g82
g63
NtRp599
(dp600
g66
(dp601
g86
g87
ssg75
g595
sg68
(lp602
g415
asbag61
(g82
g63
NtRp603
(dp604
g66
(dp605
g93
g94
ssg75
g595
sg68
(lp606
S':'
asbag61
(g82
g63
NtRp607
(dp608
g66
(dp609
sg75
g595
sg68
(lp610
g61
(g62
g63
NtRp611
(dp612
g66
(dp613
g74
I3
ssg75
g607
sg68
(lp614
S''
asbasbasbag61
(g77
g63
NtRp615
(dp616
g66
(dp617
sg75
g491
sg68
(lp618
g61
(g82
g63
NtRp619
(dp620
g66
(dp621
g86
g87
ssg75
g615
sg68
(lp622
g436
asbag61
(g82
g63
NtRp623
(dp624
g66
(dp625
g93
g94
ssg75
g615
sg68
(lp626
S':'
asbag61
(g82
g63
NtRp627
(dp628
g66
(dp629
sg75
g615
sg68
(lp630
g61
(g62
g63
NtRp631
(dp632
g66
(dp633
g74
I3
ssg75
g627
sg68
(lp634
S''
asbasbasbag61
(g77
g63
NtRp635
(dp636
g66
(dp637
sg75
g491
sg68
(lp638
g61
(g82
g63
NtRp639
(dp640
g66
(dp641
g86
g87
ssg75
g635
sg68
(lp642
g457
asbag61
(g82
g63
NtRp643
(dp644
g66
(dp645
g93
g94
ssg75
g635
sg68
(lp646
S':'
asbag61
(g82
g63
NtRp647
(dp648
g66
(dp649
sg75
g635
sg68
(lp650
g61
(g62
g63
NtRp651
(dp652
g66
(dp653
g74
I3
ssg75
g647
sg68
(lp654
S''
asbasbasbasbasbasbasbag61
(g77
g63
NtRp655
(dp656
g66
(dp657
sg75
g273
sg68
(lp658
g61
(g82
g63
NtRp659
(dp660
g66
(dp661
g86
g87
ssg75
g655
sg68
(lp662
S'session_id_paideia'
p663
asbag61
(g82
g63
NtRp664
(dp665
g66
(dp666
g93
g94
ssg75
g655
sg68
(lp667
S':'
asbag61
(g82
g63
NtRp668
(dp669
g66
(dp670
sg75
g655
sg68
(lp671
g61
(g62
g63
NtRp672
(dp673
g66
(dp674
g74
I4
ssg75
g668
sg68
(lp675
g61
(g70
g63
NtRp676
(dp677
g66
(dp678
g74
I3
ssg75
Nsg68
(lp679
g61
(g77
g63
NtRp680
(dp681
g66
(dp682
sg75
g676
sg68
(lp683
g61
(g82
g63
NtRp684
(dp685
g66
(dp686
g86
g87
ssg75
g680
sg68
(lp687
g310
asbag61
(g82
g63
NtRp688
(dp689
g66
(dp690
g93
g94
ssg75
g680
sg68
(lp691
S':'
asbag61
(g82
g63
NtRp692
(dp693
g66
(dp694
sg75
g680
sg68
(lp695
g61
(g62
g63
NtRp696
(dp697
g66
(dp698
g74
I3
ssg75
g692
sg68
(lp699
S''
asbasbasbag61
(g77
g63
NtRp700
(dp701
g66
(dp702
sg75
g676
sg68
(lp703
g61
(g82
g63
NtRp704
(dp705
g66
(dp706
g86
g87
ssg75
g700
sg68
(lp707
g331
asbag61
(g82
g63
NtRp708
(dp709
g66
(dp710
g93
g94
ssg75
g700
sg68
(lp711
S':'
asbag61
(g82
g63
NtRp712
(dp713
g66
(dp714
sg75
g700
sg68
(lp715
g61
(g62
g63
NtRp716
(dp717
g66
(dp718
g74
I3
ssg75
g712
sg68
(lp719
S''
asbasbasbag61
(g77
g63
NtRp720
(dp721
g66
(dp722
sg75
g676
sg68
(lp723
g61
(g82
g63
NtRp724
(dp725
g66
(dp726
g86
g87
ssg75
g720
sg68
(lp727
g352
asbag61
(g82
g63
NtRp728
(dp729
g66
(dp730
g93
g94
ssg75
g720
sg68
(lp731
S':'
asbag61
(g82
g63
NtRp732
(dp733
g66
(dp734
sg75
g720
sg68
(lp735
g61
(g62
g63
NtRp736
(dp737
g66
(dp738
g74
I3
ssg75
g732
sg68
(lp739
S''
asbasbasbag61
(g77
g63
NtRp740
(dp741
g66
(dp742
sg75
g676
sg68
(lp743
g61
(g82
g63
NtRp744
(dp745
g66
(dp746
g86
g87
ssg75
g740
sg68
(lp747
g373
asbag61
(g82
g63
NtRp748
(dp749
g66
(dp750
g93
g94
ssg75
g740
sg68
(lp751
S':'
asbag61
(g82
g63
NtRp752
(dp753
g66
(dp754
sg75
g740
sg68
(lp755
g61
(g62
g63
NtRp756
(dp757
g66
(dp758
g74
I3
ssg75
g752
sg68
(lp759
S''
asbasbasbag61
(g77
g63
NtRp760
(dp761
g66
(dp762
sg75
g676
sg68
(lp763
g61
(g82
g63
NtRp764
(dp765
g66
(dp766
g86
g87
ssg75
g760
sg68
(lp767
g394
asbag61
(g82
g63
NtRp768
(dp769
g66
(dp770
g93
g94
ssg75
g760
sg68
(lp771
S':'
asbag61
(g82
g63
NtRp772
(dp773
g66
(dp774
sg75
g760
sg68
(lp775
g61
(g62
g63
NtRp776
(dp777
g66
(dp778
g74
I3
ssg75
g772
sg68
(lp779
S''
asbasbasbag61
(g77
g63
NtRp780
(dp781
g66
(dp782
sg75
g676
sg68
(lp783
g61
(g82
g63
NtRp784
(dp785
g66
(dp786
g86
g87
ssg75
g780
sg68
(lp787
g415
asbag61
(g82
g63
NtRp788
(dp789
g66
(dp790
g93
g94
ssg75
g780
sg68
(lp791
S':'
asbag61
(g82
g63
NtRp792
(dp793
g66
(dp794
sg75
g780
sg68
(lp795
g61
(g62
g63
NtRp796
(dp797
g66
(dp798
g74
I3
ssg75
g792
sg68
(lp799
S''
asbasbasbag61
(g77
g63
NtRp800
(dp801
g66
(dp802
sg75
g676
sg68
(lp803
g61
(g82
g63
NtRp804
(dp805
g66
(dp806
g86
g87
ssg75
g800
sg68
(lp807
g436
asbag61
(g82
g63
NtRp808
(dp809
g66
(dp810
g93
g94
ssg75
g800
sg68
(lp811
S':'
asbag61
(g82
g63
NtRp812
(dp813
g66
(dp814
sg75
g800
sg68
(lp815
g61
(g62
g63
NtRp816
(dp817
g66
(dp818
g74
I3
ssg75
g812
sg68
(lp819
S''
asbasbasbag61
(g77
g63
NtRp820
(dp821
g66
(dp822
sg75
g676
sg68
(lp823
g61
(g82
g63
NtRp824
(dp825
g66
(dp826
g86
g87
ssg75
g820
sg68
(lp827
g457
asbag61
(g82
g63
NtRp828
(dp829
g66
(dp830
g93
g94
ssg75
g820
sg68
(lp831
S':'
asbag61
(g82
g63
NtRp832
(dp833
g66
(dp834
sg75
g820
sg68
(lp835
g61
(g62
g63
NtRp836
(dp837
g66
(dp838
g74
I3
ssg75
g832
sg68
(lp839
S''
asbasbasbasbasbasbasbag61
(g77
g63
NtRp840
(dp841
g66
(dp842
sg75
g273
sg68
(lp843
g61
(g82
g63
NtRp844
(dp845
g66
(dp846
g86
g87
ssg75
g840
sg68
(lp847
S'session_id_welcome'
p848
asbag61
(g82
g63
NtRp849
(dp850
g66
(dp851
g93
g94
ssg75
g840
sg68
(lp852
S':'
asbag61
(g82
g63
NtRp853
(dp854
g66
(dp855
sg75
g840
sg68
(lp856
g61
(g62
g63
NtRp857
(dp858
g66
(dp859
g74
I4
ssg75
g853
sg68
(lp860
g61
(g70
g63
NtRp861
(dp862
g66
(dp863
g74
I3
ssg75
Nsg68
(lp864
g61
(g77
g63
NtRp865
(dp866
g66
(dp867
sg75
g861
sg68
(lp868
g61
(g82
g63
NtRp869
(dp870
g66
(dp871
g86
g87
ssg75
g865
sg68
(lp872
g310
asbag61
(g82
g63
NtRp873
(dp874
g66
(dp875
g93
g94
ssg75
g865
sg68
(lp876
S':'
asbag61
(g82
g63
NtRp877
(dp878
g66
(dp879
sg75
g865
sg68
(lp880
g61
(g62
g63
NtRp881
(dp882
g66
(dp883
g74
I3
ssg75
g877
sg68
(lp884
S''
asbasbasbag61
(g77
g63
NtRp885
(dp886
g66
(dp887
sg75
g861
sg68
(lp888
g61
(g82
g63
NtRp889
(dp890
g66
(dp891
g86
g87
ssg75
g885
sg68
(lp892
g331
asbag61
(g82
g63
NtRp893
(dp894
g66
(dp895
g93
g94
ssg75
g885
sg68
(lp896
S':'
asbag61
(g82
g63
NtRp897
(dp898
g66
(dp899
sg75
g885
sg68
(lp900
g61
(g62
g63
NtRp901
(dp902
g66
(dp903
g74
I3
ssg75
g897
sg68
(lp904
S''
asbasbasbag61
(g77
g63
NtRp905
(dp906
g66
(dp907
sg75
g861
sg68
(lp908
g61
(g82
g63
NtRp909
(dp910
g66
(dp911
g86
g87
ssg75
g905
sg68
(lp912
g352
asbag61
(g82
g63
NtRp913
(dp914
g66
(dp915
g93
g94
ssg75
g905
sg68
(lp916
S':'
asbag61
(g82
g63
NtRp917
(dp918
g66
(dp919
sg75
g905
sg68
(lp920
g61
(g62
g63
NtRp921
(dp922
g66
(dp923
g74
I3
ssg75
g917
sg68
(lp924
S''
asbasbasbag61
(g77
g63
NtRp925
(dp926
g66
(dp927
sg75
g861
sg68
(lp928
g61
(g82
g63
NtRp929
(dp930
g66
(dp931
g86
g87
ssg75
g925
sg68
(lp932
g373
asbag61
(g82
g63
NtRp933
(dp934
g66
(dp935
g93
g94
ssg75
g925
sg68
(lp936
S':'
asbag61
(g82
g63
NtRp937
(dp938
g66
(dp939
sg75
g925
sg68
(lp940
g61
(g62
g63
NtRp941
(dp942
g66
(dp943
g74
I3
ssg75
g937
sg68
(lp944
S''
asbasbasbag61
(g77
g63
NtRp945
(dp946
g66
(dp947
sg75
g861
sg68
(lp948
g61
(g82
g63
NtRp949
(dp950
g66
(dp951
g86
g87
ssg75
g945
sg68
(lp952
g394
asbag61
(g82
g63
NtRp953
(dp954
g66
(dp955
g93
g94
ssg75
g945
sg68
(lp956
S':'
asbag61
(g82
g63
NtRp957
(dp958
g66
(dp959
sg75
g945
sg68
(lp960
g61
(g62
g63
NtRp961
(dp962
g66
(dp963
g74
I3
ssg75
g957
sg68
(lp964
S''
asbasbasbag61
(g77
g63
NtRp965
(dp966
g66
(dp967
sg75
g861
sg68
(lp968
g61
(g82
g63
NtRp969
(dp970
g66
(dp971
g86
g87
ssg75
g965
sg68
(lp972
g415
asbag61
(g82
g63
NtRp973
(dp974
g66
(dp975
g93
g94
ssg75
g965
sg68
(lp976
S':'
asbag61
(g82
g63
NtRp977
(dp978
g66
(dp979
sg75
g965
sg68
(lp980
g61
(g62
g63
NtRp981
(dp982
g66
(dp983
g74
I3
ssg75
g977
sg68
(lp984
S''
asbasbasbag61
(g77
g63
NtRp985
(dp986
g66
(dp987
sg75
g861
sg68
(lp988
g61
(g82
g63
NtRp989
(dp990
g66
(dp991
g86
g87
ssg75
g985
sg68
(lp992
g436
asbag61
(g82
g63
NtRp993
(dp994
g66
(dp995
g93
g94
ssg75
g985
sg68
(lp996
S':'
asbag61
(g82
g63
NtRp997
(dp998
g66
(dp999
sg75
g985
sg68
(lp1000
g61
(g62
g63
NtRp1001
(dp1002
g66
(dp1003
g74
I3
ssg75
g997
sg68
(lp1004
S''
asbasbasbag61
(g77
g63
NtRp1005
(dp1006
g66
(dp1007
sg75
g861
sg68
(lp1008
g61
(g82
g63
NtRp1009
(dp1010
g66
(dp1011
g86
g87
ssg75
g1005
sg68
(lp1012
g457
asbag61
(g82
g63
NtRp1013
(dp1014
g66
(dp1015
g93
g94
ssg75
g1005
sg68
(lp1016
S':'
asbag61
(g82
g63
NtRp1017
(dp1018
g66
(dp1019
sg75
g1005
sg68
(lp1020
g61
(g62
g63
NtRp1021
(dp1022
g66
(dp1023
g74
I3
ssg75
g1017
sg68
(lp1024
S''
asbasbasbasbasbasbasbasbasbasbasbag61
(g77
g63
NtRp1025
(dp1026
g66
(dp1027
sg75
g71
sg68
(lp1028
g61
(g82
g63
NtRp1029
(dp1030
g66
(dp1031
g86
g87
ssg75
g1025
sg68
(lp1032
S'env'
p1033
asbag61
(g82
g63
NtRp1034
(dp1035
g66
(dp1036
g93
g94
ssg75
g1025
sg68
(lp1037
S':'
asbag61
(g82
g63
NtRp1038
(dp1039
g66
(dp1040
sg75
g1025
sg68
(lp1041
g61
(g62
g63
NtRp1042
(dp1043
g66
(dp1044
g74
I5
ssg75
g1038
sg68
(lp1045
g61
(g70
g63
NtRp1046
(dp1047
g66
(dp1048
g74
I4
ssg75
Nsg68
(lp1049
g61
(g77
g63
NtRp1050
(dp1051
g66
(dp1052
sg75
g1046
sg68
(lp1053
g61
(g82
g63
NtRp1054
(dp1055
g66
(dp1056
g86
g87
ssg75
g1050
sg68
(lp1057
S'app_folders'
p1058
asbag61
(g82
g63
NtRp1059
(dp1060
g66
(dp1061
g93
g94
ssg75
g1050
sg68
(lp1062
S':'
asbag61
(g82
g63
NtRp1063
(dp1064
g66
(dp1065
sg75
g1050
sg68
(lp1066
g61
(g62
g63
NtRp1067
(dp1068
g66
(dp1069
g74
I4
ssg75
g1063
sg68
(lp1070
S"set(['/home/ian/web/web2py/applications/welcome/', '/home/ian/web/web2py/applications/paideia/', '/home/ian/web/web2py/applications/admin/'])"
p1071
asbasbasbag61
(g77
g63
NtRp1072
(dp1073
g66
(dp1074
sg75
g1046
sg68
(lp1075
g61
(g82
g63
NtRp1076
(dp1077
g66
(dp1078
g86
g87
ssg75
g1072
sg68
(lp1079
S'applications_parent'
p1080
asbag61
(g82
g63
NtRp1081
(dp1082
g66
(dp1083
g93
g94
ssg75
g1072
sg68
(lp1084
S':'
asbag61
(g82
g63
NtRp1085
(dp1086
g66
(dp1087
sg75
g1072
sg68
(lp1088
g61
(g62
g63
NtRp1089
(dp1090
g66
(dp1091
g74
I4
ssg75
g1085
sg68
(lp1092
S'/home/ian/web/web2py'
p1093
asbasbasbag61
(g77
g63
NtRp1094
(dp1095
g66
(dp1096
sg75
g1046
sg68
(lp1097
g61
(g82
g63
NtRp1098
(dp1099
g66
(dp1100
g86
g87
ssg75
g1094
sg68
(lp1101
S'cmd_args'
p1102
asbag61
(g82
g63
NtRp1103
(dp1104
g66
(dp1105
g93
g94
ssg75
g1094
sg68
(lp1106
S':'
asbag61
(g82
g63
NtRp1107
(dp1108
g66
(dp1109
sg75
g1094
sg68
(lp1110
g61
(g62
g63
NtRp1111
(dp1112
g66
(dp1113
g74
I4
ssg75
g1107
sg68
(lp1114
g61
(g70
g63
NtRp1115
(dp1116
g66
(dp1117
g74
I3
ssg75
Nsg68
(lp1118
sbasbasbasbag61
(g77
g63
NtRp1119
(dp1120
g66
(dp1121
sg75
g1046
sg68
(lp1122
g61
(g82
g63
NtRp1123
(dp1124
g66
(dp1125
g86
g87
ssg75
g1119
sg68
(lp1126
S'cmd_options'
p1127
asbag61
(g82
g63
NtRp1128
(dp1129
g66
(dp1130
g93
g94
ssg75
g1119
sg68
(lp1131
S':'
asbag61
(g82
g63
NtRp1132
(dp1133
g66
(dp1134
sg75
g1119
sg68
(lp1135
g61
(g62
g63
NtRp1136
(dp1137
g66
(dp1138
g74
I4
ssg75
g1132
sg68
(lp1139
S"<Values at 0x1a38758: {'verbose': False, 'ip': '127.0.0.1', 'shutdown_timeout': 5, 'taskbar': False, 'nocron': False, 'pid_filename': 'httpserver.pid', 'maxthreads': None, 'softcron': False, 'server_name': 'uriel', 'bpython': False, 'nogui': False, 'port': 8000, 'extcron': False, 'debuglevel': 30, 'test': None, 'folder': '/home/ian/web/web2py', 'config': '', 'import_models': False, 'winservice': '', 'shell': None, 'run': '', 'log_filename': 'httpserver.log', 'args': [''], 'socket_timeout': 1, 'ssl_ca_certificate': None, 'scheduler': None, 'profiler_filename': None, 'ssl_private_key': '', 'password': '<ask>', 'request_queue_size': 5, 'ssl_certificate': '', 'cronjob': False, 'numthreads': None, 'quiet': False, 'interfaces': None, 'minthreads': None, 'timeout': 10, 'plain': False, 'nobanner': False}>"
p1140
asbasbasbag61
(g77
g63
NtRp1141
(dp1142
g66
(dp1143
sg75
g1046
sg68
(lp1144
g61
(g82
g63
NtRp1145
(dp1146
g66
(dp1147
g86
g87
ssg75
g1141
sg68
(lp1148
S'db_sessions'
p1149
asbag61
(g82
g63
NtRp1150
(dp1151
g66
(dp1152
g93
g94
ssg75
g1141
sg68
(lp1153
S':'
asbag61
(g82
g63
NtRp1154
(dp1155
g66
(dp1156
sg75
g1141
sg68
(lp1157
g61
(g62
g63
NtRp1158
(dp1159
g66
(dp1160
g74
I4
ssg75
g1154
sg68
(lp1161
S'set([])'
p1162
asbasbasbag61
(g77
g63
NtRp1163
(dp1164
g66
(dp1165
sg75
g1046
sg68
(lp1166
g61
(g82
g63
NtRp1167
(dp1168
g66
(dp1169
g86
g87
ssg75
g1163
sg68
(lp1170
S'debugging'
p1171
asbag61
(g82
g63
NtRp1172
(dp1173
g66
(dp1174
g93
g94
ssg75
g1163
sg68
(lp1175
S':'
asbag61
(g82
g63
NtRp1176
(dp1177
g66
(dp1178
sg75
g1163
sg68
(lp1179
g61
(g62
g63
NtRp1180
(dp1181
g66
(dp1182
g74
I4
ssg75
g1176
sg68
(lp1183
S'False'
p1184
asbasbasbag61
(g77
g63
NtRp1185
(dp1186
g66
(dp1187
sg75
g1046
sg68
(lp1188
g61
(g82
g63
NtRp1189
(dp1190
g66
(dp1191
g86
g87
ssg75
g1185
sg68
(lp1192
S'gluon_parent'
p1193
asbag61
(g82
g63
NtRp1194
(dp1195
g66
(dp1196
g93
g94
ssg75
g1185
sg68
(lp1197
S':'
asbag61
(g82
g63
NtRp1198
(dp1199
g66
(dp1200
sg75
g1185
sg68
(lp1201
g61
(g62
g63
NtRp1202
(dp1203
g66
(dp1204
g74
I4
ssg75
g1198
sg68
(lp1205
S'/home/ian/web/web2py'
p1206
asbasbasbag61
(g77
g63
NtRp1207
(dp1208
g66
(dp1209
sg75
g1046
sg68
(lp1210
g61
(g82
g63
NtRp1211
(dp1212
g66
(dp1213
g86
g87
ssg75
g1207
sg68
(lp1214
S'http_accept'
p1215
asbag61
(g82
g63
NtRp1216
(dp1217
g66
(dp1218
g93
g94
ssg75
g1207
sg68
(lp1219
S':'
asbag61
(g82
g63
NtRp1220
(dp1221
g66
(dp1222
sg75
g1207
sg68
(lp1223
g61
(g62
g63
NtRp1224
(dp1225
g66
(dp1226
g74
I4
ssg75
g1220
sg68
(lp1227
S'*/*'
p1228
asbasbasbag61
(g77
g63
NtRp1229
(dp1230
g66
(dp1231
sg75
g1046
sg68
(lp1232
g61
(g82
g63
NtRp1233
(dp1234
g66
(dp1235
g86
g87
ssg75
g1229
sg68
(lp1236
S'http_accept_encoding'
p1237
asbag61
(g82
g63
NtRp1238
(dp1239
g66
(dp1240
g93
g94
ssg75
g1229
sg68
(lp1241
S':'
asbag61
(g82
g63
NtRp1242
(dp1243
g66
(dp1244
sg75
g1229
sg68
(lp1245
g61
(g62
g63
NtRp1246
(dp1247
g66
(dp1248
g74
I4
ssg75
g1242
sg68
(lp1249
S'gzip, deflate'
p1250
asbasbasbag61
(g77
g63
NtRp1251
(dp1252
g66
(dp1253
sg75
g1046
sg68
(lp1254
g61
(g82
g63
NtRp1255
(dp1256
g66
(dp1257
g86
g87
ssg75
g1251
sg68
(lp1258
S'http_accept_language'
p1259
asbag61
(g82
g63
NtRp1260
(dp1261
g66
(dp1262
g93
g94
ssg75
g1251
sg68
(lp1263
S':'
asbag61
(g82
g63
NtRp1264
(dp1265
g66
(dp1266
sg75
g1251
sg68
(lp1267
g61
(g62
g63
NtRp1268
(dp1269
g66
(dp1270
g74
I4
ssg75
g1264
sg68
(lp1271
S'en-us,en;q=0.5'
p1272
asbasbasbag61
(g77
g63
NtRp1273
(dp1274
g66
(dp1275
sg75
g1046
sg68
(lp1276
g61
(g82
g63
NtRp1277
(dp1278
g66
(dp1279
g86
g87
ssg75
g1273
sg68
(lp1280
S'http_connection'
p1281
asbag61
(g82
g63
NtRp1282
(dp1283
g66
(dp1284
g93
g94
ssg75
g1273
sg68
(lp1285
S':'
asbag61
(g82
g63
NtRp1286
(dp1287
g66
(dp1288
sg75
g1273
sg68
(lp1289
g61
(g62
g63
NtRp1290
(dp1291
g66
(dp1292
g74
I4
ssg75
g1286
sg68
(lp1293
S'keep-alive'
p1294
asbasbasbag61
(g77
g63
NtRp1295
(dp1296
g66
(dp1297
sg75
g1046
sg68
(lp1298
g61
(g82
g63
NtRp1299
(dp1300
g66
(dp1301
g86
g87
ssg75
g1295
sg68
(lp1302
S'http_cookie'
p1303
asbag61
(g82
g63
NtRp1304
(dp1305
g66
(dp1306
g93
g94
ssg75
g1295
sg68
(lp1307
S':'
asbag61
(g82
g63
NtRp1308
(dp1309
g66
(dp1310
sg75
g1295
sg68
(lp1311
g61
(g62
g63
NtRp1312
(dp1313
g66
(dp1314
g74
I4
ssg75
g1308
sg68
(lp1315
S'session_id_paideia=127.0.0.1-d6bcece8-2742-4dcd-9d50-e8b957d71ddc; session_id_grammateus3=127.0.0.1-ae131346-de62-453a-b308-33d5b317e3e5; session_id_welcome=127.0.0.1-2d7c426d-8b25-4e09-8198-5df3cafff407; session_id_admin=127.0.0.1-629e8be1-afe5-45fc-bfd2-0df6ba96261e'
p1316
asbasbasbag61
(g77
g63
NtRp1317
(dp1318
g66
(dp1319
sg75
g1046
sg68
(lp1320
g61
(g82
g63
NtRp1321
(dp1322
g66
(dp1323
g86
g87
ssg75
g1317
sg68
(lp1324
S'http_host'
p1325
asbag61
(g82
g63
NtRp1326
(dp1327
g66
(dp1328
g93
g94
ssg75
g1317
sg68
(lp1329
S':'
asbag61
(g82
g63
NtRp1330
(dp1331
g66
(dp1332
sg75
g1317
sg68
(lp1333
g61
(g62
g63
NtRp1334
(dp1335
g66
(dp1336
g74
I4
ssg75
g1330
sg68
(lp1337
S'127.0.0.1:8000'
p1338
asbasbasbag61
(g77
g63
NtRp1339
(dp1340
g66
(dp1341
sg75
g1046
sg68
(lp1342
g61
(g82
g63
NtRp1343
(dp1344
g66
(dp1345
g86
g87
ssg75
g1339
sg68
(lp1346
S'http_referer'
p1347
asbag61
(g82
g63
NtRp1348
(dp1349
g66
(dp1350
g93
g94
ssg75
g1339
sg68
(lp1351
S':'
asbag61
(g82
g63
NtRp1352
(dp1353
g66
(dp1354
sg75
g1339
sg68
(lp1355
g61
(g62
g63
NtRp1356
(dp1357
g66
(dp1358
g74
I4
ssg75
g1352
sg68
(lp1359
S'http://127.0.0.1:8000/paideia/exploring/index'
p1360
asbasbasbag61
(g77
g63
NtRp1361
(dp1362
g66
(dp1363
sg75
g1046
sg68
(lp1364
g61
(g82
g63
NtRp1365
(dp1366
g66
(dp1367
g86
g87
ssg75
g1361
sg68
(lp1368
S'http_user_agent'
p1369
asbag61
(g82
g63
NtRp1370
(dp1371
g66
(dp1372
g93
g94
ssg75
g1361
sg68
(lp1373
S':'
asbag61
(g82
g63
NtRp1374
(dp1375
g66
(dp1376
sg75
g1361
sg68
(lp1377
g61
(g62
g63
NtRp1378
(dp1379
g66
(dp1380
g74
I4
ssg75
g1374
sg68
(lp1381
S'Mozilla/5.0 (X11; Ubuntu; Linux x86_64; rv:11.0) Gecko/20100101 Firefox/11.0 openid'
p1382
asbasbasbag61
(g77
g63
NtRp1383
(dp1384
g66
(dp1385
sg75
g1046
sg68
(lp1386
g61
(g82
g63
NtRp1387
(dp1388
g66
(dp1389
g86
g87
ssg75
g1383
sg68
(lp1390
S'http_web2py_component_element'
p1391
asbag61
(g82
g63
NtRp1392
(dp1393
g66
(dp1394
g93
g94
ssg75
g1383
sg68
(lp1395
S':'
asbag61
(g82
g63
NtRp1396
(dp1397
g66
(dp1398
sg75
g1383
sg68
(lp1399
g61
(g62
g63
NtRp1400
(dp1401
g66
(dp1402
g74
I4
ssg75
g1396
sg68
(lp1403
g207
asbasbasbag61
(g77
g63
NtRp1404
(dp1405
g66
(dp1406
sg75
g1046
sg68
(lp1407
g61
(g82
g63
NtRp1408
(dp1409
g66
(dp1410
g86
g87
ssg75
g1404
sg68
(lp1411
S'http_web2py_component_location'
p1412
asbag61
(g82
g63
NtRp1413
(dp1414
g66
(dp1415
g93
g94
ssg75
g1404
sg68
(lp1416
S':'
asbag61
(g82
g63
NtRp1417
(dp1418
g66
(dp1419
sg75
g1404
sg68
(lp1420
g61
(g62
g63
NtRp1421
(dp1422
g66
(dp1423
g74
I4
ssg75
g1417
sg68
(lp1424
S'http://127.0.0.1:8000/paideia/exploring/index'
p1425
asbasbasbag61
(g77
g63
NtRp1426
(dp1427
g66
(dp1428
sg75
g1046
sg68
(lp1429
g61
(g82
g63
NtRp1430
(dp1431
g66
(dp1432
g86
g87
ssg75
g1426
sg68
(lp1433
S'http_x_requested_with'
p1434
asbag61
(g82
g63
NtRp1435
(dp1436
g66
(dp1437
g93
g94
ssg75
g1426
sg68
(lp1438
S':'
asbag61
(g82
g63
NtRp1439
(dp1440
g66
(dp1441
sg75
g1426
sg68
(lp1442
g61
(g62
g63
NtRp1443
(dp1444
g66
(dp1445
g74
I4
ssg75
g1439
sg68
(lp1446
S'XMLHttpRequest'
p1447
asbasbasbag61
(g77
g63
NtRp1448
(dp1449
g66
(dp1450
sg75
g1046
sg68
(lp1451
g61
(g82
g63
NtRp1452
(dp1453
g66
(dp1454
g86
g87
ssg75
g1448
sg68
(lp1455
S'is_jython'
p1456
asbag61
(g82
g63
NtRp1457
(dp1458
g66
(dp1459
g93
g94
ssg75
g1448
sg68
(lp1460
S':'
asbag61
(g82
g63
NtRp1461
(dp1462
g66
(dp1463
sg75
g1448
sg68
(lp1464
g61
(g62
g63
NtRp1465
(dp1466
g66
(dp1467
g74
I4
ssg75
g1461
sg68
(lp1468
g1184
asbasbasbag61
(g77
g63
NtRp1469
(dp1470
g66
(dp1471
sg75
g1046
sg68
(lp1472
g61
(g82
g63
NtRp1473
(dp1474
g66
(dp1475
g86
g87
ssg75
g1469
sg68
(lp1476
S'is_pypy'
p1477
asbag61
(g82
g63
NtRp1478
(dp1479
g66
(dp1480
g93
g94
ssg75
g1469
sg68
(lp1481
S':'
asbag61
(g82
g63
NtRp1482
(dp1483
g66
(dp1484
sg75
g1469
sg68
(lp1485
g61
(g62
g63
NtRp1486
(dp1487
g66
(dp1488
g74
I4
ssg75
g1482
sg68
(lp1489
g1184
asbasbasbag61
(g77
g63
NtRp1490
(dp1491
g66
(dp1492
sg75
g1046
sg68
(lp1493
g61
(g82
g63
NtRp1494
(dp1495
g66
(dp1496
g86
g87
ssg75
g1490
sg68
(lp1497
S'path_info'
p1498
asbag61
(g82
g63
NtRp1499
(dp1500
g66
(dp1501
g93
g94
ssg75
g1490
sg68
(lp1502
S':'
asbag61
(g82
g63
NtRp1503
(dp1504
g66
(dp1505
sg75
g1490
sg68
(lp1506
g61
(g62
g63
NtRp1507
(dp1508
g66
(dp1509
g74
I4
ssg75
g1503
sg68
(lp1510
S'/paideia/exploring/index.load/ask'
p1511
asbasbasbag61
(g77
g63
NtRp1512
(dp1513
g66
(dp1514
sg75
g1046
sg68
(lp1515
g61
(g82
g63
NtRp1516
(dp1517
g66
(dp1518
g86
g87
ssg75
g1512
sg68
(lp1519
S'query_string'
p1520
asbag61
(g82
g63
NtRp1521
(dp1522
g66
(dp1523
g93
g94
ssg75
g1512
sg68
(lp1524
S':'
asbag61
(g82
g63
NtRp1525
(dp1526
g66
(dp1527
sg75
g1512
sg68
(lp1528
g61
(g62
g63
NtRp1529
(dp1530
g66
(dp1531
g74
I4
ssg75
g1525
sg68
(lp1532
S'loc=domusA'
p1533
asbasbasbag61
(g77
g63
NtRp1534
(dp1535
g66
(dp1536
sg75
g1046
sg68
(lp1537
g61
(g82
g63
NtRp1538
(dp1539
g66
(dp1540
g86
g87
ssg75
g1534
sg68
(lp1541
S'remote_addr'
p1542
asbag61
(g82
g63
NtRp1543
(dp1544
g66
(dp1545
g93
g94
ssg75
g1534
sg68
(lp1546
S':'
asbag61
(g82
g63
NtRp1547
(dp1548
g66
(dp1549
sg75
g1534
sg68
(lp1550
g61
(g62
g63
NtRp1551
(dp1552
g66
(dp1553
g74
I4
ssg75
g1547
sg68
(lp1554
g229
asbasbasbag61
(g77
g63
NtRp1555
(dp1556
g66
(dp1557
sg75
g1046
sg68
(lp1558
g61
(g82
g63
NtRp1559
(dp1560
g66
(dp1561
g86
g87
ssg75
g1555
sg68
(lp1562
S'remote_port'
p1563
asbag61
(g82
g63
NtRp1564
(dp1565
g66
(dp1566
g93
g94
ssg75
g1555
sg68
(lp1567
S':'
asbag61
(g82
g63
NtRp1568
(dp1569
g66
(dp1570
sg75
g1555
sg68
(lp1571
g61
(g62
g63
NtRp1572
(dp1573
g66
(dp1574
g74
I4
ssg75
g1568
sg68
(lp1575
S'44253'
p1576
asbasbasbag61
(g77
g63
NtRp1577
(dp1578
g66
(dp1579
sg75
g1046
sg68
(lp1580
g61
(g82
g63
NtRp1581
(dp1582
g66
(dp1583
g86
g87
ssg75
g1577
sg68
(lp1584
S'request_method'
p1585
asbag61
(g82
g63
NtRp1586
(dp1587
g66
(dp1588
g93
g94
ssg75
g1577
sg68
(lp1589
S':'
asbag61
(g82
g63
NtRp1590
(dp1591
g66
(dp1592
sg75
g1577
sg68
(lp1593
g61
(g62
g63
NtRp1594
(dp1595
g66
(dp1596
g74
I4
ssg75
g1590
sg68
(lp1597
S'GET'
p1598
asbasbasbag61
(g77
g63
NtRp1599
(dp1600
g66
(dp1601
sg75
g1046
sg68
(lp1602
g61
(g82
g63
NtRp1603
(dp1604
g66
(dp1605
g86
g87
ssg75
g1599
sg68
(lp1606
S'script_name'
p1607
asbag61
(g82
g63
NtRp1608
(dp1609
g66
(dp1610
g93
g94
ssg75
g1599
sg68
(lp1611
S':'
asbag61
(g82
g63
NtRp1612
(dp1613
g66
(dp1614
sg75
g1599
sg68
(lp1615
g61
(g62
g63
NtRp1616
(dp1617
g66
(dp1618
g74
I4
ssg75
g1612
sg68
(lp1619
S''
asbasbasbag61
(g77
g63
NtRp1620
(dp1621
g66
(dp1622
sg75
g1046
sg68
(lp1623
g61
(g82
g63
NtRp1624
(dp1625
g66
(dp1626
g86
g87
ssg75
g1620
sg68
(lp1627
S'server_name'
p1628
asbag61
(g82
g63
NtRp1629
(dp1630
g66
(dp1631
g93
g94
ssg75
g1620
sg68
(lp1632
S':'
asbag61
(g82
g63
NtRp1633
(dp1634
g66
(dp1635
sg75
g1620
sg68
(lp1636
g61
(g62
g63
NtRp1637
(dp1638
g66
(dp1639
g74
I4
ssg75
g1633
sg68
(lp1640
S'uriel'
p1641
asbasbasbag61
(g77
g63
NtRp1642
(dp1643
g66
(dp1644
sg75
g1046
sg68
(lp1645
g61
(g82
g63
NtRp1646
(dp1647
g66
(dp1648
g86
g87
ssg75
g1642
sg68
(lp1649
S'server_port'
p1650
asbag61
(g82
g63
NtRp1651
(dp1652
g66
(dp1653
g93
g94
ssg75
g1642
sg68
(lp1654
S':'
asbag61
(g82
g63
NtRp1655
(dp1656
g66
(dp1657
sg75
g1642
sg68
(lp1658
g61
(g62
g63
NtRp1659
(dp1660
g66
(dp1661
g74
I4
ssg75
g1655
sg68
(lp1662
S'8000'
p1663
asbasbasbag61
(g77
g63
NtRp1664
(dp1665
g66
(dp1666
sg75
g1046
sg68
(lp1667
g61
(g82
g63
NtRp1668
(dp1669
g66
(dp1670
g86
g87
ssg75
g1664
sg68
(lp1671
S'server_protocol'
p1672
asbag61
(g82
g63
NtRp1673
(dp1674
g66
(dp1675
g93
g94
ssg75
g1664
sg68
(lp1676
S':'
asbag61
(g82
g63
NtRp1677
(dp1678
g66
(dp1679
sg75
g1664
sg68
(lp1680
g61
(g62
g63
NtRp1681
(dp1682
g66
(dp1683
g74
I4
ssg75
g1677
sg68
(lp1684
S'HTTP/1.1'
p1685
asbasbasbag61
(g77
g63
NtRp1686
(dp1687
g66
(dp1688
sg75
g1046
sg68
(lp1689
g61
(g82
g63
NtRp1690
(dp1691
g66
(dp1692
g86
g87
ssg75
g1686
sg68
(lp1693
S'server_software'
p1694
asbag61
(g82
g63
NtRp1695
(dp1696
g66
(dp1697
g93
g94
ssg75
g1686
sg68
(lp1698
S':'
asbag61
(g82
g63
NtRp1699
(dp1700
g66
(dp1701
sg75
g1686
sg68
(lp1702
g61
(g62
g63
NtRp1703
(dp1704
g66
(dp1705
g74
I4
ssg75
g1699
sg68
(lp1706
S'Rocket 1.2.4'
p1707
asbasbasbag61
(g77
g63
NtRp1708
(dp1709
g66
(dp1710
sg75
g1046
sg68
(lp1711
g61
(g82
g63
NtRp1712
(dp1713
g66
(dp1714
g86
g87
ssg75
g1708
sg68
(lp1715
S'web2py_crontype'
p1716
asbag61
(g82
g63
NtRp1717
(dp1718
g66
(dp1719
g93
g94
ssg75
g1708
sg68
(lp1720
S':'
asbag61
(g82
g63
NtRp1721
(dp1722
g66
(dp1723
sg75
g1708
sg68
(lp1724
g61
(g62
g63
NtRp1725
(dp1726
g66
(dp1727
g74
I4
ssg75
g1721
sg68
(lp1728
S'hard'
p1729
asbasbasbag61
(g77
g63
NtRp1730
(dp1731
g66
(dp1732
sg75
g1046
sg68
(lp1733
g61
(g82
g63
NtRp1734
(dp1735
g66
(dp1736
g86
g87
ssg75
g1730
sg68
(lp1737
S'web2py_path'
p1738
asbag61
(g82
g63
NtRp1739
(dp1740
g66
(dp1741
g93
g94
ssg75
g1730
sg68
(lp1742
S':'
asbag61
(g82
g63
NtRp1743
(dp1744
g66
(dp1745
sg75
g1730
sg68
(lp1746
g61
(g62
g63
NtRp1747
(dp1748
g66
(dp1749
g74
I4
ssg75
g1743
sg68
(lp1750
g1093
asbasbasbag61
(g77
g63
NtRp1751
(dp1752
g66
(dp1753
sg75
g1046
sg68
(lp1754
g61
(g82
g63
NtRp1755
(dp1756
g66
(dp1757
g86
g87
ssg75
g1751
sg68
(lp1758
S'web2py_version'
p1759
asbag61
(g82
g63
NtRp1760
(dp1761
g66
(dp1762
g93
g94
ssg75
g1751
sg68
(lp1763
S':'
asbag61
(g82
g63
NtRp1764
(dp1765
g66
(dp1766
sg75
g1751
sg68
(lp1767
g61
(g62
g63
NtRp1768
(dp1769
g66
(dp1770
g74
I4
ssg75
g1764
sg68
(lp1771
g61
(g70
g63
NtRp1772
(dp1773
g66
(dp1774
g74
I3
ssg75
Nsg68
(lp1775
g61
(g77
g63
NtRp1776
(dp1777
g66
(dp1778
sg75
g1772
sg68
(lp1779
g61
(g82
g63
NtRp1780
(dp1781
g66
(dp1782
sg75
g1776
sg68
(lp1783
g61
(g62
g63
NtRp1784
(dp1785
g66
(dp1786
g74
I3
ssg75
g1780
sg68
(lp1787
S'1'
asbasbasbag61
(g77
g63
NtRp1788
(dp1789
g66
(dp1790
sg75
g1772
sg68
(lp1791
g61
(g82
g63
NtRp1792
(dp1793
g66
(dp1794
sg75
g1788
sg68
(lp1795
g61
(g62
g63
NtRp1796
(dp1797
g66
(dp1798
g74
I3
ssg75
g1792
sg68
(lp1799
S'99'
p1800
asbasbasbag61
(g77
g63
NtRp1801
(dp1802
g66
(dp1803
sg75
g1772
sg68
(lp1804
g61
(g82
g63
NtRp1805
(dp1806
g66
(dp1807
sg75
g1801
sg68
(lp1808
g61
(g62
g63
NtRp1809
(dp1810
g66
(dp1811
g74
I3
ssg75
g1805
sg68
(lp1812
S'4'
asbasbasbag61
(g77
g63
NtRp1813
(dp1814
g66
(dp1815
sg75
g1772
sg68
(lp1816
g61
(g82
g63
NtRp1817
(dp1818
g66
(dp1819
sg75
g1813
sg68
(lp1820
g61
(g62
g63
NtRp1821
(dp1822
g66
(dp1823
g74
I3
ssg75
g1817
sg68
(lp1824
S'datetime.datetime(2011, 12, 14, 14, 46, 14)'
p1825
asbasbasbag61
(g77
g63
NtRp1826
(dp1827
g66
(dp1828
sg75
g1772
sg68
(lp1829
g61
(g82
g63
NtRp1830
(dp1831
g66
(dp1832
sg75
g1826
sg68
(lp1833
g61
(g62
g63
NtRp1834
(dp1835
g66
(dp1836
g74
I3
ssg75
g1830
sg68
(lp1837
S'stable'
p1838
asbasbasbasbasbasbasbag61
(g77
g63
NtRp1839
(dp1840
g66
(dp1841
sg75
g1046
sg68
(lp1842
g61
(g82
g63
NtRp1843
(dp1844
g66
(dp1845
g86
g87
ssg75
g1839
sg68
(lp1846
S'wsgi_errors'
p1847
asbag61
(g82
g63
NtRp1848
(dp1849
g66
(dp1850
g93
g94
ssg75
g1839
sg68
(lp1851
S':'
asbag61
(g82
g63
NtRp1852
(dp1853
g66
(dp1854
sg75
g1839
sg68
(lp1855
g61
(g62
g63
NtRp1856
(dp1857
g66
(dp1858
g74
I4
ssg75
g1852
sg68
(lp1859
S"<open file '<stderr>', mode 'w' at 0x7f89dd6d5270>"
p1860
asbasbasbag61
(g77
g63
NtRp1861
(dp1862
g66
(dp1863
sg75
g1046
sg68
(lp1864
g61
(g82
g63
NtRp1865
(dp1866
g66
(dp1867
g86
g87
ssg75
g1861
sg68
(lp1868
S'wsgi_file_wrapper'
p1869
asbag61
(g82
g63
NtRp1870
(dp1871
g66
(dp1872
g93
g94
ssg75
g1861
sg68
(lp1873
S':'
asbag61
(g82
g63
NtRp1874
(dp1875
g66
(dp1876
sg75
g1861
sg68
(lp1877
g61
(g62
g63
NtRp1878
(dp1879
g66
(dp1880
g74
I4
ssg75
g1874
sg68
(lp1881
S'<class wsgiref.util.FileWrapper at 0x1902d50>'
p1882
asbasbasbag61
(g77
g63
NtRp1883
(dp1884
g66
(dp1885
sg75
g1046
sg68
(lp1886
g61
(g82
g63
NtRp1887
(dp1888
g66
(dp1889
g86
g87
ssg75
g1883
sg68
(lp1890
S'wsgi_input'
p1891
asbag61
(g82
g63
NtRp1892
(dp1893
g66
(dp1894
g93
g94
ssg75
g1883
sg68
(lp1895
S':'
asbag61
(g82
g63
NtRp1896
(dp1897
g66
(dp1898
sg75
g1883
sg68
(lp1899
g61
(g62
g63
NtRp1900
(dp1901
g66
(dp1902
g74
I4
ssg75
g1896
sg68
(lp1903
S'<socket._fileobject object at 0x7f89a83604d0>'
p1904
asbasbasbag61
(g77
g63
NtRp1905
(dp1906
g66
(dp1907
sg75
g1046
sg68
(lp1908
g61
(g82
g63
NtRp1909
(dp1910
g66
(dp1911
g86
g87
ssg75
g1905
sg68
(lp1912
S'wsgi_multiprocess'
p1913
asbag61
(g82
g63
NtRp1914
(dp1915
g66
(dp1916
g93
g94
ssg75
g1905
sg68
(lp1917
S':'
asbag61
(g82
g63
NtRp1918
(dp1919
g66
(dp1920
sg75
g1905
sg68
(lp1921
g61
(g62
g63
NtRp1922
(dp1923
g66
(dp1924
g74
I4
ssg75
g1918
sg68
(lp1925
g1184
asbasbasbag61
(g77
g63
NtRp1926
(dp1927
g66
(dp1928
sg75
g1046
sg68
(lp1929
g61
(g82
g63
NtRp1930
(dp1931
g66
(dp1932
g86
g87
ssg75
g1926
sg68
(lp1933
S'wsgi_multithread'
p1934
asbag61
(g82
g63
NtRp1935
(dp1936
g66
(dp1937
g93
g94
ssg75
g1926
sg68
(lp1938
S':'
asbag61
(g82
g63
NtRp1939
(dp1940
g66
(dp1941
sg75
g1926
sg68
(lp1942
g61
(g62
g63
NtRp1943
(dp1944
g66
(dp1945
g74
I4
ssg75
g1939
sg68
(lp1946
g104
asbasbasbag61
(g77
g63
NtRp1947
(dp1948
g66
(dp1949
sg75
g1046
sg68
(lp1950
g61
(g82
g63
NtRp1951
(dp1952
g66
(dp1953
g86
g87
ssg75
g1947
sg68
(lp1954
S'wsgi_run_once'
p1955
asbag61
(g82
g63
NtRp1956
(dp1957
g66
(dp1958
g93
g94
ssg75
g1947
sg68
(lp1959
S':'
asbag61
(g82
g63
NtRp1960
(dp1961
g66
(dp1962
sg75
g1947
sg68
(lp1963
g61
(g62
g63
NtRp1964
(dp1965
g66
(dp1966
g74
I4
ssg75
g1960
sg68
(lp1967
g1184
asbasbasbag61
(g77
g63
NtRp1968
(dp1969
g66
(dp1970
sg75
g1046
sg68
(lp1971
g61
(g82
g63
NtRp1972
(dp1973
g66
(dp1974
g86
g87
ssg75
g1968
sg68
(lp1975
S'wsgi_url_scheme'
p1976
asbag61
(g82
g63
NtRp1977
(dp1978
g66
(dp1979
g93
g94
ssg75
g1968
sg68
(lp1980
S':'
asbag61
(g82
g63
NtRp1981
(dp1982
g66
(dp1983
sg75
g1968
sg68
(lp1984
g61
(g62
g63
NtRp1985
(dp1986
g66
(dp1987
g74
I4
ssg75
g1981
sg68
(lp1988
S'http'
p1989
asbasbasbag61
(g77
g63
NtRp1990
(dp1991
g66
(dp1992
sg75
g1046
sg68
(lp1993
g61
(g82
g63
NtRp1994
(dp1995
g66
(dp1996
g86
g87
ssg75
g1990
sg68
(lp1997
S'wsgi_version'
p1998
asbag61
(g82
g63
NtRp1999
(dp2000
g66
(dp2001
g93
g94
ssg75
g1990
sg68
(lp2002
S':'
asbag61
(g82
g63
NtRp2003
(dp2004
g66
(dp2005
sg75
g1990
sg68
(lp2006
g61
(g62
g63
NtRp2007
(dp2008
g66
(dp2009
g74
I4
ssg75
g2003
sg68
(lp2010
g61
(g70
g63
NtRp2011
(dp2012
g66
(dp2013
g74
I3
ssg75
Nsg68
(lp2014
g61
(g77
g63
NtRp2015
(dp2016
g66
(dp2017
sg75
g2011
sg68
(lp2018
g61
(g82
g63
NtRp2019
(dp2020
g66
(dp2021
sg75
g2015
sg68
(lp2022
g61
(g62
g63
NtRp2023
(dp2024
g66
(dp2025
g74
I3
ssg75
g2019
sg68
(lp2026
S'1'
asbasbasbag61
(g77
g63
NtRp2027
(dp2028
g66
(dp2029
sg75
g2011
sg68
(lp2030
g61
(g82
g63
NtRp2031
(dp2032
g66
(dp2033
sg75
g2027
sg68
(lp2034
g61
(g62
g63
NtRp2035
(dp2036
g66
(dp2037
g74
I3
ssg75
g2031
sg68
(lp2038
S'0'
asbasbasbasbasbasbasbasbasbasbasbag61
(g77
g63
NtRp2039
(dp2040
g66
(dp2041
sg75
g71
sg68
(lp2042
g61
(g82
g63
NtRp2043
(dp2044
g66
(dp2045
g86
g87
ssg75
g2039
sg68
(lp2046
S'extension'
p2047
asbag61
(g82
g63
NtRp2048
(dp2049
g66
(dp2050
g93
g94
ssg75
g2039
sg68
(lp2051
S':'
asbag61
(g82
g63
NtRp2052
(dp2053
g66
(dp2054
sg75
g2039
sg68
(lp2055
g61
(g62
g63
NtRp2056
(dp2057
g66
(dp2058
g74
I5
ssg75
g2052
sg68
(lp2059
S'load'
p2060
asbasbasbag61
(g77
g63
NtRp2061
(dp2062
g66
(dp2063
sg75
g71
sg68
(lp2064
g61
(g82
g63
NtRp2065
(dp2066
g66
(dp2067
g86
g87
ssg75
g2061
sg68
(lp2068
S'folder'
p2069
asbag61
(g82
g63
NtRp2070
(dp2071
g66
(dp2072
g93
g94
ssg75
g2061
sg68
(lp2073
S':'
asbag61
(g82
g63
NtRp2074
(dp2075
g66
(dp2076
sg75
g2061
sg68
(lp2077
g61
(g62
g63
NtRp2078
(dp2079
g66
(dp2080
g74
I5
ssg75
g2074
sg68
(lp2081
S'/home/ian/web/web2py/applications/paideia/'
p2082
asbasbasbag61
(g77
g63
NtRp2083
(dp2084
g66
(dp2085
sg75
g71
sg68
(lp2086
g61
(g82
g63
NtRp2087
(dp2088
g66
(dp2089
g86
g87
ssg75
g2083
sg68
(lp2090
S'function'
p2091
asbag61
(g82
g63
NtRp2092
(dp2093
g66
(dp2094
g93
g94
ssg75
g2083
sg68
(lp2095
S':'
asbag61
(g82
g63
NtRp2096
(dp2097
g66
(dp2098
sg75
g2083
sg68
(lp2099
g61
(g62
g63
NtRp2100
(dp2101
g66
(dp2102
g74
I5
ssg75
g2096
sg68
(lp2103
S'index'
p2104
asbasbasbag61
(g77
g63
NtRp2105
(dp2106
g66
(dp2107
sg75
g71
sg68
(lp2108
g61
(g82
g63
NtRp2109
(dp2110
g66
(dp2111
g86
g87
ssg75
g2105
sg68
(lp2112
S'get_vars'
p2113
asbag61
(g82
g63
NtRp2114
(dp2115
g66
(dp2116
g93
g94
ssg75
g2105
sg68
(lp2117
S':'
asbag61
(g82
g63
NtRp2118
(dp2119
g66
(dp2120
sg75
g2105
sg68
(lp2121
g61
(g62
g63
NtRp2122
(dp2123
g66
(dp2124
g74
I5
ssg75
g2118
sg68
(lp2125
g61
(g70
g63
NtRp2126
(dp2127
g66
(dp2128
g74
I4
ssg75
Nsg68
(lp2129
g61
(g77
g63
NtRp2130
(dp2131
g66
(dp2132
sg75
g2126
sg68
(lp2133
g61
(g82
g63
NtRp2134
(dp2135
g66
(dp2136
g86
g87
ssg75
g2130
sg68
(lp2137
S'loc'
p2138
asbag61
(g82
g63
NtRp2139
(dp2140
g66
(dp2141
g93
g94
ssg75
g2130
sg68
(lp2142
S':'
asbag61
(g82
g63
NtRp2143
(dp2144
g66
(dp2145
sg75
g2130
sg68
(lp2146
g61
(g62
g63
NtRp2147
(dp2148
g66
(dp2149
g74
I4
ssg75
g2143
sg68
(lp2150
S'domusA'
p2151
asbasbasbasbasbasbasbag61
(g77
g63
NtRp2152
(dp2153
g66
(dp2154
sg75
g71
sg68
(lp2155
g61
(g82
g63
NtRp2156
(dp2157
g66
(dp2158
g86
g87
ssg75
g2152
sg68
(lp2159
S'global_settings'
p2160
asbag61
(g82
g63
NtRp2161
(dp2162
g66
(dp2163
g93
g94
ssg75
g2152
sg68
(lp2164
S':'
asbag61
(g82
g63
NtRp2165
(dp2166
g66
(dp2167
sg75
g2152
sg68
(lp2168
g61
(g62
g63
NtRp2169
(dp2170
g66
(dp2171
g74
I5
ssg75
g2165
sg68
(lp2172
g61
(g70
g63
NtRp2173
(dp2174
g66
(dp2175
g74
I4
ssg75
Nsg68
(lp2176
g61
(g77
g63
NtRp2177
(dp2178
g66
(dp2179
sg75
g2173
sg68
(lp2180
g61
(g82
g63
NtRp2181
(dp2182
g66
(dp2183
g86
g87
ssg75
g2177
sg68
(lp2184
g1058
asbag61
(g82
g63
NtRp2185
(dp2186
g66
(dp2187
g93
g94
ssg75
g2177
sg68
(lp2188
S':'
asbag61
(g82
g63
NtRp2189
(dp2190
g66
(dp2191
sg75
g2177
sg68
(lp2192
g61
(g62
g63
NtRp2193
(dp2194
g66
(dp2195
g74
I4
ssg75
g2189
sg68
(lp2196
S"set(['/home/ian/web/web2py/applications/welcome/', '/home/ian/web/web2py/applications/paideia/', '/home/ian/web/web2py/applications/admin/'])"
p2197
asbasbasbag61
(g77
g63
NtRp2198
(dp2199
g66
(dp2200
sg75
g2173
sg68
(lp2201
g61
(g82
g63
NtRp2202
(dp2203
g66
(dp2204
g86
g87
ssg75
g2198
sg68
(lp2205
g1080
asbag61
(g82
g63
NtRp2206
(dp2207
g66
(dp2208
g93
g94
ssg75
g2198
sg68
(lp2209
S':'
asbag61
(g82
g63
NtRp2210
(dp2211
g66
(dp2212
sg75
g2198
sg68
(lp2213
g61
(g62
g63
NtRp2214
(dp2215
g66
(dp2216
g74
I4
ssg75
g2210
sg68
(lp2217
g1093
asbasbasbag61
(g77
g63
NtRp2218
(dp2219
g66
(dp2220
sg75
g2173
sg68
(lp2221
g61
(g82
g63
NtRp2222
(dp2223
g66
(dp2224
g86
g87
ssg75
g2218
sg68
(lp2225
g1102
asbag61
(g82
g63
NtRp2226
(dp2227
g66
(dp2228
g93
g94
ssg75
g2218
sg68
(lp2229
S':'
asbag61
(g82
g63
NtRp2230
(dp2231
g66
(dp2232
sg75
g2218
sg68
(lp2233
g61
(g62
g63
NtRp2234
(dp2235
g66
(dp2236
g74
I4
ssg75
g2230
sg68
(lp2237
g61
(g70
g63
NtRp2238
(dp2239
g66
(dp2240
g74
I3
ssg75
Nsg68
(lp2241
sbasbasbasbag61
(g77
g63
NtRp2242
(dp2243
g66
(dp2244
sg75
g2173
sg68
(lp2245
g61
(g82
g63
NtRp2246
(dp2247
g66
(dp2248
g86
g87
ssg75
g2242
sg68
(lp2249
g1127
asbag61
(g82
g63
NtRp2250
(dp2251
g66
(dp2252
g93
g94
ssg75
g2242
sg68
(lp2253
S':'
asbag61
(g82
g63
NtRp2254
(dp2255
g66
(dp2256
sg75
g2242
sg68
(lp2257
g61
(g62
g63
NtRp2258
(dp2259
g66
(dp2260
g74
I4
ssg75
g2254
sg68
(lp2261
S"<Values at 0x1a38758: {'verbose': False, 'ip': '127.0.0.1', 'shutdown_timeout': 5, 'taskbar': False, 'nocron': False, 'pid_filename': 'httpserver.pid', 'maxthreads': None, 'softcron': False, 'server_name': 'uriel', 'bpython': False, 'nogui': False, 'port': 8000, 'extcron': False, 'debuglevel': 30, 'test': None, 'folder': '/home/ian/web/web2py', 'config': '', 'import_models': False, 'winservice': '', 'shell': None, 'run': '', 'log_filename': 'httpserver.log', 'args': [''], 'socket_timeout': 1, 'ssl_ca_certificate': None, 'scheduler': None, 'profiler_filename': None, 'ssl_private_key': '', 'password': '<ask>', 'request_queue_size': 5, 'ssl_certificate': '', 'cronjob': False, 'numthreads': None, 'quiet': False, 'interfaces': None, 'minthreads': None, 'timeout': 10, 'plain': False, 'nobanner': False}>"
p2262
asbasbasbag61
(g77
g63
NtRp2263
(dp2264
g66
(dp2265
sg75
g2173
sg68
(lp2266
g61
(g82
g63
NtRp2267
(dp2268
g66
(dp2269
g86
g87
ssg75
g2263
sg68
(lp2270
g1149
asbag61
(g82
g63
NtRp2271
(dp2272
g66
(dp2273
g93
g94
ssg75
g2263
sg68
(lp2274
S':'
asbag61
(g82
g63
NtRp2275
(dp2276
g66
(dp2277
sg75
g2263
sg68
(lp2278
g61
(g62
g63
NtRp2279
(dp2280
g66
(dp2281
g74
I4
ssg75
g2275
sg68
(lp2282
S'set([])'
p2283
asbasbasbag61
(g77
g63
NtRp2284
(dp2285
g66
(dp2286
sg75
g2173
sg68
(lp2287
g61
(g82
g63
NtRp2288
(dp2289
g66
(dp2290
g86
g87
ssg75
g2284
sg68
(lp2291
g1171
asbag61
(g82
g63
NtRp2292
(dp2293
g66
(dp2294
g93
g94
ssg75
g2284
sg68
(lp2295
S':'
asbag61
(g82
g63
NtRp2296
(dp2297
g66
(dp2298
sg75
g2284
sg68
(lp2299
g61
(g62
g63
NtRp2300
(dp2301
g66
(dp2302
g74
I4
ssg75
g2296
sg68
(lp2303
g1184
asbasbasbag61
(g77
g63
NtRp2304
(dp2305
g66
(dp2306
sg75
g2173
sg68
(lp2307
g61
(g82
g63
NtRp2308
(dp2309
g66
(dp2310
g86
g87
ssg75
g2304
sg68
(lp2311
g1193
asbag61
(g82
g63
NtRp2312
(dp2313
g66
(dp2314
g93
g94
ssg75
g2304
sg68
(lp2315
S':'
asbag61
(g82
g63
NtRp2316
(dp2317
g66
(dp2318
sg75
g2304
sg68
(lp2319
g61
(g62
g63
NtRp2320
(dp2321
g66
(dp2322
g74
I4
ssg75
g2316
sg68
(lp2323
g1206
asbasbasbag61
(g77
g63
NtRp2324
(dp2325
g66
(dp2326
sg75
g2173
sg68
(lp2327
g61
(g82
g63
NtRp2328
(dp2329
g66
(dp2330
g86
g87
ssg75
g2324
sg68
(lp2331
g1456
asbag61
(g82
g63
NtRp2332
(dp2333
g66
(dp2334
g93
g94
ssg75
g2324
sg68
(lp2335
S':'
asbag61
(g82
g63
NtRp2336
(dp2337
g66
(dp2338
sg75
g2324
sg68
(lp2339
g61
(g62
g63
NtRp2340
(dp2341
g66
(dp2342
g74
I4
ssg75
g2336
sg68
(lp2343
g1184
asbasbasbag61
(g77
g63
NtRp2344
(dp2345
g66
(dp2346
sg75
g2173
sg68
(lp2347
g61
(g82
g63
NtRp2348
(dp2349
g66
(dp2350
g86
g87
ssg75
g2344
sg68
(lp2351
g1477
asbag61
(g82
g63
NtRp2352
(dp2353
g66
(dp2354
g93
g94
ssg75
g2344
sg68
(lp2355
S':'
asbag61
(g82
g63
NtRp2356
(dp2357
g66
(dp2358
sg75
g2344
sg68
(lp2359
g61
(g62
g63
NtRp2360
(dp2361
g66
(dp2362
g74
I4
ssg75
g2356
sg68
(lp2363
g1184
asbasbasbag61
(g77
g63
NtRp2364
(dp2365
g66
(dp2366
sg75
g2173
sg68
(lp2367
g61
(g82
g63
NtRp2368
(dp2369
g66
(dp2370
g86
g87
ssg75
g2364
sg68
(lp2371
g1716
asbag61
(g82
g63
NtRp2372
(dp2373
g66
(dp2374
g93
g94
ssg75
g2364
sg68
(lp2375
S':'
asbag61
(g82
g63
NtRp2376
(dp2377
g66
(dp2378
sg75
g2364
sg68
(lp2379
g61
(g62
g63
NtRp2380
(dp2381
g66
(dp2382
g74
I4
ssg75
g2376
sg68
(lp2383
g1729
asbasbasbag61
(g77
g63
NtRp2384
(dp2385
g66
(dp2386
sg75
g2173
sg68
(lp2387
g61
(g82
g63
NtRp2388
(dp2389
g66
(dp2390
g86
g87
ssg75
g2384
sg68
(lp2391
g1759
asbag61
(g82
g63
NtRp2392
(dp2393
g66
(dp2394
g93
g94
ssg75
g2384
sg68
(lp2395
S':'
asbag61
(g82
g63
NtRp2396
(dp2397
g66
(dp2398
sg75
g2384
sg68
(lp2399
g61
(g62
g63
NtRp2400
(dp2401
g66
(dp2402
g74
I4
ssg75
g2396
sg68
(lp2403
g61
(g70
g63
NtRp2404
(dp2405
g66
(dp2406
g74
I3
ssg75
Nsg68
(lp2407
g61
(g77
g63
NtRp2408
(dp2409
g66
(dp2410
sg75
g2404
sg68
(lp2411
g61
(g82
g63
NtRp2412
(dp2413
g66
(dp2414
sg75
g2408
sg68
(lp2415
g61
(g62
g63
NtRp2416
(dp2417
g66
(dp2418
g74
I3
ssg75
g2412
sg68
(lp2419
S'1'
asbasbasbag61
(g77
g63
NtRp2420
(dp2421
g66
(dp2422
sg75
g2404
sg68
(lp2423
g61
(g82
g63
NtRp2424
(dp2425
g66
(dp2426
sg75
g2420
sg68
(lp2427
g61
(g62
g63
NtRp2428
(dp2429
g66
(dp2430
g74
I3
ssg75
g2424
sg68
(lp2431
S'99'
p2432
asbasbasbag61
(g77
g63
NtRp2433
(dp2434
g66
(dp2435
sg75
g2404
sg68
(lp2436
g61
(g82
g63
NtRp2437
(dp2438
g66
(dp2439
sg75
g2433
sg68
(lp2440
g61
(g62
g63
NtRp2441
(dp2442
g66
(dp2443
g74
I3
ssg75
g2437
sg68
(lp2444
S'4'
asbasbasbag61
(g77
g63
NtRp2445
(dp2446
g66
(dp2447
sg75
g2404
sg68
(lp2448
g61
(g82
g63
NtRp2449
(dp2450
g66
(dp2451
sg75
g2445
sg68
(lp2452
g61
(g62
g63
NtRp2453
(dp2454
g66
(dp2455
g74
I3
ssg75
g2449
sg68
(lp2456
S'datetime.datetime(2011, 12, 14, 14, 46, 14)'
p2457
asbasbasbag61
(g77
g63
NtRp2458
(dp2459
g66
(dp2460
sg75
g2404
sg68
(lp2461
g61
(g82
g63
NtRp2462
(dp2463
g66
(dp2464
sg75
g2458
sg68
(lp2465
g61
(g62
g63
NtRp2466
(dp2467
g66
(dp2468
g74
I3
ssg75
g2462
sg68
(lp2469
g1838
asbasbasbasbasbasbasbasbasbasbasbag61
(g77
g63
NtRp2470
(dp2471
g66
(dp2472
sg75
g71
sg68
(lp2473
g61
(g82
g63
NtRp2474
(dp2475
g66
(dp2476
g86
g87
ssg75
g2470
sg68
(lp2477
S'is_https'
p2478
asbag61
(g82
g63
NtRp2479
(dp2480
g66
(dp2481
g93
g94
ssg75
g2470
sg68
(lp2482
S':'
asbag61
(g82
g63
NtRp2483
(dp2484
g66
(dp2485
sg75
g2470
sg68
(lp2486
g61
(g62
g63
NtRp2487
(dp2488
g66
(dp2489
g74
I5
ssg75
g2483
sg68
(lp2490
g1184
asbasbasbag61
(g77
g63
NtRp2491
(dp2492
g66
(dp2493
sg75
g71
sg68
(lp2494
g61
(g82
g63
NtRp2495
(dp2496
g66
(dp2497
g86
g87
ssg75
g2491
sg68
(lp2498
S'is_local'
p2499
asbag61
(g82
g63
NtRp2500
(dp2501
g66
(dp2502
g93
g94
ssg75
g2491
sg68
(lp2503
S':'
asbag61
(g82
g63
NtRp2504
(dp2505
g66
(dp2506
sg75
g2491
sg68
(lp2507
g61
(g62
g63
NtRp2508
(dp2509
g66
(dp2510
g74
I5
ssg75
g2504
sg68
(lp2511
g104
asbasbasbag61
(g77
g63
NtRp2512
(dp2513
g66
(dp2514
sg75
g71
sg68
(lp2515
g61
(g82
g63
NtRp2516
(dp2517
g66
(dp2518
g86
g87
ssg75
g2512
sg68
(lp2519
S'is_restful'
p2520
asbag61
(g82
g63
NtRp2521
(dp2522
g66
(dp2523
g93
g94
ssg75
g2512
sg68
(lp2524
S':'
asbag61
(g82
g63
NtRp2525
(dp2526
g66
(dp2527
sg75
g2512
sg68
(lp2528
g61
(g62
g63
NtRp2529
(dp2530
g66
(dp2531
g74
I5
ssg75
g2525
sg68
(lp2532
g1184
asbasbasbag61
(g77
g63
NtRp2533
(dp2534
g66
(dp2535
sg75
g71
sg68
(lp2536
g61
(g82
g63
NtRp2537
(dp2538
g66
(dp2539
g86
g87
ssg75
g2533
sg68
(lp2540
S'now'
p2541
asbag61
(g82
g63
NtRp2542
(dp2543
g66
(dp2544
g93
g94
ssg75
g2533
sg68
(lp2545
S':'
asbag61
(g82
g63
NtRp2546
(dp2547
g66
(dp2548
sg75
g2533
sg68
(lp2549
g61
(g62
g63
NtRp2550
(dp2551
g66
(dp2552
g74
I5
ssg75
g2546
sg68
(lp2553
S'datetime.datetime(2012, 3, 14, 12, 42, 45, 629581)'
p2554
asbasbasbag61
(g77
g63
NtRp2555
(dp2556
g66
(dp2557
sg75
g71
sg68
(lp2558
g61
(g82
g63
NtRp2559
(dp2560
g66
(dp2561
g86
g87
ssg75
g2555
sg68
(lp2562
S'post_vars'
p2563
asbag61
(g82
g63
NtRp2564
(dp2565
g66
(dp2566
g93
g94
ssg75
g2555
sg68
(lp2567
S':'
asbag61
(g82
g63
NtRp2568
(dp2569
g66
(dp2570
sg75
g2555
sg68
(lp2571
g61
(g62
g63
NtRp2572
(dp2573
g66
(dp2574
g74
I5
ssg75
g2568
sg68
(lp2575
g61
(g70
g63
NtRp2576
(dp2577
g66
(dp2578
g74
I4
ssg75
Nsg68
(lp2579
sbasbasbasbag61
(g77
g63
NtRp2580
(dp2581
g66
(dp2582
sg75
g71
sg68
(lp2583
g61
(g82
g63
NtRp2584
(dp2585
g66
(dp2586
g86
g87
ssg75
g2580
sg68
(lp2587
S'raw_args'
p2588
asbag61
(g82
g63
NtRp2589
(dp2590
g66
(dp2591
g93
g94
ssg75
g2580
sg68
(lp2592
S':'
asbag61
(g82
g63
NtRp2593
(dp2594
g66
(dp2595
sg75
g2580
sg68
(lp2596
g61
(g62
g63
NtRp2597
(dp2598
g66
(dp2599
g74
I5
ssg75
g2593
sg68
(lp2600
g163
asbasbasbag61
(g77
g63
NtRp2601
(dp2602
g66
(dp2603
sg75
g71
sg68
(lp2604
g61
(g82
g63
NtRp2605
(dp2606
g66
(dp2607
g86
g87
ssg75
g2601
sg68
(lp2608
S'raw_extension'
p2609
asbag61
(g82
g63
NtRp2610
(dp2611
g66
(dp2612
g93
g94
ssg75
g2601
sg68
(lp2613
S':'
asbag61
(g82
g63
NtRp2614
(dp2615
g66
(dp2616
sg75
g2601
sg68
(lp2617
g61
(g62
g63
NtRp2618
(dp2619
g66
(dp2620
g74
I5
ssg75
g2614
sg68
(lp2621
g2060
asbasbasbag61
(g77
g63
NtRp2622
(dp2623
g66
(dp2624
sg75
g71
sg68
(lp2625
g61
(g82
g63
NtRp2626
(dp2627
g66
(dp2628
g86
g87
ssg75
g2622
sg68
(lp2629
S'url'
p2630
asbag61
(g82
g63
NtRp2631
(dp2632
g66
(dp2633
g93
g94
ssg75
g2622
sg68
(lp2634
S':'
asbag61
(g82
g63
NtRp2635
(dp2636
g66
(dp2637
sg75
g2622
sg68
(lp2638
g61
(g62
g63
NtRp2639
(dp2640
g66
(dp2641
g74
I5
ssg75
g2635
sg68
(lp2642
S'/paideia/exploring/index.load/ask'
p2643
asbasbasbag61
(g77
g63
NtRp2644
(dp2645
g66
(dp2646
sg75
g71
sg68
(lp2647
g61
(g82
g63
NtRp2648
(dp2649
g66
(dp2650
g86
g87
ssg75
g2644
sg68
(lp2651
S'utcnow'
p2652
asbag61
(g82
g63
NtRp2653
(dp2654
g66
(dp2655
g93
g94
ssg75
g2644
sg68
(lp2656
S':'
asbag61
(g82
g63
NtRp2657
(dp2658
g66
(dp2659
sg75
g2644
sg68
(lp2660
g61
(g62
g63
NtRp2661
(dp2662
g66
(dp2663
g74
I5
ssg75
g2657
sg68
(lp2664
S'datetime.datetime(2012, 3, 14, 16, 42, 45, 629630)'
p2665
asbasbasbag61
(g77
g63
NtRp2666
(dp2667
g66
(dp2668
sg75
g71
sg68
(lp2669
g61
(g82
g63
NtRp2670
(dp2671
g66
(dp2672
g86
g87
ssg75
g2666
sg68
(lp2673
S'uuid'
p2674
asbag61
(g82
g63
NtRp2675
(dp2676
g66
(dp2677
g93
g94
ssg75
g2666
sg68
(lp2678
S':'
asbag61
(g82
g63
NtRp2679
(dp2680
g66
(dp2681
sg75
g2666
sg68
(lp2682
g61
(g62
g63
NtRp2683
(dp2684
g66
(dp2685
g74
I5
ssg75
g2679
sg68
(lp2686
S'paideia/127.0.0.1.2012-03-14.12-42-45.1aaf6885-f36c-42d4-9f1d-2d91d932be30'
p2687
asbasbasbag61
(g77
g63
NtRp2688
(dp2689
g66
(dp2690
sg75
g71
sg68
(lp2691
g61
(g82
g63
NtRp2692
(dp2693
g66
(dp2694
g86
g87
ssg75
g2688
sg68
(lp2695
S'vars'
p2696
asbag61
(g82
g63
NtRp2697
(dp2698
g66
(dp2699
g93
g94
ssg75
g2688
sg68
(lp2700
S':'
asbag61
(g82
g63
NtRp2701
(dp2702
g66
(dp2703
sg75
g2688
sg68
(lp2704
g61
(g62
g63
NtRp2705
(dp2706
g66
(dp2707
g74
I5
ssg75
g2701
sg68
(lp2708
g61
(g70
g63
NtRp2709
(dp2710
g66
(dp2711
g74
I4
ssg75
Nsg68
(lp2712
g61
(g77
g63
NtRp2713
(dp2714
g66
(dp2715
sg75
g2709
sg68
(lp2716
g61
(g82
g63
NtRp2717
(dp2718
g66
(dp2719
g86
g87
ssg75
g2713
sg68
(lp2720
g2138
asbag61
(g82
g63
NtRp2721
(dp2722
g66
(dp2723
g93
g94
ssg75
g2713
sg68
(lp2724
S':'
asbag61
(g82
g63
NtRp2725
(dp2726
g66
(dp2727
sg75
g2713
sg68
(lp2728
g61
(g62
g63
NtRp2729
(dp2730
g66
(dp2731
g74
I4
ssg75
g2725
sg68
(lp2732
g2151
asbasbasbasbasbasbasbag61
(g77
g63
NtRp2733
(dp2734
g66
(dp2735
sg75
g71
sg68
(lp2736
g61
(g82
g63
NtRp2737
(dp2738
g66
(dp2739
g86
g87
ssg75
g2733
sg68
(lp2740
S'wsgi'
p2741
asbag61
(g82
g63
NtRp2742
(dp2743
g66
(dp2744
g93
g94
ssg75
g2733
sg68
(lp2745
S':'
asbag61
(g82
g63
NtRp2746
(dp2747
g66
(dp2748
sg75
g2733
sg68
(lp2749
g61
(g62
g63
NtRp2750
(dp2751
g66
(dp2752
g74
I5
ssg75
g2746
sg68
(lp2753
g61
(g70
g63
NtRp2754
(dp2755
g66
(dp2756
g74
I4
ssg75
Nsg68
(lp2757
g61
(g77
g63
NtRp2758
(dp2759
g66
(dp2760
sg75
g2754
sg68
(lp2761
g61
(g82
g63
NtRp2762
(dp2763
g66
(dp2764
g86
g87
ssg75
g2758
sg68
(lp2765
S'environ'
p2766
asbag61
(g82
g63
NtRp2767
(dp2768
g66
(dp2769
g93
g94
ssg75
g2758
sg68
(lp2770
S':'
asbag61
(g82
g63
NtRp2771
(dp2772
g66
(dp2773
sg75
g2758
sg68
(lp2774
g61
(g62
g63
NtRp2775
(dp2776
g66
(dp2777
g74
I4
ssg75
g2771
sg68
(lp2778
g61
(g70
g63
NtRp2779
(dp2780
g66
(dp2781
g74
I3
ssg75
Nsg68
(lp2782
g61
(g77
g63
NtRp2783
(dp2784
g66
(dp2785
sg75
g2779
sg68
(lp2786
g61
(g82
g63
NtRp2787
(dp2788
g66
(dp2789
g86
g87
ssg75
g2783
sg68
(lp2790
S'HTTP_ACCEPT'
p2791
asbag61
(g82
g63
NtRp2792
(dp2793
g66
(dp2794
g93
g94
ssg75
g2783
sg68
(lp2795
S':'
asbag61
(g82
g63
NtRp2796
(dp2797
g66
(dp2798
sg75
g2783
sg68
(lp2799
g61
(g62
g63
NtRp2800
(dp2801
g66
(dp2802
g74
I3
ssg75
g2796
sg68
(lp2803
g1228
asbasbasbag61
(g77
g63
NtRp2804
(dp2805
g66
(dp2806
sg75
g2779
sg68
(lp2807
g61
(g82
g63
NtRp2808
(dp2809
g66
(dp2810
g86
g87
ssg75
g2804
sg68
(lp2811
S'HTTP_ACCEPT_ENCODING'
p2812
asbag61
(g82
g63
NtRp2813
(dp2814
g66
(dp2815
g93
g94
ssg75
g2804
sg68
(lp2816
S':'
asbag61
(g82
g63
NtRp2817
(dp2818
g66
(dp2819
sg75
g2804
sg68
(lp2820
g61
(g62
g63
NtRp2821
(dp2822
g66
(dp2823
g74
I3
ssg75
g2817
sg68
(lp2824
g1250
asbasbasbag61
(g77
g63
NtRp2825
(dp2826
g66
(dp2827
sg75
g2779
sg68
(lp2828
g61
(g82
g63
NtRp2829
(dp2830
g66
(dp2831
g86
g87
ssg75
g2825
sg68
(lp2832
S'HTTP_ACCEPT_LANGUAGE'
p2833
asbag61
(g82
g63
NtRp2834
(dp2835
g66
(dp2836
g93
g94
ssg75
g2825
sg68
(lp2837
S':'
asbag61
(g82
g63
NtRp2838
(dp2839
g66
(dp2840
sg75
g2825
sg68
(lp2841
g61
(g62
g63
NtRp2842
(dp2843
g66
(dp2844
g74
I3
ssg75
g2838
sg68
(lp2845
g1272
asbasbasbag61
(g77
g63
NtRp2846
(dp2847
g66
(dp2848
sg75
g2779
sg68
(lp2849
g61
(g82
g63
NtRp2850
(dp2851
g66
(dp2852
g86
g87
ssg75
g2846
sg68
(lp2853
S'HTTP_CONNECTION'
p2854
asbag61
(g82
g63
NtRp2855
(dp2856
g66
(dp2857
g93
g94
ssg75
g2846
sg68
(lp2858
S':'
asbag61
(g82
g63
NtRp2859
(dp2860
g66
(dp2861
sg75
g2846
sg68
(lp2862
g61
(g62
g63
NtRp2863
(dp2864
g66
(dp2865
g74
I3
ssg75
g2859
sg68
(lp2866
g1294
asbasbasbag61
(g77
g63
NtRp2867
(dp2868
g66
(dp2869
sg75
g2779
sg68
(lp2870
g61
(g82
g63
NtRp2871
(dp2872
g66
(dp2873
g86
g87
ssg75
g2867
sg68
(lp2874
S'HTTP_COOKIE'
p2875
asbag61
(g82
g63
NtRp2876
(dp2877
g66
(dp2878
g93
g94
ssg75
g2867
sg68
(lp2879
S':'
asbag61
(g82
g63
NtRp2880
(dp2881
g66
(dp2882
sg75
g2867
sg68
(lp2883
g61
(g62
g63
NtRp2884
(dp2885
g66
(dp2886
g74
I3
ssg75
g2880
sg68
(lp2887
g1316
asbasbasbag61
(g77
g63
NtRp2888
(dp2889
g66
(dp2890
sg75
g2779
sg68
(lp2891
g61
(g82
g63
NtRp2892
(dp2893
g66
(dp2894
g86
g87
ssg75
g2888
sg68
(lp2895
S'HTTP_HOST'
p2896
asbag61
(g82
g63
NtRp2897
(dp2898
g66
(dp2899
g93
g94
ssg75
g2888
sg68
(lp2900
S':'
asbag61
(g82
g63
NtRp2901
(dp2902
g66
(dp2903
sg75
g2888
sg68
(lp2904
g61
(g62
g63
NtRp2905
(dp2906
g66
(dp2907
g74
I3
ssg75
g2901
sg68
(lp2908
g1338
asbasbasbag61
(g77
g63
NtRp2909
(dp2910
g66
(dp2911
sg75
g2779
sg68
(lp2912
g61
(g82
g63
NtRp2913
(dp2914
g66
(dp2915
g86
g87
ssg75
g2909
sg68
(lp2916
S'HTTP_REFERER'
p2917
asbag61
(g82
g63
NtRp2918
(dp2919
g66
(dp2920
g93
g94
ssg75
g2909
sg68
(lp2921
S':'
asbag61
(g82
g63
NtRp2922
(dp2923
g66
(dp2924
sg75
g2909
sg68
(lp2925
g61
(g62
g63
NtRp2926
(dp2927
g66
(dp2928
g74
I3
ssg75
g2922
sg68
(lp2929
g1360
asbasbasbag61
(g77
g63
NtRp2930
(dp2931
g66
(dp2932
sg75
g2779
sg68
(lp2933
g61
(g82
g63
NtRp2934
(dp2935
g66
(dp2936
g86
g87
ssg75
g2930
sg68
(lp2937
S'HTTP_USER_AGENT'
p2938
asbag61
(g82
g63
NtRp2939
(dp2940
g66
(dp2941
g93
g94
ssg75
g2930
sg68
(lp2942
S':'
asbag61
(g82
g63
NtRp2943
(dp2944
g66
(dp2945
sg75
g2930
sg68
(lp2946
g61
(g62
g63
NtRp2947
(dp2948
g66
(dp2949
g74
I3
ssg75
g2943
sg68
(lp2950
g1382
asbasbasbag61
(g77
g63
NtRp2951
(dp2952
g66
(dp2953
sg75
g2779
sg68
(lp2954
g61
(g82
g63
NtRp2955
(dp2956
g66
(dp2957
g86
g87
ssg75
g2951
sg68
(lp2958
S'HTTP_WEB2PY_COMPONENT_ELEMENT'
p2959
asbag61
(g82
g63
NtRp2960
(dp2961
g66
(dp2962
g93
g94
ssg75
g2951
sg68
(lp2963
S':'
asbag61
(g82
g63
NtRp2964
(dp2965
g66
(dp2966
sg75
g2951
sg68
(lp2967
g61
(g62
g63
NtRp2968
(dp2969
g66
(dp2970
g74
I3
ssg75
g2964
sg68
(lp2971
g207
asbasbasbag61
(g77
g63
NtRp2972
(dp2973
g66
(dp2974
sg75
g2779
sg68
(lp2975
g61
(g82
g63
NtRp2976
(dp2977
g66
(dp2978
g86
g87
ssg75
g2972
sg68
(lp2979
S'HTTP_WEB2PY_COMPONENT_LOCATION'
p2980
asbag61
(g82
g63
NtRp2981
(dp2982
g66
(dp2983
g93
g94
ssg75
g2972
sg68
(lp2984
S':'
asbag61
(g82
g63
NtRp2985
(dp2986
g66
(dp2987
sg75
g2972
sg68
(lp2988
g61
(g62
g63
NtRp2989
(dp2990
g66
(dp2991
g74
I3
ssg75
g2985
sg68
(lp2992
g1425
asbasbasbag61
(g77
g63
NtRp2993
(dp2994
g66
(dp2995
sg75
g2779
sg68
(lp2996
g61
(g82
g63
NtRp2997
(dp2998
g66
(dp2999
g86
g87
ssg75
g2993
sg68
(lp3000
S'HTTP_X_REQUESTED_WITH'
p3001
asbag61
(g82
g63
NtRp3002
(dp3003
g66
(dp3004
g93
g94
ssg75
g2993
sg68
(lp3005
S':'
asbag61
(g82
g63
NtRp3006
(dp3007
g66
(dp3008
sg75
g2993
sg68
(lp3009
g61
(g62
g63
NtRp3010
(dp3011
g66
(dp3012
g74
I3
ssg75
g3006
sg68
(lp3013
g1447
asbasbasbag61
(g77
g63
NtRp3014
(dp3015
g66
(dp3016
sg75
g2779
sg68
(lp3017
g61
(g82
g63
NtRp3018
(dp3019
g66
(dp3020
g86
g87
ssg75
g3014
sg68
(lp3021
S'PATH_INFO'
p3022
asbag61
(g82
g63
NtRp3023
(dp3024
g66
(dp3025
g93
g94
ssg75
g3014
sg68
(lp3026
S':'
asbag61
(g82
g63
NtRp3027
(dp3028
g66
(dp3029
sg75
g3014
sg68
(lp3030
g61
(g62
g63
NtRp3031
(dp3032
g66
(dp3033
g74
I3
ssg75
g3027
sg68
(lp3034
g1511
asbasbasbag61
(g77
g63
NtRp3035
(dp3036
g66
(dp3037
sg75
g2779
sg68
(lp3038
g61
(g82
g63
NtRp3039
(dp3040
g66
(dp3041
g86
g87
ssg75
g3035
sg68
(lp3042
S'QUERY_STRING'
p3043
asbag61
(g82
g63
NtRp3044
(dp3045
g66
(dp3046
g93
g94
ssg75
g3035
sg68
(lp3047
S':'
asbag61
(g82
g63
NtRp3048
(dp3049
g66
(dp3050
sg75
g3035
sg68
(lp3051
g61
(g62
g63
NtRp3052
(dp3053
g66
(dp3054
g74
I3
ssg75
g3048
sg68
(lp3055
g1533
asbasbasbag61
(g77
g63
NtRp3056
(dp3057
g66
(dp3058
sg75
g2779
sg68
(lp3059
g61
(g82
g63
NtRp3060
(dp3061
g66
(dp3062
g86
g87
ssg75
g3056
sg68
(lp3063
S'REMOTE_ADDR'
p3064
asbag61
(g82
g63
NtRp3065
(dp3066
g66
(dp3067
g93
g94
ssg75
g3056
sg68
(lp3068
S':'
asbag61
(g82
g63
NtRp3069
(dp3070
g66
(dp3071
sg75
g3056
sg68
(lp3072
g61
(g62
g63
NtRp3073
(dp3074
g66
(dp3075
g74
I3
ssg75
g3069
sg68
(lp3076
g229
asbasbasbag61
(g77
g63
NtRp3077
(dp3078
g66
(dp3079
sg75
g2779
sg68
(lp3080
g61
(g82
g63
NtRp3081
(dp3082
g66
(dp3083
g86
g87
ssg75
g3077
sg68
(lp3084
S'REMOTE_PORT'
p3085
asbag61
(g82
g63
NtRp3086
(dp3087
g66
(dp3088
g93
g94
ssg75
g3077
sg68
(lp3089
S':'
asbag61
(g82
g63
NtRp3090
(dp3091
g66
(dp3092
sg75
g3077
sg68
(lp3093
g61
(g62
g63
NtRp3094
(dp3095
g66
(dp3096
g74
I3
ssg75
g3090
sg68
(lp3097
g1576
asbasbasbag61
(g77
g63
NtRp3098
(dp3099
g66
(dp3100
sg75
g2779
sg68
(lp3101
g61
(g82
g63
NtRp3102
(dp3103
g66
(dp3104
g86
g87
ssg75
g3098
sg68
(lp3105
S'REQUEST_METHOD'
p3106
asbag61
(g82
g63
NtRp3107
(dp3108
g66
(dp3109
g93
g94
ssg75
g3098
sg68
(lp3110
S':'
asbag61
(g82
g63
NtRp3111
(dp3112
g66
(dp3113
sg75
g3098
sg68
(lp3114
g61
(g62
g63
NtRp3115
(dp3116
g66
(dp3117
g74
I3
ssg75
g3111
sg68
(lp3118
g1598
asbasbasbag61
(g77
g63
NtRp3119
(dp3120
g66
(dp3121
sg75
g2779
sg68
(lp3122
g61
(g82
g63
NtRp3123
(dp3124
g66
(dp3125
g86
g87
ssg75
g3119
sg68
(lp3126
S'SCRIPT_NAME'
p3127
asbag61
(g82
g63
NtRp3128
(dp3129
g66
(dp3130
g93
g94
ssg75
g3119
sg68
(lp3131
S':'
asbag61
(g82
g63
NtRp3132
(dp3133
g66
(dp3134
sg75
g3119
sg68
(lp3135
g61
(g62
g63
NtRp3136
(dp3137
g66
(dp3138
g74
I3
ssg75
g3132
sg68
(lp3139
S''
asbasbasbag61
(g77
g63
NtRp3140
(dp3141
g66
(dp3142
sg75
g2779
sg68
(lp3143
g61
(g82
g63
NtRp3144
(dp3145
g66
(dp3146
g86
g87
ssg75
g3140
sg68
(lp3147
S'SERVER_NAME'
p3148
asbag61
(g82
g63
NtRp3149
(dp3150
g66
(dp3151
g93
g94
ssg75
g3140
sg68
(lp3152
S':'
asbag61
(g82
g63
NtRp3153
(dp3154
g66
(dp3155
sg75
g3140
sg68
(lp3156
g61
(g62
g63
NtRp3157
(dp3158
g66
(dp3159
g74
I3
ssg75
g3153
sg68
(lp3160
g1641
asbasbasbag61
(g77
g63
NtRp3161
(dp3162
g66
(dp3163
sg75
g2779
sg68
(lp3164
g61
(g82
g63
NtRp3165
(dp3166
g66
(dp3167
g86
g87
ssg75
g3161
sg68
(lp3168
S'SERVER_PORT'
p3169
asbag61
(g82
g63
NtRp3170
(dp3171
g66
(dp3172
g93
g94
ssg75
g3161
sg68
(lp3173
S':'
asbag61
(g82
g63
NtRp3174
(dp3175
g66
(dp3176
sg75
g3161
sg68
(lp3177
g61
(g62
g63
NtRp3178
(dp3179
g66
(dp3180
g74
I3
ssg75
g3174
sg68
(lp3181
g1663
asbasbasbag61
(g77
g63
NtRp3182
(dp3183
g66
(dp3184
sg75
g2779
sg68
(lp3185
g61
(g82
g63
NtRp3186
(dp3187
g66
(dp3188
g86
g87
ssg75
g3182
sg68
(lp3189
S'SERVER_PROTOCOL'
p3190
asbag61
(g82
g63
NtRp3191
(dp3192
g66
(dp3193
g93
g94
ssg75
g3182
sg68
(lp3194
S':'
asbag61
(g82
g63
NtRp3195
(dp3196
g66
(dp3197
sg75
g3182
sg68
(lp3198
g61
(g62
g63
NtRp3199
(dp3200
g66
(dp3201
g74
I3
ssg75
g3195
sg68
(lp3202
g1685
asbasbasbag61
(g77
g63
NtRp3203
(dp3204
g66
(dp3205
sg75
g2779
sg68
(lp3206
g61
(g82
g63
NtRp3207
(dp3208
g66
(dp3209
g86
g87
ssg75
g3203
sg68
(lp3210
S'SERVER_SOFTWARE'
p3211
asbag61
(g82
g63
NtRp3212
(dp3213
g66
(dp3214
g93
g94
ssg75
g3203
sg68
(lp3215
S':'
asbag61
(g82
g63
NtRp3216
(dp3217
g66
(dp3218
sg75
g3203
sg68
(lp3219
g61
(g62
g63
NtRp3220
(dp3221
g66
(dp3222
g74
I3
ssg75
g3216
sg68
(lp3223
g1707
asbasbasbag61
(g77
g63
NtRp3224
(dp3225
g66
(dp3226
sg75
g2779
sg68
(lp3227
g61
(g82
g63
NtRp3228
(dp3229
g66
(dp3230
g86
g87
ssg75
g3224
sg68
(lp3231
S'wsgi.errors'
p3232
asbag61
(g82
g63
NtRp3233
(dp3234
g66
(dp3235
g93
g94
ssg75
g3224
sg68
(lp3236
S':'
asbag61
(g82
g63
NtRp3237
(dp3238
g66
(dp3239
sg75
g3224
sg68
(lp3240
g61
(g62
g63
NtRp3241
(dp3242
g66
(dp3243
g74
I3
ssg75
g3237
sg68
(lp3244
S"<open file '<stderr>', mode 'w' at 0x7f89dd6d5270>"
p3245
asbasbasbag61
(g77
g63
NtRp3246
(dp3247
g66
(dp3248
sg75
g2779
sg68
(lp3249
g61
(g82
g63
NtRp3250
(dp3251
g66
(dp3252
g86
g87
ssg75
g3246
sg68
(lp3253
S'wsgi.file_wrapper'
p3254
asbag61
(g82
g63
NtRp3255
(dp3256
g66
(dp3257
g93
g94
ssg75
g3246
sg68
(lp3258
S':'
asbag61
(g82
g63
NtRp3259
(dp3260
g66
(dp3261
sg75
g3246
sg68
(lp3262
g61
(g62
g63
NtRp3263
(dp3264
g66
(dp3265
g74
I3
ssg75
g3259
sg68
(lp3266
S'<class wsgiref.util.FileWrapper at 0x1902d50>'
p3267
asbasbasbag61
(g77
g63
NtRp3268
(dp3269
g66
(dp3270
sg75
g2779
sg68
(lp3271
g61
(g82
g63
NtRp3272
(dp3273
g66
(dp3274
g86
g87
ssg75
g3268
sg68
(lp3275
S'wsgi.input'
p3276
asbag61
(g82
g63
NtRp3277
(dp3278
g66
(dp3279
g93
g94
ssg75
g3268
sg68
(lp3280
S':'
asbag61
(g82
g63
NtRp3281
(dp3282
g66
(dp3283
sg75
g3268
sg68
(lp3284
g61
(g62
g63
NtRp3285
(dp3286
g66
(dp3287
g74
I3
ssg75
g3281
sg68
(lp3288
S'<cStringIO.StringO object at 0x7f89b03535e0>'
p3289
asbasbasbag61
(g77
g63
NtRp3290
(dp3291
g66
(dp3292
sg75
g2779
sg68
(lp3293
g61
(g82
g63
NtRp3294
(dp3295
g66
(dp3296
g86
g87
ssg75
g3290
sg68
(lp3297
S'wsgi.multiprocess'
p3298
asbag61
(g82
g63
NtRp3299
(dp3300
g66
(dp3301
g93
g94
ssg75
g3290
sg68
(lp3302
S':'
asbag61
(g82
g63
NtRp3303
(dp3304
g66
(dp3305
sg75
g3290
sg68
(lp3306
g61
(g62
g63
NtRp3307
(dp3308
g66
(dp3309
g74
I3
ssg75
g3303
sg68
(lp3310
g1184
asbasbasbag61
(g77
g63
NtRp3311
(dp3312
g66
(dp3313
sg75
g2779
sg68
(lp3314
g61
(g82
g63
NtRp3315
(dp3316
g66
(dp3317
g86
g87
ssg75
g3311
sg68
(lp3318
S'wsgi.multithread'
p3319
asbag61
(g82
g63
NtRp3320
(dp3321
g66
(dp3322
g93
g94
ssg75
g3311
sg68
(lp3323
S':'
asbag61
(g82
g63
NtRp3324
(dp3325
g66
(dp3326
sg75
g3311
sg68
(lp3327
g61
(g62
g63
NtRp3328
(dp3329
g66
(dp3330
g74
I3
ssg75
g3324
sg68
(lp3331
g104
asbasbasbag61
(g77
g63
NtRp3332
(dp3333
g66
(dp3334
sg75
g2779
sg68
(lp3335
g61
(g82
g63
NtRp3336
(dp3337
g66
(dp3338
g86
g87
ssg75
g3332
sg68
(lp3339
S'wsgi.run_once'
p3340
asbag61
(g82
g63
NtRp3341
(dp3342
g66
(dp3343
g93
g94
ssg75
g3332
sg68
(lp3344
S':'
asbag61
(g82
g63
NtRp3345
(dp3346
g66
(dp3347
sg75
g3332
sg68
(lp3348
g61
(g62
g63
NtRp3349
(dp3350
g66
(dp3351
g74
I3
ssg75
g3345
sg68
(lp3352
g1184
asbasbasbag61
(g77
g63
NtRp3353
(dp3354
g66
(dp3355
sg75
g2779
sg68
(lp3356
g61
(g82
g63
NtRp3357
(dp3358
g66
(dp3359
g86
g87
ssg75
g3353
sg68
(lp3360
S'wsgi.url_scheme'
p3361
asbag61
(g82
g63
NtRp3362
(dp3363
g66
(dp3364
g93
g94
ssg75
g3353
sg68
(lp3365
S':'
asbag61
(g82
g63
NtRp3366
(dp3367
g66
(dp3368
sg75
g3353
sg68
(lp3369
g61
(g62
g63
NtRp3370
(dp3371
g66
(dp3372
g74
I3
ssg75
g3366
sg68
(lp3373
g1989
asbasbasbag61
(g77
g63
NtRp3374
(dp3375
g66
(dp3376
sg75
g2779
sg68
(lp3377
g61
(g82
g63
NtRp3378
(dp3379
g66
(dp3380
g86
g87
ssg75
g3374
sg68
(lp3381
S'wsgi.version'
p3382
asbag61
(g82
g63
NtRp3383
(dp3384
g66
(dp3385
g93
g94
ssg75
g3374
sg68
(lp3386
S':'
asbag61
(g82
g63
NtRp3387
(dp3388
g66
(dp3389
sg75
g3374
sg68
(lp3390
g61
(g62
g63
NtRp3391
(dp3392
g66
(dp3393
g74
I3
ssg75
g3387
sg68
(lp3394
S'1'
asbasbasbasbasbasbasbasbasbasbasbasbasbsS'frames'
p3395
(lp3396
(dp3397
S'file'
p3398
S'/home/ian/web/web2py/gluon/restricted.py'
p3399
sS'dump'
p3400
(dp3401
S'environment'
p3402
S"{'A': <class 'gluon.html.A'>, 'AjaxSelect': <class applications.paideia.modules.plugin_ajaxselect.AjaxSelect>, 'Auth': <class 'gluon.tools.Auth'>, 'B': <class 'gluon.html.B'>, 'BEAUTIFY': <class 'gluon.html.BEAUTIFY'>, 'BODY': <class 'gluon.html.BODY'>, 'BR': <class 'gluon.html.BR'>, 'BUTTON': <class 'gluon.html.BUTTON'>, 'CAT': <class 'gluon.html.CAT'>, 'CENTER': <class 'gluon.html.CENTER'>, ...}"
p3403
sS'ccode'
p3404
S'<code object <module> at 0x7f89983dad30, file "/...ations/paideia/controllers/exploring.py", line 2>'
p3405
ssS'lnum'
p3406
I204
sS'lines'
p3407
(dp3408
I199
S'    try:'
p3409
sI200
S'        if type(code) == types.CodeType:'
p3410
sI201
S'            ccode = code'
p3411
sI202
S'        else:'
p3412
sI203
S'            ccode = compile2(code,layer)'
p3413
sI204
S'        exec ccode in environment'
p3414
sI205
S'    except HTTP:'
p3415
sI206
S'        raise'
p3416
sI207
S'    except RestrictedError:'
p3417
sI208
S'        # do not encapsulate (obfuscate) the original RestrictedError'
p3418
ssS'call'
p3419
S"(code='# coding: utf8\\nfrom paideia_exploring import pai...    \\n    \\nresponse._vars=response._caller(index)\\n', environment={'A': <class 'gluon.html.A'>, 'AjaxSelect': <class applications.paideia.modules.plugin_ajaxselect.AjaxSelect>, 'Auth': <class 'gluon.tools.Auth'>, 'B': <class 'gluon.html.B'>, 'BEAUTIFY': <class 'gluon.html.BEAUTIFY'>, 'BODY': <class 'gluon.html.BODY'>, 'BR': <class 'gluon.html.BR'>, 'BUTTON': <class 'gluon.html.BUTTON'>, 'CAT': <class 'gluon.html.CAT'>, 'CENTER': <class 'gluon.html.CENTER'>, ...}, layer='/home/ian/web/web2py/applications/paideia/controllers/exploring.py')"
p3420
sS'func'
p3421
S'restricted'
p3422
sa(dp3423
g3398
S'/home/ian/web/web2py/applications/paideia/controllers/exploring.py'
p3424
sg3400
(dp3425
sg3406
I125
sg3407
(dp3426
I115
S'        return step_init()'
p3427
sI116
S''
sI117
S'    #after submitting answer'
p3428
sI118
S"    elif request.args(0) == 'reply':"
p3429
sI119
S'        return stepreply()'
p3430
sI120
S''
sI121
S"    elif request.args(0) == 'error':"
p3431
sI122
S'        return patherror()'
p3432
sI123
S''
sI124
S''
ssg3419
S'()'
p3433
sg3421
S'<module>'
p3434
sa(dp3435
g3398
S'/home/ian/web/web2py/gluon/globals.py'
p3436
sg3400
(dp3437
S'self'
p3438
S'undefined'
p3439
sS'f'
S'<function index>'
p3440
ssg3406
I172
sg3407
(dp3441
I167
S'        self.meta = Storage()      # used by web2py_ajax.html'
p3442
sI168
S'        self.menu = []             # used by the default view layout'
p3443
sI169
S'        self.files = []            # used by web2py_ajax.html'
p3444
sI170
S'        self.generic_patterns = [] # patterns to allow generic views'
p3445
sI171
S'        self._vars = None'
p3446
sI172
S'        self._caller = lambda f: f()'
p3447
sI173
S'        self._view_environment = None'
p3448
sI174
S'        self._custom_commit = None'
p3449
sI175
S'        self._custom_rollback = None'
p3450
sI176
S''
ssg3419
S'(f=<function index>)'
p3451
sg3421
S'<lambda>'
p3452
sa(dp3453
g3398
S'/home/ian/web/web2py/gluon/tools.py'
p3454
sg3400
(dp3455
S'action'
p3456
S'<function index>'
p3457
sS'a'
S'()'
p3458
sS'b'
g21
ssg3406
I2533
sg3407
(dp3459
I2528
S'                # otherwise case 3 would be ok.'
p3460
sI2529
S'                if not (callable(condition) and condition() == True) and not condition == True:'
p3461
sI2530
S'                    current.session.flash = self.messages.access_denied'
p3462
sI2531
S'                    return call_or_redirect('
p3463
sI2532
S'                        self.settings.on_failed_authorization)'
p3464
sI2533
S'                return action(*a, **b)'
p3465
sI2534
S'            f.__doc__ = action.__doc__'
p3466
sI2535
S'            f.__name__ = action.__name__'
p3467
sI2536
S'            f.__dict__.update(action.__dict__)'
p3468
sI2537
S'            return f'
p3469
ssg3419
S'(*a=(), **b={})'
p3470
sg3421
S'f'
sa(dp3471
g3398
S'/home/ian/web/web2py/applications/paideia/controllers/exploring.py'
p3472
sg3400
(dp3473
S'global step_init'
p3474
S'<function step_init>'
p3475
ssg3406
I115
sg3407
(dp3476
I110
S''
sI111
S'        return dict(locs = the_map.locs, map_image = the_map.image)'
p3477
sI112
S''
sI113
S"    #after user selects quiz (or 'next question')"
p3478
sI114
S"    elif request.args(0) == 'ask':"
p3479
sI115
S'        return step_init()'
p3480
sI116
S''
sI117
S'    #after submitting answer'
p3481
sI118
S"    elif request.args(0) == 'reply':"
p3482
sI119
S'        return stepreply()'
p3483
ssg3419
S'()'
p3484
sg3421
S'index'
p3485
sa(dp3486
g3398
S'/home/ian/web/web2py/applications/paideia/controllers/exploring.py'
p3487
sg3400
(dp3488
S'db.locations'
p3489
S"<Table {'ALL': <gluon.dal.SQLALL object at 0x7f8...t at 0x7f89b0045b90>, '_format': '%(location)s'}>"
p3490
sS'global request'
p3491
S"<Storage {'body': <cStringIO.StringO object at 0...e {'loc': 'domusA'}>, 'post_vars': <Storage {}>}>"
p3492
sS').select'
p3493
S'None'
p3494
sS'builtinid'
p3495
S'<built-in function id>'
p3496
sS'db.locations.alias'
p3497
S'<gluon.dal.Field object>'
p3498
sS'global db'
p3499
S"<DAL {'auth_event': <Table {'origin': <gluon.dal...': <gluon.dal.Field object at 0x7f89c01ee650>}>}>"
p3500
sS'request.vars'
p3501
S"<Storage {'loc': 'domusA'}>"
p3502
sS').first'
p3503
g3439
sS'curr_loc'
p3504
g3439
ssg3406
I22
sg3407
(dp3505
I17
S"    print 'session active_paths: ', session.active_paths"
p3506
sI18
S''
sI19
S'def step_init():'
p3507
sI20
S"    print 'calling step_init()'"
p3508
sI21
S'    #find out what location has been entered'
p3509
sI22
S"    curr_loc = db(db.locations.alias == request.vars['loc']).select(id).first()"
p3510
sI23
S"    print 'current location: ', curr_loc"
p3511
sI24
S''
sI25
S'    #check to see whether any constraints are in place'
p3512
sI26
S"    if 'blocks' in session:"
p3513
ssg3419
S'()'
p3514
sg3421
S'step_init'
p3515
sa(dp3516
g3398
S'/home/ian/web/web2py/gluon/dal.py'
p3517
sg3400
(dp3518
S'self.query'
p3519
S'<gluon.dal.Query object>'
p3520
sS'fields'
p3521
S'(<built-in function id>,)'
p3522
sS'self'
p3523
S'<gluon.dal.Set object>'
p3524
sS'self.db._adapter.select'
p3525
S'<bound method SQLiteAdapter.select of <gluon.dal.SQLiteAdapter object>>'
p3526
sS'self.db._adapter'
p3527
S'<gluon.dal.SQLiteAdapter object>'
p3528
sS'attributes'
p3529
g21
sS'self.db'
p3530
S"<DAL {'auth_event': <Table {'origin': <gluon.dal...': <gluon.dal.Field object at 0x7f89c01ee650>}>}>"
p3531
ssg3406
I6333
sg3407
(dp3532
I6336
S'        tablename=self.db._adapter.get_table(self.query)'
p3533
sI6337
S'        self.delete_uploaded_files()'
p3534
sI6328
S''
sI6329
S'    def count(self,distinct=None):'
p3535
sI6330
S'        return self.db._adapter.count(self.query,distinct)'
p3536
sI6331
S''
sI6332
S'    def select(self, *fields, **attributes):'
p3537
sI6333
S'        return self.db._adapter.select(self.query,fields,attributes)'
p3538
sI6334
S''
sI6335
S'    def delete(self):'
p3539
ssg3419
S'(self=<gluon.dal.Set object>, *fields=(<built-in function id>,), **attributes={})'
p3540
sg3421
S'select'
p3541
sa(dp3542
g3398
S'/home/ian/web/web2py/gluon/dal.py'
p3543
sg3400
(dp3544
S'rows'
p3545
g3439
sS'response'
p3546
S'<function response>'
p3547
sS'sql'
p3548
S'"SELECT  <built-in function id> FROM locations WHERE (locations.alias = \'domusA\');"'
p3549
ssg3406
I1282
sg3407
(dp3550
I1280
S'            rows = cache_model(key, lambda: response(sql), time_expire)'
p3551
sI1281
S'        else:'
p3552
sI1282
S'            rows = response(sql)'
p3553
sI1283
S'        if isinstance(rows,tuple):'
p3554
sI1284
S'            rows = list(rows)'
p3555
sI1285
S"        limitby = attributes.get('limitby', None) or (0,)"
p3556
sI1286
S'        rows = self.rowslice(rows,limitby[0],None)'
p3557
sI1277
S"            del attributes['cache']"
p3558
sI1278
S"            key = self.uri + '/' + sql"
p3559
sI1279
S'            key = (key<=200) and key or hashlib.md5(key).hexdigest()'
p3560
ssg3419
S'(self=<gluon.dal.SQLiteAdapter object>, query=<gluon.dal.Query object>, fields=(<built-in function id>,), attributes={})'
p3561
sg3421
g3541
sa(dp3562
g3398
S'/home/ian/web/web2py/gluon/dal.py'
p3563
sg3400
(dp3564
S'self'
p3565
S'<gluon.dal.SQLiteAdapter object>'
p3566
sS'self.execute'
p3567
S'<bound method SQLiteAdapter.execute of <gluon.dal.SQLiteAdapter object>>'
p3568
sS'sql'
p3569
S'"SELECT  <built-in function id> FROM locations WHERE (locations.alias = \'domusA\');"'
p3570
ssg3406
I1272
sg3407
(dp3571
I1267
S'    def select(self, query, fields, attributes):'
p3572
sI1268
S'        """'
p3573
sI1269
S'        Always returns a Rows object, possibly empty.'
p3574
sI1270
S'        """'
p3575
sI1271
S'        def response(sql):'
p3576
sI1272
S'            self.execute(sql)'
p3577
sI1273
S'            return self.cursor.fetchall()'
p3578
sI1274
S'        sql = self._select(query, fields, attributes)'
p3579
sI1275
S"        if attributes.get('cache', None):"
p3580
sI1276
S"            (cache_model, time_expire) = attributes['cache']"
p3581
ssg3419
S'(sql="SELECT  <built-in function id> FROM locations WHERE (locations.alias = \'domusA\');")'
p3582
sg3421
S'response'
p3583
sa(dp3584
g3398
S'/home/ian/web/web2py/gluon/dal.py'
p3585
sg3400
(dp3586
S'a'
S'("SELECT  <built-in function id> FROM locations WHERE (locations.alias = \'domusA\');",)'
p3587
sS'self'
p3588
S'<gluon.dal.SQLiteAdapter object>'
p3589
sS'b'
g21
sS'self.log_execute'
p3590
S'<bound method SQLiteAdapter.log_execute of <gluon.dal.SQLiteAdapter object>>'
p3591
ssg3406
I1359
sg3407
(dp3592
I1354
S'        self.db._timings.append((a[0],time.time()-t0))'
p3593
sI1355
S'        del self.db._timings[:-TIMINGSSIZE]'
p3594
sI1356
S'        return ret'
p3595
sI1357
S''
sI1358
S'    def execute(self, *a, **b):'
p3596
sI1359
S'        return self.log_execute(*a, **b)'
p3597
sI1360
S''
sI1361
S'    def represent(self, obj, fieldtype):'
p3598
sI1362
S'        if isinstance(obj, CALLABLETYPES):'
p3599
sI1363
S'            obj = obj()'
p3600
ssg3419
S'(self=<gluon.dal.SQLiteAdapter object>, *a=("SELECT  <built-in function id> FROM locations WHERE (locations.alias = \'domusA\');",), **b={})'
p3601
sg3421
S'execute'
p3602
sa(dp3603
g3398
S'/home/ian/web/web2py/gluon/dal.py'
p3604
sg3400
(dp3605
S'a'
S'("SELECT  <built-in function id> FROM locations WHERE (locations.alias = \'domusA\');",)'
p3606
sS'b'
g21
sS'self'
p3607
S'<gluon.dal.SQLiteAdapter object>'
p3608
sS'ret'
p3609
g3439
sS'self.cursor'
p3610
S'<sqlite3.Cursor object>'
p3611
sS'self.cursor.execute'
p3612
S'<built-in method execute of sqlite3.Cursor object>'
p3613
ssg3406
I1353
sg3407
(dp3614
I1348
S'        self.execute(query)'
p3615
sI1349
S''
sI1350
S'    def log_execute(self, *a, **b):'
p3616
sI1351
S'        self.db._lastsql = a[0]'
p3617
sI1352
S'        t0 = time.time()'
p3618
sI1353
S'        ret = self.cursor.execute(*a, **b)'
p3619
sI1354
S'        self.db._timings.append((a[0],time.time()-t0))'
p3620
sI1355
S'        del self.db._timings[:-TIMINGSSIZE]'
p3621
sI1356
S'        return ret'
p3622
sI1357
S''
ssg3419
S'(self=<gluon.dal.SQLiteAdapter object>, *a=("SELECT  <built-in function id> FROM locations WHERE (locations.alias = \'domusA\');",), **b={})'
p3623
sg3421
S'log_execute'
p3624
sasS'pyver'
p3625
S'Python 2.7.3rc1: /usr/bin/python2.7'
p3626
sS'session'
p3627
g61
(g62
g63
NtRp3628
(dp3629
g66
(dp3630
sg68
(lp3631
g61
(g70
g63
NtRp3632
(dp3633
g66
(dp3634
g74
I5
ssg75
Nsg68
(lp3635
g61
(g77
g63
NtRp3636
(dp3637
g66
(dp3638
sg75
g3632
sg68
(lp3639
g61
(g82
g63
NtRp3640
(dp3641
g66
(dp3642
g86
g87
ssg75
g3636
sg68
(lp3643
S'active_paths'
p3644
asbag61
(g82
g63
NtRp3645
(dp3646
g66
(dp3647
g93
g94
ssg75
g3636
sg68
(lp3648
S':'
asbag61
(g82
g63
NtRp3649
(dp3650
g66
(dp3651
sg75
g3636
sg68
(lp3652
g61
(g62
g63
NtRp3653
(dp3654
g66
(dp3655
g74
I5
ssg75
g3649
sg68
(lp3656
S'None'
p3657
asbasbasbag61
(g77
g63
NtRp3658
(dp3659
g66
(dp3660
sg75
g3632
sg68
(lp3661
g61
(g82
g63
NtRp3662
(dp3663
g66
(dp3664
g86
g87
ssg75
g3658
sg68
(lp3665
S'auth'
p3666
asbag61
(g82
g63
NtRp3667
(dp3668
g66
(dp3669
g93
g94
ssg75
g3658
sg68
(lp3670
S':'
asbag61
(g82
g63
NtRp3671
(dp3672
g66
(dp3673
sg75
g3658
sg68
(lp3674
g61
(g62
g63
NtRp3675
(dp3676
g66
(dp3677
g74
I5
ssg75
g3671
sg68
(lp3678
g61
(g70
g63
NtRp3679
(dp3680
g66
(dp3681
g74
I4
ssg75
Nsg68
(lp3682
g61
(g77
g63
NtRp3683
(dp3684
g66
(dp3685
sg75
g3679
sg68
(lp3686
g61
(g82
g63
NtRp3687
(dp3688
g66
(dp3689
g86
g87
ssg75
g3683
sg68
(lp3690
S'expiration'
p3691
asbag61
(g82
g63
NtRp3692
(dp3693
g66
(dp3694
g93
g94
ssg75
g3683
sg68
(lp3695
S':'
asbag61
(g82
g63
NtRp3696
(dp3697
g66
(dp3698
sg75
g3683
sg68
(lp3699
g61
(g62
g63
NtRp3700
(dp3701
g66
(dp3702
g74
I4
ssg75
g3696
sg68
(lp3703
S'2592000'
p3704
asbasbasbag61
(g77
g63
NtRp3705
(dp3706
g66
(dp3707
sg75
g3679
sg68
(lp3708
g61
(g82
g63
NtRp3709
(dp3710
g66
(dp3711
g86
g87
ssg75
g3705
sg68
(lp3712
S'hmac_key'
p3713
asbag61
(g82
g63
NtRp3714
(dp3715
g66
(dp3716
g93
g94
ssg75
g3705
sg68
(lp3717
S':'
asbag61
(g82
g63
NtRp3718
(dp3719
g66
(dp3720
sg75
g3705
sg68
(lp3721
g61
(g62
g63
NtRp3722
(dp3723
g66
(dp3724
g74
I4
ssg75
g3718
sg68
(lp3725
S'cf0843bd-b632-44be-979e-cdc3b6f8efb2'
p3726
asbasbasbag61
(g77
g63
NtRp3727
(dp3728
g66
(dp3729
sg75
g3679
sg68
(lp3730
g61
(g82
g63
NtRp3731
(dp3732
g66
(dp3733
g86
g87
ssg75
g3727
sg68
(lp3734
S'last_visit'
p3735
asbag61
(g82
g63
NtRp3736
(dp3737
g66
(dp3738
g93
g94
ssg75
g3727
sg68
(lp3739
S':'
asbag61
(g82
g63
NtRp3740
(dp3741
g66
(dp3742
sg75
g3727
sg68
(lp3743
g61
(g62
g63
NtRp3744
(dp3745
g66
(dp3746
g74
I4
ssg75
g3740
sg68
(lp3747
S'datetime.datetime(2012, 3, 14, 12, 38, 56, 266988)'
p3748
asbasbasbag61
(g77
g63
NtRp3749
(dp3750
g66
(dp3751
sg75
g3679
sg68
(lp3752
g61
(g82
g63
NtRp3753
(dp3754
g66
(dp3755
g86
g87
ssg75
g3749
sg68
(lp3756
S'remember'
p3757
asbag61
(g82
g63
NtRp3758
(dp3759
g66
(dp3760
g93
g94
ssg75
g3749
sg68
(lp3761
S':'
asbag61
(g82
g63
NtRp3762
(dp3763
g66
(dp3764
sg75
g3749
sg68
(lp3765
g61
(g62
g63
NtRp3766
(dp3767
g66
(dp3768
g74
I4
ssg75
g3762
sg68
(lp3769
g104
asbasbasbag61
(g77
g63
NtRp3770
(dp3771
g66
(dp3772
sg75
g3679
sg68
(lp3773
g61
(g82
g63
NtRp3774
(dp3775
g66
(dp3776
g86
g87
ssg75
g3770
sg68
(lp3777
S'user'
p3778
asbag61
(g82
g63
NtRp3779
(dp3780
g66
(dp3781
g93
g94
ssg75
g3770
sg68
(lp3782
S':'
asbag61
(g82
g63
NtRp3783
(dp3784
g66
(dp3785
sg75
g3770
sg68
(lp3786
g61
(g62
g63
NtRp3787
(dp3788
g66
(dp3789
g74
I4
ssg75
g3783
sg68
(lp3790
g61
(g70
g63
NtRp3791
(dp3792
g66
(dp3793
g74
I3
ssg75
Nsg68
(lp3794
g61
(g77
g63
NtRp3795
(dp3796
g66
(dp3797
sg75
g3791
sg68
(lp3798
g61
(g82
g63
NtRp3799
(dp3800
g66
(dp3801
g86
g87
ssg75
g3795
sg68
(lp3802
S'email'
p3803
asbag61
(g82
g63
NtRp3804
(dp3805
g66
(dp3806
g93
g94
ssg75
g3795
sg68
(lp3807
S':'
asbag61
(g82
g63
NtRp3808
(dp3809
g66
(dp3810
sg75
g3795
sg68
(lp3811
g61
(g62
g63
NtRp3812
(dp3813
g66
(dp3814
g74
I3
ssg75
g3808
sg68
(lp3815
S'scottianw@gmail.com'
p3816
asbasbasbag61
(g77
g63
NtRp3817
(dp3818
g66
(dp3819
sg75
g3791
sg68
(lp3820
g61
(g82
g63
NtRp3821
(dp3822
g66
(dp3823
g86
g87
ssg75
g3817
sg68
(lp3824
S'first_name'
p3825
asbag61
(g82
g63
NtRp3826
(dp3827
g66
(dp3828
g93
g94
ssg75
g3817
sg68
(lp3829
S':'
asbag61
(g82
g63
NtRp3830
(dp3831
g66
(dp3832
sg75
g3817
sg68
(lp3833
g61
(g62
g63
NtRp3834
(dp3835
g66
(dp3836
g74
I3
ssg75
g3830
sg68
(lp3837
S'Ian'
p3838
asbasbasbag61
(g77
g63
NtRp3839
(dp3840
g66
(dp3841
sg75
g3791
sg68
(lp3842
g61
(g82
g63
NtRp3843
(dp3844
g66
(dp3845
g86
g87
ssg75
g3839
sg68
(lp3846
S'id'
p3847
asbag61
(g82
g63
NtRp3848
(dp3849
g66
(dp3850
g93
g94
ssg75
g3839
sg68
(lp3851
S':'
asbag61
(g82
g63
NtRp3852
(dp3853
g66
(dp3854
sg75
g3839
sg68
(lp3855
g61
(g62
g63
NtRp3856
(dp3857
g66
(dp3858
g74
I3
ssg75
g3852
sg68
(lp3859
S'2'
asbasbasbag61
(g77
g63
NtRp3860
(dp3861
g66
(dp3862
sg75
g3791
sg68
(lp3863
g61
(g82
g63
NtRp3864
(dp3865
g66
(dp3866
g86
g87
ssg75
g3860
sg68
(lp3867
S'last_name'
p3868
asbag61
(g82
g63
NtRp3869
(dp3870
g66
(dp3871
g93
g94
ssg75
g3860
sg68
(lp3872
S':'
asbag61
(g82
g63
NtRp3873
(dp3874
g66
(dp3875
sg75
g3860
sg68
(lp3876
g61
(g62
g63
NtRp3877
(dp3878
g66
(dp3879
g74
I3
ssg75
g3873
sg68
(lp3880
S'Scott'
p3881
asbasbasbag61
(g77
g63
NtRp3882
(dp3883
g66
(dp3884
sg75
g3791
sg68
(lp3885
g61
(g82
g63
NtRp3886
(dp3887
g66
(dp3888
g86
g87
ssg75
g3882
sg68
(lp3889
S'password'
p3890
asbag61
(g82
g63
NtRp3891
(dp3892
g66
(dp3893
g93
g94
ssg75
g3882
sg68
(lp3894
S':'
asbag61
(g82
g63
NtRp3895
(dp3896
g66
(dp3897
sg75
g3882
sg68
(lp3898
g61
(g62
g63
NtRp3899
(dp3900
g66
(dp3901
g74
I3
ssg75
g3895
sg68
(lp3902
S'19738f1e9a2c8eaac81936a86bf608a1a6995e02f527fa31723cb88a2e513a1efae33471354a02805bf25ea2ea17a59c025a5fc8eca6b3bb2137bda74e538737'
p3903
asbasbasbag61
(g77
g63
NtRp3904
(dp3905
g66
(dp3906
sg75
g3791
sg68
(lp3907
g61
(g82
g63
NtRp3908
(dp3909
g66
(dp3910
g86
g87
ssg75
g3904
sg68
(lp3911
S'registration_id'
p3912
asbag61
(g82
g63
NtRp3913
(dp3914
g66
(dp3915
g93
g94
ssg75
g3904
sg68
(lp3916
S':'
asbag61
(g82
g63
NtRp3917
(dp3918
g66
(dp3919
sg75
g3904
sg68
(lp3920
g61
(g62
g63
NtRp3921
(dp3922
g66
(dp3923
g74
I3
ssg75
g3917
sg68
(lp3924
S'None'
p3925
asbasbasbag61
(g77
g63
NtRp3926
(dp3927
g66
(dp3928
sg75
g3791
sg68
(lp3929
g61
(g82
g63
NtRp3930
(dp3931
g66
(dp3932
g86
g87
ssg75
g3926
sg68
(lp3933
S'registration_key'
p3934
asbag61
(g82
g63
NtRp3935
(dp3936
g66
(dp3937
g93
g94
ssg75
g3926
sg68
(lp3938
S':'
asbag61
(g82
g63
NtRp3939
(dp3940
g66
(dp3941
sg75
g3926
sg68
(lp3942
g61
(g62
g63
NtRp3943
(dp3944
g66
(dp3945
g74
I3
ssg75
g3939
sg68
(lp3946
S''
asbasbasbag61
(g77
g63
NtRp3947
(dp3948
g66
(dp3949
sg75
g3791
sg68
(lp3950
g61
(g82
g63
NtRp3951
(dp3952
g66
(dp3953
g86
g87
ssg75
g3947
sg68
(lp3954
S'reset_password_key'
p3955
asbag61
(g82
g63
NtRp3956
(dp3957
g66
(dp3958
g93
g94
ssg75
g3947
sg68
(lp3959
S':'
asbag61
(g82
g63
NtRp3960
(dp3961
g66
(dp3962
sg75
g3947
sg68
(lp3963
g61
(g62
g63
NtRp3964
(dp3965
g66
(dp3966
g74
I3
ssg75
g3960
sg68
(lp3967
S'1327083713-2cc5b0bb-81c6-473e-adeb-2160a9624c63'
p3968
asbasbasbasbasbasbasbasbasbasbasbag61
(g77
g63
NtRp3969
(dp3970
g66
(dp3971
sg75
g3632
sg68
(lp3972
g61
(g82
g63
NtRp3973
(dp3974
g66
(dp3975
g86
g87
ssg75
g3969
sg68
(lp3976
S'blocks'
p3977
asbag61
(g82
g63
NtRp3978
(dp3979
g66
(dp3980
g93
g94
ssg75
g3969
sg68
(lp3981
S':'
asbag61
(g82
g63
NtRp3982
(dp3983
g66
(dp3984
sg75
g3969
sg68
(lp3985
g61
(g62
g63
NtRp3986
(dp3987
g66
(dp3988
g74
I5
ssg75
g3982
sg68
(lp3989
S'None'
p3990
asbasbasbag61
(g77
g63
NtRp3991
(dp3992
g66
(dp3993
sg75
g3632
sg68
(lp3994
g61
(g82
g63
NtRp3995
(dp3996
g66
(dp3997
g86
g87
ssg75
g3991
sg68
(lp3998
S'completed_paths'
p3999
asbag61
(g82
g63
NtRp4000
(dp4001
g66
(dp4002
g93
g94
ssg75
g3991
sg68
(lp4003
S':'
asbag61
(g82
g63
NtRp4004
(dp4005
g66
(dp4006
sg75
g3991
sg68
(lp4007
g61
(g62
g63
NtRp4008
(dp4009
g66
(dp4010
g74
I5
ssg75
g4004
sg68
(lp4011
S'None'
p4012
asbasbasbag61
(g77
g63
NtRp4013
(dp4014
g66
(dp4015
sg75
g3632
sg68
(lp4016
g61
(g82
g63
NtRp4017
(dp4018
g66
(dp4019
g86
g87
ssg75
g4013
sg68
(lp4020
S'debug'
p4021
asbag61
(g82
g63
NtRp4022
(dp4023
g66
(dp4024
g93
g94
ssg75
g4013
sg68
(lp4025
S':'
asbag61
(g82
g63
NtRp4026
(dp4027
g66
(dp4028
sg75
g4013
sg68
(lp4029
g61
(g62
g63
NtRp4030
(dp4031
g66
(dp4032
g74
I5
ssg75
g4026
sg68
(lp4033
g61
(g70
g63
NtRp4034
(dp4035
g66
(dp4036
g74
I4
ssg75
Nsg68
(lp4037
g61
(g77
g63
NtRp4038
(dp4039
g66
(dp4040
sg75
g4034
sg68
(lp4041
g61
(g82
g63
NtRp4042
(dp4043
g66
(dp4044
g86
g87
ssg75
g4038
sg68
(lp4045
S'2011-10-24'
p4046
asbag61
(g82
g63
NtRp4047
(dp4048
g66
(dp4049
g93
g94
ssg75
g4038
sg68
(lp4050
S':'
asbag61
(g82
g63
NtRp4051
(dp4052
g66
(dp4053
sg75
g4038
sg68
(lp4054
g61
(g62
g63
NtRp4055
(dp4056
g66
(dp4057
g74
I4
ssg75
g4051
sg68
(lp4058
S'8'
asbasbasbag61
(g77
g63
NtRp4059
(dp4060
g66
(dp4061
sg75
g4034
sg68
(lp4062
g61
(g82
g63
NtRp4063
(dp4064
g66
(dp4065
g86
g87
ssg75
g4059
sg68
(lp4066
S'2011-10-25'
p4067
asbag61
(g82
g63
NtRp4068
(dp4069
g66
(dp4070
g93
g94
ssg75
g4059
sg68
(lp4071
S':'
asbag61
(g82
g63
NtRp4072
(dp4073
g66
(dp4074
sg75
g4059
sg68
(lp4075
g61
(g62
g63
NtRp4076
(dp4077
g66
(dp4078
g74
I4
ssg75
g4072
sg68
(lp4079
S'2'
asbasbasbag61
(g77
g63
NtRp4080
(dp4081
g66
(dp4082
sg75
g4034
sg68
(lp4083
g61
(g82
g63
NtRp4084
(dp4085
g66
(dp4086
g86
g87
ssg75
g4080
sg68
(lp4087
S'2011-10-26'
p4088
asbag61
(g82
g63
NtRp4089
(dp4090
g66
(dp4091
g93
g94
ssg75
g4080
sg68
(lp4092
S':'
asbag61
(g82
g63
NtRp4093
(dp4094
g66
(dp4095
sg75
g4080
sg68
(lp4096
g61
(g62
g63
NtRp4097
(dp4098
g66
(dp4099
g74
I4
ssg75
g4093
sg68
(lp4100
S'11'
p4101
asbasbasbag61
(g77
g63
NtRp4102
(dp4103
g66
(dp4104
sg75
g4034
sg68
(lp4105
g61
(g82
g63
NtRp4106
(dp4107
g66
(dp4108
g86
g87
ssg75
g4102
sg68
(lp4109
S'2011-10-31'
p4110
asbag61
(g82
g63
NtRp4111
(dp4112
g66
(dp4113
g93
g94
ssg75
g4102
sg68
(lp4114
S':'
asbag61
(g82
g63
NtRp4115
(dp4116
g66
(dp4117
sg75
g4102
sg68
(lp4118
g61
(g62
g63
NtRp4119
(dp4120
g66
(dp4121
g74
I4
ssg75
g4115
sg68
(lp4122
S'29'
p4123
asbasbasbag61
(g77
g63
NtRp4124
(dp4125
g66
(dp4126
sg75
g4034
sg68
(lp4127
g61
(g82
g63
NtRp4128
(dp4129
g66
(dp4130
g86
g87
ssg75
g4124
sg68
(lp4131
S'2011-11-01'
p4132
asbag61
(g82
g63
NtRp4133
(dp4134
g66
(dp4135
g93
g94
ssg75
g4124
sg68
(lp4136
S':'
asbag61
(g82
g63
NtRp4137
(dp4138
g66
(dp4139
sg75
g4124
sg68
(lp4140
g61
(g62
g63
NtRp4141
(dp4142
g66
(dp4143
g74
I4
ssg75
g4137
sg68
(lp4144
S'11'
p4145
asbasbasbag61
(g77
g63
NtRp4146
(dp4147
g66
(dp4148
sg75
g4034
sg68
(lp4149
g61
(g82
g63
NtRp4150
(dp4151
g66
(dp4152
g86
g87
ssg75
g4146
sg68
(lp4153
S'2011-11-09'
p4154
asbag61
(g82
g63
NtRp4155
(dp4156
g66
(dp4157
g93
g94
ssg75
g4146
sg68
(lp4158
S':'
asbag61
(g82
g63
NtRp4159
(dp4160
g66
(dp4161
sg75
g4146
sg68
(lp4162
g61
(g62
g63
NtRp4163
(dp4164
g66
(dp4165
g74
I4
ssg75
g4159
sg68
(lp4166
S'2'
asbasbasbag61
(g77
g63
NtRp4167
(dp4168
g66
(dp4169
sg75
g4034
sg68
(lp4170
g61
(g82
g63
NtRp4171
(dp4172
g66
(dp4173
g86
g87
ssg75
g4167
sg68
(lp4174
S'2011-11-10'
p4175
asbag61
(g82
g63
NtRp4176
(dp4177
g66
(dp4178
g93
g94
ssg75
g4167
sg68
(lp4179
S':'
asbag61
(g82
g63
NtRp4180
(dp4181
g66
(dp4182
sg75
g4167
sg68
(lp4183
g61
(g62
g63
NtRp4184
(dp4185
g66
(dp4186
g74
I4
ssg75
g4180
sg68
(lp4187
S'14'
p4188
asbasbasbag61
(g77
g63
NtRp4189
(dp4190
g66
(dp4191
sg75
g4034
sg68
(lp4192
g61
(g82
g63
NtRp4193
(dp4194
g66
(dp4195
g86
g87
ssg75
g4189
sg68
(lp4196
S'2011-11-11'
p4197
asbag61
(g82
g63
NtRp4198
(dp4199
g66
(dp4200
g93
g94
ssg75
g4189
sg68
(lp4201
S':'
asbag61
(g82
g63
NtRp4202
(dp4203
g66
(dp4204
sg75
g4189
sg68
(lp4205
g61
(g62
g63
NtRp4206
(dp4207
g66
(dp4208
g74
I4
ssg75
g4202
sg68
(lp4209
S'56'
p4210
asbasbasbag61
(g77
g63
NtRp4211
(dp4212
g66
(dp4213
sg75
g4034
sg68
(lp4214
g61
(g82
g63
NtRp4215
(dp4216
g66
(dp4217
g86
g87
ssg75
g4211
sg68
(lp4218
S'2011-11-12'
p4219
asbag61
(g82
g63
NtRp4220
(dp4221
g66
(dp4222
g93
g94
ssg75
g4211
sg68
(lp4223
S':'
asbag61
(g82
g63
NtRp4224
(dp4225
g66
(dp4226
sg75
g4211
sg68
(lp4227
g61
(g62
g63
NtRp4228
(dp4229
g66
(dp4230
g74
I4
ssg75
g4224
sg68
(lp4231
S'23'
p4232
asbasbasbag61
(g77
g63
NtRp4233
(dp4234
g66
(dp4235
sg75
g4034
sg68
(lp4236
g61
(g82
g63
NtRp4237
(dp4238
g66
(dp4239
g86
g87
ssg75
g4233
sg68
(lp4240
S'2011-11-15'
p4241
asbag61
(g82
g63
NtRp4242
(dp4243
g66
(dp4244
g93
g94
ssg75
g4233
sg68
(lp4245
S':'
asbag61
(g82
g63
NtRp4246
(dp4247
g66
(dp4248
sg75
g4233
sg68
(lp4249
g61
(g62
g63
NtRp4250
(dp4251
g66
(dp4252
g74
I4
ssg75
g4246
sg68
(lp4253
S'10'
p4254
asbasbasbag61
(g77
g63
NtRp4255
(dp4256
g66
(dp4257
sg75
g4034
sg68
(lp4258
g61
(g82
g63
NtRp4259
(dp4260
g66
(dp4261
g86
g87
ssg75
g4255
sg68
(lp4262
S'2011-11-16'
p4263
asbag61
(g82
g63
NtRp4264
(dp4265
g66
(dp4266
g93
g94
ssg75
g4255
sg68
(lp4267
S':'
asbag61
(g82
g63
NtRp4268
(dp4269
g66
(dp4270
sg75
g4255
sg68
(lp4271
g61
(g62
g63
NtRp4272
(dp4273
g66
(dp4274
g74
I4
ssg75
g4268
sg68
(lp4275
S'21'
p4276
asbasbasbag61
(g77
g63
NtRp4277
(dp4278
g66
(dp4279
sg75
g4034
sg68
(lp4280
g61
(g82
g63
NtRp4281
(dp4282
g66
(dp4283
g86
g87
ssg75
g4277
sg68
(lp4284
S'2011-11-25'
p4285
asbag61
(g82
g63
NtRp4286
(dp4287
g66
(dp4288
g93
g94
ssg75
g4277
sg68
(lp4289
S':'
asbag61
(g82
g63
NtRp4290
(dp4291
g66
(dp4292
sg75
g4277
sg68
(lp4293
g61
(g62
g63
NtRp4294
(dp4295
g66
(dp4296
g74
I4
ssg75
g4290
sg68
(lp4297
S'5'
asbasbasbag61
(g77
g63
NtRp4298
(dp4299
g66
(dp4300
sg75
g4034
sg68
(lp4301
g61
(g82
g63
NtRp4302
(dp4303
g66
(dp4304
g86
g87
ssg75
g4298
sg68
(lp4305
S'2012-01-16'
p4306
asbag61
(g82
g63
NtRp4307
(dp4308
g66
(dp4309
g93
g94
ssg75
g4298
sg68
(lp4310
S':'
asbag61
(g82
g63
NtRp4311
(dp4312
g66
(dp4313
sg75
g4298
sg68
(lp4314
g61
(g62
g63
NtRp4315
(dp4316
g66
(dp4317
g74
I4
ssg75
g4311
sg68
(lp4318
S'1'
asbasbasbag61
(g77
g63
NtRp4319
(dp4320
g66
(dp4321
sg75
g4034
sg68
(lp4322
g61
(g82
g63
NtRp4323
(dp4324
g66
(dp4325
g86
g87
ssg75
g4319
sg68
(lp4326
S'2012-01-18'
p4327
asbag61
(g82
g63
NtRp4328
(dp4329
g66
(dp4330
g93
g94
ssg75
g4319
sg68
(lp4331
S':'
asbag61
(g82
g63
NtRp4332
(dp4333
g66
(dp4334
sg75
g4319
sg68
(lp4335
g61
(g62
g63
NtRp4336
(dp4337
g66
(dp4338
g74
I4
ssg75
g4332
sg68
(lp4339
S'2'
asbasbasbag61
(g77
g63
NtRp4340
(dp4341
g66
(dp4342
sg75
g4034
sg68
(lp4343
g61
(g82
g63
NtRp4344
(dp4345
g66
(dp4346
g86
g87
ssg75
g4340
sg68
(lp4347
S'2012-01-20'
p4348
asbag61
(g82
g63
NtRp4349
(dp4350
g66
(dp4351
g93
g94
ssg75
g4340
sg68
(lp4352
S':'
asbag61
(g82
g63
NtRp4353
(dp4354
g66
(dp4355
sg75
g4340
sg68
(lp4356
g61
(g62
g63
NtRp4357
(dp4358
g66
(dp4359
g74
I4
ssg75
g4353
sg68
(lp4360
S'20'
p4361
asbasbasbag61
(g77
g63
NtRp4362
(dp4363
g66
(dp4364
sg75
g4034
sg68
(lp4365
g61
(g82
g63
NtRp4366
(dp4367
g66
(dp4368
g86
g87
ssg75
g4362
sg68
(lp4369
S'2012-01-25'
p4370
asbag61
(g82
g63
NtRp4371
(dp4372
g66
(dp4373
g93
g94
ssg75
g4362
sg68
(lp4374
S':'
asbag61
(g82
g63
NtRp4375
(dp4376
g66
(dp4377
sg75
g4362
sg68
(lp4378
g61
(g62
g63
NtRp4379
(dp4380
g66
(dp4381
g74
I4
ssg75
g4375
sg68
(lp4382
S'7'
asbasbasbag61
(g77
g63
NtRp4383
(dp4384
g66
(dp4385
sg75
g4034
sg68
(lp4386
g61
(g82
g63
NtRp4387
(dp4388
g66
(dp4389
g86
g87
ssg75
g4383
sg68
(lp4390
S'2012-01-27'
p4391
asbag61
(g82
g63
NtRp4392
(dp4393
g66
(dp4394
g93
g94
ssg75
g4383
sg68
(lp4395
S':'
asbag61
(g82
g63
NtRp4396
(dp4397
g66
(dp4398
sg75
g4383
sg68
(lp4399
g61
(g62
g63
NtRp4400
(dp4401
g66
(dp4402
g74
I4
ssg75
g4396
sg68
(lp4403
S'24'
p4404
asbasbasbag61
(g77
g63
NtRp4405
(dp4406
g66
(dp4407
sg75
g4034
sg68
(lp4408
g61
(g82
g63
NtRp4409
(dp4410
g66
(dp4411
g86
g87
ssg75
g4405
sg68
(lp4412
S'2012-02-02'
p4413
asbag61
(g82
g63
NtRp4414
(dp4415
g66
(dp4416
g93
g94
ssg75
g4405
sg68
(lp4417
S':'
asbag61
(g82
g63
NtRp4418
(dp4419
g66
(dp4420
sg75
g4405
sg68
(lp4421
g61
(g62
g63
NtRp4422
(dp4423
g66
(dp4424
g74
I4
ssg75
g4418
sg68
(lp4425
S'22'
p4426
asbasbasbag61
(g77
g63
NtRp4427
(dp4428
g66
(dp4429
sg75
g4034
sg68
(lp4430
g61
(g82
g63
NtRp4431
(dp4432
g66
(dp4433
g86
g87
ssg75
g4427
sg68
(lp4434
S'2012-02-07'
p4435
asbag61
(g82
g63
NtRp4436
(dp4437
g66
(dp4438
g93
g94
ssg75
g4427
sg68
(lp4439
S':'
asbag61
(g82
g63
NtRp4440
(dp4441
g66
(dp4442
sg75
g4427
sg68
(lp4443
g61
(g62
g63
NtRp4444
(dp4445
g66
(dp4446
g74
I4
ssg75
g4440
sg68
(lp4447
S'3'
asbasbasbasbasbasbasbag61
(g77
g63
NtRp4448
(dp4449
g66
(dp4450
sg75
g3632
sg68
(lp4451
g61
(g82
g63
NtRp4452
(dp4453
g66
(dp4454
g86
g87
ssg75
g4448
sg68
(lp4455
S'last_query'
p4456
asbag61
(g82
g63
NtRp4457
(dp4458
g66
(dp4459
g93
g94
ssg75
g4448
sg68
(lp4460
S':'
asbag61
(g82
g63
NtRp4461
(dp4462
g66
(dp4463
sg75
g4448
sg68
(lp4464
g61
(g62
g63
NtRp4465
(dp4466
g66
(dp4467
g74
I5
ssg75
g4461
sg68
(lp4468
S'db.locations.id>0'
p4469
asbasbasbag61
(g77
g63
NtRp4470
(dp4471
g66
(dp4472
sg75
g3632
sg68
(lp4473
g61
(g82
g63
NtRp4474
(dp4475
g66
(dp4476
g86
g87
ssg75
g4470
sg68
(lp4477
S'tagset'
p4478
asbag61
(g82
g63
NtRp4479
(dp4480
g66
(dp4481
g93
g94
ssg75
g4470
sg68
(lp4482
S':'
asbag61
(g82
g63
NtRp4483
(dp4484
g66
(dp4485
sg75
g4470
sg68
(lp4486
g61
(g62
g63
NtRp4487
(dp4488
g66
(dp4489
g74
I5
ssg75
g4483
sg68
(lp4490
g61
(g70
g63
NtRp4491
(dp4492
g66
(dp4493
g74
I4
ssg75
Nsg68
(lp4494
g61
(g77
g63
NtRp4495
(dp4496
g66
(dp4497
sg75
g4491
sg68
(lp4498
g61
(g82
g63
NtRp4499
(dp4500
g66
(dp4501
g86
g87
ssg75
g4495
sg68
(lp4502
S'1'
asbag61
(g82
g63
NtRp4503
(dp4504
g66
(dp4505
g93
g94
ssg75
g4495
sg68
(lp4506
S':'
asbag61
(g82
g63
NtRp4507
(dp4508
g66
(dp4509
sg75
g4495
sg68
(lp4510
g61
(g62
g63
NtRp4511
(dp4512
g66
(dp4513
g74
I4
ssg75
g4507
sg68
(lp4514
S'1'
asbasbasbag61
(g77
g63
NtRp4515
(dp4516
g66
(dp4517
sg75
g4491
sg68
(lp4518
g61
(g82
g63
NtRp4519
(dp4520
g66
(dp4521
g86
g87
ssg75
g4515
sg68
(lp4522
S'2'
asbag61
(g82
g63
NtRp4523
(dp4524
g66
(dp4525
g93
g94
ssg75
g4515
sg68
(lp4526
S':'
asbag61
(g82
g63
NtRp4527
(dp4528
g66
(dp4529
sg75
g4515
sg68
(lp4530
g61
(g62
g63
NtRp4531
(dp4532
g66
(dp4533
g74
I4
ssg75
g4527
sg68
(lp4534
S'1'
asbasbasbag61
(g77
g63
NtRp4535
(dp4536
g66
(dp4537
sg75
g4491
sg68
(lp4538
g61
(g82
g63
NtRp4539
(dp4540
g66
(dp4541
g86
g87
ssg75
g4535
sg68
(lp4542
S'3'
asbag61
(g82
g63
NtRp4543
(dp4544
g66
(dp4545
g93
g94
ssg75
g4535
sg68
(lp4546
S':'
asbag61
(g82
g63
NtRp4547
(dp4548
g66
(dp4549
sg75
g4535
sg68
(lp4550
g61
(g62
g63
NtRp4551
(dp4552
g66
(dp4553
g74
I4
ssg75
g4547
sg68
(lp4554
S'1'
asbasbasbag61
(g77
g63
NtRp4555
(dp4556
g66
(dp4557
sg75
g4491
sg68
(lp4558
g61
(g82
g63
NtRp4559
(dp4560
g66
(dp4561
g86
g87
ssg75
g4555
sg68
(lp4562
S'4'
asbag61
(g82
g63
NtRp4563
(dp4564
g66
(dp4565
g93
g94
ssg75
g4555
sg68
(lp4566
S':'
asbag61
(g82
g63
NtRp4567
(dp4568
g66
(dp4569
sg75
g4555
sg68
(lp4570
g61
(g62
g63
NtRp4571
(dp4572
g66
(dp4573
g74
I4
ssg75
g4567
sg68
(lp4574
S'1'
asbasbasbag61
(g77
g63
NtRp4575
(dp4576
g66
(dp4577
sg75
g4491
sg68
(lp4578
g61
(g82
g63
NtRp4579
(dp4580
g66
(dp4581
g86
g87
ssg75
g4575
sg68
(lp4582
S'5'
asbag61
(g82
g63
NtRp4583
(dp4584
g66
(dp4585
g93
g94
ssg75
g4575
sg68
(lp4586
S':'
asbag61
(g82
g63
NtRp4587
(dp4588
g66
(dp4589
sg75
g4575
sg68
(lp4590
g61
(g62
g63
NtRp4591
(dp4592
g66
(dp4593
g74
I4
ssg75
g4587
sg68
(lp4594
S'1'
asbasbasbag61
(g77
g63
NtRp4595
(dp4596
g66
(dp4597
sg75
g4491
sg68
(lp4598
g61
(g82
g63
NtRp4599
(dp4600
g66
(dp4601
g86
g87
ssg75
g4595
sg68
(lp4602
S'6'
asbag61
(g82
g63
NtRp4603
(dp4604
g66
(dp4605
g93
g94
ssg75
g4595
sg68
(lp4606
S':'
asbag61
(g82
g63
NtRp4607
(dp4608
g66
(dp4609
sg75
g4595
sg68
(lp4610
g61
(g62
g63
NtRp4611
(dp4612
g66
(dp4613
g74
I4
ssg75
g4607
sg68
(lp4614
S'1'
asbasbasbag61
(g77
g63
NtRp4615
(dp4616
g66
(dp4617
sg75
g4491
sg68
(lp4618
g61
(g82
g63
NtRp4619
(dp4620
g66
(dp4621
g86
g87
ssg75
g4615
sg68
(lp4622
S'7'
asbag61
(g82
g63
NtRp4623
(dp4624
g66
(dp4625
g93
g94
ssg75
g4615
sg68
(lp4626
S':'
asbag61
(g82
g63
NtRp4627
(dp4628
g66
(dp4629
sg75
g4615
sg68
(lp4630
g61
(g62
g63
NtRp4631
(dp4632
g66
(dp4633
g74
I4
ssg75
g4627
sg68
(lp4634
S'1'
asbasbasbag61
(g77
g63
NtRp4635
(dp4636
g66
(dp4637
sg75
g4491
sg68
(lp4638
g61
(g82
g63
NtRp4639
(dp4640
g66
(dp4641
g86
g87
ssg75
g4635
sg68
(lp4642
S'8'
asbag61
(g82
g63
NtRp4643
(dp4644
g66
(dp4645
g93
g94
ssg75
g4635
sg68
(lp4646
S':'
asbag61
(g82
g63
NtRp4647
(dp4648
g66
(dp4649
sg75
g4635
sg68
(lp4650
g61
(g62
g63
NtRp4651
(dp4652
g66
(dp4653
g74
I4
ssg75
g4647
sg68
(lp4654
S'1'
asbasbasbag61
(g77
g63
NtRp4655
(dp4656
g66
(dp4657
sg75
g4491
sg68
(lp4658
g61
(g82
g63
NtRp4659
(dp4660
g66
(dp4661
g86
g87
ssg75
g4655
sg68
(lp4662
S'9'
asbag61
(g82
g63
NtRp4663
(dp4664
g66
(dp4665
g93
g94
ssg75
g4655
sg68
(lp4666
S':'
asbag61
(g82
g63
NtRp4667
(dp4668
g66
(dp4669
sg75
g4655
sg68
(lp4670
g61
(g62
g63
NtRp4671
(dp4672
g66
(dp4673
g74
I4
ssg75
g4667
sg68
(lp4674
S'1'
asbasbasbag61
(g77
g63
NtRp4675
(dp4676
g66
(dp4677
sg75
g4491
sg68
(lp4678
g61
(g82
g63
NtRp4679
(dp4680
g66
(dp4681
g86
g87
ssg75
g4675
sg68
(lp4682
S'10'
p4683
asbag61
(g82
g63
NtRp4684
(dp4685
g66
(dp4686
g93
g94
ssg75
g4675
sg68
(lp4687
S':'
asbag61
(g82
g63
NtRp4688
(dp4689
g66
(dp4690
sg75
g4675
sg68
(lp4691
g61
(g62
g63
NtRp4692
(dp4693
g66
(dp4694
g74
I4
ssg75
g4688
sg68
(lp4695
S'1'
asbasbasbag61
(g77
g63
NtRp4696
(dp4697
g66
(dp4698
sg75
g4491
sg68
(lp4699
g61
(g82
g63
NtRp4700
(dp4701
g66
(dp4702
g86
g87
ssg75
g4696
sg68
(lp4703
S'12'
p4704
asbag61
(g82
g63
NtRp4705
(dp4706
g66
(dp4707
g93
g94
ssg75
g4696
sg68
(lp4708
S':'
asbag61
(g82
g63
NtRp4709
(dp4710
g66
(dp4711
sg75
g4696
sg68
(lp4712
g61
(g62
g63
NtRp4713
(dp4714
g66
(dp4715
g74
I4
ssg75
g4709
sg68
(lp4716
S'1'
asbasbasbag61
(g77
g63
NtRp4717
(dp4718
g66
(dp4719
sg75
g4491
sg68
(lp4720
g61
(g82
g63
NtRp4721
(dp4722
g66
(dp4723
g86
g87
ssg75
g4717
sg68
(lp4724
S'14'
p4725
asbag61
(g82
g63
NtRp4726
(dp4727
g66
(dp4728
g93
g94
ssg75
g4717
sg68
(lp4729
S':'
asbag61
(g82
g63
NtRp4730
(dp4731
g66
(dp4732
sg75
g4717
sg68
(lp4733
g61
(g62
g63
NtRp4734
(dp4735
g66
(dp4736
g74
I4
ssg75
g4730
sg68
(lp4737
S'1'
asbasbasbag61
(g77
g63
NtRp4738
(dp4739
g66
(dp4740
sg75
g4491
sg68
(lp4741
g61
(g82
g63
NtRp4742
(dp4743
g66
(dp4744
g86
g87
ssg75
g4738
sg68
(lp4745
S'15'
p4746
asbag61
(g82
g63
NtRp4747
(dp4748
g66
(dp4749
g93
g94
ssg75
g4738
sg68
(lp4750
S':'
asbag61
(g82
g63
NtRp4751
(dp4752
g66
(dp4753
sg75
g4738
sg68
(lp4754
g61
(g62
g63
NtRp4755
(dp4756
g66
(dp4757
g74
I4
ssg75
g4751
sg68
(lp4758
S'1'
asbasbasbag61
(g77
g63
NtRp4759
(dp4760
g66
(dp4761
sg75
g4491
sg68
(lp4762
g61
(g82
g63
NtRp4763
(dp4764
g66
(dp4765
g86
g87
ssg75
g4759
sg68
(lp4766
S'16'
p4767
asbag61
(g82
g63
NtRp4768
(dp4769
g66
(dp4770
g93
g94
ssg75
g4759
sg68
(lp4771
S':'
asbag61
(g82
g63
NtRp4772
(dp4773
g66
(dp4774
sg75
g4759
sg68
(lp4775
g61
(g62
g63
NtRp4776
(dp4777
g66
(dp4778
g74
I4
ssg75
g4772
sg68
(lp4779
S'1'
asbasbasbag61
(g77
g63
NtRp4780
(dp4781
g66
(dp4782
sg75
g4491
sg68
(lp4783
g61
(g82
g63
NtRp4784
(dp4785
g66
(dp4786
g86
g87
ssg75
g4780
sg68
(lp4787
S'17'
p4788
asbag61
(g82
g63
NtRp4789
(dp4790
g66
(dp4791
g93
g94
ssg75
g4780
sg68
(lp4792
S':'
asbag61
(g82
g63
NtRp4793
(dp4794
g66
(dp4795
sg75
g4780
sg68
(lp4796
g61
(g62
g63
NtRp4797
(dp4798
g66
(dp4799
g74
I4
ssg75
g4793
sg68
(lp4800
S'1'
asbasbasbag61
(g77
g63
NtRp4801
(dp4802
g66
(dp4803
sg75
g4491
sg68
(lp4804
g61
(g82
g63
NtRp4805
(dp4806
g66
(dp4807
g86
g87
ssg75
g4801
sg68
(lp4808
S'18'
p4809
asbag61
(g82
g63
NtRp4810
(dp4811
g66
(dp4812
g93
g94
ssg75
g4801
sg68
(lp4813
S':'
asbag61
(g82
g63
NtRp4814
(dp4815
g66
(dp4816
sg75
g4801
sg68
(lp4817
g61
(g62
g63
NtRp4818
(dp4819
g66
(dp4820
g74
I4
ssg75
g4814
sg68
(lp4821
S'1'
asbasbasbag61
(g77
g63
NtRp4822
(dp4823
g66
(dp4824
sg75
g4491
sg68
(lp4825
g61
(g82
g63
NtRp4826
(dp4827
g66
(dp4828
g86
g87
ssg75
g4822
sg68
(lp4829
S'22'
p4830
asbag61
(g82
g63
NtRp4831
(dp4832
g66
(dp4833
g93
g94
ssg75
g4822
sg68
(lp4834
S':'
asbag61
(g82
g63
NtRp4835
(dp4836
g66
(dp4837
sg75
g4822
sg68
(lp4838
g61
(g62
g63
NtRp4839
(dp4840
g66
(dp4841
g74
I4
ssg75
g4835
sg68
(lp4842
S'1'
asbasbasbag61
(g77
g63
NtRp4843
(dp4844
g66
(dp4845
sg75
g4491
sg68
(lp4846
g61
(g82
g63
NtRp4847
(dp4848
g66
(dp4849
g86
g87
ssg75
g4843
sg68
(lp4850
S'24'
p4851
asbag61
(g82
g63
NtRp4852
(dp4853
g66
(dp4854
g93
g94
ssg75
g4843
sg68
(lp4855
S':'
asbag61
(g82
g63
NtRp4856
(dp4857
g66
(dp4858
sg75
g4843
sg68
(lp4859
g61
(g62
g63
NtRp4860
(dp4861
g66
(dp4862
g74
I4
ssg75
g4856
sg68
(lp4863
S'1'
asbasbasbag61
(g77
g63
NtRp4864
(dp4865
g66
(dp4866
sg75
g4491
sg68
(lp4867
g61
(g82
g63
NtRp4868
(dp4869
g66
(dp4870
g86
g87
ssg75
g4864
sg68
(lp4871
S'25'
p4872
asbag61
(g82
g63
NtRp4873
(dp4874
g66
(dp4875
g93
g94
ssg75
g4864
sg68
(lp4876
S':'
asbag61
(g82
g63
NtRp4877
(dp4878
g66
(dp4879
sg75
g4864
sg68
(lp4880
g61
(g62
g63
NtRp4881
(dp4882
g66
(dp4883
g74
I4
ssg75
g4877
sg68
(lp4884
S'1'
asbasbasbag61
(g77
g63
NtRp4885
(dp4886
g66
(dp4887
sg75
g4491
sg68
(lp4888
g61
(g82
g63
NtRp4889
(dp4890
g66
(dp4891
g86
g87
ssg75
g4885
sg68
(lp4892
S'29'
p4893
asbag61
(g82
g63
NtRp4894
(dp4895
g66
(dp4896
g93
g94
ssg75
g4885
sg68
(lp4897
S':'
asbag61
(g82
g63
NtRp4898
(dp4899
g66
(dp4900
sg75
g4885
sg68
(lp4901
g61
(g62
g63
NtRp4902
(dp4903
g66
(dp4904
g74
I4
ssg75
g4898
sg68
(lp4905
S'1'
asbasbasbag61
(g77
g63
NtRp4906
(dp4907
g66
(dp4908
sg75
g4491
sg68
(lp4909
g61
(g82
g63
NtRp4910
(dp4911
g66
(dp4912
g86
g87
ssg75
g4906
sg68
(lp4913
S'30'
p4914
asbag61
(g82
g63
NtRp4915
(dp4916
g66
(dp4917
g93
g94
ssg75
g4906
sg68
(lp4918
S':'
asbag61
(g82
g63
NtRp4919
(dp4920
g66
(dp4921
sg75
g4906
sg68
(lp4922
g61
(g62
g63
NtRp4923
(dp4924
g66
(dp4925
g74
I4
ssg75
g4919
sg68
(lp4926
S'1'
asbasbasbag61
(g77
g63
NtRp4927
(dp4928
g66
(dp4929
sg75
g4491
sg68
(lp4930
g61
(g82
g63
NtRp4931
(dp4932
g66
(dp4933
g86
g87
ssg75
g4927
sg68
(lp4934
S'31'
p4935
asbag61
(g82
g63
NtRp4936
(dp4937
g66
(dp4938
g93
g94
ssg75
g4927
sg68
(lp4939
S':'
asbag61
(g82
g63
NtRp4940
(dp4941
g66
(dp4942
sg75
g4927
sg68
(lp4943
g61
(g62
g63
NtRp4944
(dp4945
g66
(dp4946
g74
I4
ssg75
g4940
sg68
(lp4947
S'1'
asbasbasbag61
(g77
g63
NtRp4948
(dp4949
g66
(dp4950
sg75
g4491
sg68
(lp4951
g61
(g82
g63
NtRp4952
(dp4953
g66
(dp4954
g86
g87
ssg75
g4948
sg68
(lp4955
S'32'
p4956
asbag61
(g82
g63
NtRp4957
(dp4958
g66
(dp4959
g93
g94
ssg75
g4948
sg68
(lp4960
S':'
asbag61
(g82
g63
NtRp4961
(dp4962
g66
(dp4963
sg75
g4948
sg68
(lp4964
g61
(g62
g63
NtRp4965
(dp4966
g66
(dp4967
g74
I4
ssg75
g4961
sg68
(lp4968
S'1'
asbasbasbag61
(g77
g63
NtRp4969
(dp4970
g66
(dp4971
sg75
g4491
sg68
(lp4972
g61
(g82
g63
NtRp4973
(dp4974
g66
(dp4975
g86
g87
ssg75
g4969
sg68
(lp4976
S'33'
p4977
asbag61
(g82
g63
NtRp4978
(dp4979
g66
(dp4980
g93
g94
ssg75
g4969
sg68
(lp4981
S':'
asbag61
(g82
g63
NtRp4982
(dp4983
g66
(dp4984
sg75
g4969
sg68
(lp4985
g61
(g62
g63
NtRp4986
(dp4987
g66
(dp4988
g74
I4
ssg75
g4982
sg68
(lp4989
S'1'
asbasbasbag61
(g77
g63
NtRp4990
(dp4991
g66
(dp4992
sg75
g4491
sg68
(lp4993
g61
(g82
g63
NtRp4994
(dp4995
g66
(dp4996
g86
g87
ssg75
g4990
sg68
(lp4997
S'35'
p4998
asbag61
(g82
g63
NtRp4999
(dp5000
g66
(dp5001
g93
g94
ssg75
g4990
sg68
(lp5002
S':'
asbag61
(g82
g63
NtRp5003
(dp5004
g66
(dp5005
sg75
g4990
sg68
(lp5006
g61
(g62
g63
NtRp5007
(dp5008
g66
(dp5009
g74
I4
ssg75
g5003
sg68
(lp5010
S'1'
asbasbasbag61
(g77
g63
NtRp5011
(dp5012
g66
(dp5013
sg75
g4491
sg68
(lp5014
g61
(g82
g63
NtRp5015
(dp5016
g66
(dp5017
g86
g87
ssg75
g5011
sg68
(lp5018
S'36'
p5019
asbag61
(g82
g63
NtRp5020
(dp5021
g66
(dp5022
g93
g94
ssg75
g5011
sg68
(lp5023
S':'
asbag61
(g82
g63
NtRp5024
(dp5025
g66
(dp5026
sg75
g5011
sg68
(lp5027
g61
(g62
g63
NtRp5028
(dp5029
g66
(dp5030
g74
I4
ssg75
g5024
sg68
(lp5031
S'1'
asbasbasbag61
(g77
g63
NtRp5032
(dp5033
g66
(dp5034
sg75
g4491
sg68
(lp5035
g61
(g82
g63
NtRp5036
(dp5037
g66
(dp5038
g86
g87
ssg75
g5032
sg68
(lp5039
S'37'
p5040
asbag61
(g82
g63
NtRp5041
(dp5042
g66
(dp5043
g93
g94
ssg75
g5032
sg68
(lp5044
S':'
asbag61
(g82
g63
NtRp5045
(dp5046
g66
(dp5047
sg75
g5032
sg68
(lp5048
g61
(g62
g63
NtRp5049
(dp5050
g66
(dp5051
g74
I4
ssg75
g5045
sg68
(lp5052
S'1'
asbasbasbag61
(g77
g63
NtRp5053
(dp5054
g66
(dp5055
sg75
g4491
sg68
(lp5056
g61
(g82
g63
NtRp5057
(dp5058
g66
(dp5059
g86
g87
ssg75
g5053
sg68
(lp5060
S'39'
p5061
asbag61
(g82
g63
NtRp5062
(dp5063
g66
(dp5064
g93
g94
ssg75
g5053
sg68
(lp5065
S':'
asbag61
(g82
g63
NtRp5066
(dp5067
g66
(dp5068
sg75
g5053
sg68
(lp5069
g61
(g62
g63
NtRp5070
(dp5071
g66
(dp5072
g74
I4
ssg75
g5066
sg68
(lp5073
S'1'
asbasbasbag61
(g77
g63
NtRp5074
(dp5075
g66
(dp5076
sg75
g4491
sg68
(lp5077
g61
(g82
g63
NtRp5078
(dp5079
g66
(dp5080
g86
g87
ssg75
g5074
sg68
(lp5081
S'40'
p5082
asbag61
(g82
g63
NtRp5083
(dp5084
g66
(dp5085
g93
g94
ssg75
g5074
sg68
(lp5086
S':'
asbag61
(g82
g63
NtRp5087
(dp5088
g66
(dp5089
sg75
g5074
sg68
(lp5090
g61
(g62
g63
NtRp5091
(dp5092
g66
(dp5093
g74
I4
ssg75
g5087
sg68
(lp5094
S'1'
asbasbasbag61
(g77
g63
NtRp5095
(dp5096
g66
(dp5097
sg75
g4491
sg68
(lp5098
g61
(g82
g63
NtRp5099
(dp5100
g66
(dp5101
g86
g87
ssg75
g5095
sg68
(lp5102
S'43'
p5103
asbag61
(g82
g63
NtRp5104
(dp5105
g66
(dp5106
g93
g94
ssg75
g5095
sg68
(lp5107
S':'
asbag61
(g82
g63
NtRp5108
(dp5109
g66
(dp5110
sg75
g5095
sg68
(lp5111
g61
(g62
g63
NtRp5112
(dp5113
g66
(dp5114
g74
I4
ssg75
g5108
sg68
(lp5115
S'1'
asbasbasbag61
(g77
g63
NtRp5116
(dp5117
g66
(dp5118
sg75
g4491
sg68
(lp5119
g61
(g82
g63
NtRp5120
(dp5121
g66
(dp5122
g86
g87
ssg75
g5116
sg68
(lp5123
S'44'
p5124
asbag61
(g82
g63
NtRp5125
(dp5126
g66
(dp5127
g93
g94
ssg75
g5116
sg68
(lp5128
S':'
asbag61
(g82
g63
NtRp5129
(dp5130
g66
(dp5131
sg75
g5116
sg68
(lp5132
g61
(g62
g63
NtRp5133
(dp5134
g66
(dp5135
g74
I4
ssg75
g5129
sg68
(lp5136
S'1'
asbasbasbag61
(g77
g63
NtRp5137
(dp5138
g66
(dp5139
sg75
g4491
sg68
(lp5140
g61
(g82
g63
NtRp5141
(dp5142
g66
(dp5143
g86
g87
ssg75
g5137
sg68
(lp5144
S'48'
p5145
asbag61
(g82
g63
NtRp5146
(dp5147
g66
(dp5148
g93
g94
ssg75
g5137
sg68
(lp5149
S':'
asbag61
(g82
g63
NtRp5150
(dp5151
g66
(dp5152
sg75
g5137
sg68
(lp5153
g61
(g62
g63
NtRp5154
(dp5155
g66
(dp5156
g74
I4
ssg75
g5150
sg68
(lp5157
S'1'
asbasbasbasbasbasbasbasbasbsS'etype'
p5158
S"<class 'sqlite3.OperationalError'>"
p5159
sS'date'
p5160
S'Wed Mar 14 12:42:45 2012'
p5161
sg3583
g61
(g62
g63
NtRp5162
(dp5163
g66
(dp5164
sg68
(lp5165
g61
(g70
g63
NtRp5166
(dp5167
g66
(dp5168
g74
I5
ssg75
Nsg68
(lp5169
g61
(g77
g63
NtRp5170
(dp5171
g66
(dp5172
sg75
g5166
sg68
(lp5173
g61
(g82
g63
NtRp5174
(dp5175
g66
(dp5176
g86
g87
ssg75
g5170
sg68
(lp5177
g172
asbag61
(g82
g63
NtRp5178
(dp5179
g66
(dp5180
g93
g94
ssg75
g5170
sg68
(lp5181
S':'
asbag61
(g82
g63
NtRp5182
(dp5183
g66
(dp5184
sg75
g5170
sg68
(lp5185
g61
(g62
g63
NtRp5186
(dp5187
g66
(dp5188
g74
I5
ssg75
g5182
sg68
(lp5189
S'<cStringIO.StringO object at 0x7f89b8359a08>'
p5190
asbasbasbag61
(g77
g63
NtRp5191
(dp5192
g66
(dp5193
sg75
g5166
sg68
(lp5194
g61
(g82
g63
NtRp5195
(dp5196
g66
(dp5197
g86
g87
ssg75
g5191
sg68
(lp5198
g260
asbag61
(g82
g63
NtRp5199
(dp5200
g66
(dp5201
g93
g94
ssg75
g5191
sg68
(lp5202
S':'
asbag61
(g82
g63
NtRp5203
(dp5204
g66
(dp5205
sg75
g5191
sg68
(lp5206
g61
(g62
g63
NtRp5207
(dp5208
g66
(dp5209
g74
I5
ssg75
g5203
sg68
(lp5210
g61
(g70
g63
NtRp5211
(dp5212
g66
(dp5213
g74
I4
ssg75
Nsg68
(lp5214
g61
(g77
g63
NtRp5215
(dp5216
g66
(dp5217
sg75
g5211
sg68
(lp5218
g61
(g82
g63
NtRp5219
(dp5220
g66
(dp5221
g86
g87
ssg75
g5215
sg68
(lp5222
S'session_id_paideia'
p5223
asbag61
(g82
g63
NtRp5224
(dp5225
g66
(dp5226
g93
g94
ssg75
g5215
sg68
(lp5227
S':'
asbag61
(g82
g63
NtRp5228
(dp5229
g66
(dp5230
sg75
g5215
sg68
(lp5231
g61
(g62
g63
NtRp5232
(dp5233
g66
(dp5234
g74
I4
ssg75
g5228
sg68
(lp5235
g61
(g70
g63
NtRp5236
(dp5237
g66
(dp5238
g74
I3
ssg75
Nsg68
(lp5239
g61
(g77
g63
NtRp5240
(dp5241
g66
(dp5242
sg75
g5236
sg68
(lp5243
g61
(g82
g63
NtRp5244
(dp5245
g66
(dp5246
g86
g87
ssg75
g5240
sg68
(lp5247
g310
asbag61
(g82
g63
NtRp5248
(dp5249
g66
(dp5250
g93
g94
ssg75
g5240
sg68
(lp5251
S':'
asbag61
(g82
g63
NtRp5252
(dp5253
g66
(dp5254
sg75
g5240
sg68
(lp5255
g61
(g62
g63
NtRp5256
(dp5257
g66
(dp5258
g74
I3
ssg75
g5252
sg68
(lp5259
S''
asbasbasbag61
(g77
g63
NtRp5260
(dp5261
g66
(dp5262
sg75
g5236
sg68
(lp5263
g61
(g82
g63
NtRp5264
(dp5265
g66
(dp5266
g86
g87
ssg75
g5260
sg68
(lp5267
g331
asbag61
(g82
g63
NtRp5268
(dp5269
g66
(dp5270
g93
g94
ssg75
g5260
sg68
(lp5271
S':'
asbag61
(g82
g63
NtRp5272
(dp5273
g66
(dp5274
sg75
g5260
sg68
(lp5275
g61
(g62
g63
NtRp5276
(dp5277
g66
(dp5278
g74
I3
ssg75
g5272
sg68
(lp5279
S''
asbasbasbag61
(g77
g63
NtRp5280
(dp5281
g66
(dp5282
sg75
g5236
sg68
(lp5283
g61
(g82
g63
NtRp5284
(dp5285
g66
(dp5286
g86
g87
ssg75
g5280
sg68
(lp5287
g352
asbag61
(g82
g63
NtRp5288
(dp5289
g66
(dp5290
g93
g94
ssg75
g5280
sg68
(lp5291
S':'
asbag61
(g82
g63
NtRp5292
(dp5293
g66
(dp5294
sg75
g5280
sg68
(lp5295
g61
(g62
g63
NtRp5296
(dp5297
g66
(dp5298
g74
I3
ssg75
g5292
sg68
(lp5299
S'2592000'
p5300
asbasbasbag61
(g77
g63
NtRp5301
(dp5302
g66
(dp5303
sg75
g5236
sg68
(lp5304
g61
(g82
g63
NtRp5305
(dp5306
g66
(dp5307
g86
g87
ssg75
g5301
sg68
(lp5308
g373
asbag61
(g82
g63
NtRp5309
(dp5310
g66
(dp5311
g93
g94
ssg75
g5301
sg68
(lp5312
S':'
asbag61
(g82
g63
NtRp5313
(dp5314
g66
(dp5315
sg75
g5301
sg68
(lp5316
g61
(g62
g63
NtRp5317
(dp5318
g66
(dp5319
g74
I3
ssg75
g5313
sg68
(lp5320
S''
asbasbasbag61
(g77
g63
NtRp5321
(dp5322
g66
(dp5323
sg75
g5236
sg68
(lp5324
g61
(g82
g63
NtRp5325
(dp5326
g66
(dp5327
g86
g87
ssg75
g5321
sg68
(lp5328
g394
asbag61
(g82
g63
NtRp5329
(dp5330
g66
(dp5331
g93
g94
ssg75
g5321
sg68
(lp5332
S':'
asbag61
(g82
g63
NtRp5333
(dp5334
g66
(dp5335
sg75
g5321
sg68
(lp5336
g61
(g62
g63
NtRp5337
(dp5338
g66
(dp5339
g74
I3
ssg75
g5333
sg68
(lp5340
S''
asbasbasbag61
(g77
g63
NtRp5341
(dp5342
g66
(dp5343
sg75
g5236
sg68
(lp5344
g61
(g82
g63
NtRp5345
(dp5346
g66
(dp5347
g86
g87
ssg75
g5341
sg68
(lp5348
g415
asbag61
(g82
g63
NtRp5349
(dp5350
g66
(dp5351
g93
g94
ssg75
g5341
sg68
(lp5352
S':'
asbag61
(g82
g63
NtRp5353
(dp5354
g66
(dp5355
sg75
g5341
sg68
(lp5356
g61
(g62
g63
NtRp5357
(dp5358
g66
(dp5359
g74
I3
ssg75
g5353
sg68
(lp5360
S'/'
asbasbasbag61
(g77
g63
NtRp5361
(dp5362
g66
(dp5363
sg75
g5236
sg68
(lp5364
g61
(g82
g63
NtRp5365
(dp5366
g66
(dp5367
g86
g87
ssg75
g5361
sg68
(lp5368
g436
asbag61
(g82
g63
NtRp5369
(dp5370
g66
(dp5371
g93
g94
ssg75
g5361
sg68
(lp5372
S':'
asbag61
(g82
g63
NtRp5373
(dp5374
g66
(dp5375
sg75
g5361
sg68
(lp5376
g61
(g62
g63
NtRp5377
(dp5378
g66
(dp5379
g74
I3
ssg75
g5373
sg68
(lp5380
S''
asbasbasbag61
(g77
g63
NtRp5381
(dp5382
g66
(dp5383
sg75
g5236
sg68
(lp5384
g61
(g82
g63
NtRp5385
(dp5386
g66
(dp5387
g86
g87
ssg75
g5381
sg68
(lp5388
g457
asbag61
(g82
g63
NtRp5389
(dp5390
g66
(dp5391
g93
g94
ssg75
g5381
sg68
(lp5392
S':'
asbag61
(g82
g63
NtRp5393
(dp5394
g66
(dp5395
sg75
g5381
sg68
(lp5396
g61
(g62
g63
NtRp5397
(dp5398
g66
(dp5399
g74
I3
ssg75
g5393
sg68
(lp5400
S''
asbasbasbasbasbasbasbasbasbasbasbag61
(g77
g63
NtRp5401
(dp5402
g66
(dp5403
sg75
g5166
sg68
(lp5404
g61
(g82
g63
NtRp5405
(dp5406
g66
(dp5407
g86
g87
ssg75
g5401
sg68
(lp5408
S'files'
p5409
asbag61
(g82
g63
NtRp5410
(dp5411
g66
(dp5412
g93
g94
ssg75
g5401
sg68
(lp5413
S':'
asbag61
(g82
g63
NtRp5414
(dp5415
g66
(dp5416
sg75
g5401
sg68
(lp5417
g61
(g62
g63
NtRp5418
(dp5419
g66
(dp5420
g74
I5
ssg75
g5414
sg68
(lp5421
g61
(g70
g63
NtRp5422
(dp5423
g66
(dp5424
g74
I4
ssg75
Nsg68
(lp5425
g61
(g77
g63
NtRp5426
(dp5427
g66
(dp5428
sg75
g5422
sg68
(lp5429
g61
(g82
g63
NtRp5430
(dp5431
g66
(dp5432
sg75
g5426
sg68
(lp5433
g61
(g62
g63
NtRp5434
(dp5435
g66
(dp5436
g74
I4
ssg75
g5430
sg68
(lp5437
S'/paideia/static/plugin_ajaxselect/plugin_ajaxselect.js'
p5438
asbasbasbasbasbasbasbag61
(g77
g63
NtRp5439
(dp5440
g66
(dp5441
sg75
g5166
sg68
(lp5442
g61
(g82
g63
NtRp5443
(dp5444
g66
(dp5445
g86
g87
ssg75
g5439
sg68
(lp5446
S'flash'
p5447
asbag61
(g82
g63
NtRp5448
(dp5449
g66
(dp5450
g93
g94
ssg75
g5439
sg68
(lp5451
S':'
asbag61
(g82
g63
NtRp5452
(dp5453
g66
(dp5454
sg75
g5439
sg68
(lp5455
g61
(g62
g63
NtRp5456
(dp5457
g66
(dp5458
g74
I5
ssg75
g5452
sg68
(lp5459
S''
asbasbasbag61
(g77
g63
NtRp5460
(dp5461
g66
(dp5462
sg75
g5166
sg68
(lp5463
g61
(g82
g63
NtRp5464
(dp5465
g66
(dp5466
g86
g87
ssg75
g5460
sg68
(lp5467
S'generic_patterns'
p5468
asbag61
(g82
g63
NtRp5469
(dp5470
g66
(dp5471
g93
g94
ssg75
g5460
sg68
(lp5472
S':'
asbag61
(g82
g63
NtRp5473
(dp5474
g66
(dp5475
sg75
g5460
sg68
(lp5476
g61
(g62
g63
NtRp5477
(dp5478
g66
(dp5479
g74
I5
ssg75
g5473
sg68
(lp5480
g61
(g70
g63
NtRp5481
(dp5482
g66
(dp5483
g74
I4
ssg75
Nsg68
(lp5484
g61
(g77
g63
NtRp5485
(dp5486
g66
(dp5487
sg75
g5481
sg68
(lp5488
g61
(g82
g63
NtRp5489
(dp5490
g66
(dp5491
sg75
g5485
sg68
(lp5492
g61
(g62
g63
NtRp5493
(dp5494
g66
(dp5495
g74
I4
ssg75
g5489
sg68
(lp5496
S'*'
asbasbasbasbasbasbasbag61
(g77
g63
NtRp5497
(dp5498
g66
(dp5499
sg75
g5166
sg68
(lp5500
g61
(g82
g63
NtRp5501
(dp5502
g66
(dp5503
g86
g87
ssg75
g5497
sg68
(lp5504
S'headers'
p5505
asbag61
(g82
g63
NtRp5506
(dp5507
g66
(dp5508
g93
g94
ssg75
g5497
sg68
(lp5509
S':'
asbag61
(g82
g63
NtRp5510
(dp5511
g66
(dp5512
sg75
g5497
sg68
(lp5513
g61
(g62
g63
NtRp5514
(dp5515
g66
(dp5516
g74
I5
ssg75
g5510
sg68
(lp5517
g61
(g70
g63
NtRp5518
(dp5519
g66
(dp5520
g74
I4
ssg75
Nsg68
(lp5521
g61
(g77
g63
NtRp5522
(dp5523
g66
(dp5524
sg75
g5518
sg68
(lp5525
g61
(g82
g63
NtRp5526
(dp5527
g66
(dp5528
g86
g87
ssg75
g5522
sg68
(lp5529
S'Cache-Control'
p5530
asbag61
(g82
g63
NtRp5531
(dp5532
g66
(dp5533
g93
g94
ssg75
g5522
sg68
(lp5534
S':'
asbag61
(g82
g63
NtRp5535
(dp5536
g66
(dp5537
sg75
g5522
sg68
(lp5538
g61
(g62
g63
NtRp5539
(dp5540
g66
(dp5541
g74
I4
ssg75
g5535
sg68
(lp5542
S'no-store, no-cache, must-revalidate, post-check=0, pre-check=0'
p5543
asbasbasbag61
(g77
g63
NtRp5544
(dp5545
g66
(dp5546
sg75
g5518
sg68
(lp5547
g61
(g82
g63
NtRp5548
(dp5549
g66
(dp5550
g86
g87
ssg75
g5544
sg68
(lp5551
S'Content-Type'
p5552
asbag61
(g82
g63
NtRp5553
(dp5554
g66
(dp5555
g93
g94
ssg75
g5544
sg68
(lp5556
S':'
asbag61
(g82
g63
NtRp5557
(dp5558
g66
(dp5559
sg75
g5544
sg68
(lp5560
g61
(g62
g63
NtRp5561
(dp5562
g66
(dp5563
g74
I4
ssg75
g5557
sg68
(lp5564
S'text/html; charset=utf-8'
p5565
asbasbasbag61
(g77
g63
NtRp5566
(dp5567
g66
(dp5568
sg75
g5518
sg68
(lp5569
g61
(g82
g63
NtRp5570
(dp5571
g66
(dp5572
g86
g87
ssg75
g5566
sg68
(lp5573
S'Expires'
p5574
asbag61
(g82
g63
NtRp5575
(dp5576
g66
(dp5577
g93
g94
ssg75
g5566
sg68
(lp5578
S':'
asbag61
(g82
g63
NtRp5579
(dp5580
g66
(dp5581
sg75
g5566
sg68
(lp5582
g61
(g62
g63
NtRp5583
(dp5584
g66
(dp5585
g74
I4
ssg75
g5579
sg68
(lp5586
S'Wed, 14 Mar 2012 16:42:45 GMT'
p5587
asbasbasbag61
(g77
g63
NtRp5588
(dp5589
g66
(dp5590
sg75
g5518
sg68
(lp5591
g61
(g82
g63
NtRp5592
(dp5593
g66
(dp5594
g86
g87
ssg75
g5588
sg68
(lp5595
S'Pragma'
p5596
asbag61
(g82
g63
NtRp5597
(dp5598
g66
(dp5599
g93
g94
ssg75
g5588
sg68
(lp5600
S':'
asbag61
(g82
g63
NtRp5601
(dp5602
g66
(dp5603
sg75
g5588
sg68
(lp5604
g61
(g62
g63
NtRp5605
(dp5606
g66
(dp5607
g74
I4
ssg75
g5601
sg68
(lp5608
S'no-cache'
p5609
asbasbasbag61
(g77
g63
NtRp5610
(dp5611
g66
(dp5612
sg75
g5518
sg68
(lp5613
g61
(g82
g63
NtRp5614
(dp5615
g66
(dp5616
g86
g87
ssg75
g5610
sg68
(lp5617
S'X-Powered-By'
p5618
asbag61
(g82
g63
NtRp5619
(dp5620
g66
(dp5621
g93
g94
ssg75
g5610
sg68
(lp5622
S':'
asbag61
(g82
g63
NtRp5623
(dp5624
g66
(dp5625
sg75
g5610
sg68
(lp5626
g61
(g62
g63
NtRp5627
(dp5628
g66
(dp5629
g74
I4
ssg75
g5623
sg68
(lp5630
S'web2py'
p5631
asbasbasbasbasbasbasbag61
(g77
g63
NtRp5632
(dp5633
g66
(dp5634
sg75
g5166
sg68
(lp5635
g61
(g82
g63
NtRp5636
(dp5637
g66
(dp5638
g86
g87
ssg75
g5632
sg68
(lp5639
S'menu'
p5640
asbag61
(g82
g63
NtRp5641
(dp5642
g66
(dp5643
g93
g94
ssg75
g5632
sg68
(lp5644
S':'
asbag61
(g82
g63
NtRp5645
(dp5646
g66
(dp5647
sg75
g5632
sg68
(lp5648
g61
(g62
g63
NtRp5649
(dp5650
g66
(dp5651
g74
I5
ssg75
g5645
sg68
(lp5652
g61
(g70
g63
NtRp5653
(dp5654
g66
(dp5655
g74
I4
ssg75
Nsg68
(lp5656
g61
(g77
g63
NtRp5657
(dp5658
g66
(dp5659
sg75
g5653
sg68
(lp5660
g61
(g82
g63
NtRp5661
(dp5662
g66
(dp5663
sg75
g5657
sg68
(lp5664
g61
(g62
g63
NtRp5665
(dp5666
g66
(dp5667
g74
I4
ssg75
g5661
sg68
(lp5668
g61
(g70
g63
NtRp5669
(dp5670
g66
(dp5671
g74
I3
ssg75
Nsg68
(lp5672
g61
(g77
g63
NtRp5673
(dp5674
g66
(dp5675
sg75
g5669
sg68
(lp5676
g61
(g82
g63
NtRp5677
(dp5678
g66
(dp5679
sg75
g5673
sg68
(lp5680
g61
(g62
g63
NtRp5681
(dp5682
g66
(dp5683
g74
I3
ssg75
g5677
sg68
(lp5684
cgluon.languages
lazyT_unpickle
p5685
(S't\x04\x00\x00\x00Home'
tRp5686
asbasbasbag61
(g77
g63
NtRp5687
(dp5688
g66
(dp5689
sg75
g5669
sg68
(lp5690
g61
(g82
g63
NtRp5691
(dp5692
g66
(dp5693
sg75
g5687
sg68
(lp5694
g61
(g62
g63
NtRp5695
(dp5696
g66
(dp5697
g74
I3
ssg75
g5691
sg68
(lp5698
g1184
asbasbasbag61
(g77
g63
NtRp5699
(dp5700
g66
(dp5701
sg75
g5669
sg68
(lp5702
g61
(g82
g63
NtRp5703
(dp5704
g66
(dp5705
sg75
g5699
sg68
(lp5706
g61
(g62
g63
NtRp5707
(dp5708
g66
(dp5709
g74
I3
ssg75
g5703
sg68
(lp5710
S'/paideia/default/index.load'
p5711
asbasbasbag61
(g77
g63
NtRp5712
(dp5713
g66
(dp5714
sg75
g5669
sg68
(lp5715
g61
(g82
g63
NtRp5716
(dp5717
g66
(dp5718
sg75
g5712
sg68
(lp5719
g61
(g62
g63
NtRp5720
(dp5721
g66
(dp5722
g74
I3
ssg75
g5716
sg68
(lp5723
g61
(g70
g63
NtRp5724
(dp5725
g66
(dp5726
g74
I2
ssg75
Nsg68
(lp5727
sbasbasbasbasbasbasbasbag61
(g77
g63
NtRp5728
(dp5729
g66
(dp5730
sg75
g5653
sg68
(lp5731
g61
(g82
g63
NtRp5732
(dp5733
g66
(dp5734
sg75
g5728
sg68
(lp5735
g61
(g62
g63
NtRp5736
(dp5737
g66
(dp5738
g74
I4
ssg75
g5732
sg68
(lp5739
g61
(g70
g63
NtRp5740
(dp5741
g66
(dp5742
g74
I3
ssg75
Nsg68
(lp5743
g61
(g77
g63
NtRp5744
(dp5745
g66
(dp5746
sg75
g5740
sg68
(lp5747
g61
(g82
g63
NtRp5748
(dp5749
g66
(dp5750
sg75
g5744
sg68
(lp5751
g61
(g62
g63
NtRp5752
(dp5753
g66
(dp5754
g74
I3
ssg75
g5748
sg68
(lp5755
g5685
(S't\x05\x00\x00\x00Admin'
tRp5756
asbasbasbag61
(g77
g63
NtRp5757
(dp5758
g66
(dp5759
sg75
g5740
sg68
(lp5760
g61
(g82
g63
NtRp5761
(dp5762
g66
(dp5763
sg75
g5757
sg68
(lp5764
g61
(g62
g63
NtRp5765
(dp5766
g66
(dp5767
g74
I3
ssg75
g5761
sg68
(lp5768
g1184
asbasbasbag61
(g77
g63
NtRp5769
(dp5770
g66
(dp5771
sg75
g5740
sg68
(lp5772
g61
(g82
g63
NtRp5773
(dp5774
g66
(dp5775
sg75
g5769
sg68
(lp5776
g61
(g62
g63
NtRp5777
(dp5778
g66
(dp5779
g74
I3
ssg75
g5773
sg68
(lp5780
S'None'
p5781
asbasbasbag61
(g77
g63
NtRp5782
(dp5783
g66
(dp5784
sg75
g5740
sg68
(lp5785
g61
(g82
g63
NtRp5786
(dp5787
g66
(dp5788
sg75
g5782
sg68
(lp5789
g61
(g62
g63
NtRp5790
(dp5791
g66
(dp5792
g74
I3
ssg75
g5786
sg68
(lp5793
g61
(g70
g63
NtRp5794
(dp5795
g66
(dp5796
g74
I2
ssg75
Nsg68
(lp5797
g61
(g77
g63
NtRp5798
(dp5799
g66
(dp5800
sg75
g5794
sg68
(lp5801
g61
(g82
g63
NtRp5802
(dp5803
g66
(dp5804
sg75
g5798
sg68
(lp5805
g61
(g62
g63
NtRp5806
(dp5807
g66
(dp5808
g74
I2
ssg75
g5802
sg68
(lp5809
g61
(g70
g63
NtRp5810
(dp5811
g66
(dp5812
g74
I1
ssg75
Nsg68
(lp5813
g61
(g77
g63
NtRp5814
(dp5815
g66
(dp5816
sg75
g5810
sg68
(lp5817
g61
(g82
g63
NtRp5818
(dp5819
g66
(dp5820
sg75
g5814
sg68
(lp5821
g61
(g62
g63
NtRp5822
(dp5823
g66
(dp5824
g74
I1
ssg75
g5818
sg68
(lp5825
g5685
(S's\x07\x00\x00\x00Web IDE'
tRp5826
asbasbasbag61
(g77
g63
NtRp5827
(dp5828
g66
(dp5829
sg75
g5810
sg68
(lp5830
g61
(g82
g63
NtRp5831
(dp5832
g66
(dp5833
sg75
g5827
sg68
(lp5834
g61
(g62
g63
NtRp5835
(dp5836
g66
(dp5837
g74
I1
ssg75
g5831
sg68
(lp5838
I00
asbasbasbag61
(g77
g63
NtRp5839
(dp5840
g66
(dp5841
sg75
g5810
sg68
(lp5842
g61
(g82
g63
NtRp5843
(dp5844
g66
(dp5845
sg75
g5839
sg68
(lp5846
g61
(g62
g63
NtRp5847
(dp5848
g66
(dp5849
g74
I1
ssg75
g5843
sg68
(lp5850
S'/admin/default/index.load'
p5851
asbasbasbasbasbasbasbag61
(g77
g63
NtRp5852
(dp5853
g66
(dp5854
sg75
g5794
sg68
(lp5855
g61
(g82
g63
NtRp5856
(dp5857
g66
(dp5858
sg75
g5852
sg68
(lp5859
g61
(g62
g63
NtRp5860
(dp5861
g66
(dp5862
g74
I2
ssg75
g5856
sg68
(lp5863
g61
(g70
g63
NtRp5864
(dp5865
g66
(dp5866
g74
I1
ssg75
Nsg68
(lp5867
g61
(g77
g63
NtRp5868
(dp5869
g66
(dp5870
sg75
g5864
sg68
(lp5871
g61
(g82
g63
NtRp5872
(dp5873
g66
(dp5874
sg75
g5868
sg68
(lp5875
g61
(g62
g63
NtRp5876
(dp5877
g66
(dp5878
g74
I1
ssg75
g5872
sg68
(lp5879
g5685
(S't\x08\x00\x00\x00Database'
tRp5880
asbasbasbag61
(g77
g63
NtRp5881
(dp5882
g66
(dp5883
sg75
g5864
sg68
(lp5884
g61
(g82
g63
NtRp5885
(dp5886
g66
(dp5887
sg75
g5881
sg68
(lp5888
g61
(g62
g63
NtRp5889
(dp5890
g66
(dp5891
g74
I1
ssg75
g5885
sg68
(lp5892
I00
asbasbasbag61
(g77
g63
NtRp5893
(dp5894
g66
(dp5895
sg75
g5864
sg68
(lp5896
g61
(g82
g63
NtRp5897
(dp5898
g66
(dp5899
sg75
g5893
sg68
(lp5900
g61
(g62
g63
NtRp5901
(dp5902
g66
(dp5903
g74
I1
ssg75
g5897
sg68
(lp5904
S'/paideia/appadmin/index.load'
p5905
asbasbasbasbasbasbasbag61
(g77
g63
NtRp5906
(dp5907
g66
(dp5908
sg75
g5794
sg68
(lp5909
g61
(g82
g63
NtRp5910
(dp5911
g66
(dp5912
sg75
g5906
sg68
(lp5913
g61
(g62
g63
NtRp5914
(dp5915
g66
(dp5916
g74
I2
ssg75
g5910
sg68
(lp5917
g61
(g70
g63
NtRp5918
(dp5919
g66
(dp5920
g74
I1
ssg75
Nsg68
(lp5921
g61
(g77
g63
NtRp5922
(dp5923
g66
(dp5924
sg75
g5918
sg68
(lp5925
g61
(g82
g63
NtRp5926
(dp5927
g66
(dp5928
sg75
g5922
sg68
(lp5929
g61
(g62
g63
NtRp5930
(dp5931
g66
(dp5932
g74
I1
ssg75
g5926
sg68
(lp5933
g5685
(S't\x05\x00\x00\x00Users'
tRp5934
asbasbasbag61
(g77
g63
NtRp5935
(dp5936
g66
(dp5937
sg75
g5918
sg68
(lp5938
g61
(g82
g63
NtRp5939
(dp5940
g66
(dp5941
sg75
g5935
sg68
(lp5942
g61
(g62
g63
NtRp5943
(dp5944
g66
(dp5945
g74
I1
ssg75
g5939
sg68
(lp5946
I00
asbasbasbag61
(g77
g63
NtRp5947
(dp5948
g66
(dp5949
sg75
g5918
sg68
(lp5950
g61
(g82
g63
NtRp5951
(dp5952
g66
(dp5953
sg75
g5947
sg68
(lp5954
g61
(g62
g63
NtRp5955
(dp5956
g66
(dp5957
g74
I1
ssg75
g5951
sg68
(lp5958
S'/paideia/listing/user.load'
p5959
asbasbasbasbasbasbasbag61
(g77
g63
NtRp5960
(dp5961
g66
(dp5962
sg75
g5794
sg68
(lp5963
g61
(g82
g63
NtRp5964
(dp5965
g66
(dp5966
sg75
g5960
sg68
(lp5967
g61
(g62
g63
NtRp5968
(dp5969
g66
(dp5970
g74
I2
ssg75
g5964
sg68
(lp5971
g61
(g70
g63
NtRp5972
(dp5973
g66
(dp5974
g74
I1
ssg75
Nsg68
(lp5975
g61
(g77
g63
NtRp5976
(dp5977
g66
(dp5978
sg75
g5972
sg68
(lp5979
g61
(g82
g63
NtRp5980
(dp5981
g66
(dp5982
sg75
g5976
sg68
(lp5983
g61
(g62
g63
NtRp5984
(dp5985
g66
(dp5986
g74
I1
ssg75
g5980
sg68
(lp5987
g5685
(S't\x05\x00\x00\x00Paths'
tRp5988
asbasbasbag61
(g77
g63
NtRp5989
(dp5990
g66
(dp5991
sg75
g5972
sg68
(lp5992
g61
(g82
g63
NtRp5993
(dp5994
g66
(dp5995
sg75
g5989
sg68
(lp5996
g61
(g62
g63
NtRp5997
(dp5998
g66
(dp5999
g74
I1
ssg75
g5993
sg68
(lp6000
I00
asbasbasbag61
(g77
g63
NtRp6001
(dp6002
g66
(dp6003
sg75
g5972
sg68
(lp6004
g61
(g82
g63
NtRp6005
(dp6006
g66
(dp6007
sg75
g6001
sg68
(lp6008
g61
(g62
g63
NtRp6009
(dp6010
g66
(dp6011
g74
I1
ssg75
g6005
sg68
(lp6012
S'/paideia/plugin_listandedit/listing.html/paths'
p6013
asbasbasbasbasbasbasbag61
(g77
g63
NtRp6014
(dp6015
g66
(dp6016
sg75
g5794
sg68
(lp6017
g61
(g82
g63
NtRp6018
(dp6019
g66
(dp6020
sg75
g6014
sg68
(lp6021
g61
(g62
g63
NtRp6022
(dp6023
g66
(dp6024
g74
I2
ssg75
g6018
sg68
(lp6025
g61
(g70
g63
NtRp6026
(dp6027
g66
(dp6028
g74
I1
ssg75
Nsg68
(lp6029
g61
(g77
g63
NtRp6030
(dp6031
g66
(dp6032
sg75
g6026
sg68
(lp6033
g61
(g82
g63
NtRp6034
(dp6035
g66
(dp6036
sg75
g6030
sg68
(lp6037
g61
(g62
g63
NtRp6038
(dp6039
g66
(dp6040
g74
I1
ssg75
g6034
sg68
(lp6041
g5685
(S't\x05\x00\x00\x00Steps'
tRp6042
asbasbasbag61
(g77
g63
NtRp6043
(dp6044
g66
(dp6045
sg75
g6026
sg68
(lp6046
g61
(g82
g63
NtRp6047
(dp6048
g66
(dp6049
sg75
g6043
sg68
(lp6050
g61
(g62
g63
NtRp6051
(dp6052
g66
(dp6053
g74
I1
ssg75
g6047
sg68
(lp6054
I00
asbasbasbag61
(g77
g63
NtRp6055
(dp6056
g66
(dp6057
sg75
g6026
sg68
(lp6058
g61
(g82
g63
NtRp6059
(dp6060
g66
(dp6061
sg75
g6055
sg68
(lp6062
g61
(g62
g63
NtRp6063
(dp6064
g66
(dp6065
g74
I1
ssg75
g6059
sg68
(lp6066
S'/paideia/plugin_listandedit/listing.html/steps'
p6067
asbasbasbasbasbasbasbag61
(g77
g63
NtRp6068
(dp6069
g66
(dp6070
sg75
g5794
sg68
(lp6071
g61
(g82
g63
NtRp6072
(dp6073
g66
(dp6074
sg75
g6068
sg68
(lp6075
g61
(g62
g63
NtRp6076
(dp6077
g66
(dp6078
g74
I2
ssg75
g6072
sg68
(lp6079
g61
(g70
g63
NtRp6080
(dp6081
g66
(dp6082
g74
I1
ssg75
Nsg68
(lp6083
g61
(g77
g63
NtRp6084
(dp6085
g66
(dp6086
sg75
g6080
sg68
(lp6087
g61
(g82
g63
NtRp6088
(dp6089
g66
(dp6090
sg75
g6084
sg68
(lp6091
g61
(g62
g63
NtRp6092
(dp6093
g66
(dp6094
g74
I1
ssg75
g6088
sg68
(lp6095
g5685
(S't\t\x00\x00\x00Questions'
tRp6096
asbasbasbag61
(g77
g63
NtRp6097
(dp6098
g66
(dp6099
sg75
g6080
sg68
(lp6100
g61
(g82
g63
NtRp6101
(dp6102
g66
(dp6103
sg75
g6097
sg68
(lp6104
g61
(g62
g63
NtRp6105
(dp6106
g66
(dp6107
g74
I1
ssg75
g6101
sg68
(lp6108
I00
asbasbasbag61
(g77
g63
NtRp6109
(dp6110
g66
(dp6111
sg75
g6080
sg68
(lp6112
g61
(g82
g63
NtRp6113
(dp6114
g66
(dp6115
sg75
g6109
sg68
(lp6116
g61
(g62
g63
NtRp6117
(dp6118
g66
(dp6119
g74
I1
ssg75
g6113
sg68
(lp6120
S'/paideia/plugin_listandedit/listing.html/questions'
p6121
asbasbasbasbasbasbasbag61
(g77
g63
NtRp6122
(dp6123
g66
(dp6124
sg75
g5794
sg68
(lp6125
g61
(g82
g63
NtRp6126
(dp6127
g66
(dp6128
sg75
g6122
sg68
(lp6129
g61
(g62
g63
NtRp6130
(dp6131
g66
(dp6132
g74
I2
ssg75
g6126
sg68
(lp6133
g61
(g70
g63
NtRp6134
(dp6135
g66
(dp6136
g74
I1
ssg75
Nsg68
(lp6137
g61
(g77
g63
NtRp6138
(dp6139
g66
(dp6140
sg75
g6134
sg68
(lp6141
g61
(g82
g63
NtRp6142
(dp6143
g66
(dp6144
sg75
g6138
sg68
(lp6145
g61
(g62
g63
NtRp6146
(dp6147
g66
(dp6148
g74
I1
ssg75
g6142
sg68
(lp6149
g5685
(S't\x07\x00\x00\x00Quizzes'
tRp6150
asbasbasbag61
(g77
g63
NtRp6151
(dp6152
g66
(dp6153
sg75
g6134
sg68
(lp6154
g61
(g82
g63
NtRp6155
(dp6156
g66
(dp6157
sg75
g6151
sg68
(lp6158
g61
(g62
g63
NtRp6159
(dp6160
g66
(dp6161
g74
I1
ssg75
g6155
sg68
(lp6162
I00
asbasbasbag61
(g77
g63
NtRp6163
(dp6164
g66
(dp6165
sg75
g6134
sg68
(lp6166
g61
(g82
g63
NtRp6167
(dp6168
g66
(dp6169
sg75
g6163
sg68
(lp6170
g61
(g62
g63
NtRp6171
(dp6172
g66
(dp6173
g74
I1
ssg75
g6167
sg68
(lp6174
S'/paideia/plugin_listandedit/listing.html/quizzes'
p6175
asbasbasbasbasbasbasbag61
(g77
g63
NtRp6176
(dp6177
g66
(dp6178
sg75
g5794
sg68
(lp6179
g61
(g82
g63
NtRp6180
(dp6181
g66
(dp6182
sg75
g6176
sg68
(lp6183
g61
(g62
g63
NtRp6184
(dp6185
g66
(dp6186
g74
I2
ssg75
g6180
sg68
(lp6187
g61
(g70
g63
NtRp6188
(dp6189
g66
(dp6190
g74
I1
ssg75
Nsg68
(lp6191
g61
(g77
g63
NtRp6192
(dp6193
g66
(dp6194
sg75
g6188
sg68
(lp6195
g61
(g82
g63
NtRp6196
(dp6197
g66
(dp6198
sg75
g6192
sg68
(lp6199
g61
(g62
g63
NtRp6200
(dp6201
g66
(dp6202
g74
I1
ssg75
g6196
sg68
(lp6203
g5685
(S't\x04\x00\x00\x00Tags'
tRp6204
asbasbasbag61
(g77
g63
NtRp6205
(dp6206
g66
(dp6207
sg75
g6188
sg68
(lp6208
g61
(g82
g63
NtRp6209
(dp6210
g66
(dp6211
sg75
g6205
sg68
(lp6212
g61
(g62
g63
NtRp6213
(dp6214
g66
(dp6215
g74
I1
ssg75
g6209
sg68
(lp6216
I00
asbasbasbag61
(g77
g63
NtRp6217
(dp6218
g66
(dp6219
sg75
g6188
sg68
(lp6220
g61
(g82
g63
NtRp6221
(dp6222
g66
(dp6223
sg75
g6217
sg68
(lp6224
g61
(g62
g63
NtRp6225
(dp6226
g66
(dp6227
g74
I1
ssg75
g6221
sg68
(lp6228
S'/paideia/plugin_listandedit/listing.html/tags'
p6229
asbasbasbasbasbasbasbag61
(g77
g63
NtRp6230
(dp6231
g66
(dp6232
sg75
g5794
sg68
(lp6233
g61
(g82
g63
NtRp6234
(dp6235
g66
(dp6236
sg75
g6230
sg68
(lp6237
g61
(g62
g63
NtRp6238
(dp6239
g66
(dp6240
g74
I2
ssg75
g6234
sg68
(lp6241
g61
(g70
g63
NtRp6242
(dp6243
g66
(dp6244
g74
I1
ssg75
Nsg68
(lp6245
g61
(g77
g63
NtRp6246
(dp6247
g66
(dp6248
sg75
g6242
sg68
(lp6249
g61
(g82
g63
NtRp6250
(dp6251
g66
(dp6252
sg75
g6246
sg68
(lp6253
g61
(g62
g63
NtRp6254
(dp6255
g66
(dp6256
g74
I1
ssg75
g6250
sg68
(lp6257
g5685
(S't\x04\x00\x00\x00NPCs'
tRp6258
asbasbasbag61
(g77
g63
NtRp6259
(dp6260
g66
(dp6261
sg75
g6242
sg68
(lp6262
g61
(g82
g63
NtRp6263
(dp6264
g66
(dp6265
sg75
g6259
sg68
(lp6266
g61
(g62
g63
NtRp6267
(dp6268
g66
(dp6269
g74
I1
ssg75
g6263
sg68
(lp6270
I00
asbasbasbag61
(g77
g63
NtRp6271
(dp6272
g66
(dp6273
sg75
g6242
sg68
(lp6274
g61
(g82
g63
NtRp6275
(dp6276
g66
(dp6277
sg75
g6271
sg68
(lp6278
g61
(g62
g63
NtRp6279
(dp6280
g66
(dp6281
g74
I1
ssg75
g6275
sg68
(lp6282
S'/paideia/plugin_listandedit/listing.html/npcs'
p6283
asbasbasbasbasbasbasbag61
(g77
g63
NtRp6284
(dp6285
g66
(dp6286
sg75
g5794
sg68
(lp6287
g61
(g82
g63
NtRp6288
(dp6289
g66
(dp6290
sg75
g6284
sg68
(lp6291
g61
(g62
g63
NtRp6292
(dp6293
g66
(dp6294
g74
I2
ssg75
g6288
sg68
(lp6295
g61
(g70
g63
NtRp6296
(dp6297
g66
(dp6298
g74
I1
ssg75
Nsg68
(lp6299
g61
(g77
g63
NtRp6300
(dp6301
g66
(dp6302
sg75
g6296
sg68
(lp6303
g61
(g82
g63
NtRp6304
(dp6305
g66
(dp6306
sg75
g6300
sg68
(lp6307
g61
(g62
g63
NtRp6308
(dp6309
g66
(dp6310
g74
I1
ssg75
g6304
sg68
(lp6311
g5685
(S't\t\x00\x00\x00locations'
tRp6312
asbasbasbag61
(g77
g63
NtRp6313
(dp6314
g66
(dp6315
sg75
g6296
sg68
(lp6316
g61
(g82
g63
NtRp6317
(dp6318
g66
(dp6319
sg75
g6313
sg68
(lp6320
g61
(g62
g63
NtRp6321
(dp6322
g66
(dp6323
g74
I1
ssg75
g6317
sg68
(lp6324
I00
asbasbasbag61
(g77
g63
NtRp6325
(dp6326
g66
(dp6327
sg75
g6296
sg68
(lp6328
g61
(g82
g63
NtRp6329
(dp6330
g66
(dp6331
sg75
g6325
sg68
(lp6332
g61
(g62
g63
NtRp6333
(dp6334
g66
(dp6335
g74
I1
ssg75
g6329
sg68
(lp6336
S'/paideia/plugin_listandedit/listing.html/locations'
p6337
asbasbasbasbasbasbasbasbasbasbasbasbasbasbasbasbasbasbasbag61
(g77
g63
NtRp6338
(dp6339
g66
(dp6340
sg75
g5166
sg68
(lp6341
g61
(g82
g63
NtRp6342
(dp6343
g66
(dp6344
g86
g87
ssg75
g6338
sg68
(lp6345
S'meta'
p6346
asbag61
(g82
g63
NtRp6347
(dp6348
g66
(dp6349
g93
g94
ssg75
g6338
sg68
(lp6350
S':'
asbag61
(g82
g63
NtRp6351
(dp6352
g66
(dp6353
sg75
g6338
sg68
(lp6354
g61
(g62
g63
NtRp6355
(dp6356
g66
(dp6357
g74
I5
ssg75
g6351
sg68
(lp6358
g61
(g70
g63
NtRp6359
(dp6360
g66
(dp6361
g74
I4
ssg75
Nsg68
(lp6362
g61
(g77
g63
NtRp6363
(dp6364
g66
(dp6365
sg75
g6359
sg68
(lp6366
g61
(g82
g63
NtRp6367
(dp6368
g66
(dp6369
g86
g87
ssg75
g6363
sg68
(lp6370
S'author'
p6371
asbag61
(g82
g63
NtRp6372
(dp6373
g66
(dp6374
g93
g94
ssg75
g6363
sg68
(lp6375
S':'
asbag61
(g82
g63
NtRp6376
(dp6377
g66
(dp6378
sg75
g6363
sg68
(lp6379
g61
(g62
g63
NtRp6380
(dp6381
g66
(dp6382
g74
I4
ssg75
g6376
sg68
(lp6383
S'Ian W. Scott'
p6384
asbasbasbag61
(g77
g63
NtRp6385
(dp6386
g66
(dp6387
sg75
g6359
sg68
(lp6388
g61
(g82
g63
NtRp6389
(dp6390
g66
(dp6391
g86
g87
ssg75
g6385
sg68
(lp6392
S'copyright'
p6393
asbag61
(g82
g63
NtRp6394
(dp6395
g66
(dp6396
g93
g94
ssg75
g6385
sg68
(lp6397
S':'
asbag61
(g82
g63
NtRp6398
(dp6399
g66
(dp6400
sg75
g6385
sg68
(lp6401
g61
(g62
g63
NtRp6402
(dp6403
g66
(dp6404
g74
I4
ssg75
g6398
sg68
(lp6405
S'Copyright 2011'
p6406
asbasbasbag61
(g77
g63
NtRp6407
(dp6408
g66
(dp6409
sg75
g6359
sg68
(lp6410
g61
(g82
g63
NtRp6411
(dp6412
g66
(dp6413
g86
g87
ssg75
g6407
sg68
(lp6414
S'description'
p6415
asbag61
(g82
g63
NtRp6416
(dp6417
g66
(dp6418
g93
g94
ssg75
g6407
sg68
(lp6419
S':'
asbag61
(g82
g63
NtRp6420
(dp6421
g66
(dp6422
sg75
g6407
sg68
(lp6423
g61
(g62
g63
NtRp6424
(dp6425
g66
(dp6426
g74
I4
ssg75
g6420
sg68
(lp6427
S'An online space for learning New Testament Greek'
p6428
asbasbasbag61
(g77
g63
NtRp6429
(dp6430
g66
(dp6431
sg75
g6359
sg68
(lp6432
g61
(g82
g63
NtRp6433
(dp6434
g66
(dp6435
g86
g87
ssg75
g6429
sg68
(lp6436
S'generator'
p6437
asbag61
(g82
g63
NtRp6438
(dp6439
g66
(dp6440
g93
g94
ssg75
g6429
sg68
(lp6441
S':'
asbag61
(g82
g63
NtRp6442
(dp6443
g66
(dp6444
sg75
g6429
sg68
(lp6445
g61
(g62
g63
NtRp6446
(dp6447
g66
(dp6448
g74
I4
ssg75
g6442
sg68
(lp6449
S'Web2py Enterprise Framework'
p6450
asbasbasbag61
(g77
g63
NtRp6451
(dp6452
g66
(dp6453
sg75
g6359
sg68
(lp6454
g61
(g82
g63
NtRp6455
(dp6456
g66
(dp6457
g86
g87
ssg75
g6451
sg68
(lp6458
S'keywords'
p6459
asbag61
(g82
g63
NtRp6460
(dp6461
g66
(dp6462
g93
g94
ssg75
g6451
sg68
(lp6463
S':'
asbag61
(g82
g63
NtRp6464
(dp6465
g66
(dp6466
sg75
g6451
sg68
(lp6467
g61
(g62
g63
NtRp6468
(dp6469
g66
(dp6470
g74
I4
ssg75
g6464
sg68
(lp6471
S'Greek, koine, New Testament, language, education, learning'
p6472
asbasbasbasbasbasbasbag61
(g77
g63
NtRp6473
(dp6474
g66
(dp6475
sg75
g5166
sg68
(lp6476
g61
(g82
g63
NtRp6477
(dp6478
g66
(dp6479
g86
g87
ssg75
g6473
sg68
(lp6480
S'mobiletitle'
p6481
asbag61
(g82
g63
NtRp6482
(dp6483
g66
(dp6484
g93
g94
ssg75
g6473
sg68
(lp6485
S':'
asbag61
(g82
g63
NtRp6486
(dp6487
g66
(dp6488
sg75
g6473
sg68
(lp6489
g61
(g62
g63
NtRp6490
(dp6491
g66
(dp6492
g74
I5
ssg75
g6486
sg68
(lp6493
g126
asbasbasbag61
(g77
g63
NtRp6494
(dp6495
g66
(dp6496
sg75
g5166
sg68
(lp6497
g61
(g82
g63
NtRp6498
(dp6499
g66
(dp6500
g86
g87
ssg75
g6494
sg68
(lp6501
S'postprocessing'
p6502
asbag61
(g82
g63
NtRp6503
(dp6504
g66
(dp6505
g93
g94
ssg75
g6494
sg68
(lp6506
S':'
asbag61
(g82
g63
NtRp6507
(dp6508
g66
(dp6509
sg75
g6494
sg68
(lp6510
g61
(g62
g63
NtRp6511
(dp6512
g66
(dp6513
g74
I5
ssg75
g6507
sg68
(lp6514
g61
(g70
g63
NtRp6515
(dp6516
g66
(dp6517
g74
I4
ssg75
Nsg68
(lp6518
sbasbasbasbag61
(g77
g63
NtRp6519
(dp6520
g66
(dp6521
sg75
g5166
sg68
(lp6522
g61
(g82
g63
NtRp6523
(dp6524
g66
(dp6525
g86
g87
ssg75
g6519
sg68
(lp6526
S'session_file'
p6527
asbag61
(g82
g63
NtRp6528
(dp6529
g66
(dp6530
g93
g94
ssg75
g6519
sg68
(lp6531
S':'
asbag61
(g82
g63
NtRp6532
(dp6533
g66
(dp6534
sg75
g6519
sg68
(lp6535
g61
(g62
g63
NtRp6536
(dp6537
g66
(dp6538
g74
I5
ssg75
g6532
sg68
(lp6539
S"<open file '/home/ian/web/web2py/applications/paideia/sessions/127.0.0.1-d6bcece8-2742-4dcd-9d50-e8b957d71ddc', mode 'rb+' at 0x7f89c020c150>"
p6540
asbasbasbag61
(g77
g63
NtRp6541
(dp6542
g66
(dp6543
sg75
g5166
sg68
(lp6544
g61
(g82
g63
NtRp6545
(dp6546
g66
(dp6547
g86
g87
ssg75
g6541
sg68
(lp6548
S'session_filename'
p6549
asbag61
(g82
g63
NtRp6550
(dp6551
g66
(dp6552
g93
g94
ssg75
g6541
sg68
(lp6553
S':'
asbag61
(g82
g63
NtRp6554
(dp6555
g66
(dp6556
sg75
g6541
sg68
(lp6557
g61
(g62
g63
NtRp6558
(dp6559
g66
(dp6560
g74
I5
ssg75
g6554
sg68
(lp6561
S'/home/ian/web/web2py/applications/paideia/sessions/127.0.0.1-d6bcece8-2742-4dcd-9d50-e8b957d71ddc'
p6562
asbasbasbag61
(g77
g63
NtRp6563
(dp6564
g66
(dp6565
sg75
g5166
sg68
(lp6566
g61
(g82
g63
NtRp6567
(dp6568
g66
(dp6569
g86
g87
ssg75
g6563
sg68
(lp6570
S'session_id'
p6571
asbag61
(g82
g63
NtRp6572
(dp6573
g66
(dp6574
g93
g94
ssg75
g6563
sg68
(lp6575
S':'
asbag61
(g82
g63
NtRp6576
(dp6577
g66
(dp6578
sg75
g6563
sg68
(lp6579
g61
(g62
g63
NtRp6580
(dp6581
g66
(dp6582
g74
I5
ssg75
g6576
sg68
(lp6583
S'127.0.0.1-d6bcece8-2742-4dcd-9d50-e8b957d71ddc'
p6584
asbasbasbag61
(g77
g63
NtRp6585
(dp6586
g66
(dp6587
sg75
g5166
sg68
(lp6588
g61
(g82
g63
NtRp6589
(dp6590
g66
(dp6591
g86
g87
ssg75
g6585
sg68
(lp6592
S'session_id_name'
p6593
asbag61
(g82
g63
NtRp6594
(dp6595
g66
(dp6596
g93
g94
ssg75
g6585
sg68
(lp6597
S':'
asbag61
(g82
g63
NtRp6598
(dp6599
g66
(dp6600
sg75
g6585
sg68
(lp6601
g61
(g62
g63
NtRp6602
(dp6603
g66
(dp6604
g74
I5
ssg75
g6598
sg68
(lp6605
g5223
asbasbasbag61
(g77
g63
NtRp6606
(dp6607
g66
(dp6608
sg75
g5166
sg68
(lp6609
g61
(g82
g63
NtRp6610
(dp6611
g66
(dp6612
g86
g87
ssg75
g6606
sg68
(lp6613
S'session_locked'
p6614
asbag61
(g82
g63
NtRp6615
(dp6616
g66
(dp6617
g93
g94
ssg75
g6606
sg68
(lp6618
S':'
asbag61
(g82
g63
NtRp6619
(dp6620
g66
(dp6621
sg75
g6606
sg68
(lp6622
g61
(g62
g63
NtRp6623
(dp6624
g66
(dp6625
g74
I5
ssg75
g6619
sg68
(lp6626
g104
asbasbasbag61
(g77
g63
NtRp6627
(dp6628
g66
(dp6629
sg75
g5166
sg68
(lp6630
g61
(g82
g63
NtRp6631
(dp6632
g66
(dp6633
g86
g87
ssg75
g6627
sg68
(lp6634
S'session_new'
p6635
asbag61
(g82
g63
NtRp6636
(dp6637
g66
(dp6638
g93
g94
ssg75
g6627
sg68
(lp6639
S':'
asbag61
(g82
g63
NtRp6640
(dp6641
g66
(dp6642
sg75
g6627
sg68
(lp6643
g61
(g62
g63
NtRp6644
(dp6645
g66
(dp6646
g74
I5
ssg75
g6640
sg68
(lp6647
g1184
asbasbasbag61
(g77
g63
NtRp6648
(dp6649
g66
(dp6650
sg75
g5166
sg68
(lp6651
g61
(g82
g63
NtRp6652
(dp6653
g66
(dp6654
g86
g87
ssg75
g6648
sg68
(lp6655
S'status'
p6656
asbag61
(g82
g63
NtRp6657
(dp6658
g66
(dp6659
g93
g94
ssg75
g6648
sg68
(lp6660
S':'
asbag61
(g82
g63
NtRp6661
(dp6662
g66
(dp6663
sg75
g6648
sg68
(lp6664
g61
(g62
g63
NtRp6665
(dp6666
g66
(dp6667
g74
I5
ssg75
g6661
sg68
(lp6668
S'200'
p6669
asbasbasbag61
(g77
g63
NtRp6670
(dp6671
g66
(dp6672
sg75
g5166
sg68
(lp6673
g61
(g82
g63
NtRp6674
(dp6675
g66
(dp6676
g86
g87
ssg75
g6670
sg68
(lp6677
S'subtitle'
p6678
asbag61
(g82
g63
NtRp6679
(dp6680
g66
(dp6681
g93
g94
ssg75
g6670
sg68
(lp6682
S':'
asbag61
(g82
g63
NtRp6683
(dp6684
g66
(dp6685
sg75
g6670
sg68
(lp6686
g61
(g62
g63
NtRp6687
(dp6688
g66
(dp6689
g74
I5
ssg75
g6683
sg68
(lp6690
g5685
(S's0\x00\x00\x00An online space for learning New Testament Greek'
tRp6691
asbasbasbag61
(g77
g63
NtRp6692
(dp6693
g66
(dp6694
sg75
g5166
sg68
(lp6695
g61
(g82
g63
NtRp6696
(dp6697
g66
(dp6698
g86
g87
ssg75
g6692
sg68
(lp6699
S'title'
p6700
asbag61
(g82
g63
NtRp6701
(dp6702
g66
(dp6703
g93
g94
ssg75
g6692
sg68
(lp6704
S':'
asbag61
(g82
g63
NtRp6705
(dp6706
g66
(dp6707
sg75
g6692
sg68
(lp6708
g61
(g62
g63
NtRp6709
(dp6710
g66
(dp6711
g74
I5
ssg75
g6705
sg68
(lp6712
g126
asbasbasbag61
(g77
g63
NtRp6713
(dp6714
g66
(dp6715
sg75
g5166
sg68
(lp6716
g61
(g82
g63
NtRp6717
(dp6718
g66
(dp6719
g86
g87
ssg75
g6713
sg68
(lp6720
g2674
asbag61
(g82
g63
NtRp6721
(dp6722
g66
(dp6723
g93
g94
ssg75
g6713
sg68
(lp6724
S':'
asbag61
(g82
g63
NtRp6725
(dp6726
g66
(dp6727
sg75
g6713
sg68
(lp6728
g61
(g62
g63
NtRp6729
(dp6730
g66
(dp6731
g74
I5
ssg75
g6725
sg68
(lp6732
g2687
asbasbasbag61
(g77
g63
NtRp6733
(dp6734
g66
(dp6735
sg75
g5166
sg68
(lp6736
g61
(g82
g63
NtRp6737
(dp6738
g66
(dp6739
g86
g87
ssg75
g6733
sg68
(lp6740
S'view'
p6741
asbag61
(g82
g63
NtRp6742
(dp6743
g66
(dp6744
g93
g94
ssg75
g6733
sg68
(lp6745
S':'
asbag61
(g82
g63
NtRp6746
(dp6747
g66
(dp6748
sg75
g6733
sg68
(lp6749
g61
(g62
g63
NtRp6750
(dp6751
g66
(dp6752
g74
I5
ssg75
g6746
sg68
(lp6753
S'exploring/index.load'
p6754
asbasbasbasbasbsS'locals'
p6755
(dp6756
S'a'
S'("SELECT  <built-in function id> FROM locations WHERE (locations.alias = \'domusA\');",)'
p6757
sS'self'
p6758
S'<gluon.dal.SQLiteAdapter object>'
p6759
sS'b'
g21
sS't0'
p6760
S'1331743365.735605'
p6761
sssS'traceback'
p6762
S'Traceback (most recent call last):\n  File "/home/ian/web/web2py/gluon/restricted.py", line 204, in restricted\n    exec ccode in environment\n  File "/home/ian/web/web2py/applications/paideia/controllers/exploring.py", line 125, in <module>\n  File "/home/ian/web/web2py/gluon/globals.py", line 172, in <lambda>\n    self._caller = lambda f: f()\n  File "/home/ian/web/web2py/gluon/tools.py", line 2533, in f\n    return action(*a, **b)\n  File "/home/ian/web/web2py/applications/paideia/controllers/exploring.py", line 115, in index\n    return step_init()\n  File "/home/ian/web/web2py/applications/paideia/controllers/exploring.py", line 22, in step_init\n    curr_loc = db(db.locations.alias == request.vars[\'loc\']).select(id).first()\n  File "/home/ian/web/web2py/gluon/dal.py", line 6333, in select\n    return self.db._adapter.select(self.query,fields,attributes)\n  File "/home/ian/web/web2py/gluon/dal.py", line 1282, in select\n    rows = response(sql)\n  File "/home/ian/web/web2py/gluon/dal.py", line 1272, in response\n    self.execute(sql)\n  File "/home/ian/web/web2py/gluon/dal.py", line 1359, in execute\n    return self.log_execute(*a, **b)\n  File "/home/ian/web/web2py/gluon/dal.py", line 1353, in log_execute\n    ret = self.cursor.execute(*a, **b)\nOperationalError: near "<": syntax error\n'
p6763
s.