(dp1
S'output'
p2
S''
sS'layer'
p3
S'/home/ian/web2py/applications/paideia/controllers/reporting.py'
p4
sS'code'
p5
S"# coding: utf8\n\n@auth.requires_membership(role='administrators')\ndef index():\n    reports = dict(attempts='Attemps Log',)\n    return dict(reports=reports)\n\n@auth.requires_membership(role='administrators')\ndef attempts():\n    form = SQLFORM.grid(db.attempt_log)\n    return dict(form = form)\n\n@auth.requires_membership(role='administrators')\ndef user():\n    # get student's user id and name\n    the_user = db.auth_user[request.args[0]]\n    the_name = the_user.last_name + ', ' + the_user.first_name\n    # create instance of paideia_stats class to calculate student performance\n    stats = paideia_stats(request.args[0])\n    # create dynamic grid to display list of all question attempts\n    form = SQLFORM.grid(db.attempt_log.name == request.args[0])\n\n    return dict(form=auth(), the_user = the_user, score_avg=stats.score_avg, total_len = stats.total_len, total_cat1 = stats.total_cat1, total_cat2 = stats.total_cat2, total_cat3 = stats.total_cat3, percent_cat1 = stats.percent_cat1, percent_cat2 = stats.percent_cat2, percent_cat3 = stats.percent_cat3, total_cat4 = stats.total_cat4, percent_cat4 = stats.percent_cat4)\n\nresponse._vars=response._caller(user)\n"
p6
sS'snapshot'
p7
(dp8
S'exception'
p9
(dp10
S'__hash__'
p11
S"<method-wrapper '__hash__' of exceptions.IndexError object>"
p12
sS'__setattr__'
p13
S"<method-wrapper '__setattr__' of exceptions.IndexError object>"
p14
sS'__reduce_ex__'
p15
S'<built-in method __reduce_ex__ of exceptions.IndexError object>'
p16
sS'__getslice__'
p17
S"<method-wrapper '__getslice__' of exceptions.IndexError object>"
p18
sS'__getitem__'
p19
S"<method-wrapper '__getitem__' of exceptions.IndexError object>"
p20
sS'__setstate__'
p21
S'<built-in method __setstate__ of exceptions.IndexError object>'
p22
sS'args'
p23
S"('list index out of range',)"
p24
sS'__reduce__'
p25
S'<built-in method __reduce__ of exceptions.IndexError object>'
p26
sS'__str__'
p27
S"<method-wrapper '__str__' of exceptions.IndexError object>"
p28
sS'__format__'
p29
S'<built-in method __format__ of exceptions.IndexError object>'
p30
sS'__getattribute__'
p31
S"<method-wrapper '__getattribute__' of exceptions.IndexError object>"
p32
sS'__class__'
p33
S"<type 'exceptions.IndexError'>"
p34
sS'__unicode__'
p35
S'<built-in method __unicode__ of exceptions.IndexError object>'
p36
sS'__delattr__'
p37
S"<method-wrapper '__delattr__' of exceptions.IndexError object>"
p38
sS'__subclasshook__'
p39
S'<built-in method __subclasshook__ of type object>'
p40
sS'__repr__'
p41
S"<method-wrapper '__repr__' of exceptions.IndexError object>"
p42
sS'__dict__'
p43
S'{}'
p44
sS'__sizeof__'
p45
S'<built-in method __sizeof__ of exceptions.IndexError object>'
p46
sS'__doc__'
p47
S"'Sequence index out of range.'"
p48
sS'__init__'
p49
S"<method-wrapper '__init__' of exceptions.IndexError object>"
p50
sS'__new__'
p51
S'<built-in method __new__ of type object>'
p52
ssS'evalue'
p53
S'list index out of range'
p54
sS'request'
p55
ccopy_reg
_reconstructor
p56
(cgluon.html
BEAUTIFY
p57
c__builtin__
object
p58
NtRp59
(dp60
S'attributes'
p61
(dp62
sS'components'
p63
(lp64
g56
(cgluon.html
TABLE
p65
g58
NtRp66
(dp67
g61
(dp68
S'level'
p69
I5
ssS'parent'
p70
Nsg63
(lp71
g56
(cgluon.html
TR
p72
g58
NtRp73
(dp74
g61
(dp75
sg70
g66
sg63
(lp76
g56
(cgluon.html
TD
p77
g58
NtRp78
(dp79
g61
(dp80
S'_style'
p81
S'font-weight:bold;'
p82
ssg70
g73
sg63
(lp83
S'ajax'
p84
asbag56
(g77
g58
NtRp85
(dp86
g61
(dp87
S'_valign'
p88
S'top'
p89
ssg70
g73
sg63
(lp90
S':'
asbag56
(g77
g58
NtRp91
(dp92
g61
(dp93
sg70
g73
sg63
(lp94
g56
(g57
g58
NtRp95
(dp96
g61
(dp97
g69
I5
ssg70
g91
sg63
(lp98
S'False'
p99
asbasbasbag56
(g72
g58
NtRp100
(dp101
g61
(dp102
sg70
g66
sg63
(lp103
g56
(g77
g58
NtRp104
(dp105
g61
(dp106
g81
g82
ssg70
g100
sg63
(lp107
S'application'
p108
asbag56
(g77
g58
NtRp109
(dp110
g61
(dp111
g88
g89
ssg70
g100
sg63
(lp112
S':'
asbag56
(g77
g58
NtRp113
(dp114
g61
(dp115
sg70
g100
sg63
(lp116
g56
(g57
g58
NtRp117
(dp118
g61
(dp119
g69
I5
ssg70
g113
sg63
(lp120
S'paideia'
p121
asbasbasbag56
(g72
g58
NtRp122
(dp123
g61
(dp124
sg70
g66
sg63
(lp125
g56
(g77
g58
NtRp126
(dp127
g61
(dp128
g81
g82
ssg70
g122
sg63
(lp129
g23
asbag56
(g77
g58
NtRp130
(dp131
g61
(dp132
g88
g89
ssg70
g122
sg63
(lp133
S':'
asbag56
(g77
g58
NtRp134
(dp135
g61
(dp136
sg70
g122
sg63
(lp137
g56
(g57
g58
NtRp138
(dp139
g61
(dp140
g69
I5
ssg70
g134
sg63
(lp141
g56
(g65
g58
NtRp142
(dp143
g61
(dp144
g69
I4
ssg70
Nsg63
(lp145
sbasbasbasbag56
(g72
g58
NtRp146
(dp147
g61
(dp148
sg70
g66
sg63
(lp149
g56
(g77
g58
NtRp150
(dp151
g61
(dp152
g81
g82
ssg70
g146
sg63
(lp153
S'body'
p154
asbag56
(g77
g58
NtRp155
(dp156
g61
(dp157
g88
g89
ssg70
g146
sg63
(lp158
S':'
asbag56
(g77
g58
NtRp159
(dp160
g61
(dp161
sg70
g146
sg63
(lp162
g56
(g57
g58
NtRp163
(dp164
g61
(dp165
g69
I5
ssg70
g159
sg63
(lp166
S'<cStringIO.StringO object at 0x2eab768>'
p167
asbasbasbag56
(g72
g58
NtRp168
(dp169
g61
(dp170
sg70
g66
sg63
(lp171
g56
(g77
g58
NtRp172
(dp173
g61
(dp174
g81
g82
ssg70
g168
sg63
(lp175
S'client'
p176
asbag56
(g77
g58
NtRp177
(dp178
g61
(dp179
g88
g89
ssg70
g168
sg63
(lp180
S':'
asbag56
(g77
g58
NtRp181
(dp182
g61
(dp183
sg70
g168
sg63
(lp184
g56
(g57
g58
NtRp185
(dp186
g61
(dp187
g69
I5
ssg70
g181
sg63
(lp188
S'127.0.0.1'
p189
asbasbasbag56
(g72
g58
NtRp190
(dp191
g61
(dp192
sg70
g66
sg63
(lp193
g56
(g77
g58
NtRp194
(dp195
g61
(dp196
g81
g82
ssg70
g190
sg63
(lp197
S'controller'
p198
asbag56
(g77
g58
NtRp199
(dp200
g61
(dp201
g88
g89
ssg70
g190
sg63
(lp202
S':'
asbag56
(g77
g58
NtRp203
(dp204
g61
(dp205
sg70
g190
sg63
(lp206
g56
(g57
g58
NtRp207
(dp208
g61
(dp209
g69
I5
ssg70
g203
sg63
(lp210
S'reporting'
p211
asbasbasbag56
(g72
g58
NtRp212
(dp213
g61
(dp214
sg70
g66
sg63
(lp215
g56
(g77
g58
NtRp216
(dp217
g61
(dp218
g81
g82
ssg70
g212
sg63
(lp219
S'cookies'
p220
asbag56
(g77
g58
NtRp221
(dp222
g61
(dp223
g88
g89
ssg70
g212
sg63
(lp224
S':'
asbag56
(g77
g58
NtRp225
(dp226
g61
(dp227
sg70
g212
sg63
(lp228
g56
(g57
g58
NtRp229
(dp230
g61
(dp231
g69
I5
ssg70
g225
sg63
(lp232
g56
(g65
g58
NtRp233
(dp234
g61
(dp235
g69
I4
ssg70
Nsg63
(lp236
g56
(g72
g58
NtRp237
(dp238
g61
(dp239
sg70
g233
sg63
(lp240
g56
(g77
g58
NtRp241
(dp242
g61
(dp243
g81
g82
ssg70
g237
sg63
(lp244
S'session_id_admin'
p245
asbag56
(g77
g58
NtRp246
(dp247
g61
(dp248
g88
g89
ssg70
g237
sg63
(lp249
S':'
asbag56
(g77
g58
NtRp250
(dp251
g61
(dp252
sg70
g237
sg63
(lp253
g56
(g57
g58
NtRp254
(dp255
g61
(dp256
g69
I4
ssg70
g250
sg63
(lp257
g56
(g65
g58
NtRp258
(dp259
g61
(dp260
g69
I3
ssg70
Nsg63
(lp261
g56
(g72
g58
NtRp262
(dp263
g61
(dp264
sg70
g258
sg63
(lp265
g56
(g77
g58
NtRp266
(dp267
g61
(dp268
g81
g82
ssg70
g262
sg63
(lp269
S'comment'
p270
asbag56
(g77
g58
NtRp271
(dp272
g61
(dp273
g88
g89
ssg70
g262
sg63
(lp274
S':'
asbag56
(g77
g58
NtRp275
(dp276
g61
(dp277
sg70
g262
sg63
(lp278
g56
(g57
g58
NtRp279
(dp280
g61
(dp281
g69
I3
ssg70
g275
sg63
(lp282
S''
asbasbasbag56
(g72
g58
NtRp283
(dp284
g61
(dp285
sg70
g258
sg63
(lp286
g56
(g77
g58
NtRp287
(dp288
g61
(dp289
g81
g82
ssg70
g283
sg63
(lp290
S'domain'
p291
asbag56
(g77
g58
NtRp292
(dp293
g61
(dp294
g88
g89
ssg70
g283
sg63
(lp295
S':'
asbag56
(g77
g58
NtRp296
(dp297
g61
(dp298
sg70
g283
sg63
(lp299
g56
(g57
g58
NtRp300
(dp301
g61
(dp302
g69
I3
ssg70
g296
sg63
(lp303
S''
asbasbasbag56
(g72
g58
NtRp304
(dp305
g61
(dp306
sg70
g258
sg63
(lp307
g56
(g77
g58
NtRp308
(dp309
g61
(dp310
g81
g82
ssg70
g304
sg63
(lp311
S'expires'
p312
asbag56
(g77
g58
NtRp313
(dp314
g61
(dp315
g88
g89
ssg70
g304
sg63
(lp316
S':'
asbag56
(g77
g58
NtRp317
(dp318
g61
(dp319
sg70
g304
sg63
(lp320
g56
(g57
g58
NtRp321
(dp322
g61
(dp323
g69
I3
ssg70
g317
sg63
(lp324
S''
asbasbasbag56
(g72
g58
NtRp325
(dp326
g61
(dp327
sg70
g258
sg63
(lp328
g56
(g77
g58
NtRp329
(dp330
g61
(dp331
g81
g82
ssg70
g325
sg63
(lp332
S'httponly'
p333
asbag56
(g77
g58
NtRp334
(dp335
g61
(dp336
g88
g89
ssg70
g325
sg63
(lp337
S':'
asbag56
(g77
g58
NtRp338
(dp339
g61
(dp340
sg70
g325
sg63
(lp341
g56
(g57
g58
NtRp342
(dp343
g61
(dp344
g69
I3
ssg70
g338
sg63
(lp345
S''
asbasbasbag56
(g72
g58
NtRp346
(dp347
g61
(dp348
sg70
g258
sg63
(lp349
g56
(g77
g58
NtRp350
(dp351
g61
(dp352
g81
g82
ssg70
g346
sg63
(lp353
S'max-age'
p354
asbag56
(g77
g58
NtRp355
(dp356
g61
(dp357
g88
g89
ssg70
g346
sg63
(lp358
S':'
asbag56
(g77
g58
NtRp359
(dp360
g61
(dp361
sg70
g346
sg63
(lp362
g56
(g57
g58
NtRp363
(dp364
g61
(dp365
g69
I3
ssg70
g359
sg63
(lp366
S''
asbasbasbag56
(g72
g58
NtRp367
(dp368
g61
(dp369
sg70
g258
sg63
(lp370
g56
(g77
g58
NtRp371
(dp372
g61
(dp373
g81
g82
ssg70
g367
sg63
(lp374
S'path'
p375
asbag56
(g77
g58
NtRp376
(dp377
g61
(dp378
g88
g89
ssg70
g367
sg63
(lp379
S':'
asbag56
(g77
g58
NtRp380
(dp381
g61
(dp382
sg70
g367
sg63
(lp383
g56
(g57
g58
NtRp384
(dp385
g61
(dp386
g69
I3
ssg70
g380
sg63
(lp387
S''
asbasbasbag56
(g72
g58
NtRp388
(dp389
g61
(dp390
sg70
g258
sg63
(lp391
g56
(g77
g58
NtRp392
(dp393
g61
(dp394
g81
g82
ssg70
g388
sg63
(lp395
S'secure'
p396
asbag56
(g77
g58
NtRp397
(dp398
g61
(dp399
g88
g89
ssg70
g388
sg63
(lp400
S':'
asbag56
(g77
g58
NtRp401
(dp402
g61
(dp403
sg70
g388
sg63
(lp404
g56
(g57
g58
NtRp405
(dp406
g61
(dp407
g69
I3
ssg70
g401
sg63
(lp408
S''
asbasbasbag56
(g72
g58
NtRp409
(dp410
g61
(dp411
sg70
g258
sg63
(lp412
g56
(g77
g58
NtRp413
(dp414
g61
(dp415
g81
g82
ssg70
g409
sg63
(lp416
S'version'
p417
asbag56
(g77
g58
NtRp418
(dp419
g61
(dp420
g88
g89
ssg70
g409
sg63
(lp421
S':'
asbag56
(g77
g58
NtRp422
(dp423
g61
(dp424
sg70
g409
sg63
(lp425
g56
(g57
g58
NtRp426
(dp427
g61
(dp428
g69
I3
ssg70
g422
sg63
(lp429
S''
asbasbasbasbasbasbasbag56
(g72
g58
NtRp430
(dp431
g61
(dp432
sg70
g233
sg63
(lp433
g56
(g77
g58
NtRp434
(dp435
g61
(dp436
g81
g82
ssg70
g430
sg63
(lp437
S'session_id_paideia'
p438
asbag56
(g77
g58
NtRp439
(dp440
g61
(dp441
g88
g89
ssg70
g430
sg63
(lp442
S':'
asbag56
(g77
g58
NtRp443
(dp444
g61
(dp445
sg70
g430
sg63
(lp446
g56
(g57
g58
NtRp447
(dp448
g61
(dp449
g69
I4
ssg70
g443
sg63
(lp450
g56
(g65
g58
NtRp451
(dp452
g61
(dp453
g69
I3
ssg70
Nsg63
(lp454
g56
(g72
g58
NtRp455
(dp456
g61
(dp457
sg70
g451
sg63
(lp458
g56
(g77
g58
NtRp459
(dp460
g61
(dp461
g81
g82
ssg70
g455
sg63
(lp462
g270
asbag56
(g77
g58
NtRp463
(dp464
g61
(dp465
g88
g89
ssg70
g455
sg63
(lp466
S':'
asbag56
(g77
g58
NtRp467
(dp468
g61
(dp469
sg70
g455
sg63
(lp470
g56
(g57
g58
NtRp471
(dp472
g61
(dp473
g69
I3
ssg70
g467
sg63
(lp474
S''
asbasbasbag56
(g72
g58
NtRp475
(dp476
g61
(dp477
sg70
g451
sg63
(lp478
g56
(g77
g58
NtRp479
(dp480
g61
(dp481
g81
g82
ssg70
g475
sg63
(lp482
g291
asbag56
(g77
g58
NtRp483
(dp484
g61
(dp485
g88
g89
ssg70
g475
sg63
(lp486
S':'
asbag56
(g77
g58
NtRp487
(dp488
g61
(dp489
sg70
g475
sg63
(lp490
g56
(g57
g58
NtRp491
(dp492
g61
(dp493
g69
I3
ssg70
g487
sg63
(lp494
S''
asbasbasbag56
(g72
g58
NtRp495
(dp496
g61
(dp497
sg70
g451
sg63
(lp498
g56
(g77
g58
NtRp499
(dp500
g61
(dp501
g81
g82
ssg70
g495
sg63
(lp502
g312
asbag56
(g77
g58
NtRp503
(dp504
g61
(dp505
g88
g89
ssg70
g495
sg63
(lp506
S':'
asbag56
(g77
g58
NtRp507
(dp508
g61
(dp509
sg70
g495
sg63
(lp510
g56
(g57
g58
NtRp511
(dp512
g61
(dp513
g69
I3
ssg70
g507
sg63
(lp514
S''
asbasbasbag56
(g72
g58
NtRp515
(dp516
g61
(dp517
sg70
g451
sg63
(lp518
g56
(g77
g58
NtRp519
(dp520
g61
(dp521
g81
g82
ssg70
g515
sg63
(lp522
g333
asbag56
(g77
g58
NtRp523
(dp524
g61
(dp525
g88
g89
ssg70
g515
sg63
(lp526
S':'
asbag56
(g77
g58
NtRp527
(dp528
g61
(dp529
sg70
g515
sg63
(lp530
g56
(g57
g58
NtRp531
(dp532
g61
(dp533
g69
I3
ssg70
g527
sg63
(lp534
S''
asbasbasbag56
(g72
g58
NtRp535
(dp536
g61
(dp537
sg70
g451
sg63
(lp538
g56
(g77
g58
NtRp539
(dp540
g61
(dp541
g81
g82
ssg70
g535
sg63
(lp542
g354
asbag56
(g77
g58
NtRp543
(dp544
g61
(dp545
g88
g89
ssg70
g535
sg63
(lp546
S':'
asbag56
(g77
g58
NtRp547
(dp548
g61
(dp549
sg70
g535
sg63
(lp550
g56
(g57
g58
NtRp551
(dp552
g61
(dp553
g69
I3
ssg70
g547
sg63
(lp554
S''
asbasbasbag56
(g72
g58
NtRp555
(dp556
g61
(dp557
sg70
g451
sg63
(lp558
g56
(g77
g58
NtRp559
(dp560
g61
(dp561
g81
g82
ssg70
g555
sg63
(lp562
g375
asbag56
(g77
g58
NtRp563
(dp564
g61
(dp565
g88
g89
ssg70
g555
sg63
(lp566
S':'
asbag56
(g77
g58
NtRp567
(dp568
g61
(dp569
sg70
g555
sg63
(lp570
g56
(g57
g58
NtRp571
(dp572
g61
(dp573
g69
I3
ssg70
g567
sg63
(lp574
S''
asbasbasbag56
(g72
g58
NtRp575
(dp576
g61
(dp577
sg70
g451
sg63
(lp578
g56
(g77
g58
NtRp579
(dp580
g61
(dp581
g81
g82
ssg70
g575
sg63
(lp582
g396
asbag56
(g77
g58
NtRp583
(dp584
g61
(dp585
g88
g89
ssg70
g575
sg63
(lp586
S':'
asbag56
(g77
g58
NtRp587
(dp588
g61
(dp589
sg70
g575
sg63
(lp590
g56
(g57
g58
NtRp591
(dp592
g61
(dp593
g69
I3
ssg70
g587
sg63
(lp594
S''
asbasbasbag56
(g72
g58
NtRp595
(dp596
g61
(dp597
sg70
g451
sg63
(lp598
g56
(g77
g58
NtRp599
(dp600
g61
(dp601
g81
g82
ssg70
g595
sg63
(lp602
g417
asbag56
(g77
g58
NtRp603
(dp604
g61
(dp605
g88
g89
ssg70
g595
sg63
(lp606
S':'
asbag56
(g77
g58
NtRp607
(dp608
g61
(dp609
sg70
g595
sg63
(lp610
g56
(g57
g58
NtRp611
(dp612
g61
(dp613
g69
I3
ssg70
g607
sg63
(lp614
S''
asbasbasbasbasbasbasbag56
(g72
g58
NtRp615
(dp616
g61
(dp617
sg70
g233
sg63
(lp618
g56
(g77
g58
NtRp619
(dp620
g61
(dp621
g81
g82
ssg70
g615
sg63
(lp622
S'session_id_welcome'
p623
asbag56
(g77
g58
NtRp624
(dp625
g61
(dp626
g88
g89
ssg70
g615
sg63
(lp627
S':'
asbag56
(g77
g58
NtRp628
(dp629
g61
(dp630
sg70
g615
sg63
(lp631
g56
(g57
g58
NtRp632
(dp633
g61
(dp634
g69
I4
ssg70
g628
sg63
(lp635
g56
(g65
g58
NtRp636
(dp637
g61
(dp638
g69
I3
ssg70
Nsg63
(lp639
g56
(g72
g58
NtRp640
(dp641
g61
(dp642
sg70
g636
sg63
(lp643
g56
(g77
g58
NtRp644
(dp645
g61
(dp646
g81
g82
ssg70
g640
sg63
(lp647
g270
asbag56
(g77
g58
NtRp648
(dp649
g61
(dp650
g88
g89
ssg70
g640
sg63
(lp651
S':'
asbag56
(g77
g58
NtRp652
(dp653
g61
(dp654
sg70
g640
sg63
(lp655
g56
(g57
g58
NtRp656
(dp657
g61
(dp658
g69
I3
ssg70
g652
sg63
(lp659
S''
asbasbasbag56
(g72
g58
NtRp660
(dp661
g61
(dp662
sg70
g636
sg63
(lp663
g56
(g77
g58
NtRp664
(dp665
g61
(dp666
g81
g82
ssg70
g660
sg63
(lp667
g291
asbag56
(g77
g58
NtRp668
(dp669
g61
(dp670
g88
g89
ssg70
g660
sg63
(lp671
S':'
asbag56
(g77
g58
NtRp672
(dp673
g61
(dp674
sg70
g660
sg63
(lp675
g56
(g57
g58
NtRp676
(dp677
g61
(dp678
g69
I3
ssg70
g672
sg63
(lp679
S''
asbasbasbag56
(g72
g58
NtRp680
(dp681
g61
(dp682
sg70
g636
sg63
(lp683
g56
(g77
g58
NtRp684
(dp685
g61
(dp686
g81
g82
ssg70
g680
sg63
(lp687
g312
asbag56
(g77
g58
NtRp688
(dp689
g61
(dp690
g88
g89
ssg70
g680
sg63
(lp691
S':'
asbag56
(g77
g58
NtRp692
(dp693
g61
(dp694
sg70
g680
sg63
(lp695
g56
(g57
g58
NtRp696
(dp697
g61
(dp698
g69
I3
ssg70
g692
sg63
(lp699
S''
asbasbasbag56
(g72
g58
NtRp700
(dp701
g61
(dp702
sg70
g636
sg63
(lp703
g56
(g77
g58
NtRp704
(dp705
g61
(dp706
g81
g82
ssg70
g700
sg63
(lp707
g333
asbag56
(g77
g58
NtRp708
(dp709
g61
(dp710
g88
g89
ssg70
g700
sg63
(lp711
S':'
asbag56
(g77
g58
NtRp712
(dp713
g61
(dp714
sg70
g700
sg63
(lp715
g56
(g57
g58
NtRp716
(dp717
g61
(dp718
g69
I3
ssg70
g712
sg63
(lp719
S''
asbasbasbag56
(g72
g58
NtRp720
(dp721
g61
(dp722
sg70
g636
sg63
(lp723
g56
(g77
g58
NtRp724
(dp725
g61
(dp726
g81
g82
ssg70
g720
sg63
(lp727
g354
asbag56
(g77
g58
NtRp728
(dp729
g61
(dp730
g88
g89
ssg70
g720
sg63
(lp731
S':'
asbag56
(g77
g58
NtRp732
(dp733
g61
(dp734
sg70
g720
sg63
(lp735
g56
(g57
g58
NtRp736
(dp737
g61
(dp738
g69
I3
ssg70
g732
sg63
(lp739
S''
asbasbasbag56
(g72
g58
NtRp740
(dp741
g61
(dp742
sg70
g636
sg63
(lp743
g56
(g77
g58
NtRp744
(dp745
g61
(dp746
g81
g82
ssg70
g740
sg63
(lp747
g375
asbag56
(g77
g58
NtRp748
(dp749
g61
(dp750
g88
g89
ssg70
g740
sg63
(lp751
S':'
asbag56
(g77
g58
NtRp752
(dp753
g61
(dp754
sg70
g740
sg63
(lp755
g56
(g57
g58
NtRp756
(dp757
g61
(dp758
g69
I3
ssg70
g752
sg63
(lp759
S''
asbasbasbag56
(g72
g58
NtRp760
(dp761
g61
(dp762
sg70
g636
sg63
(lp763
g56
(g77
g58
NtRp764
(dp765
g61
(dp766
g81
g82
ssg70
g760
sg63
(lp767
g396
asbag56
(g77
g58
NtRp768
(dp769
g61
(dp770
g88
g89
ssg70
g760
sg63
(lp771
S':'
asbag56
(g77
g58
NtRp772
(dp773
g61
(dp774
sg70
g760
sg63
(lp775
g56
(g57
g58
NtRp776
(dp777
g61
(dp778
g69
I3
ssg70
g772
sg63
(lp779
S''
asbasbasbag56
(g72
g58
NtRp780
(dp781
g61
(dp782
sg70
g636
sg63
(lp783
g56
(g77
g58
NtRp784
(dp785
g61
(dp786
g81
g82
ssg70
g780
sg63
(lp787
g417
asbag56
(g77
g58
NtRp788
(dp789
g61
(dp790
g88
g89
ssg70
g780
sg63
(lp791
S':'
asbag56
(g77
g58
NtRp792
(dp793
g61
(dp794
sg70
g780
sg63
(lp795
g56
(g57
g58
NtRp796
(dp797
g61
(dp798
g69
I3
ssg70
g792
sg63
(lp799
S''
asbasbasbasbasbasbasbasbasbasbasbag56
(g72
g58
NtRp800
(dp801
g61
(dp802
sg70
g66
sg63
(lp803
g56
(g77
g58
NtRp804
(dp805
g61
(dp806
g81
g82
ssg70
g800
sg63
(lp807
S'env'
p808
asbag56
(g77
g58
NtRp809
(dp810
g61
(dp811
g88
g89
ssg70
g800
sg63
(lp812
S':'
asbag56
(g77
g58
NtRp813
(dp814
g61
(dp815
sg70
g800
sg63
(lp816
g56
(g57
g58
NtRp817
(dp818
g61
(dp819
g69
I5
ssg70
g813
sg63
(lp820
g56
(g65
g58
NtRp821
(dp822
g61
(dp823
g69
I4
ssg70
Nsg63
(lp824
g56
(g72
g58
NtRp825
(dp826
g61
(dp827
sg70
g821
sg63
(lp828
g56
(g77
g58
NtRp829
(dp830
g61
(dp831
g81
g82
ssg70
g825
sg63
(lp832
S'app_folders'
p833
asbag56
(g77
g58
NtRp834
(dp835
g61
(dp836
g88
g89
ssg70
g825
sg63
(lp837
S':'
asbag56
(g77
g58
NtRp838
(dp839
g61
(dp840
sg70
g825
sg63
(lp841
g56
(g57
g58
NtRp842
(dp843
g61
(dp844
g69
I4
ssg70
g838
sg63
(lp845
S"set(['/home/ian/web2py/applications/welcome/', '/home/ian/web2py/applications/paideia/', '/home/ian/web2py/applications/admin/'])"
p846
asbasbasbag56
(g72
g58
NtRp847
(dp848
g61
(dp849
sg70
g821
sg63
(lp850
g56
(g77
g58
NtRp851
(dp852
g61
(dp853
g81
g82
ssg70
g847
sg63
(lp854
S'applications_parent'
p855
asbag56
(g77
g58
NtRp856
(dp857
g61
(dp858
g88
g89
ssg70
g847
sg63
(lp859
S':'
asbag56
(g77
g58
NtRp860
(dp861
g61
(dp862
sg70
g847
sg63
(lp863
g56
(g57
g58
NtRp864
(dp865
g61
(dp866
g69
I4
ssg70
g860
sg63
(lp867
S'/home/ian/web2py'
p868
asbasbasbag56
(g72
g58
NtRp869
(dp870
g61
(dp871
sg70
g821
sg63
(lp872
g56
(g77
g58
NtRp873
(dp874
g61
(dp875
g81
g82
ssg70
g869
sg63
(lp876
S'cmd_args'
p877
asbag56
(g77
g58
NtRp878
(dp879
g61
(dp880
g88
g89
ssg70
g869
sg63
(lp881
S':'
asbag56
(g77
g58
NtRp882
(dp883
g61
(dp884
sg70
g869
sg63
(lp885
g56
(g57
g58
NtRp886
(dp887
g61
(dp888
g69
I4
ssg70
g882
sg63
(lp889
g56
(g65
g58
NtRp890
(dp891
g61
(dp892
g69
I3
ssg70
Nsg63
(lp893
sbasbasbasbag56
(g72
g58
NtRp894
(dp895
g61
(dp896
sg70
g821
sg63
(lp897
g56
(g77
g58
NtRp898
(dp899
g61
(dp900
g81
g82
ssg70
g894
sg63
(lp901
S'cmd_options'
p902
asbag56
(g77
g58
NtRp903
(dp904
g61
(dp905
g88
g89
ssg70
g894
sg63
(lp906
S':'
asbag56
(g77
g58
NtRp907
(dp908
g61
(dp909
sg70
g894
sg63
(lp910
g56
(g57
g58
NtRp911
(dp912
g61
(dp913
g69
I4
ssg70
g907
sg63
(lp914
S"<Values at 0x25fb7e8: {'verbose': False, 'ip': '127.0.0.1', 'shutdown_timeout': 5, 'taskbar': False, 'nocron': False, 'pid_filename': 'httpserver.pid', 'maxthreads': None, 'softcron': False, 'server_name': 'Ariel-ubuntu', 'bpython': False, 'nogui': False, 'port': 8000, 'extcron': False, 'debuglevel': 30, 'test': None, 'folder': '/home/ian/web2py', 'config': '', 'import_models': False, 'winservice': '', 'shell': None, 'run': '', 'log_filename': 'httpserver.log', 'args': [''], 'ssl_ca_certificate': None, 'scheduler': None, 'profiler_filename': None, 'ssl_private_key': '', 'password': '<ask>', 'request_queue_size': 5, 'ssl_certificate': '', 'cronjob': False, 'plain': False, 'quiet': False, 'interfaces': None, 'minthreads': None, 'timeout': 10, 'numthreads': None, 'nobanner': False}>"
p915
asbasbasbag56
(g72
g58
NtRp916
(dp917
g61
(dp918
sg70
g821
sg63
(lp919
g56
(g77
g58
NtRp920
(dp921
g61
(dp922
g81
g82
ssg70
g916
sg63
(lp923
S'db_sessions'
p924
asbag56
(g77
g58
NtRp925
(dp926
g61
(dp927
g88
g89
ssg70
g916
sg63
(lp928
S':'
asbag56
(g77
g58
NtRp929
(dp930
g61
(dp931
sg70
g916
sg63
(lp932
g56
(g57
g58
NtRp933
(dp934
g61
(dp935
g69
I4
ssg70
g929
sg63
(lp936
S'set([])'
p937
asbasbasbag56
(g72
g58
NtRp938
(dp939
g61
(dp940
sg70
g821
sg63
(lp941
g56
(g77
g58
NtRp942
(dp943
g61
(dp944
g81
g82
ssg70
g938
sg63
(lp945
S'debugging'
p946
asbag56
(g77
g58
NtRp947
(dp948
g61
(dp949
g88
g89
ssg70
g938
sg63
(lp950
S':'
asbag56
(g77
g58
NtRp951
(dp952
g61
(dp953
sg70
g938
sg63
(lp954
g56
(g57
g58
NtRp955
(dp956
g61
(dp957
g69
I4
ssg70
g951
sg63
(lp958
g99
asbasbasbag56
(g72
g58
NtRp959
(dp960
g61
(dp961
sg70
g821
sg63
(lp962
g56
(g77
g58
NtRp963
(dp964
g61
(dp965
g81
g82
ssg70
g959
sg63
(lp966
S'gluon_parent'
p967
asbag56
(g77
g58
NtRp968
(dp969
g61
(dp970
g88
g89
ssg70
g959
sg63
(lp971
S':'
asbag56
(g77
g58
NtRp972
(dp973
g61
(dp974
sg70
g959
sg63
(lp975
g56
(g57
g58
NtRp976
(dp977
g61
(dp978
g69
I4
ssg70
g972
sg63
(lp979
S'/home/ian/web2py'
p980
asbasbasbag56
(g72
g58
NtRp981
(dp982
g61
(dp983
sg70
g821
sg63
(lp984
g56
(g77
g58
NtRp985
(dp986
g61
(dp987
g81
g82
ssg70
g981
sg63
(lp988
S'http_accept'
p989
asbag56
(g77
g58
NtRp990
(dp991
g61
(dp992
g88
g89
ssg70
g981
sg63
(lp993
S':'
asbag56
(g77
g58
NtRp994
(dp995
g61
(dp996
sg70
g981
sg63
(lp997
g56
(g57
g58
NtRp998
(dp999
g61
(dp1000
g69
I4
ssg70
g994
sg63
(lp1001
S'text/html,application/xhtml+xml,application/xml;q=0.9,*/*;q=0.8'
p1002
asbasbasbag56
(g72
g58
NtRp1003
(dp1004
g61
(dp1005
sg70
g821
sg63
(lp1006
g56
(g77
g58
NtRp1007
(dp1008
g61
(dp1009
g81
g82
ssg70
g1003
sg63
(lp1010
S'http_accept_encoding'
p1011
asbag56
(g77
g58
NtRp1012
(dp1013
g61
(dp1014
g88
g89
ssg70
g1003
sg63
(lp1015
S':'
asbag56
(g77
g58
NtRp1016
(dp1017
g61
(dp1018
sg70
g1003
sg63
(lp1019
g56
(g57
g58
NtRp1020
(dp1021
g61
(dp1022
g69
I4
ssg70
g1016
sg63
(lp1023
S'gzip, deflate'
p1024
asbasbasbag56
(g72
g58
NtRp1025
(dp1026
g61
(dp1027
sg70
g821
sg63
(lp1028
g56
(g77
g58
NtRp1029
(dp1030
g61
(dp1031
g81
g82
ssg70
g1025
sg63
(lp1032
S'http_accept_language'
p1033
asbag56
(g77
g58
NtRp1034
(dp1035
g61
(dp1036
g88
g89
ssg70
g1025
sg63
(lp1037
S':'
asbag56
(g77
g58
NtRp1038
(dp1039
g61
(dp1040
sg70
g1025
sg63
(lp1041
g56
(g57
g58
NtRp1042
(dp1043
g61
(dp1044
g69
I4
ssg70
g1038
sg63
(lp1045
S'en-us,en;q=0.5'
p1046
asbasbasbag56
(g72
g58
NtRp1047
(dp1048
g61
(dp1049
sg70
g821
sg63
(lp1050
g56
(g77
g58
NtRp1051
(dp1052
g61
(dp1053
g81
g82
ssg70
g1047
sg63
(lp1054
S'http_connection'
p1055
asbag56
(g77
g58
NtRp1056
(dp1057
g61
(dp1058
g88
g89
ssg70
g1047
sg63
(lp1059
S':'
asbag56
(g77
g58
NtRp1060
(dp1061
g61
(dp1062
sg70
g1047
sg63
(lp1063
g56
(g57
g58
NtRp1064
(dp1065
g61
(dp1066
g69
I4
ssg70
g1060
sg63
(lp1067
S'keep-alive'
p1068
asbasbasbag56
(g72
g58
NtRp1069
(dp1070
g61
(dp1071
sg70
g821
sg63
(lp1072
g56
(g77
g58
NtRp1073
(dp1074
g61
(dp1075
g81
g82
ssg70
g1069
sg63
(lp1076
S'http_cookie'
p1077
asbag56
(g77
g58
NtRp1078
(dp1079
g61
(dp1080
g88
g89
ssg70
g1069
sg63
(lp1081
S':'
asbag56
(g77
g58
NtRp1082
(dp1083
g61
(dp1084
sg70
g1069
sg63
(lp1085
g56
(g57
g58
NtRp1086
(dp1087
g61
(dp1088
g69
I4
ssg70
g1082
sg63
(lp1089
S'session_id_welcome=127.0.0.1-fb4a6811-9141-434e-9380-5f00b7cb3ff0; session_id_paideia=127.0.0.1-db4e5261-f025-4e90-8dbf-852417ffd863; session_id_admin=127.0.0.1-7d8f7ae8-aa11-4af9-990e-518a07b7cff5'
p1090
asbasbasbag56
(g72
g58
NtRp1091
(dp1092
g61
(dp1093
sg70
g821
sg63
(lp1094
g56
(g77
g58
NtRp1095
(dp1096
g61
(dp1097
g81
g82
ssg70
g1091
sg63
(lp1098
S'http_host'
p1099
asbag56
(g77
g58
NtRp1100
(dp1101
g61
(dp1102
g88
g89
ssg70
g1091
sg63
(lp1103
S':'
asbag56
(g77
g58
NtRp1104
(dp1105
g61
(dp1106
sg70
g1091
sg63
(lp1107
g56
(g57
g58
NtRp1108
(dp1109
g61
(dp1110
g69
I4
ssg70
g1104
sg63
(lp1111
S'127.0.0.1:8000'
p1112
asbasbasbag56
(g72
g58
NtRp1113
(dp1114
g61
(dp1115
sg70
g821
sg63
(lp1116
g56
(g77
g58
NtRp1117
(dp1118
g61
(dp1119
g81
g82
ssg70
g1113
sg63
(lp1120
S'http_user_agent'
p1121
asbag56
(g77
g58
NtRp1122
(dp1123
g61
(dp1124
g88
g89
ssg70
g1113
sg63
(lp1125
S':'
asbag56
(g77
g58
NtRp1126
(dp1127
g61
(dp1128
sg70
g1113
sg63
(lp1129
g56
(g57
g58
NtRp1130
(dp1131
g61
(dp1132
g69
I4
ssg70
g1126
sg63
(lp1133
S'Mozilla/5.0 (Ubuntu; X11; Linux x86_64; rv:9.0a2) Gecko/20111022 Firefox/9.0a2'
p1134
asbasbasbag56
(g72
g58
NtRp1135
(dp1136
g61
(dp1137
sg70
g821
sg63
(lp1138
g56
(g77
g58
NtRp1139
(dp1140
g61
(dp1141
g81
g82
ssg70
g1135
sg63
(lp1142
S'is_jython'
p1143
asbag56
(g77
g58
NtRp1144
(dp1145
g61
(dp1146
g88
g89
ssg70
g1135
sg63
(lp1147
S':'
asbag56
(g77
g58
NtRp1148
(dp1149
g61
(dp1150
sg70
g1135
sg63
(lp1151
g56
(g57
g58
NtRp1152
(dp1153
g61
(dp1154
g69
I4
ssg70
g1148
sg63
(lp1155
g99
asbasbasbag56
(g72
g58
NtRp1156
(dp1157
g61
(dp1158
sg70
g821
sg63
(lp1159
g56
(g77
g58
NtRp1160
(dp1161
g61
(dp1162
g81
g82
ssg70
g1156
sg63
(lp1163
S'path_info'
p1164
asbag56
(g77
g58
NtRp1165
(dp1166
g61
(dp1167
g88
g89
ssg70
g1156
sg63
(lp1168
S':'
asbag56
(g77
g58
NtRp1169
(dp1170
g61
(dp1171
sg70
g1156
sg63
(lp1172
g56
(g57
g58
NtRp1173
(dp1174
g61
(dp1175
g69
I4
ssg70
g1169
sg63
(lp1176
S'/paideia/reporting/user/'
p1177
asbasbasbag56
(g72
g58
NtRp1178
(dp1179
g61
(dp1180
sg70
g821
sg63
(lp1181
g56
(g77
g58
NtRp1182
(dp1183
g61
(dp1184
g81
g82
ssg70
g1178
sg63
(lp1185
S'query_string'
p1186
asbag56
(g77
g58
NtRp1187
(dp1188
g61
(dp1189
g88
g89
ssg70
g1178
sg63
(lp1190
S':'
asbag56
(g77
g58
NtRp1191
(dp1192
g61
(dp1193
sg70
g1178
sg63
(lp1194
g56
(g57
g58
NtRp1195
(dp1196
g61
(dp1197
g69
I4
ssg70
g1191
sg63
(lp1198
S''
asbasbasbag56
(g72
g58
NtRp1199
(dp1200
g61
(dp1201
sg70
g821
sg63
(lp1202
g56
(g77
g58
NtRp1203
(dp1204
g61
(dp1205
g81
g82
ssg70
g1199
sg63
(lp1206
S'remote_addr'
p1207
asbag56
(g77
g58
NtRp1208
(dp1209
g61
(dp1210
g88
g89
ssg70
g1199
sg63
(lp1211
S':'
asbag56
(g77
g58
NtRp1212
(dp1213
g61
(dp1214
sg70
g1199
sg63
(lp1215
g56
(g57
g58
NtRp1216
(dp1217
g61
(dp1218
g69
I4
ssg70
g1212
sg63
(lp1219
g189
asbasbasbag56
(g72
g58
NtRp1220
(dp1221
g61
(dp1222
sg70
g821
sg63
(lp1223
g56
(g77
g58
NtRp1224
(dp1225
g61
(dp1226
g81
g82
ssg70
g1220
sg63
(lp1227
S'remote_port'
p1228
asbag56
(g77
g58
NtRp1229
(dp1230
g61
(dp1231
g88
g89
ssg70
g1220
sg63
(lp1232
S':'
asbag56
(g77
g58
NtRp1233
(dp1234
g61
(dp1235
sg70
g1220
sg63
(lp1236
g56
(g57
g58
NtRp1237
(dp1238
g61
(dp1239
g69
I4
ssg70
g1233
sg63
(lp1240
S'45741'
p1241
asbasbasbag56
(g72
g58
NtRp1242
(dp1243
g61
(dp1244
sg70
g821
sg63
(lp1245
g56
(g77
g58
NtRp1246
(dp1247
g61
(dp1248
g81
g82
ssg70
g1242
sg63
(lp1249
S'request_method'
p1250
asbag56
(g77
g58
NtRp1251
(dp1252
g61
(dp1253
g88
g89
ssg70
g1242
sg63
(lp1254
S':'
asbag56
(g77
g58
NtRp1255
(dp1256
g61
(dp1257
sg70
g1242
sg63
(lp1258
g56
(g57
g58
NtRp1259
(dp1260
g61
(dp1261
g69
I4
ssg70
g1255
sg63
(lp1262
S'GET'
p1263
asbasbasbag56
(g72
g58
NtRp1264
(dp1265
g61
(dp1266
sg70
g821
sg63
(lp1267
g56
(g77
g58
NtRp1268
(dp1269
g61
(dp1270
g81
g82
ssg70
g1264
sg63
(lp1271
S'script_name'
p1272
asbag56
(g77
g58
NtRp1273
(dp1274
g61
(dp1275
g88
g89
ssg70
g1264
sg63
(lp1276
S':'
asbag56
(g77
g58
NtRp1277
(dp1278
g61
(dp1279
sg70
g1264
sg63
(lp1280
g56
(g57
g58
NtRp1281
(dp1282
g61
(dp1283
g69
I4
ssg70
g1277
sg63
(lp1284
S''
asbasbasbag56
(g72
g58
NtRp1285
(dp1286
g61
(dp1287
sg70
g821
sg63
(lp1288
g56
(g77
g58
NtRp1289
(dp1290
g61
(dp1291
g81
g82
ssg70
g1285
sg63
(lp1292
S'server_name'
p1293
asbag56
(g77
g58
NtRp1294
(dp1295
g61
(dp1296
g88
g89
ssg70
g1285
sg63
(lp1297
S':'
asbag56
(g77
g58
NtRp1298
(dp1299
g61
(dp1300
sg70
g1285
sg63
(lp1301
g56
(g57
g58
NtRp1302
(dp1303
g61
(dp1304
g69
I4
ssg70
g1298
sg63
(lp1305
S'Ariel-ubuntu'
p1306
asbasbasbag56
(g72
g58
NtRp1307
(dp1308
g61
(dp1309
sg70
g821
sg63
(lp1310
g56
(g77
g58
NtRp1311
(dp1312
g61
(dp1313
g81
g82
ssg70
g1307
sg63
(lp1314
S'server_port'
p1315
asbag56
(g77
g58
NtRp1316
(dp1317
g61
(dp1318
g88
g89
ssg70
g1307
sg63
(lp1319
S':'
asbag56
(g77
g58
NtRp1320
(dp1321
g61
(dp1322
sg70
g1307
sg63
(lp1323
g56
(g57
g58
NtRp1324
(dp1325
g61
(dp1326
g69
I4
ssg70
g1320
sg63
(lp1327
S'8000'
p1328
asbasbasbag56
(g72
g58
NtRp1329
(dp1330
g61
(dp1331
sg70
g821
sg63
(lp1332
g56
(g77
g58
NtRp1333
(dp1334
g61
(dp1335
g81
g82
ssg70
g1329
sg63
(lp1336
S'server_protocol'
p1337
asbag56
(g77
g58
NtRp1338
(dp1339
g61
(dp1340
g88
g89
ssg70
g1329
sg63
(lp1341
S':'
asbag56
(g77
g58
NtRp1342
(dp1343
g61
(dp1344
sg70
g1329
sg63
(lp1345
g56
(g57
g58
NtRp1346
(dp1347
g61
(dp1348
g69
I4
ssg70
g1342
sg63
(lp1349
S'HTTP/1.1'
p1350
asbasbasbag56
(g72
g58
NtRp1351
(dp1352
g61
(dp1353
sg70
g821
sg63
(lp1354
g56
(g77
g58
NtRp1355
(dp1356
g61
(dp1357
g81
g82
ssg70
g1351
sg63
(lp1358
S'server_software'
p1359
asbag56
(g77
g58
NtRp1360
(dp1361
g61
(dp1362
g88
g89
ssg70
g1351
sg63
(lp1363
S':'
asbag56
(g77
g58
NtRp1364
(dp1365
g61
(dp1366
sg70
g1351
sg63
(lp1367
g56
(g57
g58
NtRp1368
(dp1369
g61
(dp1370
g69
I4
ssg70
g1364
sg63
(lp1371
S'Rocket 1.2.4'
p1372
asbasbasbag56
(g72
g58
NtRp1373
(dp1374
g61
(dp1375
sg70
g821
sg63
(lp1376
g56
(g77
g58
NtRp1377
(dp1378
g61
(dp1379
g81
g82
ssg70
g1373
sg63
(lp1380
S'web2py_crontype'
p1381
asbag56
(g77
g58
NtRp1382
(dp1383
g61
(dp1384
g88
g89
ssg70
g1373
sg63
(lp1385
S':'
asbag56
(g77
g58
NtRp1386
(dp1387
g61
(dp1388
sg70
g1373
sg63
(lp1389
g56
(g57
g58
NtRp1390
(dp1391
g61
(dp1392
g69
I4
ssg70
g1386
sg63
(lp1393
S'hard'
p1394
asbasbasbag56
(g72
g58
NtRp1395
(dp1396
g61
(dp1397
sg70
g821
sg63
(lp1398
g56
(g77
g58
NtRp1399
(dp1400
g61
(dp1401
g81
g82
ssg70
g1395
sg63
(lp1402
S'web2py_path'
p1403
asbag56
(g77
g58
NtRp1404
(dp1405
g61
(dp1406
g88
g89
ssg70
g1395
sg63
(lp1407
S':'
asbag56
(g77
g58
NtRp1408
(dp1409
g61
(dp1410
sg70
g1395
sg63
(lp1411
g56
(g57
g58
NtRp1412
(dp1413
g61
(dp1414
g69
I4
ssg70
g1408
sg63
(lp1415
g868
asbasbasbag56
(g72
g58
NtRp1416
(dp1417
g61
(dp1418
sg70
g821
sg63
(lp1419
g56
(g77
g58
NtRp1420
(dp1421
g61
(dp1422
g81
g82
ssg70
g1416
sg63
(lp1423
S'web2py_version'
p1424
asbag56
(g77
g58
NtRp1425
(dp1426
g61
(dp1427
g88
g89
ssg70
g1416
sg63
(lp1428
S':'
asbag56
(g77
g58
NtRp1429
(dp1430
g61
(dp1431
sg70
g1416
sg63
(lp1432
g56
(g57
g58
NtRp1433
(dp1434
g61
(dp1435
g69
I4
ssg70
g1429
sg63
(lp1436
g56
(g65
g58
NtRp1437
(dp1438
g61
(dp1439
g69
I3
ssg70
Nsg63
(lp1440
g56
(g72
g58
NtRp1441
(dp1442
g61
(dp1443
sg70
g1437
sg63
(lp1444
g56
(g77
g58
NtRp1445
(dp1446
g61
(dp1447
sg70
g1441
sg63
(lp1448
g56
(g57
g58
NtRp1449
(dp1450
g61
(dp1451
g69
I3
ssg70
g1445
sg63
(lp1452
S'1'
asbasbasbag56
(g72
g58
NtRp1453
(dp1454
g61
(dp1455
sg70
g1437
sg63
(lp1456
g56
(g77
g58
NtRp1457
(dp1458
g61
(dp1459
sg70
g1453
sg63
(lp1460
g56
(g57
g58
NtRp1461
(dp1462
g61
(dp1463
g69
I3
ssg70
g1457
sg63
(lp1464
S'99'
p1465
asbasbasbag56
(g72
g58
NtRp1466
(dp1467
g61
(dp1468
sg70
g1437
sg63
(lp1469
g56
(g77
g58
NtRp1470
(dp1471
g61
(dp1472
sg70
g1466
sg63
(lp1473
g56
(g57
g58
NtRp1474
(dp1475
g61
(dp1476
g69
I3
ssg70
g1470
sg63
(lp1477
S'2'
asbasbasbag56
(g72
g58
NtRp1478
(dp1479
g61
(dp1480
sg70
g1437
sg63
(lp1481
g56
(g77
g58
NtRp1482
(dp1483
g61
(dp1484
sg70
g1478
sg63
(lp1485
g56
(g57
g58
NtRp1486
(dp1487
g61
(dp1488
g69
I3
ssg70
g1482
sg63
(lp1489
S'datetime.datetime(2011, 9, 26, 6, 55, 33)'
p1490
asbasbasbag56
(g72
g58
NtRp1491
(dp1492
g61
(dp1493
sg70
g1437
sg63
(lp1494
g56
(g77
g58
NtRp1495
(dp1496
g61
(dp1497
sg70
g1491
sg63
(lp1498
g56
(g57
g58
NtRp1499
(dp1500
g61
(dp1501
g69
I3
ssg70
g1495
sg63
(lp1502
S'stable'
p1503
asbasbasbasbasbasbasbag56
(g72
g58
NtRp1504
(dp1505
g61
(dp1506
sg70
g821
sg63
(lp1507
g56
(g77
g58
NtRp1508
(dp1509
g61
(dp1510
g81
g82
ssg70
g1504
sg63
(lp1511
S'wsgi_errors'
p1512
asbag56
(g77
g58
NtRp1513
(dp1514
g61
(dp1515
g88
g89
ssg70
g1504
sg63
(lp1516
S':'
asbag56
(g77
g58
NtRp1517
(dp1518
g61
(dp1519
sg70
g1504
sg63
(lp1520
g56
(g57
g58
NtRp1521
(dp1522
g61
(dp1523
g69
I4
ssg70
g1517
sg63
(lp1524
S"<open file '<stderr>', mode 'w' at 0x7ffc36ebd270>"
p1525
asbasbasbag56
(g72
g58
NtRp1526
(dp1527
g61
(dp1528
sg70
g821
sg63
(lp1529
g56
(g77
g58
NtRp1530
(dp1531
g61
(dp1532
g81
g82
ssg70
g1526
sg63
(lp1533
S'wsgi_file_wrapper'
p1534
asbag56
(g77
g58
NtRp1535
(dp1536
g61
(dp1537
g88
g89
ssg70
g1526
sg63
(lp1538
S':'
asbag56
(g77
g58
NtRp1539
(dp1540
g61
(dp1541
sg70
g1526
sg63
(lp1542
g56
(g57
g58
NtRp1543
(dp1544
g61
(dp1545
g69
I4
ssg70
g1539
sg63
(lp1546
S'<class wsgiref.util.FileWrapper at 0x24c4808>'
p1547
asbasbasbag56
(g72
g58
NtRp1548
(dp1549
g61
(dp1550
sg70
g821
sg63
(lp1551
g56
(g77
g58
NtRp1552
(dp1553
g61
(dp1554
g81
g82
ssg70
g1548
sg63
(lp1555
S'wsgi_input'
p1556
asbag56
(g77
g58
NtRp1557
(dp1558
g61
(dp1559
g88
g89
ssg70
g1548
sg63
(lp1560
S':'
asbag56
(g77
g58
NtRp1561
(dp1562
g61
(dp1563
sg70
g1548
sg63
(lp1564
g56
(g57
g58
NtRp1565
(dp1566
g61
(dp1567
g69
I4
ssg70
g1561
sg63
(lp1568
S'<socket._fileobject object at 0x2f7fed0>'
p1569
asbasbasbag56
(g72
g58
NtRp1570
(dp1571
g61
(dp1572
sg70
g821
sg63
(lp1573
g56
(g77
g58
NtRp1574
(dp1575
g61
(dp1576
g81
g82
ssg70
g1570
sg63
(lp1577
S'wsgi_multiprocess'
p1578
asbag56
(g77
g58
NtRp1579
(dp1580
g61
(dp1581
g88
g89
ssg70
g1570
sg63
(lp1582
S':'
asbag56
(g77
g58
NtRp1583
(dp1584
g61
(dp1585
sg70
g1570
sg63
(lp1586
g56
(g57
g58
NtRp1587
(dp1588
g61
(dp1589
g69
I4
ssg70
g1583
sg63
(lp1590
g99
asbasbasbag56
(g72
g58
NtRp1591
(dp1592
g61
(dp1593
sg70
g821
sg63
(lp1594
g56
(g77
g58
NtRp1595
(dp1596
g61
(dp1597
g81
g82
ssg70
g1591
sg63
(lp1598
S'wsgi_multithread'
p1599
asbag56
(g77
g58
NtRp1600
(dp1601
g61
(dp1602
g88
g89
ssg70
g1591
sg63
(lp1603
S':'
asbag56
(g77
g58
NtRp1604
(dp1605
g61
(dp1606
sg70
g1591
sg63
(lp1607
g56
(g57
g58
NtRp1608
(dp1609
g61
(dp1610
g69
I4
ssg70
g1604
sg63
(lp1611
S'True'
p1612
asbasbasbag56
(g72
g58
NtRp1613
(dp1614
g61
(dp1615
sg70
g821
sg63
(lp1616
g56
(g77
g58
NtRp1617
(dp1618
g61
(dp1619
g81
g82
ssg70
g1613
sg63
(lp1620
S'wsgi_run_once'
p1621
asbag56
(g77
g58
NtRp1622
(dp1623
g61
(dp1624
g88
g89
ssg70
g1613
sg63
(lp1625
S':'
asbag56
(g77
g58
NtRp1626
(dp1627
g61
(dp1628
sg70
g1613
sg63
(lp1629
g56
(g57
g58
NtRp1630
(dp1631
g61
(dp1632
g69
I4
ssg70
g1626
sg63
(lp1633
g99
asbasbasbag56
(g72
g58
NtRp1634
(dp1635
g61
(dp1636
sg70
g821
sg63
(lp1637
g56
(g77
g58
NtRp1638
(dp1639
g61
(dp1640
g81
g82
ssg70
g1634
sg63
(lp1641
S'wsgi_url_scheme'
p1642
asbag56
(g77
g58
NtRp1643
(dp1644
g61
(dp1645
g88
g89
ssg70
g1634
sg63
(lp1646
S':'
asbag56
(g77
g58
NtRp1647
(dp1648
g61
(dp1649
sg70
g1634
sg63
(lp1650
g56
(g57
g58
NtRp1651
(dp1652
g61
(dp1653
g69
I4
ssg70
g1647
sg63
(lp1654
S'http'
p1655
asbasbasbag56
(g72
g58
NtRp1656
(dp1657
g61
(dp1658
sg70
g821
sg63
(lp1659
g56
(g77
g58
NtRp1660
(dp1661
g61
(dp1662
g81
g82
ssg70
g1656
sg63
(lp1663
S'wsgi_version'
p1664
asbag56
(g77
g58
NtRp1665
(dp1666
g61
(dp1667
g88
g89
ssg70
g1656
sg63
(lp1668
S':'
asbag56
(g77
g58
NtRp1669
(dp1670
g61
(dp1671
sg70
g1656
sg63
(lp1672
g56
(g57
g58
NtRp1673
(dp1674
g61
(dp1675
g69
I4
ssg70
g1669
sg63
(lp1676
g56
(g65
g58
NtRp1677
(dp1678
g61
(dp1679
g69
I3
ssg70
Nsg63
(lp1680
g56
(g72
g58
NtRp1681
(dp1682
g61
(dp1683
sg70
g1677
sg63
(lp1684
g56
(g77
g58
NtRp1685
(dp1686
g61
(dp1687
sg70
g1681
sg63
(lp1688
g56
(g57
g58
NtRp1689
(dp1690
g61
(dp1691
g69
I3
ssg70
g1685
sg63
(lp1692
S'1'
asbasbasbag56
(g72
g58
NtRp1693
(dp1694
g61
(dp1695
sg70
g1677
sg63
(lp1696
g56
(g77
g58
NtRp1697
(dp1698
g61
(dp1699
sg70
g1693
sg63
(lp1700
g56
(g57
g58
NtRp1701
(dp1702
g61
(dp1703
g69
I3
ssg70
g1697
sg63
(lp1704
S'0'
asbasbasbasbasbasbasbasbasbasbasbag56
(g72
g58
NtRp1705
(dp1706
g61
(dp1707
sg70
g66
sg63
(lp1708
g56
(g77
g58
NtRp1709
(dp1710
g61
(dp1711
g81
g82
ssg70
g1705
sg63
(lp1712
S'extension'
p1713
asbag56
(g77
g58
NtRp1714
(dp1715
g61
(dp1716
g88
g89
ssg70
g1705
sg63
(lp1717
S':'
asbag56
(g77
g58
NtRp1718
(dp1719
g61
(dp1720
sg70
g1705
sg63
(lp1721
g56
(g57
g58
NtRp1722
(dp1723
g61
(dp1724
g69
I5
ssg70
g1718
sg63
(lp1725
S'html'
p1726
asbasbasbag56
(g72
g58
NtRp1727
(dp1728
g61
(dp1729
sg70
g66
sg63
(lp1730
g56
(g77
g58
NtRp1731
(dp1732
g61
(dp1733
g81
g82
ssg70
g1727
sg63
(lp1734
S'folder'
p1735
asbag56
(g77
g58
NtRp1736
(dp1737
g61
(dp1738
g88
g89
ssg70
g1727
sg63
(lp1739
S':'
asbag56
(g77
g58
NtRp1740
(dp1741
g61
(dp1742
sg70
g1727
sg63
(lp1743
g56
(g57
g58
NtRp1744
(dp1745
g61
(dp1746
g69
I5
ssg70
g1740
sg63
(lp1747
S'/home/ian/web2py/applications/paideia/'
p1748
asbasbasbag56
(g72
g58
NtRp1749
(dp1750
g61
(dp1751
sg70
g66
sg63
(lp1752
g56
(g77
g58
NtRp1753
(dp1754
g61
(dp1755
g81
g82
ssg70
g1749
sg63
(lp1756
S'function'
p1757
asbag56
(g77
g58
NtRp1758
(dp1759
g61
(dp1760
g88
g89
ssg70
g1749
sg63
(lp1761
S':'
asbag56
(g77
g58
NtRp1762
(dp1763
g61
(dp1764
sg70
g1749
sg63
(lp1765
g56
(g57
g58
NtRp1766
(dp1767
g61
(dp1768
g69
I5
ssg70
g1762
sg63
(lp1769
S'user'
p1770
asbasbasbag56
(g72
g58
NtRp1771
(dp1772
g61
(dp1773
sg70
g66
sg63
(lp1774
g56
(g77
g58
NtRp1775
(dp1776
g61
(dp1777
g81
g82
ssg70
g1771
sg63
(lp1778
S'get_vars'
p1779
asbag56
(g77
g58
NtRp1780
(dp1781
g61
(dp1782
g88
g89
ssg70
g1771
sg63
(lp1783
S':'
asbag56
(g77
g58
NtRp1784
(dp1785
g61
(dp1786
sg70
g1771
sg63
(lp1787
g56
(g57
g58
NtRp1788
(dp1789
g61
(dp1790
g69
I5
ssg70
g1784
sg63
(lp1791
g56
(g65
g58
NtRp1792
(dp1793
g61
(dp1794
g69
I4
ssg70
Nsg63
(lp1795
sbasbasbasbag56
(g72
g58
NtRp1796
(dp1797
g61
(dp1798
sg70
g66
sg63
(lp1799
g56
(g77
g58
NtRp1800
(dp1801
g61
(dp1802
g81
g82
ssg70
g1796
sg63
(lp1803
S'global_settings'
p1804
asbag56
(g77
g58
NtRp1805
(dp1806
g61
(dp1807
g88
g89
ssg70
g1796
sg63
(lp1808
S':'
asbag56
(g77
g58
NtRp1809
(dp1810
g61
(dp1811
sg70
g1796
sg63
(lp1812
g56
(g57
g58
NtRp1813
(dp1814
g61
(dp1815
g69
I5
ssg70
g1809
sg63
(lp1816
g56
(g65
g58
NtRp1817
(dp1818
g61
(dp1819
g69
I4
ssg70
Nsg63
(lp1820
g56
(g72
g58
NtRp1821
(dp1822
g61
(dp1823
sg70
g1817
sg63
(lp1824
g56
(g77
g58
NtRp1825
(dp1826
g61
(dp1827
g81
g82
ssg70
g1821
sg63
(lp1828
g833
asbag56
(g77
g58
NtRp1829
(dp1830
g61
(dp1831
g88
g89
ssg70
g1821
sg63
(lp1832
S':'
asbag56
(g77
g58
NtRp1833
(dp1834
g61
(dp1835
sg70
g1821
sg63
(lp1836
g56
(g57
g58
NtRp1837
(dp1838
g61
(dp1839
g69
I4
ssg70
g1833
sg63
(lp1840
S"set(['/home/ian/web2py/applications/welcome/', '/home/ian/web2py/applications/paideia/', '/home/ian/web2py/applications/admin/'])"
p1841
asbasbasbag56
(g72
g58
NtRp1842
(dp1843
g61
(dp1844
sg70
g1817
sg63
(lp1845
g56
(g77
g58
NtRp1846
(dp1847
g61
(dp1848
g81
g82
ssg70
g1842
sg63
(lp1849
g855
asbag56
(g77
g58
NtRp1850
(dp1851
g61
(dp1852
g88
g89
ssg70
g1842
sg63
(lp1853
S':'
asbag56
(g77
g58
NtRp1854
(dp1855
g61
(dp1856
sg70
g1842
sg63
(lp1857
g56
(g57
g58
NtRp1858
(dp1859
g61
(dp1860
g69
I4
ssg70
g1854
sg63
(lp1861
g868
asbasbasbag56
(g72
g58
NtRp1862
(dp1863
g61
(dp1864
sg70
g1817
sg63
(lp1865
g56
(g77
g58
NtRp1866
(dp1867
g61
(dp1868
g81
g82
ssg70
g1862
sg63
(lp1869
g877
asbag56
(g77
g58
NtRp1870
(dp1871
g61
(dp1872
g88
g89
ssg70
g1862
sg63
(lp1873
S':'
asbag56
(g77
g58
NtRp1874
(dp1875
g61
(dp1876
sg70
g1862
sg63
(lp1877
g56
(g57
g58
NtRp1878
(dp1879
g61
(dp1880
g69
I4
ssg70
g1874
sg63
(lp1881
g56
(g65
g58
NtRp1882
(dp1883
g61
(dp1884
g69
I3
ssg70
Nsg63
(lp1885
sbasbasbasbag56
(g72
g58
NtRp1886
(dp1887
g61
(dp1888
sg70
g1817
sg63
(lp1889
g56
(g77
g58
NtRp1890
(dp1891
g61
(dp1892
g81
g82
ssg70
g1886
sg63
(lp1893
g902
asbag56
(g77
g58
NtRp1894
(dp1895
g61
(dp1896
g88
g89
ssg70
g1886
sg63
(lp1897
S':'
asbag56
(g77
g58
NtRp1898
(dp1899
g61
(dp1900
sg70
g1886
sg63
(lp1901
g56
(g57
g58
NtRp1902
(dp1903
g61
(dp1904
g69
I4
ssg70
g1898
sg63
(lp1905
S"<Values at 0x25fb7e8: {'verbose': False, 'ip': '127.0.0.1', 'shutdown_timeout': 5, 'taskbar': False, 'nocron': False, 'pid_filename': 'httpserver.pid', 'maxthreads': None, 'softcron': False, 'server_name': 'Ariel-ubuntu', 'bpython': False, 'nogui': False, 'port': 8000, 'extcron': False, 'debuglevel': 30, 'test': None, 'folder': '/home/ian/web2py', 'config': '', 'import_models': False, 'winservice': '', 'shell': None, 'run': '', 'log_filename': 'httpserver.log', 'args': [''], 'ssl_ca_certificate': None, 'scheduler': None, 'profiler_filename': None, 'ssl_private_key': '', 'password': '<ask>', 'request_queue_size': 5, 'ssl_certificate': '', 'cronjob': False, 'plain': False, 'quiet': False, 'interfaces': None, 'minthreads': None, 'timeout': 10, 'numthreads': None, 'nobanner': False}>"
p1906
asbasbasbag56
(g72
g58
NtRp1907
(dp1908
g61
(dp1909
sg70
g1817
sg63
(lp1910
g56
(g77
g58
NtRp1911
(dp1912
g61
(dp1913
g81
g82
ssg70
g1907
sg63
(lp1914
g924
asbag56
(g77
g58
NtRp1915
(dp1916
g61
(dp1917
g88
g89
ssg70
g1907
sg63
(lp1918
S':'
asbag56
(g77
g58
NtRp1919
(dp1920
g61
(dp1921
sg70
g1907
sg63
(lp1922
g56
(g57
g58
NtRp1923
(dp1924
g61
(dp1925
g69
I4
ssg70
g1919
sg63
(lp1926
S'set([])'
p1927
asbasbasbag56
(g72
g58
NtRp1928
(dp1929
g61
(dp1930
sg70
g1817
sg63
(lp1931
g56
(g77
g58
NtRp1932
(dp1933
g61
(dp1934
g81
g82
ssg70
g1928
sg63
(lp1935
g946
asbag56
(g77
g58
NtRp1936
(dp1937
g61
(dp1938
g88
g89
ssg70
g1928
sg63
(lp1939
S':'
asbag56
(g77
g58
NtRp1940
(dp1941
g61
(dp1942
sg70
g1928
sg63
(lp1943
g56
(g57
g58
NtRp1944
(dp1945
g61
(dp1946
g69
I4
ssg70
g1940
sg63
(lp1947
g99
asbasbasbag56
(g72
g58
NtRp1948
(dp1949
g61
(dp1950
sg70
g1817
sg63
(lp1951
g56
(g77
g58
NtRp1952
(dp1953
g61
(dp1954
g81
g82
ssg70
g1948
sg63
(lp1955
g967
asbag56
(g77
g58
NtRp1956
(dp1957
g61
(dp1958
g88
g89
ssg70
g1948
sg63
(lp1959
S':'
asbag56
(g77
g58
NtRp1960
(dp1961
g61
(dp1962
sg70
g1948
sg63
(lp1963
g56
(g57
g58
NtRp1964
(dp1965
g61
(dp1966
g69
I4
ssg70
g1960
sg63
(lp1967
g980
asbasbasbag56
(g72
g58
NtRp1968
(dp1969
g61
(dp1970
sg70
g1817
sg63
(lp1971
g56
(g77
g58
NtRp1972
(dp1973
g61
(dp1974
g81
g82
ssg70
g1968
sg63
(lp1975
g1143
asbag56
(g77
g58
NtRp1976
(dp1977
g61
(dp1978
g88
g89
ssg70
g1968
sg63
(lp1979
S':'
asbag56
(g77
g58
NtRp1980
(dp1981
g61
(dp1982
sg70
g1968
sg63
(lp1983
g56
(g57
g58
NtRp1984
(dp1985
g61
(dp1986
g69
I4
ssg70
g1980
sg63
(lp1987
g99
asbasbasbag56
(g72
g58
NtRp1988
(dp1989
g61
(dp1990
sg70
g1817
sg63
(lp1991
g56
(g77
g58
NtRp1992
(dp1993
g61
(dp1994
g81
g82
ssg70
g1988
sg63
(lp1995
g1381
asbag56
(g77
g58
NtRp1996
(dp1997
g61
(dp1998
g88
g89
ssg70
g1988
sg63
(lp1999
S':'
asbag56
(g77
g58
NtRp2000
(dp2001
g61
(dp2002
sg70
g1988
sg63
(lp2003
g56
(g57
g58
NtRp2004
(dp2005
g61
(dp2006
g69
I4
ssg70
g2000
sg63
(lp2007
g1394
asbasbasbag56
(g72
g58
NtRp2008
(dp2009
g61
(dp2010
sg70
g1817
sg63
(lp2011
g56
(g77
g58
NtRp2012
(dp2013
g61
(dp2014
g81
g82
ssg70
g2008
sg63
(lp2015
g1424
asbag56
(g77
g58
NtRp2016
(dp2017
g61
(dp2018
g88
g89
ssg70
g2008
sg63
(lp2019
S':'
asbag56
(g77
g58
NtRp2020
(dp2021
g61
(dp2022
sg70
g2008
sg63
(lp2023
g56
(g57
g58
NtRp2024
(dp2025
g61
(dp2026
g69
I4
ssg70
g2020
sg63
(lp2027
g56
(g65
g58
NtRp2028
(dp2029
g61
(dp2030
g69
I3
ssg70
Nsg63
(lp2031
g56
(g72
g58
NtRp2032
(dp2033
g61
(dp2034
sg70
g2028
sg63
(lp2035
g56
(g77
g58
NtRp2036
(dp2037
g61
(dp2038
sg70
g2032
sg63
(lp2039
g56
(g57
g58
NtRp2040
(dp2041
g61
(dp2042
g69
I3
ssg70
g2036
sg63
(lp2043
S'1'
asbasbasbag56
(g72
g58
NtRp2044
(dp2045
g61
(dp2046
sg70
g2028
sg63
(lp2047
g56
(g77
g58
NtRp2048
(dp2049
g61
(dp2050
sg70
g2044
sg63
(lp2051
g56
(g57
g58
NtRp2052
(dp2053
g61
(dp2054
g69
I3
ssg70
g2048
sg63
(lp2055
S'99'
p2056
asbasbasbag56
(g72
g58
NtRp2057
(dp2058
g61
(dp2059
sg70
g2028
sg63
(lp2060
g56
(g77
g58
NtRp2061
(dp2062
g61
(dp2063
sg70
g2057
sg63
(lp2064
g56
(g57
g58
NtRp2065
(dp2066
g61
(dp2067
g69
I3
ssg70
g2061
sg63
(lp2068
S'2'
asbasbasbag56
(g72
g58
NtRp2069
(dp2070
g61
(dp2071
sg70
g2028
sg63
(lp2072
g56
(g77
g58
NtRp2073
(dp2074
g61
(dp2075
sg70
g2069
sg63
(lp2076
g56
(g57
g58
NtRp2077
(dp2078
g61
(dp2079
g69
I3
ssg70
g2073
sg63
(lp2080
S'datetime.datetime(2011, 9, 26, 6, 55, 33)'
p2081
asbasbasbag56
(g72
g58
NtRp2082
(dp2083
g61
(dp2084
sg70
g2028
sg63
(lp2085
g56
(g77
g58
NtRp2086
(dp2087
g61
(dp2088
sg70
g2082
sg63
(lp2089
g56
(g57
g58
NtRp2090
(dp2091
g61
(dp2092
g69
I3
ssg70
g2086
sg63
(lp2093
g1503
asbasbasbasbasbasbasbasbasbasbasbag56
(g72
g58
NtRp2094
(dp2095
g61
(dp2096
sg70
g66
sg63
(lp2097
g56
(g77
g58
NtRp2098
(dp2099
g61
(dp2100
g81
g82
ssg70
g2094
sg63
(lp2101
S'is_https'
p2102
asbag56
(g77
g58
NtRp2103
(dp2104
g61
(dp2105
g88
g89
ssg70
g2094
sg63
(lp2106
S':'
asbag56
(g77
g58
NtRp2107
(dp2108
g61
(dp2109
sg70
g2094
sg63
(lp2110
g56
(g57
g58
NtRp2111
(dp2112
g61
(dp2113
g69
I5
ssg70
g2107
sg63
(lp2114
g99
asbasbasbag56
(g72
g58
NtRp2115
(dp2116
g61
(dp2117
sg70
g66
sg63
(lp2118
g56
(g77
g58
NtRp2119
(dp2120
g61
(dp2121
g81
g82
ssg70
g2115
sg63
(lp2122
S'is_local'
p2123
asbag56
(g77
g58
NtRp2124
(dp2125
g61
(dp2126
g88
g89
ssg70
g2115
sg63
(lp2127
S':'
asbag56
(g77
g58
NtRp2128
(dp2129
g61
(dp2130
sg70
g2115
sg63
(lp2131
g56
(g57
g58
NtRp2132
(dp2133
g61
(dp2134
g69
I5
ssg70
g2128
sg63
(lp2135
g1612
asbasbasbag56
(g72
g58
NtRp2136
(dp2137
g61
(dp2138
sg70
g66
sg63
(lp2139
g56
(g77
g58
NtRp2140
(dp2141
g61
(dp2142
g81
g82
ssg70
g2136
sg63
(lp2143
S'is_restful'
p2144
asbag56
(g77
g58
NtRp2145
(dp2146
g61
(dp2147
g88
g89
ssg70
g2136
sg63
(lp2148
S':'
asbag56
(g77
g58
NtRp2149
(dp2150
g61
(dp2151
sg70
g2136
sg63
(lp2152
g56
(g57
g58
NtRp2153
(dp2154
g61
(dp2155
g69
I5
ssg70
g2149
sg63
(lp2156
g99
asbasbasbag56
(g72
g58
NtRp2157
(dp2158
g61
(dp2159
sg70
g66
sg63
(lp2160
g56
(g77
g58
NtRp2161
(dp2162
g61
(dp2163
g81
g82
ssg70
g2157
sg63
(lp2164
S'now'
p2165
asbag56
(g77
g58
NtRp2166
(dp2167
g61
(dp2168
g88
g89
ssg70
g2157
sg63
(lp2169
S':'
asbag56
(g77
g58
NtRp2170
(dp2171
g61
(dp2172
sg70
g2157
sg63
(lp2173
g56
(g57
g58
NtRp2174
(dp2175
g61
(dp2176
g69
I5
ssg70
g2170
sg63
(lp2177
S'datetime.datetime(2011, 10, 24, 21, 39, 48, 970098)'
p2178
asbasbasbag56
(g72
g58
NtRp2179
(dp2180
g61
(dp2181
sg70
g66
sg63
(lp2182
g56
(g77
g58
NtRp2183
(dp2184
g61
(dp2185
g81
g82
ssg70
g2179
sg63
(lp2186
S'post_vars'
p2187
asbag56
(g77
g58
NtRp2188
(dp2189
g61
(dp2190
g88
g89
ssg70
g2179
sg63
(lp2191
S':'
asbag56
(g77
g58
NtRp2192
(dp2193
g61
(dp2194
sg70
g2179
sg63
(lp2195
g56
(g57
g58
NtRp2196
(dp2197
g61
(dp2198
g69
I5
ssg70
g2192
sg63
(lp2199
g56
(g65
g58
NtRp2200
(dp2201
g61
(dp2202
g69
I4
ssg70
Nsg63
(lp2203
sbasbasbasbag56
(g72
g58
NtRp2204
(dp2205
g61
(dp2206
sg70
g66
sg63
(lp2207
g56
(g77
g58
NtRp2208
(dp2209
g61
(dp2210
g81
g82
ssg70
g2204
sg63
(lp2211
S'raw_args'
p2212
asbag56
(g77
g58
NtRp2213
(dp2214
g61
(dp2215
g88
g89
ssg70
g2204
sg63
(lp2216
S':'
asbag56
(g77
g58
NtRp2217
(dp2218
g61
(dp2219
sg70
g2204
sg63
(lp2220
g56
(g57
g58
NtRp2221
(dp2222
g61
(dp2223
g69
I5
ssg70
g2217
sg63
(lp2224
S''
asbasbasbag56
(g72
g58
NtRp2225
(dp2226
g61
(dp2227
sg70
g66
sg63
(lp2228
g56
(g77
g58
NtRp2229
(dp2230
g61
(dp2231
g81
g82
ssg70
g2225
sg63
(lp2232
S'url'
p2233
asbag56
(g77
g58
NtRp2234
(dp2235
g61
(dp2236
g88
g89
ssg70
g2225
sg63
(lp2237
S':'
asbag56
(g77
g58
NtRp2238
(dp2239
g61
(dp2240
sg70
g2225
sg63
(lp2241
g56
(g57
g58
NtRp2242
(dp2243
g61
(dp2244
g69
I5
ssg70
g2238
sg63
(lp2245
S'/paideia/reporting/user'
p2246
asbasbasbag56
(g72
g58
NtRp2247
(dp2248
g61
(dp2249
sg70
g66
sg63
(lp2250
g56
(g77
g58
NtRp2251
(dp2252
g61
(dp2253
g81
g82
ssg70
g2247
sg63
(lp2254
S'utcnow'
p2255
asbag56
(g77
g58
NtRp2256
(dp2257
g61
(dp2258
g88
g89
ssg70
g2247
sg63
(lp2259
S':'
asbag56
(g77
g58
NtRp2260
(dp2261
g61
(dp2262
sg70
g2247
sg63
(lp2263
g56
(g57
g58
NtRp2264
(dp2265
g61
(dp2266
g69
I5
ssg70
g2260
sg63
(lp2267
S'datetime.datetime(2011, 10, 25, 1, 39, 48, 970171)'
p2268
asbasbasbag56
(g72
g58
NtRp2269
(dp2270
g61
(dp2271
sg70
g66
sg63
(lp2272
g56
(g77
g58
NtRp2273
(dp2274
g61
(dp2275
g81
g82
ssg70
g2269
sg63
(lp2276
S'uuid'
p2277
asbag56
(g77
g58
NtRp2278
(dp2279
g61
(dp2280
g88
g89
ssg70
g2269
sg63
(lp2281
S':'
asbag56
(g77
g58
NtRp2282
(dp2283
g61
(dp2284
sg70
g2269
sg63
(lp2285
g56
(g57
g58
NtRp2286
(dp2287
g61
(dp2288
g69
I5
ssg70
g2282
sg63
(lp2289
S'paideia/127.0.0.1.2011-10-24.21-39-48.6f40108a-ade7-4945-a2a2-001ff076eb23'
p2290
asbasbasbag56
(g72
g58
NtRp2291
(dp2292
g61
(dp2293
sg70
g66
sg63
(lp2294
g56
(g77
g58
NtRp2295
(dp2296
g61
(dp2297
g81
g82
ssg70
g2291
sg63
(lp2298
S'vars'
p2299
asbag56
(g77
g58
NtRp2300
(dp2301
g61
(dp2302
g88
g89
ssg70
g2291
sg63
(lp2303
S':'
asbag56
(g77
g58
NtRp2304
(dp2305
g61
(dp2306
sg70
g2291
sg63
(lp2307
g56
(g57
g58
NtRp2308
(dp2309
g61
(dp2310
g69
I5
ssg70
g2304
sg63
(lp2311
g56
(g65
g58
NtRp2312
(dp2313
g61
(dp2314
g69
I4
ssg70
Nsg63
(lp2315
sbasbasbasbag56
(g72
g58
NtRp2316
(dp2317
g61
(dp2318
sg70
g66
sg63
(lp2319
g56
(g77
g58
NtRp2320
(dp2321
g61
(dp2322
g81
g82
ssg70
g2316
sg63
(lp2323
S'wsgi'
p2324
asbag56
(g77
g58
NtRp2325
(dp2326
g61
(dp2327
g88
g89
ssg70
g2316
sg63
(lp2328
S':'
asbag56
(g77
g58
NtRp2329
(dp2330
g61
(dp2331
sg70
g2316
sg63
(lp2332
g56
(g57
g58
NtRp2333
(dp2334
g61
(dp2335
g69
I5
ssg70
g2329
sg63
(lp2336
g56
(g65
g58
NtRp2337
(dp2338
g61
(dp2339
g69
I4
ssg70
Nsg63
(lp2340
g56
(g72
g58
NtRp2341
(dp2342
g61
(dp2343
sg70
g2337
sg63
(lp2344
g56
(g77
g58
NtRp2345
(dp2346
g61
(dp2347
g81
g82
ssg70
g2341
sg63
(lp2348
S'environ'
p2349
asbag56
(g77
g58
NtRp2350
(dp2351
g61
(dp2352
g88
g89
ssg70
g2341
sg63
(lp2353
S':'
asbag56
(g77
g58
NtRp2354
(dp2355
g61
(dp2356
sg70
g2341
sg63
(lp2357
g56
(g57
g58
NtRp2358
(dp2359
g61
(dp2360
g69
I4
ssg70
g2354
sg63
(lp2361
g56
(g65
g58
NtRp2362
(dp2363
g61
(dp2364
g69
I3
ssg70
Nsg63
(lp2365
g56
(g72
g58
NtRp2366
(dp2367
g61
(dp2368
sg70
g2362
sg63
(lp2369
g56
(g77
g58
NtRp2370
(dp2371
g61
(dp2372
g81
g82
ssg70
g2366
sg63
(lp2373
S'HTTP_ACCEPT'
p2374
asbag56
(g77
g58
NtRp2375
(dp2376
g61
(dp2377
g88
g89
ssg70
g2366
sg63
(lp2378
S':'
asbag56
(g77
g58
NtRp2379
(dp2380
g61
(dp2381
sg70
g2366
sg63
(lp2382
g56
(g57
g58
NtRp2383
(dp2384
g61
(dp2385
g69
I3
ssg70
g2379
sg63
(lp2386
g1002
asbasbasbag56
(g72
g58
NtRp2387
(dp2388
g61
(dp2389
sg70
g2362
sg63
(lp2390
g56
(g77
g58
NtRp2391
(dp2392
g61
(dp2393
g81
g82
ssg70
g2387
sg63
(lp2394
S'HTTP_ACCEPT_ENCODING'
p2395
asbag56
(g77
g58
NtRp2396
(dp2397
g61
(dp2398
g88
g89
ssg70
g2387
sg63
(lp2399
S':'
asbag56
(g77
g58
NtRp2400
(dp2401
g61
(dp2402
sg70
g2387
sg63
(lp2403
g56
(g57
g58
NtRp2404
(dp2405
g61
(dp2406
g69
I3
ssg70
g2400
sg63
(lp2407
g1024
asbasbasbag56
(g72
g58
NtRp2408
(dp2409
g61
(dp2410
sg70
g2362
sg63
(lp2411
g56
(g77
g58
NtRp2412
(dp2413
g61
(dp2414
g81
g82
ssg70
g2408
sg63
(lp2415
S'HTTP_ACCEPT_LANGUAGE'
p2416
asbag56
(g77
g58
NtRp2417
(dp2418
g61
(dp2419
g88
g89
ssg70
g2408
sg63
(lp2420
S':'
asbag56
(g77
g58
NtRp2421
(dp2422
g61
(dp2423
sg70
g2408
sg63
(lp2424
g56
(g57
g58
NtRp2425
(dp2426
g61
(dp2427
g69
I3
ssg70
g2421
sg63
(lp2428
g1046
asbasbasbag56
(g72
g58
NtRp2429
(dp2430
g61
(dp2431
sg70
g2362
sg63
(lp2432
g56
(g77
g58
NtRp2433
(dp2434
g61
(dp2435
g81
g82
ssg70
g2429
sg63
(lp2436
S'HTTP_CONNECTION'
p2437
asbag56
(g77
g58
NtRp2438
(dp2439
g61
(dp2440
g88
g89
ssg70
g2429
sg63
(lp2441
S':'
asbag56
(g77
g58
NtRp2442
(dp2443
g61
(dp2444
sg70
g2429
sg63
(lp2445
g56
(g57
g58
NtRp2446
(dp2447
g61
(dp2448
g69
I3
ssg70
g2442
sg63
(lp2449
g1068
asbasbasbag56
(g72
g58
NtRp2450
(dp2451
g61
(dp2452
sg70
g2362
sg63
(lp2453
g56
(g77
g58
NtRp2454
(dp2455
g61
(dp2456
g81
g82
ssg70
g2450
sg63
(lp2457
S'HTTP_COOKIE'
p2458
asbag56
(g77
g58
NtRp2459
(dp2460
g61
(dp2461
g88
g89
ssg70
g2450
sg63
(lp2462
S':'
asbag56
(g77
g58
NtRp2463
(dp2464
g61
(dp2465
sg70
g2450
sg63
(lp2466
g56
(g57
g58
NtRp2467
(dp2468
g61
(dp2469
g69
I3
ssg70
g2463
sg63
(lp2470
g1090
asbasbasbag56
(g72
g58
NtRp2471
(dp2472
g61
(dp2473
sg70
g2362
sg63
(lp2474
g56
(g77
g58
NtRp2475
(dp2476
g61
(dp2477
g81
g82
ssg70
g2471
sg63
(lp2478
S'HTTP_HOST'
p2479
asbag56
(g77
g58
NtRp2480
(dp2481
g61
(dp2482
g88
g89
ssg70
g2471
sg63
(lp2483
S':'
asbag56
(g77
g58
NtRp2484
(dp2485
g61
(dp2486
sg70
g2471
sg63
(lp2487
g56
(g57
g58
NtRp2488
(dp2489
g61
(dp2490
g69
I3
ssg70
g2484
sg63
(lp2491
g1112
asbasbasbag56
(g72
g58
NtRp2492
(dp2493
g61
(dp2494
sg70
g2362
sg63
(lp2495
g56
(g77
g58
NtRp2496
(dp2497
g61
(dp2498
g81
g82
ssg70
g2492
sg63
(lp2499
S'HTTP_USER_AGENT'
p2500
asbag56
(g77
g58
NtRp2501
(dp2502
g61
(dp2503
g88
g89
ssg70
g2492
sg63
(lp2504
S':'
asbag56
(g77
g58
NtRp2505
(dp2506
g61
(dp2507
sg70
g2492
sg63
(lp2508
g56
(g57
g58
NtRp2509
(dp2510
g61
(dp2511
g69
I3
ssg70
g2505
sg63
(lp2512
g1134
asbasbasbag56
(g72
g58
NtRp2513
(dp2514
g61
(dp2515
sg70
g2362
sg63
(lp2516
g56
(g77
g58
NtRp2517
(dp2518
g61
(dp2519
g81
g82
ssg70
g2513
sg63
(lp2520
S'PATH_INFO'
p2521
asbag56
(g77
g58
NtRp2522
(dp2523
g61
(dp2524
g88
g89
ssg70
g2513
sg63
(lp2525
S':'
asbag56
(g77
g58
NtRp2526
(dp2527
g61
(dp2528
sg70
g2513
sg63
(lp2529
g56
(g57
g58
NtRp2530
(dp2531
g61
(dp2532
g69
I3
ssg70
g2526
sg63
(lp2533
g1177
asbasbasbag56
(g72
g58
NtRp2534
(dp2535
g61
(dp2536
sg70
g2362
sg63
(lp2537
g56
(g77
g58
NtRp2538
(dp2539
g61
(dp2540
g81
g82
ssg70
g2534
sg63
(lp2541
S'QUERY_STRING'
p2542
asbag56
(g77
g58
NtRp2543
(dp2544
g61
(dp2545
g88
g89
ssg70
g2534
sg63
(lp2546
S':'
asbag56
(g77
g58
NtRp2547
(dp2548
g61
(dp2549
sg70
g2534
sg63
(lp2550
g56
(g57
g58
NtRp2551
(dp2552
g61
(dp2553
g69
I3
ssg70
g2547
sg63
(lp2554
S''
asbasbasbag56
(g72
g58
NtRp2555
(dp2556
g61
(dp2557
sg70
g2362
sg63
(lp2558
g56
(g77
g58
NtRp2559
(dp2560
g61
(dp2561
g81
g82
ssg70
g2555
sg63
(lp2562
S'REMOTE_ADDR'
p2563
asbag56
(g77
g58
NtRp2564
(dp2565
g61
(dp2566
g88
g89
ssg70
g2555
sg63
(lp2567
S':'
asbag56
(g77
g58
NtRp2568
(dp2569
g61
(dp2570
sg70
g2555
sg63
(lp2571
g56
(g57
g58
NtRp2572
(dp2573
g61
(dp2574
g69
I3
ssg70
g2568
sg63
(lp2575
g189
asbasbasbag56
(g72
g58
NtRp2576
(dp2577
g61
(dp2578
sg70
g2362
sg63
(lp2579
g56
(g77
g58
NtRp2580
(dp2581
g61
(dp2582
g81
g82
ssg70
g2576
sg63
(lp2583
S'REMOTE_PORT'
p2584
asbag56
(g77
g58
NtRp2585
(dp2586
g61
(dp2587
g88
g89
ssg70
g2576
sg63
(lp2588
S':'
asbag56
(g77
g58
NtRp2589
(dp2590
g61
(dp2591
sg70
g2576
sg63
(lp2592
g56
(g57
g58
NtRp2593
(dp2594
g61
(dp2595
g69
I3
ssg70
g2589
sg63
(lp2596
g1241
asbasbasbag56
(g72
g58
NtRp2597
(dp2598
g61
(dp2599
sg70
g2362
sg63
(lp2600
g56
(g77
g58
NtRp2601
(dp2602
g61
(dp2603
g81
g82
ssg70
g2597
sg63
(lp2604
S'REQUEST_METHOD'
p2605
asbag56
(g77
g58
NtRp2606
(dp2607
g61
(dp2608
g88
g89
ssg70
g2597
sg63
(lp2609
S':'
asbag56
(g77
g58
NtRp2610
(dp2611
g61
(dp2612
sg70
g2597
sg63
(lp2613
g56
(g57
g58
NtRp2614
(dp2615
g61
(dp2616
g69
I3
ssg70
g2610
sg63
(lp2617
g1263
asbasbasbag56
(g72
g58
NtRp2618
(dp2619
g61
(dp2620
sg70
g2362
sg63
(lp2621
g56
(g77
g58
NtRp2622
(dp2623
g61
(dp2624
g81
g82
ssg70
g2618
sg63
(lp2625
S'SCRIPT_NAME'
p2626
asbag56
(g77
g58
NtRp2627
(dp2628
g61
(dp2629
g88
g89
ssg70
g2618
sg63
(lp2630
S':'
asbag56
(g77
g58
NtRp2631
(dp2632
g61
(dp2633
sg70
g2618
sg63
(lp2634
g56
(g57
g58
NtRp2635
(dp2636
g61
(dp2637
g69
I3
ssg70
g2631
sg63
(lp2638
S''
asbasbasbag56
(g72
g58
NtRp2639
(dp2640
g61
(dp2641
sg70
g2362
sg63
(lp2642
g56
(g77
g58
NtRp2643
(dp2644
g61
(dp2645
g81
g82
ssg70
g2639
sg63
(lp2646
S'SERVER_NAME'
p2647
asbag56
(g77
g58
NtRp2648
(dp2649
g61
(dp2650
g88
g89
ssg70
g2639
sg63
(lp2651
S':'
asbag56
(g77
g58
NtRp2652
(dp2653
g61
(dp2654
sg70
g2639
sg63
(lp2655
g56
(g57
g58
NtRp2656
(dp2657
g61
(dp2658
g69
I3
ssg70
g2652
sg63
(lp2659
g1306
asbasbasbag56
(g72
g58
NtRp2660
(dp2661
g61
(dp2662
sg70
g2362
sg63
(lp2663
g56
(g77
g58
NtRp2664
(dp2665
g61
(dp2666
g81
g82
ssg70
g2660
sg63
(lp2667
S'SERVER_PORT'
p2668
asbag56
(g77
g58
NtRp2669
(dp2670
g61
(dp2671
g88
g89
ssg70
g2660
sg63
(lp2672
S':'
asbag56
(g77
g58
NtRp2673
(dp2674
g61
(dp2675
sg70
g2660
sg63
(lp2676
g56
(g57
g58
NtRp2677
(dp2678
g61
(dp2679
g69
I3
ssg70
g2673
sg63
(lp2680
g1328
asbasbasbag56
(g72
g58
NtRp2681
(dp2682
g61
(dp2683
sg70
g2362
sg63
(lp2684
g56
(g77
g58
NtRp2685
(dp2686
g61
(dp2687
g81
g82
ssg70
g2681
sg63
(lp2688
S'SERVER_PROTOCOL'
p2689
asbag56
(g77
g58
NtRp2690
(dp2691
g61
(dp2692
g88
g89
ssg70
g2681
sg63
(lp2693
S':'
asbag56
(g77
g58
NtRp2694
(dp2695
g61
(dp2696
sg70
g2681
sg63
(lp2697
g56
(g57
g58
NtRp2698
(dp2699
g61
(dp2700
g69
I3
ssg70
g2694
sg63
(lp2701
g1350
asbasbasbag56
(g72
g58
NtRp2702
(dp2703
g61
(dp2704
sg70
g2362
sg63
(lp2705
g56
(g77
g58
NtRp2706
(dp2707
g61
(dp2708
g81
g82
ssg70
g2702
sg63
(lp2709
S'SERVER_SOFTWARE'
p2710
asbag56
(g77
g58
NtRp2711
(dp2712
g61
(dp2713
g88
g89
ssg70
g2702
sg63
(lp2714
S':'
asbag56
(g77
g58
NtRp2715
(dp2716
g61
(dp2717
sg70
g2702
sg63
(lp2718
g56
(g57
g58
NtRp2719
(dp2720
g61
(dp2721
g69
I3
ssg70
g2715
sg63
(lp2722
g1372
asbasbasbag56
(g72
g58
NtRp2723
(dp2724
g61
(dp2725
sg70
g2362
sg63
(lp2726
g56
(g77
g58
NtRp2727
(dp2728
g61
(dp2729
g81
g82
ssg70
g2723
sg63
(lp2730
S'wsgi.errors'
p2731
asbag56
(g77
g58
NtRp2732
(dp2733
g61
(dp2734
g88
g89
ssg70
g2723
sg63
(lp2735
S':'
asbag56
(g77
g58
NtRp2736
(dp2737
g61
(dp2738
sg70
g2723
sg63
(lp2739
g56
(g57
g58
NtRp2740
(dp2741
g61
(dp2742
g69
I3
ssg70
g2736
sg63
(lp2743
S"<open file '<stderr>', mode 'w' at 0x7ffc36ebd270>"
p2744
asbasbasbag56
(g72
g58
NtRp2745
(dp2746
g61
(dp2747
sg70
g2362
sg63
(lp2748
g56
(g77
g58
NtRp2749
(dp2750
g61
(dp2751
g81
g82
ssg70
g2745
sg63
(lp2752
S'wsgi.file_wrapper'
p2753
asbag56
(g77
g58
NtRp2754
(dp2755
g61
(dp2756
g88
g89
ssg70
g2745
sg63
(lp2757
S':'
asbag56
(g77
g58
NtRp2758
(dp2759
g61
(dp2760
sg70
g2745
sg63
(lp2761
g56
(g57
g58
NtRp2762
(dp2763
g61
(dp2764
g69
I3
ssg70
g2758
sg63
(lp2765
S'<class wsgiref.util.FileWrapper at 0x24c4808>'
p2766
asbasbasbag56
(g72
g58
NtRp2767
(dp2768
g61
(dp2769
sg70
g2362
sg63
(lp2770
g56
(g77
g58
NtRp2771
(dp2772
g61
(dp2773
g81
g82
ssg70
g2767
sg63
(lp2774
S'wsgi.input'
p2775
asbag56
(g77
g58
NtRp2776
(dp2777
g61
(dp2778
g88
g89
ssg70
g2767
sg63
(lp2779
S':'
asbag56
(g77
g58
NtRp2780
(dp2781
g61
(dp2782
sg70
g2767
sg63
(lp2783
g56
(g57
g58
NtRp2784
(dp2785
g61
(dp2786
g69
I3
ssg70
g2780
sg63
(lp2787
S'<cStringIO.StringO object at 0x2eab768>'
p2788
asbasbasbag56
(g72
g58
NtRp2789
(dp2790
g61
(dp2791
sg70
g2362
sg63
(lp2792
g56
(g77
g58
NtRp2793
(dp2794
g61
(dp2795
g81
g82
ssg70
g2789
sg63
(lp2796
S'wsgi.multiprocess'
p2797
asbag56
(g77
g58
NtRp2798
(dp2799
g61
(dp2800
g88
g89
ssg70
g2789
sg63
(lp2801
S':'
asbag56
(g77
g58
NtRp2802
(dp2803
g61
(dp2804
sg70
g2789
sg63
(lp2805
g56
(g57
g58
NtRp2806
(dp2807
g61
(dp2808
g69
I3
ssg70
g2802
sg63
(lp2809
g99
asbasbasbag56
(g72
g58
NtRp2810
(dp2811
g61
(dp2812
sg70
g2362
sg63
(lp2813
g56
(g77
g58
NtRp2814
(dp2815
g61
(dp2816
g81
g82
ssg70
g2810
sg63
(lp2817
S'wsgi.multithread'
p2818
asbag56
(g77
g58
NtRp2819
(dp2820
g61
(dp2821
g88
g89
ssg70
g2810
sg63
(lp2822
S':'
asbag56
(g77
g58
NtRp2823
(dp2824
g61
(dp2825
sg70
g2810
sg63
(lp2826
g56
(g57
g58
NtRp2827
(dp2828
g61
(dp2829
g69
I3
ssg70
g2823
sg63
(lp2830
g1612
asbasbasbag56
(g72
g58
NtRp2831
(dp2832
g61
(dp2833
sg70
g2362
sg63
(lp2834
g56
(g77
g58
NtRp2835
(dp2836
g61
(dp2837
g81
g82
ssg70
g2831
sg63
(lp2838
S'wsgi.run_once'
p2839
asbag56
(g77
g58
NtRp2840
(dp2841
g61
(dp2842
g88
g89
ssg70
g2831
sg63
(lp2843
S':'
asbag56
(g77
g58
NtRp2844
(dp2845
g61
(dp2846
sg70
g2831
sg63
(lp2847
g56
(g57
g58
NtRp2848
(dp2849
g61
(dp2850
g69
I3
ssg70
g2844
sg63
(lp2851
g99
asbasbasbag56
(g72
g58
NtRp2852
(dp2853
g61
(dp2854
sg70
g2362
sg63
(lp2855
g56
(g77
g58
NtRp2856
(dp2857
g61
(dp2858
g81
g82
ssg70
g2852
sg63
(lp2859
S'wsgi.url_scheme'
p2860
asbag56
(g77
g58
NtRp2861
(dp2862
g61
(dp2863
g88
g89
ssg70
g2852
sg63
(lp2864
S':'
asbag56
(g77
g58
NtRp2865
(dp2866
g61
(dp2867
sg70
g2852
sg63
(lp2868
g56
(g57
g58
NtRp2869
(dp2870
g61
(dp2871
g69
I3
ssg70
g2865
sg63
(lp2872
g1655
asbasbasbag56
(g72
g58
NtRp2873
(dp2874
g61
(dp2875
sg70
g2362
sg63
(lp2876
g56
(g77
g58
NtRp2877
(dp2878
g61
(dp2879
g81
g82
ssg70
g2873
sg63
(lp2880
S'wsgi.version'
p2881
asbag56
(g77
g58
NtRp2882
(dp2883
g61
(dp2884
g88
g89
ssg70
g2873
sg63
(lp2885
S':'
asbag56
(g77
g58
NtRp2886
(dp2887
g61
(dp2888
sg70
g2873
sg63
(lp2889
g56
(g57
g58
NtRp2890
(dp2891
g61
(dp2892
g69
I3
ssg70
g2886
sg63
(lp2893
S'1'
asbasbasbasbasbasbasbasbasbasbasbasbasbsS'frames'
p2894
(lp2895
(dp2896
S'file'
p2897
S'/home/ian/web2py/gluon/restricted.py'
p2898
sS'dump'
p2899
(dp2900
S'environment'
p2901
S"{'A': <class 'gluon.html.A'>, 'Auth': <class 'gluon.tools.Auth'>, 'B': <class 'gluon.html.B'>, 'BEAUTIFY': <class 'gluon.html.BEAUTIFY'>, 'BODY': <class 'gluon.html.BODY'>, 'BR': <class 'gluon.html.BR'>, 'BUTTON': <class 'gluon.html.BUTTON'>, 'CAT': <class 'gluon.html.CAT'>, 'CENTER': <class 'gluon.html.CENTER'>, 'CLEANUP': <class 'gluon.validators.CLEANUP'>, ...}"
p2902
sS'ccode'
p2903
S'<code object <module> at 0x451f8b0, file "/home/...ations/paideia/controllers/reporting.py", line 3>'
p2904
ssS'lnum'
p2905
I194
sS'lines'
p2906
(dp2907
I192
S'        else:'
p2908
sI193
S'            ccode = compile2(code,layer)'
p2909
sI194
S'        exec ccode in environment'
p2910
sI195
S'    except HTTP:'
p2911
sI196
S'        raise'
p2912
sI197
S'    except Exception, error:'
p2913
sI198
S'        # XXX Show exception in Wing IDE if running in debugger'
p2914
sI189
S'    try:'
p2915
sI190
S'        if type(code) == types.CodeType:'
p2916
sI191
S'            ccode = code'
p2917
ssS'call'
p2918
S'(code="# coding: utf8\\n\\n@auth.requires_membership(role=\'...ent_cat4)\\n\\nresponse._vars=response._caller(user)\\n", environment={\'A\': <class \'gluon.html.A\'>, \'Auth\': <class \'gluon.tools.Auth\'>, \'B\': <class \'gluon.html.B\'>, \'BEAUTIFY\': <class \'gluon.html.BEAUTIFY\'>, \'BODY\': <class \'gluon.html.BODY\'>, \'BR\': <class \'gluon.html.BR\'>, \'BUTTON\': <class \'gluon.html.BUTTON\'>, \'CAT\': <class \'gluon.html.CAT\'>, \'CENTER\': <class \'gluon.html.CENTER\'>, \'CLEANUP\': <class \'gluon.validators.CLEANUP\'>, ...}, layer=\'/home/ian/web2py/applications/paideia/controllers/reporting.py\')'
p2919
sS'func'
p2920
S'restricted'
p2921
sa(dp2922
g2897
S'/home/ian/web2py/applications/paideia/controllers/reporting.py'
p2923
sg2899
(dp2924
sg2905
I25
sg2906
(dp2925
I14
S'def user():'
p2926
sI15
S"    # get student's user id and name"
p2927
sI16
S'    the_user = db.auth_user[request.args[0]]'
p2928
sI17
S"    the_name = the_user.last_name + ', ' + the_user.first_name"
p2929
sI18
S'    # create instance of paideia_stats class to calculate student performance'
p2930
sI19
S'    stats = paideia_stats(request.args[0])'
p2931
sI20
S'    # create dynamic grid to display list of all question attempts'
p2932
sI21
S'    form = SQLFORM.grid(db.attempt_log.name == request.args[0])'
p2933
sI22
S''
sI23
S'    return dict(form=auth(), the_user = the_user, score_avg=stats.score_avg, total_len = stats.total_len, total_cat1 = stats.total_cat1, total_cat2 = stats.total_cat2, total_cat3 = stats.total_cat3, percent_cat1 = stats.percent_cat1, percent_cat2 = stats.percent_cat2, percent_cat3 = stats.percent_cat3, total_cat4 = stats.total_cat4, percent_cat4 = stats.percent_cat4)'
p2934
ssg2918
S'()'
p2935
sg2920
S'<module>'
p2936
sa(dp2937
g2897
S'/home/ian/web2py/gluon/globals.py'
p2938
sg2899
(dp2939
S'self'
p2940
S'undefined'
p2941
sS'f'
S'<function user>'
p2942
ssg2905
I149
sg2906
(dp2943
I144
S'        self.meta = Storage()      # used by web2py_ajax.html'
p2944
sI145
S'        self.menu = []             # used by the default view layout'
p2945
sI146
S'        self.files = []            # used by web2py_ajax.html'
p2946
sI147
S'        self.generic_patterns = [] # patterns to allow generic views'
p2947
sI148
S'        self._vars = None'
p2948
sI149
S'        self._caller = lambda f: f()'
p2949
sI150
S'        self._view_environment = None'
p2950
sI151
S'        self._custom_commit = None'
p2951
sI152
S'        self._custom_rollback = None'
p2952
sI153
S''
ssg2918
S'(f=<function user>)'
p2953
sg2920
S'<lambda>'
p2954
sa(dp2955
g2897
S'/home/ian/web2py/gluon/tools.py'
p2956
sg2899
(dp2957
S'action'
p2958
S'<function user>'
p2959
sS'a'
S'()'
p2960
sS'b'
g44
ssg2905
I2456
sg2906
(dp2961
I2451
S"                            '?_next='+urllib.quote(next))"
p2962
sI2452
S'                if not condition:'
p2963
sI2453
S'                    current.session.flash = self.messages.access_denied'
p2964
sI2454
S'                    return call_or_redirect('
p2965
sI2455
S'                        self.settings.on_failed_authorization)'
p2966
sI2456
S'                return action(*a, **b)'
p2967
sI2457
S'            f.__doc__ = action.__doc__'
p2968
sI2458
S'            f.__name__ = action.__name__'
p2969
sI2459
S'            f.__dict__.update(action.__dict__)'
p2970
sI2460
S'            return f'
p2971
ssg2918
S'(*a=(), **b={})'
p2972
sg2920
S'f'
sa(dp2973
g2897
S'/home/ian/web2py/applications/paideia/controllers/reporting.py'
p2974
sg2899
(dp2975
S'global db'
p2976
S"<DAL {'auth_event': <Table {'origin': <gluon.dal..., 'id': <gluon.dal.Field object at 0x39c0d50>}>}>"
p2977
sS'db.auth_user'
p2978
S"<Table {'first_name': <gluon.dal.Field object at...0>, 'id': <gluon.dal.Field object at 0x39c0d50>}>"
p2979
sS'global request'
p2980
S"<Storage {'body': <cStringIO.StringO object at 0..._vars': <Storage {}>, 'post_vars': <Storage {}>}>"
p2981
sS'request.args'
p2982
S'[]'
p2983
sS'the_user'
p2984
g2941
ssg2905
I16
sg2906
(dp2985
I11
S'    return dict(form = form)'
p2986
sI12
S''
sI13
S"@auth.requires_membership(role='administrators')"
p2987
sI14
S'def user():'
p2988
sI15
S"    # get student's user id and name"
p2989
sI16
S'    the_user = db.auth_user[request.args[0]]'
p2990
sI17
S"    the_name = the_user.last_name + ', ' + the_user.first_name"
p2991
sI18
S'    # create instance of paideia_stats class to calculate student performance'
p2992
sI19
S'    stats = paideia_stats(request.args[0])'
p2993
sI20
S'    # create dynamic grid to display list of all question attempts'
p2994
ssg2918
S'()'
p2995
sg2920
S'user'
p2996
sasS'pyver'
p2997
S'Python 2.7.2+: /usr/bin/python2.7'
p2998
sS'session'
p2999
g56
(g57
g58
NtRp3000
(dp3001
g61
(dp3002
sg63
(lp3003
g56
(g65
g58
NtRp3004
(dp3005
g61
(dp3006
g69
I5
ssg70
Nsg63
(lp3007
g56
(g72
g58
NtRp3008
(dp3009
g61
(dp3010
sg70
g3004
sg63
(lp3011
g56
(g77
g58
NtRp3012
(dp3013
g61
(dp3014
g81
g82
ssg70
g3008
sg63
(lp3015
S'auth'
p3016
asbag56
(g77
g58
NtRp3017
(dp3018
g61
(dp3019
g88
g89
ssg70
g3008
sg63
(lp3020
S':'
asbag56
(g77
g58
NtRp3021
(dp3022
g61
(dp3023
sg70
g3008
sg63
(lp3024
g56
(g57
g58
NtRp3025
(dp3026
g61
(dp3027
g69
I5
ssg70
g3021
sg63
(lp3028
g56
(g65
g58
NtRp3029
(dp3030
g61
(dp3031
g69
I4
ssg70
Nsg63
(lp3032
g56
(g72
g58
NtRp3033
(dp3034
g61
(dp3035
sg70
g3029
sg63
(lp3036
g56
(g77
g58
NtRp3037
(dp3038
g61
(dp3039
g81
g82
ssg70
g3033
sg63
(lp3040
S'expiration'
p3041
asbag56
(g77
g58
NtRp3042
(dp3043
g61
(dp3044
g88
g89
ssg70
g3033
sg63
(lp3045
S':'
asbag56
(g77
g58
NtRp3046
(dp3047
g61
(dp3048
sg70
g3033
sg63
(lp3049
g56
(g57
g58
NtRp3050
(dp3051
g61
(dp3052
g69
I4
ssg70
g3046
sg63
(lp3053
S'2592000'
p3054
asbasbasbag56
(g72
g58
NtRp3055
(dp3056
g61
(dp3057
sg70
g3029
sg63
(lp3058
g56
(g77
g58
NtRp3059
(dp3060
g61
(dp3061
g81
g82
ssg70
g3055
sg63
(lp3062
S'hmac_key'
p3063
asbag56
(g77
g58
NtRp3064
(dp3065
g61
(dp3066
g88
g89
ssg70
g3055
sg63
(lp3067
S':'
asbag56
(g77
g58
NtRp3068
(dp3069
g61
(dp3070
sg70
g3055
sg63
(lp3071
g56
(g57
g58
NtRp3072
(dp3073
g61
(dp3074
g69
I4
ssg70
g3068
sg63
(lp3075
S'33f43ea9-57a6-4451-ae58-4ff13ae07279'
p3076
asbasbasbag56
(g72
g58
NtRp3077
(dp3078
g61
(dp3079
sg70
g3029
sg63
(lp3080
g56
(g77
g58
NtRp3081
(dp3082
g61
(dp3083
g81
g82
ssg70
g3077
sg63
(lp3084
S'last_visit'
p3085
asbag56
(g77
g58
NtRp3086
(dp3087
g61
(dp3088
g88
g89
ssg70
g3077
sg63
(lp3089
S':'
asbag56
(g77
g58
NtRp3090
(dp3091
g61
(dp3092
sg70
g3077
sg63
(lp3093
g56
(g57
g58
NtRp3094
(dp3095
g61
(dp3096
g69
I4
ssg70
g3090
sg63
(lp3097
S'datetime.datetime(2011, 10, 24, 19, 53, 28, 421362)'
p3098
asbasbasbag56
(g72
g58
NtRp3099
(dp3100
g61
(dp3101
sg70
g3029
sg63
(lp3102
g56
(g77
g58
NtRp3103
(dp3104
g61
(dp3105
g81
g82
ssg70
g3099
sg63
(lp3106
S'remember'
p3107
asbag56
(g77
g58
NtRp3108
(dp3109
g61
(dp3110
g88
g89
ssg70
g3099
sg63
(lp3111
S':'
asbag56
(g77
g58
NtRp3112
(dp3113
g61
(dp3114
sg70
g3099
sg63
(lp3115
g56
(g57
g58
NtRp3116
(dp3117
g61
(dp3118
g69
I4
ssg70
g3112
sg63
(lp3119
g99
asbasbasbag56
(g72
g58
NtRp3120
(dp3121
g61
(dp3122
sg70
g3029
sg63
(lp3123
g56
(g77
g58
NtRp3124
(dp3125
g61
(dp3126
g81
g82
ssg70
g3120
sg63
(lp3127
S'user'
p3128
asbag56
(g77
g58
NtRp3129
(dp3130
g61
(dp3131
g88
g89
ssg70
g3120
sg63
(lp3132
S':'
asbag56
(g77
g58
NtRp3133
(dp3134
g61
(dp3135
sg70
g3120
sg63
(lp3136
g56
(g57
g58
NtRp3137
(dp3138
g61
(dp3139
g69
I4
ssg70
g3133
sg63
(lp3140
g56
(g65
g58
NtRp3141
(dp3142
g61
(dp3143
g69
I3
ssg70
Nsg63
(lp3144
g56
(g72
g58
NtRp3145
(dp3146
g61
(dp3147
sg70
g3141
sg63
(lp3148
g56
(g77
g58
NtRp3149
(dp3150
g61
(dp3151
g81
g82
ssg70
g3145
sg63
(lp3152
S'email'
p3153
asbag56
(g77
g58
NtRp3154
(dp3155
g61
(dp3156
g88
g89
ssg70
g3145
sg63
(lp3157
S':'
asbag56
(g77
g58
NtRp3158
(dp3159
g61
(dp3160
sg70
g3145
sg63
(lp3161
g56
(g57
g58
NtRp3162
(dp3163
g61
(dp3164
g69
I3
ssg70
g3158
sg63
(lp3165
S'scottianw@gmail.com'
p3166
asbasbasbag56
(g72
g58
NtRp3167
(dp3168
g61
(dp3169
sg70
g3141
sg63
(lp3170
g56
(g77
g58
NtRp3171
(dp3172
g61
(dp3173
g81
g82
ssg70
g3167
sg63
(lp3174
S'first_name'
p3175
asbag56
(g77
g58
NtRp3176
(dp3177
g61
(dp3178
g88
g89
ssg70
g3167
sg63
(lp3179
S':'
asbag56
(g77
g58
NtRp3180
(dp3181
g61
(dp3182
sg70
g3167
sg63
(lp3183
g56
(g57
g58
NtRp3184
(dp3185
g61
(dp3186
g69
I3
ssg70
g3180
sg63
(lp3187
S'Ian'
p3188
asbasbasbag56
(g72
g58
NtRp3189
(dp3190
g61
(dp3191
sg70
g3141
sg63
(lp3192
g56
(g77
g58
NtRp3193
(dp3194
g61
(dp3195
g81
g82
ssg70
g3189
sg63
(lp3196
S'id'
p3197
asbag56
(g77
g58
NtRp3198
(dp3199
g61
(dp3200
g88
g89
ssg70
g3189
sg63
(lp3201
S':'
asbag56
(g77
g58
NtRp3202
(dp3203
g61
(dp3204
sg70
g3189
sg63
(lp3205
g56
(g57
g58
NtRp3206
(dp3207
g61
(dp3208
g69
I3
ssg70
g3202
sg63
(lp3209
S'2'
asbasbasbag56
(g72
g58
NtRp3210
(dp3211
g61
(dp3212
sg70
g3141
sg63
(lp3213
g56
(g77
g58
NtRp3214
(dp3215
g61
(dp3216
g81
g82
ssg70
g3210
sg63
(lp3217
S'last_name'
p3218
asbag56
(g77
g58
NtRp3219
(dp3220
g61
(dp3221
g88
g89
ssg70
g3210
sg63
(lp3222
S':'
asbag56
(g77
g58
NtRp3223
(dp3224
g61
(dp3225
sg70
g3210
sg63
(lp3226
g56
(g57
g58
NtRp3227
(dp3228
g61
(dp3229
g69
I3
ssg70
g3223
sg63
(lp3230
S'Scott'
p3231
asbasbasbag56
(g72
g58
NtRp3232
(dp3233
g61
(dp3234
sg70
g3141
sg63
(lp3235
g56
(g77
g58
NtRp3236
(dp3237
g61
(dp3238
g81
g82
ssg70
g3232
sg63
(lp3239
S'password'
p3240
asbag56
(g77
g58
NtRp3241
(dp3242
g61
(dp3243
g88
g89
ssg70
g3232
sg63
(lp3244
S':'
asbag56
(g77
g58
NtRp3245
(dp3246
g61
(dp3247
sg70
g3232
sg63
(lp3248
g56
(g57
g58
NtRp3249
(dp3250
g61
(dp3251
g69
I3
ssg70
g3245
sg63
(lp3252
S'19738f1e9a2c8eaac81936a86bf608a1a6995e02f527fa31723cb88a2e513a1efae33471354a02805bf25ea2ea17a59c025a5fc8eca6b3bb2137bda74e538737'
p3253
asbasbasbag56
(g72
g58
NtRp3254
(dp3255
g61
(dp3256
sg70
g3141
sg63
(lp3257
g56
(g77
g58
NtRp3258
(dp3259
g61
(dp3260
g81
g82
ssg70
g3254
sg63
(lp3261
S'registration_key'
p3262
asbag56
(g77
g58
NtRp3263
(dp3264
g61
(dp3265
g88
g89
ssg70
g3254
sg63
(lp3266
S':'
asbag56
(g77
g58
NtRp3267
(dp3268
g61
(dp3269
sg70
g3254
sg63
(lp3270
g56
(g57
g58
NtRp3271
(dp3272
g61
(dp3273
g69
I3
ssg70
g3267
sg63
(lp3274
S''
asbasbasbag56
(g72
g58
NtRp3275
(dp3276
g61
(dp3277
sg70
g3141
sg63
(lp3278
g56
(g77
g58
NtRp3279
(dp3280
g61
(dp3281
g81
g82
ssg70
g3275
sg63
(lp3282
S'reset_password_key'
p3283
asbag56
(g77
g58
NtRp3284
(dp3285
g61
(dp3286
g88
g89
ssg70
g3275
sg63
(lp3287
S':'
asbag56
(g77
g58
NtRp3288
(dp3289
g61
(dp3290
sg70
g3275
sg63
(lp3291
g56
(g57
g58
NtRp3292
(dp3293
g61
(dp3294
g69
I3
ssg70
g3288
sg63
(lp3295
S''
asbasbasbasbasbasbasbasbasbasbasbag56
(g72
g58
NtRp3296
(dp3297
g61
(dp3298
sg70
g3004
sg63
(lp3299
g56
(g77
g58
NtRp3300
(dp3301
g61
(dp3302
g81
g82
ssg70
g3296
sg63
(lp3303
S'debug'
p3304
asbag56
(g77
g58
NtRp3305
(dp3306
g61
(dp3307
g88
g89
ssg70
g3296
sg63
(lp3308
S':'
asbag56
(g77
g58
NtRp3309
(dp3310
g61
(dp3311
sg70
g3296
sg63
(lp3312
g56
(g57
g58
NtRp3313
(dp3314
g61
(dp3315
g69
I5
ssg70
g3309
sg63
(lp3316
S'1384'
p3317
asbasbasbag56
(g72
g58
NtRp3318
(dp3319
g61
(dp3320
sg70
g3004
sg63
(lp3321
g56
(g77
g58
NtRp3322
(dp3323
g61
(dp3324
g81
g82
ssg70
g3318
sg63
(lp3325
S'last_query'
p3326
asbag56
(g77
g58
NtRp3327
(dp3328
g61
(dp3329
g88
g89
ssg70
g3318
sg63
(lp3330
S':'
asbag56
(g77
g58
NtRp3331
(dp3332
g61
(dp3333
sg70
g3318
sg63
(lp3334
g56
(g57
g58
NtRp3335
(dp3336
g61
(dp3337
g69
I5
ssg70
g3331
sg63
(lp3338
S'(db.question_records.id>0) & (db.question_records.name==2)'
p3339
asbasbasbasbasbsS'etype'
p3340
S"<type 'exceptions.IndexError'>"
p3341
sS'date'
p3342
S'Mon Oct 24 21:39:49 2011'
p3343
sS'response'
p3344
g56
(g57
g58
NtRp3345
(dp3346
g61
(dp3347
sg63
(lp3348
g56
(g65
g58
NtRp3349
(dp3350
g61
(dp3351
g69
I5
ssg70
Nsg63
(lp3352
g56
(g72
g58
NtRp3353
(dp3354
g61
(dp3355
sg70
g3349
sg63
(lp3356
g56
(g77
g58
NtRp3357
(dp3358
g61
(dp3359
g81
g82
ssg70
g3353
sg63
(lp3360
g154
asbag56
(g77
g58
NtRp3361
(dp3362
g61
(dp3363
g88
g89
ssg70
g3353
sg63
(lp3364
S':'
asbag56
(g77
g58
NtRp3365
(dp3366
g61
(dp3367
sg70
g3353
sg63
(lp3368
g56
(g57
g58
NtRp3369
(dp3370
g61
(dp3371
g69
I5
ssg70
g3365
sg63
(lp3372
S'<cStringIO.StringO object at 0x2eab650>'
p3373
asbasbasbag56
(g72
g58
NtRp3374
(dp3375
g61
(dp3376
sg70
g3349
sg63
(lp3377
g56
(g77
g58
NtRp3378
(dp3379
g61
(dp3380
g81
g82
ssg70
g3374
sg63
(lp3381
g220
asbag56
(g77
g58
NtRp3382
(dp3383
g61
(dp3384
g88
g89
ssg70
g3374
sg63
(lp3385
S':'
asbag56
(g77
g58
NtRp3386
(dp3387
g61
(dp3388
sg70
g3374
sg63
(lp3389
g56
(g57
g58
NtRp3390
(dp3391
g61
(dp3392
g69
I5
ssg70
g3386
sg63
(lp3393
g56
(g65
g58
NtRp3394
(dp3395
g61
(dp3396
g69
I4
ssg70
Nsg63
(lp3397
g56
(g72
g58
NtRp3398
(dp3399
g61
(dp3400
sg70
g3394
sg63
(lp3401
g56
(g77
g58
NtRp3402
(dp3403
g61
(dp3404
g81
g82
ssg70
g3398
sg63
(lp3405
S'session_id_paideia'
p3406
asbag56
(g77
g58
NtRp3407
(dp3408
g61
(dp3409
g88
g89
ssg70
g3398
sg63
(lp3410
S':'
asbag56
(g77
g58
NtRp3411
(dp3412
g61
(dp3413
sg70
g3398
sg63
(lp3414
g56
(g57
g58
NtRp3415
(dp3416
g61
(dp3417
g69
I4
ssg70
g3411
sg63
(lp3418
g56
(g65
g58
NtRp3419
(dp3420
g61
(dp3421
g69
I3
ssg70
Nsg63
(lp3422
g56
(g72
g58
NtRp3423
(dp3424
g61
(dp3425
sg70
g3419
sg63
(lp3426
g56
(g77
g58
NtRp3427
(dp3428
g61
(dp3429
g81
g82
ssg70
g3423
sg63
(lp3430
g270
asbag56
(g77
g58
NtRp3431
(dp3432
g61
(dp3433
g88
g89
ssg70
g3423
sg63
(lp3434
S':'
asbag56
(g77
g58
NtRp3435
(dp3436
g61
(dp3437
sg70
g3423
sg63
(lp3438
g56
(g57
g58
NtRp3439
(dp3440
g61
(dp3441
g69
I3
ssg70
g3435
sg63
(lp3442
S''
asbasbasbag56
(g72
g58
NtRp3443
(dp3444
g61
(dp3445
sg70
g3419
sg63
(lp3446
g56
(g77
g58
NtRp3447
(dp3448
g61
(dp3449
g81
g82
ssg70
g3443
sg63
(lp3450
g291
asbag56
(g77
g58
NtRp3451
(dp3452
g61
(dp3453
g88
g89
ssg70
g3443
sg63
(lp3454
S':'
asbag56
(g77
g58
NtRp3455
(dp3456
g61
(dp3457
sg70
g3443
sg63
(lp3458
g56
(g57
g58
NtRp3459
(dp3460
g61
(dp3461
g69
I3
ssg70
g3455
sg63
(lp3462
S''
asbasbasbag56
(g72
g58
NtRp3463
(dp3464
g61
(dp3465
sg70
g3419
sg63
(lp3466
g56
(g77
g58
NtRp3467
(dp3468
g61
(dp3469
g81
g82
ssg70
g3463
sg63
(lp3470
g312
asbag56
(g77
g58
NtRp3471
(dp3472
g61
(dp3473
g88
g89
ssg70
g3463
sg63
(lp3474
S':'
asbag56
(g77
g58
NtRp3475
(dp3476
g61
(dp3477
sg70
g3463
sg63
(lp3478
g56
(g57
g58
NtRp3479
(dp3480
g61
(dp3481
g69
I3
ssg70
g3475
sg63
(lp3482
S''
asbasbasbag56
(g72
g58
NtRp3483
(dp3484
g61
(dp3485
sg70
g3419
sg63
(lp3486
g56
(g77
g58
NtRp3487
(dp3488
g61
(dp3489
g81
g82
ssg70
g3483
sg63
(lp3490
g333
asbag56
(g77
g58
NtRp3491
(dp3492
g61
(dp3493
g88
g89
ssg70
g3483
sg63
(lp3494
S':'
asbag56
(g77
g58
NtRp3495
(dp3496
g61
(dp3497
sg70
g3483
sg63
(lp3498
g56
(g57
g58
NtRp3499
(dp3500
g61
(dp3501
g69
I3
ssg70
g3495
sg63
(lp3502
S''
asbasbasbag56
(g72
g58
NtRp3503
(dp3504
g61
(dp3505
sg70
g3419
sg63
(lp3506
g56
(g77
g58
NtRp3507
(dp3508
g61
(dp3509
g81
g82
ssg70
g3503
sg63
(lp3510
g354
asbag56
(g77
g58
NtRp3511
(dp3512
g61
(dp3513
g88
g89
ssg70
g3503
sg63
(lp3514
S':'
asbag56
(g77
g58
NtRp3515
(dp3516
g61
(dp3517
sg70
g3503
sg63
(lp3518
g56
(g57
g58
NtRp3519
(dp3520
g61
(dp3521
g69
I3
ssg70
g3515
sg63
(lp3522
S''
asbasbasbag56
(g72
g58
NtRp3523
(dp3524
g61
(dp3525
sg70
g3419
sg63
(lp3526
g56
(g77
g58
NtRp3527
(dp3528
g61
(dp3529
g81
g82
ssg70
g3523
sg63
(lp3530
g375
asbag56
(g77
g58
NtRp3531
(dp3532
g61
(dp3533
g88
g89
ssg70
g3523
sg63
(lp3534
S':'
asbag56
(g77
g58
NtRp3535
(dp3536
g61
(dp3537
sg70
g3523
sg63
(lp3538
g56
(g57
g58
NtRp3539
(dp3540
g61
(dp3541
g69
I3
ssg70
g3535
sg63
(lp3542
S'/'
asbasbasbag56
(g72
g58
NtRp3543
(dp3544
g61
(dp3545
sg70
g3419
sg63
(lp3546
g56
(g77
g58
NtRp3547
(dp3548
g61
(dp3549
g81
g82
ssg70
g3543
sg63
(lp3550
g396
asbag56
(g77
g58
NtRp3551
(dp3552
g61
(dp3553
g88
g89
ssg70
g3543
sg63
(lp3554
S':'
asbag56
(g77
g58
NtRp3555
(dp3556
g61
(dp3557
sg70
g3543
sg63
(lp3558
g56
(g57
g58
NtRp3559
(dp3560
g61
(dp3561
g69
I3
ssg70
g3555
sg63
(lp3562
S''
asbasbasbag56
(g72
g58
NtRp3563
(dp3564
g61
(dp3565
sg70
g3419
sg63
(lp3566
g56
(g77
g58
NtRp3567
(dp3568
g61
(dp3569
g81
g82
ssg70
g3563
sg63
(lp3570
g417
asbag56
(g77
g58
NtRp3571
(dp3572
g61
(dp3573
g88
g89
ssg70
g3563
sg63
(lp3574
S':'
asbag56
(g77
g58
NtRp3575
(dp3576
g61
(dp3577
sg70
g3563
sg63
(lp3578
g56
(g57
g58
NtRp3579
(dp3580
g61
(dp3581
g69
I3
ssg70
g3575
sg63
(lp3582
S''
asbasbasbasbasbasbasbasbasbasbasbag56
(g72
g58
NtRp3583
(dp3584
g61
(dp3585
sg70
g3349
sg63
(lp3586
g56
(g77
g58
NtRp3587
(dp3588
g61
(dp3589
g81
g82
ssg70
g3583
sg63
(lp3590
S'files'
p3591
asbag56
(g77
g58
NtRp3592
(dp3593
g61
(dp3594
g88
g89
ssg70
g3583
sg63
(lp3595
S':'
asbag56
(g77
g58
NtRp3596
(dp3597
g61
(dp3598
sg70
g3583
sg63
(lp3599
g56
(g57
g58
NtRp3600
(dp3601
g61
(dp3602
g69
I5
ssg70
g3596
sg63
(lp3603
g56
(g65
g58
NtRp3604
(dp3605
g61
(dp3606
g69
I4
ssg70
Nsg63
(lp3607
sbasbasbasbag56
(g72
g58
NtRp3608
(dp3609
g61
(dp3610
sg70
g3349
sg63
(lp3611
g56
(g77
g58
NtRp3612
(dp3613
g61
(dp3614
g81
g82
ssg70
g3608
sg63
(lp3615
S'flash'
p3616
asbag56
(g77
g58
NtRp3617
(dp3618
g61
(dp3619
g88
g89
ssg70
g3608
sg63
(lp3620
S':'
asbag56
(g77
g58
NtRp3621
(dp3622
g61
(dp3623
sg70
g3608
sg63
(lp3624
g56
(g57
g58
NtRp3625
(dp3626
g61
(dp3627
g69
I5
ssg70
g3621
sg63
(lp3628
S''
asbasbasbag56
(g72
g58
NtRp3629
(dp3630
g61
(dp3631
sg70
g3349
sg63
(lp3632
g56
(g77
g58
NtRp3633
(dp3634
g61
(dp3635
g81
g82
ssg70
g3629
sg63
(lp3636
S'generic_patterns'
p3637
asbag56
(g77
g58
NtRp3638
(dp3639
g61
(dp3640
g88
g89
ssg70
g3629
sg63
(lp3641
S':'
asbag56
(g77
g58
NtRp3642
(dp3643
g61
(dp3644
sg70
g3629
sg63
(lp3645
g56
(g57
g58
NtRp3646
(dp3647
g61
(dp3648
g69
I5
ssg70
g3642
sg63
(lp3649
g56
(g65
g58
NtRp3650
(dp3651
g61
(dp3652
g69
I4
ssg70
Nsg63
(lp3653
g56
(g72
g58
NtRp3654
(dp3655
g61
(dp3656
sg70
g3650
sg63
(lp3657
g56
(g77
g58
NtRp3658
(dp3659
g61
(dp3660
sg70
g3654
sg63
(lp3661
g56
(g57
g58
NtRp3662
(dp3663
g61
(dp3664
g69
I4
ssg70
g3658
sg63
(lp3665
S'*'
asbasbasbasbasbasbasbag56
(g72
g58
NtRp3666
(dp3667
g61
(dp3668
sg70
g3349
sg63
(lp3669
g56
(g77
g58
NtRp3670
(dp3671
g61
(dp3672
g81
g82
ssg70
g3666
sg63
(lp3673
S'headers'
p3674
asbag56
(g77
g58
NtRp3675
(dp3676
g61
(dp3677
g88
g89
ssg70
g3666
sg63
(lp3678
S':'
asbag56
(g77
g58
NtRp3679
(dp3680
g61
(dp3681
sg70
g3666
sg63
(lp3682
g56
(g57
g58
NtRp3683
(dp3684
g61
(dp3685
g69
I5
ssg70
g3679
sg63
(lp3686
g56
(g65
g58
NtRp3687
(dp3688
g61
(dp3689
g69
I4
ssg70
Nsg63
(lp3690
g56
(g72
g58
NtRp3691
(dp3692
g61
(dp3693
sg70
g3687
sg63
(lp3694
g56
(g77
g58
NtRp3695
(dp3696
g61
(dp3697
g81
g82
ssg70
g3691
sg63
(lp3698
S'Cache-Control'
p3699
asbag56
(g77
g58
NtRp3700
(dp3701
g61
(dp3702
g88
g89
ssg70
g3691
sg63
(lp3703
S':'
asbag56
(g77
g58
NtRp3704
(dp3705
g61
(dp3706
sg70
g3691
sg63
(lp3707
g56
(g57
g58
NtRp3708
(dp3709
g61
(dp3710
g69
I4
ssg70
g3704
sg63
(lp3711
S'no-store, no-cache, must-revalidate, post-check=0, pre-check=0'
p3712
asbasbasbag56
(g72
g58
NtRp3713
(dp3714
g61
(dp3715
sg70
g3687
sg63
(lp3716
g56
(g77
g58
NtRp3717
(dp3718
g61
(dp3719
g81
g82
ssg70
g3713
sg63
(lp3720
S'Content-Type'
p3721
asbag56
(g77
g58
NtRp3722
(dp3723
g61
(dp3724
g88
g89
ssg70
g3713
sg63
(lp3725
S':'
asbag56
(g77
g58
NtRp3726
(dp3727
g61
(dp3728
sg70
g3713
sg63
(lp3729
g56
(g57
g58
NtRp3730
(dp3731
g61
(dp3732
g69
I4
ssg70
g3726
sg63
(lp3733
S'text/html; charset=utf-8'
p3734
asbasbasbag56
(g72
g58
NtRp3735
(dp3736
g61
(dp3737
sg70
g3687
sg63
(lp3738
g56
(g77
g58
NtRp3739
(dp3740
g61
(dp3741
g81
g82
ssg70
g3735
sg63
(lp3742
S'Expires'
p3743
asbag56
(g77
g58
NtRp3744
(dp3745
g61
(dp3746
g88
g89
ssg70
g3735
sg63
(lp3747
S':'
asbag56
(g77
g58
NtRp3748
(dp3749
g61
(dp3750
sg70
g3735
sg63
(lp3751
g56
(g57
g58
NtRp3752
(dp3753
g61
(dp3754
g69
I4
ssg70
g3748
sg63
(lp3755
S'Tue, 25 Oct 2011 01:39:48 GMT'
p3756
asbasbasbag56
(g72
g58
NtRp3757
(dp3758
g61
(dp3759
sg70
g3687
sg63
(lp3760
g56
(g77
g58
NtRp3761
(dp3762
g61
(dp3763
g81
g82
ssg70
g3757
sg63
(lp3764
S'Pragma'
p3765
asbag56
(g77
g58
NtRp3766
(dp3767
g61
(dp3768
g88
g89
ssg70
g3757
sg63
(lp3769
S':'
asbag56
(g77
g58
NtRp3770
(dp3771
g61
(dp3772
sg70
g3757
sg63
(lp3773
g56
(g57
g58
NtRp3774
(dp3775
g61
(dp3776
g69
I4
ssg70
g3770
sg63
(lp3777
S'no-cache'
p3778
asbasbasbag56
(g72
g58
NtRp3779
(dp3780
g61
(dp3781
sg70
g3687
sg63
(lp3782
g56
(g77
g58
NtRp3783
(dp3784
g61
(dp3785
g81
g82
ssg70
g3779
sg63
(lp3786
S'X-Powered-By'
p3787
asbag56
(g77
g58
NtRp3788
(dp3789
g61
(dp3790
g88
g89
ssg70
g3779
sg63
(lp3791
S':'
asbag56
(g77
g58
NtRp3792
(dp3793
g61
(dp3794
sg70
g3779
sg63
(lp3795
g56
(g57
g58
NtRp3796
(dp3797
g61
(dp3798
g69
I4
ssg70
g3792
sg63
(lp3799
S'web2py'
p3800
asbasbasbasbasbasbasbag56
(g72
g58
NtRp3801
(dp3802
g61
(dp3803
sg70
g3349
sg63
(lp3804
g56
(g77
g58
NtRp3805
(dp3806
g61
(dp3807
g81
g82
ssg70
g3801
sg63
(lp3808
S'menu'
p3809
asbag56
(g77
g58
NtRp3810
(dp3811
g61
(dp3812
g88
g89
ssg70
g3801
sg63
(lp3813
S':'
asbag56
(g77
g58
NtRp3814
(dp3815
g61
(dp3816
sg70
g3801
sg63
(lp3817
g56
(g57
g58
NtRp3818
(dp3819
g61
(dp3820
g69
I5
ssg70
g3814
sg63
(lp3821
g56
(g65
g58
NtRp3822
(dp3823
g61
(dp3824
g69
I4
ssg70
Nsg63
(lp3825
g56
(g72
g58
NtRp3826
(dp3827
g61
(dp3828
sg70
g3822
sg63
(lp3829
g56
(g77
g58
NtRp3830
(dp3831
g61
(dp3832
sg70
g3826
sg63
(lp3833
g56
(g57
g58
NtRp3834
(dp3835
g61
(dp3836
g69
I4
ssg70
g3830
sg63
(lp3837
g56
(g65
g58
NtRp3838
(dp3839
g61
(dp3840
g69
I3
ssg70
Nsg63
(lp3841
g56
(g72
g58
NtRp3842
(dp3843
g61
(dp3844
sg70
g3838
sg63
(lp3845
g56
(g77
g58
NtRp3846
(dp3847
g61
(dp3848
sg70
g3842
sg63
(lp3849
g56
(g57
g58
NtRp3850
(dp3851
g61
(dp3852
g69
I3
ssg70
g3846
sg63
(lp3853
cgluon.languages
lazyT_unpickle
p3854
(S't\x04\x00\x00\x00Home'
tRp3855
asbasbasbag56
(g72
g58
NtRp3856
(dp3857
g61
(dp3858
sg70
g3838
sg63
(lp3859
g56
(g77
g58
NtRp3860
(dp3861
g61
(dp3862
sg70
g3856
sg63
(lp3863
g56
(g57
g58
NtRp3864
(dp3865
g61
(dp3866
g69
I3
ssg70
g3860
sg63
(lp3867
g99
asbasbasbag56
(g72
g58
NtRp3868
(dp3869
g61
(dp3870
sg70
g3838
sg63
(lp3871
g56
(g77
g58
NtRp3872
(dp3873
g61
(dp3874
sg70
g3868
sg63
(lp3875
g56
(g57
g58
NtRp3876
(dp3877
g61
(dp3878
g69
I3
ssg70
g3872
sg63
(lp3879
S'/paideia/default/index'
p3880
asbasbasbag56
(g72
g58
NtRp3881
(dp3882
g61
(dp3883
sg70
g3838
sg63
(lp3884
g56
(g77
g58
NtRp3885
(dp3886
g61
(dp3887
sg70
g3881
sg63
(lp3888
g56
(g57
g58
NtRp3889
(dp3890
g61
(dp3891
g69
I3
ssg70
g3885
sg63
(lp3892
g56
(g65
g58
NtRp3893
(dp3894
g61
(dp3895
g69
I2
ssg70
Nsg63
(lp3896
sbasbasbasbasbasbasbasbag56
(g72
g58
NtRp3897
(dp3898
g61
(dp3899
sg70
g3822
sg63
(lp3900
g56
(g77
g58
NtRp3901
(dp3902
g61
(dp3903
sg70
g3897
sg63
(lp3904
g56
(g57
g58
NtRp3905
(dp3906
g61
(dp3907
g69
I4
ssg70
g3901
sg63
(lp3908
g56
(g65
g58
NtRp3909
(dp3910
g61
(dp3911
g69
I3
ssg70
Nsg63
(lp3912
g56
(g72
g58
NtRp3913
(dp3914
g61
(dp3915
sg70
g3909
sg63
(lp3916
g56
(g77
g58
NtRp3917
(dp3918
g61
(dp3919
sg70
g3913
sg63
(lp3920
g56
(g57
g58
NtRp3921
(dp3922
g61
(dp3923
g69
I3
ssg70
g3917
sg63
(lp3924
g3854
(S't\x05\x00\x00\x00Admin'
tRp3925
asbasbasbag56
(g72
g58
NtRp3926
(dp3927
g61
(dp3928
sg70
g3909
sg63
(lp3929
g56
(g77
g58
NtRp3930
(dp3931
g61
(dp3932
sg70
g3926
sg63
(lp3933
g56
(g57
g58
NtRp3934
(dp3935
g61
(dp3936
g69
I3
ssg70
g3930
sg63
(lp3937
g99
asbasbasbag56
(g72
g58
NtRp3938
(dp3939
g61
(dp3940
sg70
g3909
sg63
(lp3941
g56
(g77
g58
NtRp3942
(dp3943
g61
(dp3944
sg70
g3938
sg63
(lp3945
g56
(g57
g58
NtRp3946
(dp3947
g61
(dp3948
g69
I3
ssg70
g3942
sg63
(lp3949
S'None'
p3950
asbasbasbag56
(g72
g58
NtRp3951
(dp3952
g61
(dp3953
sg70
g3909
sg63
(lp3954
g56
(g77
g58
NtRp3955
(dp3956
g61
(dp3957
sg70
g3951
sg63
(lp3958
g56
(g57
g58
NtRp3959
(dp3960
g61
(dp3961
g69
I3
ssg70
g3955
sg63
(lp3962
g56
(g65
g58
NtRp3963
(dp3964
g61
(dp3965
g69
I2
ssg70
Nsg63
(lp3966
g56
(g72
g58
NtRp3967
(dp3968
g61
(dp3969
sg70
g3963
sg63
(lp3970
g56
(g77
g58
NtRp3971
(dp3972
g61
(dp3973
sg70
g3967
sg63
(lp3974
g56
(g57
g58
NtRp3975
(dp3976
g61
(dp3977
g69
I2
ssg70
g3971
sg63
(lp3978
g56
(g65
g58
NtRp3979
(dp3980
g61
(dp3981
g69
I1
ssg70
Nsg63
(lp3982
g56
(g72
g58
NtRp3983
(dp3984
g61
(dp3985
sg70
g3979
sg63
(lp3986
g56
(g77
g58
NtRp3987
(dp3988
g61
(dp3989
sg70
g3983
sg63
(lp3990
g56
(g57
g58
NtRp3991
(dp3992
g61
(dp3993
g69
I1
ssg70
g3987
sg63
(lp3994
g3854
(S't\x06\x00\x00\x00Design'
tRp3995
asbasbasbag56
(g72
g58
NtRp3996
(dp3997
g61
(dp3998
sg70
g3979
sg63
(lp3999
g56
(g77
g58
NtRp4000
(dp4001
g61
(dp4002
sg70
g3996
sg63
(lp4003
g56
(g57
g58
NtRp4004
(dp4005
g61
(dp4006
g69
I1
ssg70
g4000
sg63
(lp4007
I00
asbasbasbag56
(g72
g58
NtRp4008
(dp4009
g61
(dp4010
sg70
g3979
sg63
(lp4011
g56
(g77
g58
NtRp4012
(dp4013
g61
(dp4014
sg70
g4008
sg63
(lp4015
g56
(g57
g58
NtRp4016
(dp4017
g61
(dp4018
g69
I1
ssg70
g4012
sg63
(lp4019
S'/admin/default/index'
p4020
asbasbasbasbasbasbasbag56
(g72
g58
NtRp4021
(dp4022
g61
(dp4023
sg70
g3963
sg63
(lp4024
g56
(g77
g58
NtRp4025
(dp4026
g61
(dp4027
sg70
g4021
sg63
(lp4028
g56
(g57
g58
NtRp4029
(dp4030
g61
(dp4031
g69
I2
ssg70
g4025
sg63
(lp4032
g56
(g65
g58
NtRp4033
(dp4034
g61
(dp4035
g69
I1
ssg70
Nsg63
(lp4036
g56
(g72
g58
NtRp4037
(dp4038
g61
(dp4039
sg70
g4033
sg63
(lp4040
g56
(g77
g58
NtRp4041
(dp4042
g61
(dp4043
sg70
g4037
sg63
(lp4044
g56
(g57
g58
NtRp4045
(dp4046
g61
(dp4047
g69
I1
ssg70
g4041
sg63
(lp4048
g3854
(S't\x08\x00\x00\x00Database'
tRp4049
asbasbasbag56
(g72
g58
NtRp4050
(dp4051
g61
(dp4052
sg70
g4033
sg63
(lp4053
g56
(g77
g58
NtRp4054
(dp4055
g61
(dp4056
sg70
g4050
sg63
(lp4057
g56
(g57
g58
NtRp4058
(dp4059
g61
(dp4060
g69
I1
ssg70
g4054
sg63
(lp4061
I00
asbasbasbag56
(g72
g58
NtRp4062
(dp4063
g61
(dp4064
sg70
g4033
sg63
(lp4065
g56
(g77
g58
NtRp4066
(dp4067
g61
(dp4068
sg70
g4062
sg63
(lp4069
g56
(g57
g58
NtRp4070
(dp4071
g61
(dp4072
g69
I1
ssg70
g4066
sg63
(lp4073
S'/paideia/appadmin/index'
p4074
asbasbasbasbasbasbasbag56
(g72
g58
NtRp4075
(dp4076
g61
(dp4077
sg70
g3963
sg63
(lp4078
g56
(g77
g58
NtRp4079
(dp4080
g61
(dp4081
sg70
g4075
sg63
(lp4082
g56
(g57
g58
NtRp4083
(dp4084
g61
(dp4085
g69
I2
ssg70
g4079
sg63
(lp4086
g56
(g65
g58
NtRp4087
(dp4088
g61
(dp4089
g69
I1
ssg70
Nsg63
(lp4090
g56
(g72
g58
NtRp4091
(dp4092
g61
(dp4093
sg70
g4087
sg63
(lp4094
g56
(g77
g58
NtRp4095
(dp4096
g61
(dp4097
sg70
g4091
sg63
(lp4098
g56
(g57
g58
NtRp4099
(dp4100
g61
(dp4101
g69
I1
ssg70
g4095
sg63
(lp4102
g3854
(S't\x05\x00\x00\x00Users'
tRp4103
asbasbasbag56
(g72
g58
NtRp4104
(dp4105
g61
(dp4106
sg70
g4087
sg63
(lp4107
g56
(g77
g58
NtRp4108
(dp4109
g61
(dp4110
sg70
g4104
sg63
(lp4111
g56
(g57
g58
NtRp4112
(dp4113
g61
(dp4114
g69
I1
ssg70
g4108
sg63
(lp4115
I00
asbasbasbag56
(g72
g58
NtRp4116
(dp4117
g61
(dp4118
sg70
g4087
sg63
(lp4119
g56
(g77
g58
NtRp4120
(dp4121
g61
(dp4122
sg70
g4116
sg63
(lp4123
g56
(g57
g58
NtRp4124
(dp4125
g61
(dp4126
g69
I1
ssg70
g4120
sg63
(lp4127
S'/paideia/listing/user'
p4128
asbasbasbasbasbasbasbag56
(g72
g58
NtRp4129
(dp4130
g61
(dp4131
sg70
g3963
sg63
(lp4132
g56
(g77
g58
NtRp4133
(dp4134
g61
(dp4135
sg70
g4129
sg63
(lp4136
g56
(g57
g58
NtRp4137
(dp4138
g61
(dp4139
g69
I2
ssg70
g4133
sg63
(lp4140
g56
(g65
g58
NtRp4141
(dp4142
g61
(dp4143
g69
I1
ssg70
Nsg63
(lp4144
g56
(g72
g58
NtRp4145
(dp4146
g61
(dp4147
sg70
g4141
sg63
(lp4148
g56
(g77
g58
NtRp4149
(dp4150
g61
(dp4151
sg70
g4145
sg63
(lp4152
g56
(g57
g58
NtRp4153
(dp4154
g61
(dp4155
g69
I1
ssg70
g4149
sg63
(lp4156
g3854
(S't\t\x00\x00\x00Questions'
tRp4157
asbasbasbag56
(g72
g58
NtRp4158
(dp4159
g61
(dp4160
sg70
g4141
sg63
(lp4161
g56
(g77
g58
NtRp4162
(dp4163
g61
(dp4164
sg70
g4158
sg63
(lp4165
g56
(g57
g58
NtRp4166
(dp4167
g61
(dp4168
g69
I1
ssg70
g4162
sg63
(lp4169
I00
asbasbasbag56
(g72
g58
NtRp4170
(dp4171
g61
(dp4172
sg70
g4141
sg63
(lp4173
g56
(g77
g58
NtRp4174
(dp4175
g61
(dp4176
sg70
g4170
sg63
(lp4177
g56
(g57
g58
NtRp4178
(dp4179
g61
(dp4180
g69
I1
ssg70
g4174
sg63
(lp4181
S'/paideia/listing/question'
p4182
asbasbasbasbasbasbasbag56
(g72
g58
NtRp4183
(dp4184
g61
(dp4185
sg70
g3963
sg63
(lp4186
g56
(g77
g58
NtRp4187
(dp4188
g61
(dp4189
sg70
g4183
sg63
(lp4190
g56
(g57
g58
NtRp4191
(dp4192
g61
(dp4193
g69
I2
ssg70
g4187
sg63
(lp4194
g56
(g65
g58
NtRp4195
(dp4196
g61
(dp4197
g69
I1
ssg70
Nsg63
(lp4198
g56
(g72
g58
NtRp4199
(dp4200
g61
(dp4201
sg70
g4195
sg63
(lp4202
g56
(g77
g58
NtRp4203
(dp4204
g61
(dp4205
sg70
g4199
sg63
(lp4206
g56
(g57
g58
NtRp4207
(dp4208
g61
(dp4209
g69
I1
ssg70
g4203
sg63
(lp4210
g3854
(S't\x07\x00\x00\x00Quizzes'
tRp4211
asbasbasbag56
(g72
g58
NtRp4212
(dp4213
g61
(dp4214
sg70
g4195
sg63
(lp4215
g56
(g77
g58
NtRp4216
(dp4217
g61
(dp4218
sg70
g4212
sg63
(lp4219
g56
(g57
g58
NtRp4220
(dp4221
g61
(dp4222
g69
I1
ssg70
g4216
sg63
(lp4223
I00
asbasbasbag56
(g72
g58
NtRp4224
(dp4225
g61
(dp4226
sg70
g4195
sg63
(lp4227
g56
(g77
g58
NtRp4228
(dp4229
g61
(dp4230
sg70
g4224
sg63
(lp4231
g56
(g57
g58
NtRp4232
(dp4233
g61
(dp4234
g69
I1
ssg70
g4228
sg63
(lp4235
S'/paideia/listing/quiz'
p4236
asbasbasbasbasbasbasbag56
(g72
g58
NtRp4237
(dp4238
g61
(dp4239
sg70
g3963
sg63
(lp4240
g56
(g77
g58
NtRp4241
(dp4242
g61
(dp4243
sg70
g4237
sg63
(lp4244
g56
(g57
g58
NtRp4245
(dp4246
g61
(dp4247
g69
I2
ssg70
g4241
sg63
(lp4248
g56
(g65
g58
NtRp4249
(dp4250
g61
(dp4251
g69
I1
ssg70
Nsg63
(lp4252
g56
(g72
g58
NtRp4253
(dp4254
g61
(dp4255
sg70
g4249
sg63
(lp4256
g56
(g77
g58
NtRp4257
(dp4258
g61
(dp4259
sg70
g4253
sg63
(lp4260
g56
(g57
g58
NtRp4261
(dp4262
g61
(dp4263
g69
I1
ssg70
g4257
sg63
(lp4264
g3854
(S't\x04\x00\x00\x00Tags'
tRp4265
asbasbasbag56
(g72
g58
NtRp4266
(dp4267
g61
(dp4268
sg70
g4249
sg63
(lp4269
g56
(g77
g58
NtRp4270
(dp4271
g61
(dp4272
sg70
g4266
sg63
(lp4273
g56
(g57
g58
NtRp4274
(dp4275
g61
(dp4276
g69
I1
ssg70
g4270
sg63
(lp4277
I00
asbasbasbag56
(g72
g58
NtRp4278
(dp4279
g61
(dp4280
sg70
g4249
sg63
(lp4281
g56
(g77
g58
NtRp4282
(dp4283
g61
(dp4284
sg70
g4278
sg63
(lp4285
g56
(g57
g58
NtRp4286
(dp4287
g61
(dp4288
g69
I1
ssg70
g4282
sg63
(lp4289
S'/paideia/listing/tag'
p4290
asbasbasbasbasbasbasbasbasbasbasbasbasbasbasbasbasbasbasbag56
(g72
g58
NtRp4291
(dp4292
g61
(dp4293
sg70
g3349
sg63
(lp4294
g56
(g77
g58
NtRp4295
(dp4296
g61
(dp4297
g81
g82
ssg70
g4291
sg63
(lp4298
S'meta'
p4299
asbag56
(g77
g58
NtRp4300
(dp4301
g61
(dp4302
g88
g89
ssg70
g4291
sg63
(lp4303
S':'
asbag56
(g77
g58
NtRp4304
(dp4305
g61
(dp4306
sg70
g4291
sg63
(lp4307
g56
(g57
g58
NtRp4308
(dp4309
g61
(dp4310
g69
I5
ssg70
g4304
sg63
(lp4311
g56
(g65
g58
NtRp4312
(dp4313
g61
(dp4314
g69
I4
ssg70
Nsg63
(lp4315
g56
(g72
g58
NtRp4316
(dp4317
g61
(dp4318
sg70
g4312
sg63
(lp4319
g56
(g77
g58
NtRp4320
(dp4321
g61
(dp4322
g81
g82
ssg70
g4316
sg63
(lp4323
S'author'
p4324
asbag56
(g77
g58
NtRp4325
(dp4326
g61
(dp4327
g88
g89
ssg70
g4316
sg63
(lp4328
S':'
asbag56
(g77
g58
NtRp4329
(dp4330
g61
(dp4331
sg70
g4316
sg63
(lp4332
g56
(g57
g58
NtRp4333
(dp4334
g61
(dp4335
g69
I4
ssg70
g4329
sg63
(lp4336
S'Ian W. Scott'
p4337
asbasbasbag56
(g72
g58
NtRp4338
(dp4339
g61
(dp4340
sg70
g4312
sg63
(lp4341
g56
(g77
g58
NtRp4342
(dp4343
g61
(dp4344
g81
g82
ssg70
g4338
sg63
(lp4345
S'copyright'
p4346
asbag56
(g77
g58
NtRp4347
(dp4348
g61
(dp4349
g88
g89
ssg70
g4338
sg63
(lp4350
S':'
asbag56
(g77
g58
NtRp4351
(dp4352
g61
(dp4353
sg70
g4338
sg63
(lp4354
g56
(g57
g58
NtRp4355
(dp4356
g61
(dp4357
g69
I4
ssg70
g4351
sg63
(lp4358
S'Copyright 2011'
p4359
asbasbasbag56
(g72
g58
NtRp4360
(dp4361
g61
(dp4362
sg70
g4312
sg63
(lp4363
g56
(g77
g58
NtRp4364
(dp4365
g61
(dp4366
g81
g82
ssg70
g4360
sg63
(lp4367
S'description'
p4368
asbag56
(g77
g58
NtRp4369
(dp4370
g61
(dp4371
g88
g89
ssg70
g4360
sg63
(lp4372
S':'
asbag56
(g77
g58
NtRp4373
(dp4374
g61
(dp4375
sg70
g4360
sg63
(lp4376
g56
(g57
g58
NtRp4377
(dp4378
g61
(dp4379
g69
I4
ssg70
g4373
sg63
(lp4380
S'An online space for learning New Testament Greek'
p4381
asbasbasbag56
(g72
g58
NtRp4382
(dp4383
g61
(dp4384
sg70
g4312
sg63
(lp4385
g56
(g77
g58
NtRp4386
(dp4387
g61
(dp4388
g81
g82
ssg70
g4382
sg63
(lp4389
S'generator'
p4390
asbag56
(g77
g58
NtRp4391
(dp4392
g61
(dp4393
g88
g89
ssg70
g4382
sg63
(lp4394
S':'
asbag56
(g77
g58
NtRp4395
(dp4396
g61
(dp4397
sg70
g4382
sg63
(lp4398
g56
(g57
g58
NtRp4399
(dp4400
g61
(dp4401
g69
I4
ssg70
g4395
sg63
(lp4402
S'Web2py Enterprise Framework'
p4403
asbasbasbag56
(g72
g58
NtRp4404
(dp4405
g61
(dp4406
sg70
g4312
sg63
(lp4407
g56
(g77
g58
NtRp4408
(dp4409
g61
(dp4410
g81
g82
ssg70
g4404
sg63
(lp4411
S'keywords'
p4412
asbag56
(g77
g58
NtRp4413
(dp4414
g61
(dp4415
g88
g89
ssg70
g4404
sg63
(lp4416
S':'
asbag56
(g77
g58
NtRp4417
(dp4418
g61
(dp4419
sg70
g4404
sg63
(lp4420
g56
(g57
g58
NtRp4421
(dp4422
g61
(dp4423
g69
I4
ssg70
g4417
sg63
(lp4424
S'Greek, koine, New Testament, language, education, learning'
p4425
asbasbasbasbasbasbasbag56
(g72
g58
NtRp4426
(dp4427
g61
(dp4428
sg70
g3349
sg63
(lp4429
g56
(g77
g58
NtRp4430
(dp4431
g61
(dp4432
g81
g82
ssg70
g4426
sg63
(lp4433
S'postprocessing'
p4434
asbag56
(g77
g58
NtRp4435
(dp4436
g61
(dp4437
g88
g89
ssg70
g4426
sg63
(lp4438
S':'
asbag56
(g77
g58
NtRp4439
(dp4440
g61
(dp4441
sg70
g4426
sg63
(lp4442
g56
(g57
g58
NtRp4443
(dp4444
g61
(dp4445
g69
I5
ssg70
g4439
sg63
(lp4446
g56
(g65
g58
NtRp4447
(dp4448
g61
(dp4449
g69
I4
ssg70
Nsg63
(lp4450
sbasbasbasbag56
(g72
g58
NtRp4451
(dp4452
g61
(dp4453
sg70
g3349
sg63
(lp4454
g56
(g77
g58
NtRp4455
(dp4456
g61
(dp4457
g81
g82
ssg70
g4451
sg63
(lp4458
S'session_file'
p4459
asbag56
(g77
g58
NtRp4460
(dp4461
g61
(dp4462
g88
g89
ssg70
g4451
sg63
(lp4463
S':'
asbag56
(g77
g58
NtRp4464
(dp4465
g61
(dp4466
sg70
g4451
sg63
(lp4467
g56
(g57
g58
NtRp4468
(dp4469
g61
(dp4470
g69
I5
ssg70
g4464
sg63
(lp4471
S"<open file '/home/ian/web2py/applications/paideia/sessions/127.0.0.1-db4e5261-f025-4e90-8dbf-852417ffd863', mode 'rb+' at 0x2c55e40>"
p4472
asbasbasbag56
(g72
g58
NtRp4473
(dp4474
g61
(dp4475
sg70
g3349
sg63
(lp4476
g56
(g77
g58
NtRp4477
(dp4478
g61
(dp4479
g81
g82
ssg70
g4473
sg63
(lp4480
S'session_filename'
p4481
asbag56
(g77
g58
NtRp4482
(dp4483
g61
(dp4484
g88
g89
ssg70
g4473
sg63
(lp4485
S':'
asbag56
(g77
g58
NtRp4486
(dp4487
g61
(dp4488
sg70
g4473
sg63
(lp4489
g56
(g57
g58
NtRp4490
(dp4491
g61
(dp4492
g69
I5
ssg70
g4486
sg63
(lp4493
S'/home/ian/web2py/applications/paideia/sessions/127.0.0.1-db4e5261-f025-4e90-8dbf-852417ffd863'
p4494
asbasbasbag56
(g72
g58
NtRp4495
(dp4496
g61
(dp4497
sg70
g3349
sg63
(lp4498
g56
(g77
g58
NtRp4499
(dp4500
g61
(dp4501
g81
g82
ssg70
g4495
sg63
(lp4502
S'session_id'
p4503
asbag56
(g77
g58
NtRp4504
(dp4505
g61
(dp4506
g88
g89
ssg70
g4495
sg63
(lp4507
S':'
asbag56
(g77
g58
NtRp4508
(dp4509
g61
(dp4510
sg70
g4495
sg63
(lp4511
g56
(g57
g58
NtRp4512
(dp4513
g61
(dp4514
g69
I5
ssg70
g4508
sg63
(lp4515
S'127.0.0.1-db4e5261-f025-4e90-8dbf-852417ffd863'
p4516
asbasbasbag56
(g72
g58
NtRp4517
(dp4518
g61
(dp4519
sg70
g3349
sg63
(lp4520
g56
(g77
g58
NtRp4521
(dp4522
g61
(dp4523
g81
g82
ssg70
g4517
sg63
(lp4524
S'session_id_name'
p4525
asbag56
(g77
g58
NtRp4526
(dp4527
g61
(dp4528
g88
g89
ssg70
g4517
sg63
(lp4529
S':'
asbag56
(g77
g58
NtRp4530
(dp4531
g61
(dp4532
sg70
g4517
sg63
(lp4533
g56
(g57
g58
NtRp4534
(dp4535
g61
(dp4536
g69
I5
ssg70
g4530
sg63
(lp4537
g3406
asbasbasbag56
(g72
g58
NtRp4538
(dp4539
g61
(dp4540
sg70
g3349
sg63
(lp4541
g56
(g77
g58
NtRp4542
(dp4543
g61
(dp4544
g81
g82
ssg70
g4538
sg63
(lp4545
S'session_locked'
p4546
asbag56
(g77
g58
NtRp4547
(dp4548
g61
(dp4549
g88
g89
ssg70
g4538
sg63
(lp4550
S':'
asbag56
(g77
g58
NtRp4551
(dp4552
g61
(dp4553
sg70
g4538
sg63
(lp4554
g56
(g57
g58
NtRp4555
(dp4556
g61
(dp4557
g69
I5
ssg70
g4551
sg63
(lp4558
g1612
asbasbasbag56
(g72
g58
NtRp4559
(dp4560
g61
(dp4561
sg70
g3349
sg63
(lp4562
g56
(g77
g58
NtRp4563
(dp4564
g61
(dp4565
g81
g82
ssg70
g4559
sg63
(lp4566
S'session_new'
p4567
asbag56
(g77
g58
NtRp4568
(dp4569
g61
(dp4570
g88
g89
ssg70
g4559
sg63
(lp4571
S':'
asbag56
(g77
g58
NtRp4572
(dp4573
g61
(dp4574
sg70
g4559
sg63
(lp4575
g56
(g57
g58
NtRp4576
(dp4577
g61
(dp4578
g69
I5
ssg70
g4572
sg63
(lp4579
g99
asbasbasbag56
(g72
g58
NtRp4580
(dp4581
g61
(dp4582
sg70
g3349
sg63
(lp4583
g56
(g77
g58
NtRp4584
(dp4585
g61
(dp4586
g81
g82
ssg70
g4580
sg63
(lp4587
S'status'
p4588
asbag56
(g77
g58
NtRp4589
(dp4590
g61
(dp4591
g88
g89
ssg70
g4580
sg63
(lp4592
S':'
asbag56
(g77
g58
NtRp4593
(dp4594
g61
(dp4595
sg70
g4580
sg63
(lp4596
g56
(g57
g58
NtRp4597
(dp4598
g61
(dp4599
g69
I5
ssg70
g4593
sg63
(lp4600
S'200'
p4601
asbasbasbag56
(g72
g58
NtRp4602
(dp4603
g61
(dp4604
sg70
g3349
sg63
(lp4605
g56
(g77
g58
NtRp4606
(dp4607
g61
(dp4608
g81
g82
ssg70
g4602
sg63
(lp4609
S'subtitle'
p4610
asbag56
(g77
g58
NtRp4611
(dp4612
g61
(dp4613
g88
g89
ssg70
g4602
sg63
(lp4614
S':'
asbag56
(g77
g58
NtRp4615
(dp4616
g61
(dp4617
sg70
g4602
sg63
(lp4618
g56
(g57
g58
NtRp4619
(dp4620
g61
(dp4621
g69
I5
ssg70
g4615
sg63
(lp4622
g3854
(S's0\x00\x00\x00An online space for learning New Testament Greek'
tRp4623
asbasbasbag56
(g72
g58
NtRp4624
(dp4625
g61
(dp4626
sg70
g3349
sg63
(lp4627
g56
(g77
g58
NtRp4628
(dp4629
g61
(dp4630
g81
g82
ssg70
g4624
sg63
(lp4631
S'title'
p4632
asbag56
(g77
g58
NtRp4633
(dp4634
g61
(dp4635
g88
g89
ssg70
g4624
sg63
(lp4636
S':'
asbag56
(g77
g58
NtRp4637
(dp4638
g61
(dp4639
sg70
g4624
sg63
(lp4640
g56
(g57
g58
NtRp4641
(dp4642
g61
(dp4643
g69
I5
ssg70
g4637
sg63
(lp4644
g121
asbasbasbag56
(g72
g58
NtRp4645
(dp4646
g61
(dp4647
sg70
g3349
sg63
(lp4648
g56
(g77
g58
NtRp4649
(dp4650
g61
(dp4651
g81
g82
ssg70
g4645
sg63
(lp4652
g2277
asbag56
(g77
g58
NtRp4653
(dp4654
g61
(dp4655
g88
g89
ssg70
g4645
sg63
(lp4656
S':'
asbag56
(g77
g58
NtRp4657
(dp4658
g61
(dp4659
sg70
g4645
sg63
(lp4660
g56
(g57
g58
NtRp4661
(dp4662
g61
(dp4663
g69
I5
ssg70
g4657
sg63
(lp4664
g2290
asbasbasbag56
(g72
g58
NtRp4665
(dp4666
g61
(dp4667
sg70
g3349
sg63
(lp4668
g56
(g77
g58
NtRp4669
(dp4670
g61
(dp4671
g81
g82
ssg70
g4665
sg63
(lp4672
S'view'
p4673
asbag56
(g77
g58
NtRp4674
(dp4675
g61
(dp4676
g88
g89
ssg70
g4665
sg63
(lp4677
S':'
asbag56
(g77
g58
NtRp4678
(dp4679
g61
(dp4680
sg70
g4665
sg63
(lp4681
g56
(g57
g58
NtRp4682
(dp4683
g61
(dp4684
g69
I5
ssg70
g4678
sg63
(lp4685
S'reporting/user.html'
p4686
asbasbasbasbasbsS'locals'
p4687
(dp4688
ssS'traceback'
p4689
S'Traceback (most recent call last):\n  File "/home/ian/web2py/gluon/restricted.py", line 194, in restricted\n    exec ccode in environment\n  File "/home/ian/web2py/applications/paideia/controllers/reporting.py", line 25, in <module>\n  File "/home/ian/web2py/gluon/globals.py", line 149, in <lambda>\n    self._caller = lambda f: f()\n  File "/home/ian/web2py/gluon/tools.py", line 2456, in f\n    return action(*a, **b)\n  File "/home/ian/web2py/applications/paideia/controllers/reporting.py", line 16, in user\n    the_user = db.auth_user[request.args[0]]\nIndexError: list index out of range\n'
p4690
s.