(dp1
S'output'
p2
S"<type 'exceptions.SyntaxError'> invalid syntax (paideia_exploring.py, line 379)"
p3
sS'layer'
p4
S'/home/iscott/web/web2py/applications/paideia/controllers/exploring.py'
p5
sS'code'
p6
S'# coding: utf8\nfrom paideia_exploring import paideia_path, paideia_tag, counter, map\nfrom paideia_questions import question\nimport pprint\n\ndef session_init():\n    print \'calling session_init\'\n\n    #categorize paths for today\n    tags = paideia_tag()\n    session.tagset = tags.categorize_tags()\n    print \'returned categorized tags\'\n\n    #add paths that weren\'t finished during last session\n    path = paideia_path()\n    session.active_paths = path.find_unfinished()\n    print \'returned unfinished paths\'\n\ndef step_init():\n    path = paideia_path()\n    path_result = path.pick()\n    path_id = path_result[\'path\'].id\n    step_id = path_result[\'step\']\n    print \'returned to controller step_init():\'\n    print \'path \', path_id\n    print \'step \', step_id\n    return path.prompt(path_id, step_id)\n\ndef stepask():\n    \n    form = SQLFORM.factory(\n        Field(\'response\', \'string\', requires=IS_NOT_EMPTY())\n    )\n    if form.accepts(request.vars,  session):\n        session.response = request.vars.response\n        redirect(URL(\'index\', args=[\'reply\']))\n\n    return dict(question=session.question_text, form=form)\n\ndef stepreply():\n    #see whether answer matches any of the three answer fields\n    q = question()\n    the_eval = q.evalq()\n\n    #build response to user\n    if session.eval == \'correct\':\n        the_reply = "Right. \xce\x9a\xce\xac\xce\xbb\xce\xb7."\n    elif session.eval == \'partial\':\n        the_reply = "\xce\x9f\xe1\xbd\x90 \xce\xba\xce\xac\xce\xba\xce\xbf\xcf\x82. You\'re close."\n    else:\n        the_reply = "Incorrect. Try again!"\n\n    #add a record for this attempt in db.attempt_log\n    db.attempt_log.insert(question=session.q_ID, score=q.score, quiz=session.path_id)\n\n    return dict(reply=the_reply, answer=session.readable_answer, raw_answer=session.answer, score=session.score)\n\ndef patherror():\n    if request.args(1) == \'unknown\':\n        db.q_bugs.insert(question=session.qID, a_submitted=request.vars.answer)\n        #TODO: fix problem with changing column name for status\n        #db(db.questions.id==session.qID).update(qqq_status=1);\n    if request.args(1) == \'regex\':\n        db.q_bugs.insert(question=session.qID, a_submitted=request.vars.answer)\n        #db(db.questions.id==session.qID).update(qqq_status=1);\n    message = "Oops! Something about that question confused me, and I\'m not sure whether your answer was right. Let\'s try another one."\n    button = A(\'continue\', _href=URL(\'index\', args=[\'ask\']), _class=\'button-green-grad next_q\', cid=request.cid)\n    #don\'t include this question in counting the number attempted\n    session.q_counter -= 1\n\n    return dict(message=message, button=button)\n\ndef clear_session():\n    if response.vars and \'session_var\' in response.vars:\n        session_vars = response.vars[\'session_var\']\n    else:\n        session_vars = \'all\'\n    path = paideia_path()\n    path.clear_session(session_vars)\n    print \'clearing session vars: \', session_vars\n    print session\n\n@auth.requires_login()\ndef index():\n\n    print \'====================================================\'\n    print \'new action \', datetime.datetime.utcnow()\n    #check to see whether this user session has been initialized\n    if not session.tagset:\n        session_init()\n\n    #when user begins exploring (also default) present map\n    if (request.args(0) == \'start\') or (not request.args):\n        the_map = map()\n        #clear_session()\n\n        return dict(locs=the_map.locs, map_image=the_map.image)\n\n    #after user selects quiz (or \'next question\')\n    elif request.args(0) == \'ask\':\n        return step_init()\n\n    #after submitting answer\n    elif request.args(0) == \'reply\':\n        return stepreply()\n\n    elif request.args(0) == \'error\':\n        return patherror()\n\nresponse._vars=response._caller(index)\n'
p7
sS'snapshot'
p8
(dp9
S'exception'
p10
(dp11
S'__getslice__'
p12
S"<method-wrapper '__getslice__' of exceptions.SyntaxError object>"
p13
sS'text'
p14
S"'    __init__(self, sid):\\n'"
p15
sS'__str__'
p16
S"<method-wrapper '__str__' of exceptions.SyntaxError object>"
p17
sS'__reduce__'
p18
S'<built-in method __reduce__ of exceptions.SyntaxError object>'
p19
sS'__dict__'
p20
S'{}'
p21
sS'__sizeof__'
p22
S'<built-in method __sizeof__ of exceptions.SyntaxError object>'
p23
sS'__init__'
p24
S"<method-wrapper '__init__' of exceptions.SyntaxError object>"
p25
sS'__setattr__'
p26
S"<method-wrapper '__setattr__' of exceptions.SyntaxError object>"
p27
sS'__reduce_ex__'
p28
S'<built-in method __reduce_ex__ of exceptions.SyntaxError object>'
p29
sS'__new__'
p30
S'<built-in method __new__ of type object>'
p31
sS'__format__'
p32
S'<built-in method __format__ of exceptions.SyntaxError object>'
p33
sS'__class__'
p34
S"<type 'exceptions.SyntaxError'>"
p35
sS'filename'
p36
S"'applications/paideia/modules/paideia_exploring.py'"
p37
sS'lineno'
p38
S'379'
p39
sS'msg'
p40
S"'invalid syntax'"
p41
sS'__doc__'
p42
S"'Invalid syntax.'"
p43
sS'__getitem__'
p44
S"<method-wrapper '__getitem__' of exceptions.SyntaxError object>"
p45
sS'__setstate__'
p46
S'<built-in method __setstate__ of exceptions.SyntaxError object>'
p47
sS'__getattribute__'
p48
S"<method-wrapper '__getattribute__' of exceptions.SyntaxError object>"
p49
sS'print_file_and_line'
p50
S'None'
p51
sS'args'
p52
S"('invalid syntax', ('applications/paideia/modules/paideia_exploring.py', 379, 24, '    __init__(self, sid):\\n'))"
p53
sS'__subclasshook__'
p54
S'<built-in method __subclasshook__ of type object>'
p55
sS'offset'
p56
S'24'
p57
sS'__unicode__'
p58
S'<built-in method __unicode__ of exceptions.SyntaxError object>'
p59
sS'__delattr__'
p60
S"<method-wrapper '__delattr__' of exceptions.SyntaxError object>"
p61
sS'__repr__'
p62
S"<method-wrapper '__repr__' of exceptions.SyntaxError object>"
p63
sS'__hash__'
p64
S"<method-wrapper '__hash__' of exceptions.SyntaxError object>"
p65
ssS'evalue'
p66
S'invalid syntax (paideia_exploring.py, line 379)'
p67
sS'request'
p68
ccopy_reg
_reconstructor
p69
(cgluon.html
BEAUTIFY
p70
c__builtin__
object
p71
NtRp72
(dp73
S'attributes'
p74
(dp75
sS'components'
p76
(lp77
g69
(cgluon.html
TABLE
p78
g71
NtRp79
(dp80
g74
(dp81
S'level'
p82
I5
ssS'parent'
p83
Nsg76
(lp84
g69
(cgluon.html
TR
p85
g71
NtRp86
(dp87
g74
(dp88
sg83
g79
sg76
(lp89
g69
(cgluon.html
TD
p90
g71
NtRp91
(dp92
g74
(dp93
S'_style'
p94
S'font-weight:bold;vertical-align:top'
p95
ssg83
g86
sg76
(lp96
S'ajax'
p97
asbag69
(g90
g71
NtRp98
(dp99
g74
(dp100
S'_valign'
p101
S'top'
p102
ssg83
g86
sg76
(lp103
S':'
asbag69
(g90
g71
NtRp104
(dp105
g74
(dp106
sg83
g86
sg76
(lp107
g69
(g70
g71
NtRp108
(dp109
g74
(dp110
g82
I5
ssg83
g104
sg76
(lp111
S'True'
p112
asbasbasbag69
(g85
g71
NtRp113
(dp114
g74
(dp115
sg83
g79
sg76
(lp116
g69
(g90
g71
NtRp117
(dp118
g74
(dp119
g94
g95
ssg83
g113
sg76
(lp120
S'application'
p121
asbag69
(g90
g71
NtRp122
(dp123
g74
(dp124
g101
g102
ssg83
g113
sg76
(lp125
S':'
asbag69
(g90
g71
NtRp126
(dp127
g74
(dp128
sg83
g113
sg76
(lp129
g69
(g70
g71
NtRp130
(dp131
g74
(dp132
g82
I5
ssg83
g126
sg76
(lp133
S'paideia'
p134
asbasbasbag69
(g85
g71
NtRp135
(dp136
g74
(dp137
sg83
g79
sg76
(lp138
g69
(g90
g71
NtRp139
(dp140
g74
(dp141
g94
g95
ssg83
g135
sg76
(lp142
g52
asbag69
(g90
g71
NtRp143
(dp144
g74
(dp145
g101
g102
ssg83
g135
sg76
(lp146
S':'
asbag69
(g90
g71
NtRp147
(dp148
g74
(dp149
sg83
g135
sg76
(lp150
g69
(g70
g71
NtRp151
(dp152
g74
(dp153
g82
I5
ssg83
g147
sg76
(lp154
g69
(g78
g71
NtRp155
(dp156
g74
(dp157
g82
I4
ssg83
Nsg76
(lp158
sbasbasbasbag69
(g85
g71
NtRp159
(dp160
g74
(dp161
sg83
g79
sg76
(lp162
g69
(g90
g71
NtRp163
(dp164
g74
(dp165
g94
g95
ssg83
g159
sg76
(lp166
S'body'
p167
asbag69
(g90
g71
NtRp168
(dp169
g74
(dp170
g101
g102
ssg83
g159
sg76
(lp171
S':'
asbag69
(g90
g71
NtRp172
(dp173
g74
(dp174
sg83
g159
sg76
(lp175
g69
(g70
g71
NtRp176
(dp177
g74
(dp178
g82
I5
ssg83
g172
sg76
(lp179
S'<cStringIO.StringO object at 0x92eb2a0>'
p180
asbasbasbag69
(g85
g71
NtRp181
(dp182
g74
(dp183
sg83
g79
sg76
(lp184
g69
(g90
g71
NtRp185
(dp186
g74
(dp187
g94
g95
ssg83
g181
sg76
(lp188
S'cid'
p189
asbag69
(g90
g71
NtRp190
(dp191
g74
(dp192
g101
g102
ssg83
g181
sg76
(lp193
S':'
asbag69
(g90
g71
NtRp194
(dp195
g74
(dp196
sg83
g181
sg76
(lp197
g69
(g70
g71
NtRp198
(dp199
g74
(dp200
g82
I5
ssg83
g194
sg76
(lp201
S'page'
p202
asbasbasbag69
(g85
g71
NtRp203
(dp204
g74
(dp205
sg83
g79
sg76
(lp206
g69
(g90
g71
NtRp207
(dp208
g74
(dp209
g94
g95
ssg83
g203
sg76
(lp210
S'client'
p211
asbag69
(g90
g71
NtRp212
(dp213
g74
(dp214
g101
g102
ssg83
g203
sg76
(lp215
S':'
asbag69
(g90
g71
NtRp216
(dp217
g74
(dp218
sg83
g203
sg76
(lp219
g69
(g70
g71
NtRp220
(dp221
g74
(dp222
g82
I5
ssg83
g216
sg76
(lp223
S'127.0.0.1'
p224
asbasbasbag69
(g85
g71
NtRp225
(dp226
g74
(dp227
sg83
g79
sg76
(lp228
g69
(g90
g71
NtRp229
(dp230
g74
(dp231
g94
g95
ssg83
g225
sg76
(lp232
S'controller'
p233
asbag69
(g90
g71
NtRp234
(dp235
g74
(dp236
g101
g102
ssg83
g225
sg76
(lp237
S':'
asbag69
(g90
g71
NtRp238
(dp239
g74
(dp240
sg83
g225
sg76
(lp241
g69
(g70
g71
NtRp242
(dp243
g74
(dp244
g82
I5
ssg83
g238
sg76
(lp245
S'exploring'
p246
asbasbasbag69
(g85
g71
NtRp247
(dp248
g74
(dp249
sg83
g79
sg76
(lp250
g69
(g90
g71
NtRp251
(dp252
g74
(dp253
g94
g95
ssg83
g247
sg76
(lp254
S'cookies'
p255
asbag69
(g90
g71
NtRp256
(dp257
g74
(dp258
g101
g102
ssg83
g247
sg76
(lp259
S':'
asbag69
(g90
g71
NtRp260
(dp261
g74
(dp262
sg83
g247
sg76
(lp263
g69
(g70
g71
NtRp264
(dp265
g74
(dp266
g82
I5
ssg83
g260
sg76
(lp267
g69
(g78
g71
NtRp268
(dp269
g74
(dp270
g82
I4
ssg83
Nsg76
(lp271
g69
(g85
g71
NtRp272
(dp273
g74
(dp274
sg83
g268
sg76
(lp275
g69
(g90
g71
NtRp276
(dp277
g74
(dp278
g94
g95
ssg83
g272
sg76
(lp279
S'session_id_admin'
p280
asbag69
(g90
g71
NtRp281
(dp282
g74
(dp283
g101
g102
ssg83
g272
sg76
(lp284
S':'
asbag69
(g90
g71
NtRp285
(dp286
g74
(dp287
sg83
g272
sg76
(lp288
g69
(g70
g71
NtRp289
(dp290
g74
(dp291
g82
I4
ssg83
g285
sg76
(lp292
g69
(g78
g71
NtRp293
(dp294
g74
(dp295
g82
I3
ssg83
Nsg76
(lp296
g69
(g85
g71
NtRp297
(dp298
g74
(dp299
sg83
g293
sg76
(lp300
g69
(g90
g71
NtRp301
(dp302
g74
(dp303
g94
g95
ssg83
g297
sg76
(lp304
S'comment'
p305
asbag69
(g90
g71
NtRp306
(dp307
g74
(dp308
g101
g102
ssg83
g297
sg76
(lp309
S':'
asbag69
(g90
g71
NtRp310
(dp311
g74
(dp312
sg83
g297
sg76
(lp313
g69
(g70
g71
NtRp314
(dp315
g74
(dp316
g82
I3
ssg83
g310
sg76
(lp317
S''
asbasbasbag69
(g85
g71
NtRp318
(dp319
g74
(dp320
sg83
g293
sg76
(lp321
g69
(g90
g71
NtRp322
(dp323
g74
(dp324
g94
g95
ssg83
g318
sg76
(lp325
S'domain'
p326
asbag69
(g90
g71
NtRp327
(dp328
g74
(dp329
g101
g102
ssg83
g318
sg76
(lp330
S':'
asbag69
(g90
g71
NtRp331
(dp332
g74
(dp333
sg83
g318
sg76
(lp334
g69
(g70
g71
NtRp335
(dp336
g74
(dp337
g82
I3
ssg83
g331
sg76
(lp338
S''
asbasbasbag69
(g85
g71
NtRp339
(dp340
g74
(dp341
sg83
g293
sg76
(lp342
g69
(g90
g71
NtRp343
(dp344
g74
(dp345
g94
g95
ssg83
g339
sg76
(lp346
S'expires'
p347
asbag69
(g90
g71
NtRp348
(dp349
g74
(dp350
g101
g102
ssg83
g339
sg76
(lp351
S':'
asbag69
(g90
g71
NtRp352
(dp353
g74
(dp354
sg83
g339
sg76
(lp355
g69
(g70
g71
NtRp356
(dp357
g74
(dp358
g82
I3
ssg83
g352
sg76
(lp359
S''
asbasbasbag69
(g85
g71
NtRp360
(dp361
g74
(dp362
sg83
g293
sg76
(lp363
g69
(g90
g71
NtRp364
(dp365
g74
(dp366
g94
g95
ssg83
g360
sg76
(lp367
S'httponly'
p368
asbag69
(g90
g71
NtRp369
(dp370
g74
(dp371
g101
g102
ssg83
g360
sg76
(lp372
S':'
asbag69
(g90
g71
NtRp373
(dp374
g74
(dp375
sg83
g360
sg76
(lp376
g69
(g70
g71
NtRp377
(dp378
g74
(dp379
g82
I3
ssg83
g373
sg76
(lp380
S''
asbasbasbag69
(g85
g71
NtRp381
(dp382
g74
(dp383
sg83
g293
sg76
(lp384
g69
(g90
g71
NtRp385
(dp386
g74
(dp387
g94
g95
ssg83
g381
sg76
(lp388
S'max-age'
p389
asbag69
(g90
g71
NtRp390
(dp391
g74
(dp392
g101
g102
ssg83
g381
sg76
(lp393
S':'
asbag69
(g90
g71
NtRp394
(dp395
g74
(dp396
sg83
g381
sg76
(lp397
g69
(g70
g71
NtRp398
(dp399
g74
(dp400
g82
I3
ssg83
g394
sg76
(lp401
S''
asbasbasbag69
(g85
g71
NtRp402
(dp403
g74
(dp404
sg83
g293
sg76
(lp405
g69
(g90
g71
NtRp406
(dp407
g74
(dp408
g94
g95
ssg83
g402
sg76
(lp409
S'path'
p410
asbag69
(g90
g71
NtRp411
(dp412
g74
(dp413
g101
g102
ssg83
g402
sg76
(lp414
S':'
asbag69
(g90
g71
NtRp415
(dp416
g74
(dp417
sg83
g402
sg76
(lp418
g69
(g70
g71
NtRp419
(dp420
g74
(dp421
g82
I3
ssg83
g415
sg76
(lp422
S''
asbasbasbag69
(g85
g71
NtRp423
(dp424
g74
(dp425
sg83
g293
sg76
(lp426
g69
(g90
g71
NtRp427
(dp428
g74
(dp429
g94
g95
ssg83
g423
sg76
(lp430
S'secure'
p431
asbag69
(g90
g71
NtRp432
(dp433
g74
(dp434
g101
g102
ssg83
g423
sg76
(lp435
S':'
asbag69
(g90
g71
NtRp436
(dp437
g74
(dp438
sg83
g423
sg76
(lp439
g69
(g70
g71
NtRp440
(dp441
g74
(dp442
g82
I3
ssg83
g436
sg76
(lp443
S''
asbasbasbag69
(g85
g71
NtRp444
(dp445
g74
(dp446
sg83
g293
sg76
(lp447
g69
(g90
g71
NtRp448
(dp449
g74
(dp450
g94
g95
ssg83
g444
sg76
(lp451
S'version'
p452
asbag69
(g90
g71
NtRp453
(dp454
g74
(dp455
g101
g102
ssg83
g444
sg76
(lp456
S':'
asbag69
(g90
g71
NtRp457
(dp458
g74
(dp459
sg83
g444
sg76
(lp460
g69
(g70
g71
NtRp461
(dp462
g74
(dp463
g82
I3
ssg83
g457
sg76
(lp464
S''
asbasbasbasbasbasbasbag69
(g85
g71
NtRp465
(dp466
g74
(dp467
sg83
g268
sg76
(lp468
g69
(g90
g71
NtRp469
(dp470
g74
(dp471
g94
g95
ssg83
g465
sg76
(lp472
S'session_id_paideia'
p473
asbag69
(g90
g71
NtRp474
(dp475
g74
(dp476
g101
g102
ssg83
g465
sg76
(lp477
S':'
asbag69
(g90
g71
NtRp478
(dp479
g74
(dp480
sg83
g465
sg76
(lp481
g69
(g70
g71
NtRp482
(dp483
g74
(dp484
g82
I4
ssg83
g478
sg76
(lp485
g69
(g78
g71
NtRp486
(dp487
g74
(dp488
g82
I3
ssg83
Nsg76
(lp489
g69
(g85
g71
NtRp490
(dp491
g74
(dp492
sg83
g486
sg76
(lp493
g69
(g90
g71
NtRp494
(dp495
g74
(dp496
g94
g95
ssg83
g490
sg76
(lp497
g305
asbag69
(g90
g71
NtRp498
(dp499
g74
(dp500
g101
g102
ssg83
g490
sg76
(lp501
S':'
asbag69
(g90
g71
NtRp502
(dp503
g74
(dp504
sg83
g490
sg76
(lp505
g69
(g70
g71
NtRp506
(dp507
g74
(dp508
g82
I3
ssg83
g502
sg76
(lp509
S''
asbasbasbag69
(g85
g71
NtRp510
(dp511
g74
(dp512
sg83
g486
sg76
(lp513
g69
(g90
g71
NtRp514
(dp515
g74
(dp516
g94
g95
ssg83
g510
sg76
(lp517
g326
asbag69
(g90
g71
NtRp518
(dp519
g74
(dp520
g101
g102
ssg83
g510
sg76
(lp521
S':'
asbag69
(g90
g71
NtRp522
(dp523
g74
(dp524
sg83
g510
sg76
(lp525
g69
(g70
g71
NtRp526
(dp527
g74
(dp528
g82
I3
ssg83
g522
sg76
(lp529
S''
asbasbasbag69
(g85
g71
NtRp530
(dp531
g74
(dp532
sg83
g486
sg76
(lp533
g69
(g90
g71
NtRp534
(dp535
g74
(dp536
g94
g95
ssg83
g530
sg76
(lp537
g347
asbag69
(g90
g71
NtRp538
(dp539
g74
(dp540
g101
g102
ssg83
g530
sg76
(lp541
S':'
asbag69
(g90
g71
NtRp542
(dp543
g74
(dp544
sg83
g530
sg76
(lp545
g69
(g70
g71
NtRp546
(dp547
g74
(dp548
g82
I3
ssg83
g542
sg76
(lp549
S''
asbasbasbag69
(g85
g71
NtRp550
(dp551
g74
(dp552
sg83
g486
sg76
(lp553
g69
(g90
g71
NtRp554
(dp555
g74
(dp556
g94
g95
ssg83
g550
sg76
(lp557
g368
asbag69
(g90
g71
NtRp558
(dp559
g74
(dp560
g101
g102
ssg83
g550
sg76
(lp561
S':'
asbag69
(g90
g71
NtRp562
(dp563
g74
(dp564
sg83
g550
sg76
(lp565
g69
(g70
g71
NtRp566
(dp567
g74
(dp568
g82
I3
ssg83
g562
sg76
(lp569
S''
asbasbasbag69
(g85
g71
NtRp570
(dp571
g74
(dp572
sg83
g486
sg76
(lp573
g69
(g90
g71
NtRp574
(dp575
g74
(dp576
g94
g95
ssg83
g570
sg76
(lp577
g389
asbag69
(g90
g71
NtRp578
(dp579
g74
(dp580
g101
g102
ssg83
g570
sg76
(lp581
S':'
asbag69
(g90
g71
NtRp582
(dp583
g74
(dp584
sg83
g570
sg76
(lp585
g69
(g70
g71
NtRp586
(dp587
g74
(dp588
g82
I3
ssg83
g582
sg76
(lp589
S''
asbasbasbag69
(g85
g71
NtRp590
(dp591
g74
(dp592
sg83
g486
sg76
(lp593
g69
(g90
g71
NtRp594
(dp595
g74
(dp596
g94
g95
ssg83
g590
sg76
(lp597
g410
asbag69
(g90
g71
NtRp598
(dp599
g74
(dp600
g101
g102
ssg83
g590
sg76
(lp601
S':'
asbag69
(g90
g71
NtRp602
(dp603
g74
(dp604
sg83
g590
sg76
(lp605
g69
(g70
g71
NtRp606
(dp607
g74
(dp608
g82
I3
ssg83
g602
sg76
(lp609
S''
asbasbasbag69
(g85
g71
NtRp610
(dp611
g74
(dp612
sg83
g486
sg76
(lp613
g69
(g90
g71
NtRp614
(dp615
g74
(dp616
g94
g95
ssg83
g610
sg76
(lp617
g431
asbag69
(g90
g71
NtRp618
(dp619
g74
(dp620
g101
g102
ssg83
g610
sg76
(lp621
S':'
asbag69
(g90
g71
NtRp622
(dp623
g74
(dp624
sg83
g610
sg76
(lp625
g69
(g70
g71
NtRp626
(dp627
g74
(dp628
g82
I3
ssg83
g622
sg76
(lp629
S''
asbasbasbag69
(g85
g71
NtRp630
(dp631
g74
(dp632
sg83
g486
sg76
(lp633
g69
(g90
g71
NtRp634
(dp635
g74
(dp636
g94
g95
ssg83
g630
sg76
(lp637
g452
asbag69
(g90
g71
NtRp638
(dp639
g74
(dp640
g101
g102
ssg83
g630
sg76
(lp641
S':'
asbag69
(g90
g71
NtRp642
(dp643
g74
(dp644
sg83
g630
sg76
(lp645
g69
(g70
g71
NtRp646
(dp647
g74
(dp648
g82
I3
ssg83
g642
sg76
(lp649
S''
asbasbasbasbasbasbasbag69
(g85
g71
NtRp650
(dp651
g74
(dp652
sg83
g268
sg76
(lp653
g69
(g90
g71
NtRp654
(dp655
g74
(dp656
g94
g95
ssg83
g650
sg76
(lp657
S'session_id_welcome'
p658
asbag69
(g90
g71
NtRp659
(dp660
g74
(dp661
g101
g102
ssg83
g650
sg76
(lp662
S':'
asbag69
(g90
g71
NtRp663
(dp664
g74
(dp665
sg83
g650
sg76
(lp666
g69
(g70
g71
NtRp667
(dp668
g74
(dp669
g82
I4
ssg83
g663
sg76
(lp670
g69
(g78
g71
NtRp671
(dp672
g74
(dp673
g82
I3
ssg83
Nsg76
(lp674
g69
(g85
g71
NtRp675
(dp676
g74
(dp677
sg83
g671
sg76
(lp678
g69
(g90
g71
NtRp679
(dp680
g74
(dp681
g94
g95
ssg83
g675
sg76
(lp682
g305
asbag69
(g90
g71
NtRp683
(dp684
g74
(dp685
g101
g102
ssg83
g675
sg76
(lp686
S':'
asbag69
(g90
g71
NtRp687
(dp688
g74
(dp689
sg83
g675
sg76
(lp690
g69
(g70
g71
NtRp691
(dp692
g74
(dp693
g82
I3
ssg83
g687
sg76
(lp694
S''
asbasbasbag69
(g85
g71
NtRp695
(dp696
g74
(dp697
sg83
g671
sg76
(lp698
g69
(g90
g71
NtRp699
(dp700
g74
(dp701
g94
g95
ssg83
g695
sg76
(lp702
g326
asbag69
(g90
g71
NtRp703
(dp704
g74
(dp705
g101
g102
ssg83
g695
sg76
(lp706
S':'
asbag69
(g90
g71
NtRp707
(dp708
g74
(dp709
sg83
g695
sg76
(lp710
g69
(g70
g71
NtRp711
(dp712
g74
(dp713
g82
I3
ssg83
g707
sg76
(lp714
S''
asbasbasbag69
(g85
g71
NtRp715
(dp716
g74
(dp717
sg83
g671
sg76
(lp718
g69
(g90
g71
NtRp719
(dp720
g74
(dp721
g94
g95
ssg83
g715
sg76
(lp722
g347
asbag69
(g90
g71
NtRp723
(dp724
g74
(dp725
g101
g102
ssg83
g715
sg76
(lp726
S':'
asbag69
(g90
g71
NtRp727
(dp728
g74
(dp729
sg83
g715
sg76
(lp730
g69
(g70
g71
NtRp731
(dp732
g74
(dp733
g82
I3
ssg83
g727
sg76
(lp734
S''
asbasbasbag69
(g85
g71
NtRp735
(dp736
g74
(dp737
sg83
g671
sg76
(lp738
g69
(g90
g71
NtRp739
(dp740
g74
(dp741
g94
g95
ssg83
g735
sg76
(lp742
g368
asbag69
(g90
g71
NtRp743
(dp744
g74
(dp745
g101
g102
ssg83
g735
sg76
(lp746
S':'
asbag69
(g90
g71
NtRp747
(dp748
g74
(dp749
sg83
g735
sg76
(lp750
g69
(g70
g71
NtRp751
(dp752
g74
(dp753
g82
I3
ssg83
g747
sg76
(lp754
S''
asbasbasbag69
(g85
g71
NtRp755
(dp756
g74
(dp757
sg83
g671
sg76
(lp758
g69
(g90
g71
NtRp759
(dp760
g74
(dp761
g94
g95
ssg83
g755
sg76
(lp762
g389
asbag69
(g90
g71
NtRp763
(dp764
g74
(dp765
g101
g102
ssg83
g755
sg76
(lp766
S':'
asbag69
(g90
g71
NtRp767
(dp768
g74
(dp769
sg83
g755
sg76
(lp770
g69
(g70
g71
NtRp771
(dp772
g74
(dp773
g82
I3
ssg83
g767
sg76
(lp774
S''
asbasbasbag69
(g85
g71
NtRp775
(dp776
g74
(dp777
sg83
g671
sg76
(lp778
g69
(g90
g71
NtRp779
(dp780
g74
(dp781
g94
g95
ssg83
g775
sg76
(lp782
g410
asbag69
(g90
g71
NtRp783
(dp784
g74
(dp785
g101
g102
ssg83
g775
sg76
(lp786
S':'
asbag69
(g90
g71
NtRp787
(dp788
g74
(dp789
sg83
g775
sg76
(lp790
g69
(g70
g71
NtRp791
(dp792
g74
(dp793
g82
I3
ssg83
g787
sg76
(lp794
S''
asbasbasbag69
(g85
g71
NtRp795
(dp796
g74
(dp797
sg83
g671
sg76
(lp798
g69
(g90
g71
NtRp799
(dp800
g74
(dp801
g94
g95
ssg83
g795
sg76
(lp802
g431
asbag69
(g90
g71
NtRp803
(dp804
g74
(dp805
g101
g102
ssg83
g795
sg76
(lp806
S':'
asbag69
(g90
g71
NtRp807
(dp808
g74
(dp809
sg83
g795
sg76
(lp810
g69
(g70
g71
NtRp811
(dp812
g74
(dp813
g82
I3
ssg83
g807
sg76
(lp814
S''
asbasbasbag69
(g85
g71
NtRp815
(dp816
g74
(dp817
sg83
g671
sg76
(lp818
g69
(g90
g71
NtRp819
(dp820
g74
(dp821
g94
g95
ssg83
g815
sg76
(lp822
g452
asbag69
(g90
g71
NtRp823
(dp824
g74
(dp825
g101
g102
ssg83
g815
sg76
(lp826
S':'
asbag69
(g90
g71
NtRp827
(dp828
g74
(dp829
sg83
g815
sg76
(lp830
g69
(g70
g71
NtRp831
(dp832
g74
(dp833
g82
I3
ssg83
g827
sg76
(lp834
S''
asbasbasbasbasbasbasbasbasbasbasbag69
(g85
g71
NtRp835
(dp836
g74
(dp837
sg83
g79
sg76
(lp838
g69
(g90
g71
NtRp839
(dp840
g74
(dp841
g94
g95
ssg83
g835
sg76
(lp842
S'env'
p843
asbag69
(g90
g71
NtRp844
(dp845
g74
(dp846
g101
g102
ssg83
g835
sg76
(lp847
S':'
asbag69
(g90
g71
NtRp848
(dp849
g74
(dp850
sg83
g835
sg76
(lp851
g69
(g70
g71
NtRp852
(dp853
g74
(dp854
g82
I5
ssg83
g848
sg76
(lp855
g69
(g78
g71
NtRp856
(dp857
g74
(dp858
g82
I4
ssg83
Nsg76
(lp859
g69
(g85
g71
NtRp860
(dp861
g74
(dp862
sg83
g856
sg76
(lp863
g69
(g90
g71
NtRp864
(dp865
g74
(dp866
g94
g95
ssg83
g860
sg76
(lp867
S'app_folders'
p868
asbag69
(g90
g71
NtRp869
(dp870
g74
(dp871
g101
g102
ssg83
g860
sg76
(lp872
S':'
asbag69
(g90
g71
NtRp873
(dp874
g74
(dp875
sg83
g860
sg76
(lp876
g69
(g70
g71
NtRp877
(dp878
g74
(dp879
g82
I4
ssg83
g873
sg76
(lp880
S"set(['/home/iscott/web/web2py/applications/paideia/', '/home/iscott/web/web2py/applications/welcome/'])"
p881
asbasbasbag69
(g85
g71
NtRp882
(dp883
g74
(dp884
sg83
g856
sg76
(lp885
g69
(g90
g71
NtRp886
(dp887
g74
(dp888
g94
g95
ssg83
g882
sg76
(lp889
S'applications_parent'
p890
asbag69
(g90
g71
NtRp891
(dp892
g74
(dp893
g101
g102
ssg83
g882
sg76
(lp894
S':'
asbag69
(g90
g71
NtRp895
(dp896
g74
(dp897
sg83
g882
sg76
(lp898
g69
(g70
g71
NtRp899
(dp900
g74
(dp901
g82
I4
ssg83
g895
sg76
(lp902
S'/home/iscott/web/web2py'
p903
asbasbasbag69
(g85
g71
NtRp904
(dp905
g74
(dp906
sg83
g856
sg76
(lp907
g69
(g90
g71
NtRp908
(dp909
g74
(dp910
g94
g95
ssg83
g904
sg76
(lp911
S'cmd_args'
p912
asbag69
(g90
g71
NtRp913
(dp914
g74
(dp915
g101
g102
ssg83
g904
sg76
(lp916
S':'
asbag69
(g90
g71
NtRp917
(dp918
g74
(dp919
sg83
g904
sg76
(lp920
g69
(g70
g71
NtRp921
(dp922
g74
(dp923
g82
I4
ssg83
g917
sg76
(lp924
g69
(g78
g71
NtRp925
(dp926
g74
(dp927
g82
I3
ssg83
Nsg76
(lp928
sbasbasbasbag69
(g85
g71
NtRp929
(dp930
g74
(dp931
sg83
g856
sg76
(lp932
g69
(g90
g71
NtRp933
(dp934
g74
(dp935
g94
g95
ssg83
g929
sg76
(lp936
S'cmd_options'
p937
asbag69
(g90
g71
NtRp938
(dp939
g74
(dp940
g101
g102
ssg83
g929
sg76
(lp941
S':'
asbag69
(g90
g71
NtRp942
(dp943
g74
(dp944
sg83
g929
sg76
(lp945
g69
(g70
g71
NtRp946
(dp947
g74
(dp948
g82
I4
ssg83
g942
sg76
(lp949
S"<Values at 0x8b1eb8c: {'verbose': False, 'ip': '127.0.0.1', 'shutdown_timeout': 5, 'taskbar': False, 'nocron': False, 'pid_filename': 'httpserver.pid', 'maxthreads': None, 'softcron': False, 'server_name': 'ubuntu', 'bpython': False, 'nogui': False, 'port': 8000, 'extcron': False, 'debuglevel': 30, 'test': None, 'folder': '/home/iscott/web/web2py', 'config': '', 'import_models': False, 'winservice': '', 'shell': None, 'run': '', 'log_filename': 'httpserver.log', 'args': [''], 'socket_timeout': 1, 'ssl_ca_certificate': None, 'scheduler': None, 'profiler_filename': None, 'ssl_private_key': '', 'password': '<ask>', 'request_queue_size': 5, 'ssl_certificate': '', 'cronjob': False, 'numthreads': None, 'quiet': False, 'interfaces': None, 'minthreads': None, 'timeout': 10, 'plain': False, 'nobanner': False}>"
p950
asbasbasbag69
(g85
g71
NtRp951
(dp952
g74
(dp953
sg83
g856
sg76
(lp954
g69
(g90
g71
NtRp955
(dp956
g74
(dp957
g94
g95
ssg83
g951
sg76
(lp958
S'db_sessions'
p959
asbag69
(g90
g71
NtRp960
(dp961
g74
(dp962
g101
g102
ssg83
g951
sg76
(lp963
S':'
asbag69
(g90
g71
NtRp964
(dp965
g74
(dp966
sg83
g951
sg76
(lp967
g69
(g70
g71
NtRp968
(dp969
g74
(dp970
g82
I4
ssg83
g964
sg76
(lp971
S'set([])'
p972
asbasbasbag69
(g85
g71
NtRp973
(dp974
g74
(dp975
sg83
g856
sg76
(lp976
g69
(g90
g71
NtRp977
(dp978
g74
(dp979
g94
g95
ssg83
g973
sg76
(lp980
S'debugging'
p981
asbag69
(g90
g71
NtRp982
(dp983
g74
(dp984
g101
g102
ssg83
g973
sg76
(lp985
S':'
asbag69
(g90
g71
NtRp986
(dp987
g74
(dp988
sg83
g973
sg76
(lp989
g69
(g70
g71
NtRp990
(dp991
g74
(dp992
g82
I4
ssg83
g986
sg76
(lp993
S'False'
p994
asbasbasbag69
(g85
g71
NtRp995
(dp996
g74
(dp997
sg83
g856
sg76
(lp998
g69
(g90
g71
NtRp999
(dp1000
g74
(dp1001
g94
g95
ssg83
g995
sg76
(lp1002
S'gluon_parent'
p1003
asbag69
(g90
g71
NtRp1004
(dp1005
g74
(dp1006
g101
g102
ssg83
g995
sg76
(lp1007
S':'
asbag69
(g90
g71
NtRp1008
(dp1009
g74
(dp1010
sg83
g995
sg76
(lp1011
g69
(g70
g71
NtRp1012
(dp1013
g74
(dp1014
g82
I4
ssg83
g1008
sg76
(lp1015
S'/home/iscott/web/web2py'
p1016
asbasbasbag69
(g85
g71
NtRp1017
(dp1018
g74
(dp1019
sg83
g856
sg76
(lp1020
g69
(g90
g71
NtRp1021
(dp1022
g74
(dp1023
g94
g95
ssg83
g1017
sg76
(lp1024
S'http_accept'
p1025
asbag69
(g90
g71
NtRp1026
(dp1027
g74
(dp1028
g101
g102
ssg83
g1017
sg76
(lp1029
S':'
asbag69
(g90
g71
NtRp1030
(dp1031
g74
(dp1032
sg83
g1017
sg76
(lp1033
g69
(g70
g71
NtRp1034
(dp1035
g74
(dp1036
g82
I4
ssg83
g1030
sg76
(lp1037
S'*/*'
p1038
asbasbasbag69
(g85
g71
NtRp1039
(dp1040
g74
(dp1041
sg83
g856
sg76
(lp1042
g69
(g90
g71
NtRp1043
(dp1044
g74
(dp1045
g94
g95
ssg83
g1039
sg76
(lp1046
S'http_accept_encoding'
p1047
asbag69
(g90
g71
NtRp1048
(dp1049
g74
(dp1050
g101
g102
ssg83
g1039
sg76
(lp1051
S':'
asbag69
(g90
g71
NtRp1052
(dp1053
g74
(dp1054
sg83
g1039
sg76
(lp1055
g69
(g70
g71
NtRp1056
(dp1057
g74
(dp1058
g82
I4
ssg83
g1052
sg76
(lp1059
S'gzip, deflate'
p1060
asbasbasbag69
(g85
g71
NtRp1061
(dp1062
g74
(dp1063
sg83
g856
sg76
(lp1064
g69
(g90
g71
NtRp1065
(dp1066
g74
(dp1067
g94
g95
ssg83
g1061
sg76
(lp1068
S'http_accept_language'
p1069
asbag69
(g90
g71
NtRp1070
(dp1071
g74
(dp1072
g101
g102
ssg83
g1061
sg76
(lp1073
S':'
asbag69
(g90
g71
NtRp1074
(dp1075
g74
(dp1076
sg83
g1061
sg76
(lp1077
g69
(g70
g71
NtRp1078
(dp1079
g74
(dp1080
g82
I4
ssg83
g1074
sg76
(lp1081
S'en-us,en;q=0.5'
p1082
asbasbasbag69
(g85
g71
NtRp1083
(dp1084
g74
(dp1085
sg83
g856
sg76
(lp1086
g69
(g90
g71
NtRp1087
(dp1088
g74
(dp1089
g94
g95
ssg83
g1083
sg76
(lp1090
S'http_connection'
p1091
asbag69
(g90
g71
NtRp1092
(dp1093
g74
(dp1094
g101
g102
ssg83
g1083
sg76
(lp1095
S':'
asbag69
(g90
g71
NtRp1096
(dp1097
g74
(dp1098
sg83
g1083
sg76
(lp1099
g69
(g70
g71
NtRp1100
(dp1101
g74
(dp1102
g82
I4
ssg83
g1096
sg76
(lp1103
S'keep-alive'
p1104
asbasbasbag69
(g85
g71
NtRp1105
(dp1106
g74
(dp1107
sg83
g856
sg76
(lp1108
g69
(g90
g71
NtRp1109
(dp1110
g74
(dp1111
g94
g95
ssg83
g1105
sg76
(lp1112
S'http_cookie'
p1113
asbag69
(g90
g71
NtRp1114
(dp1115
g74
(dp1116
g101
g102
ssg83
g1105
sg76
(lp1117
S':'
asbag69
(g90
g71
NtRp1118
(dp1119
g74
(dp1120
sg83
g1105
sg76
(lp1121
g69
(g70
g71
NtRp1122
(dp1123
g74
(dp1124
g82
I4
ssg83
g1118
sg76
(lp1125
S'session_id_paideia=127.0.0.1-2edda130-d654-4b0f-a819-06652e443aa6; session_id_welcome=127.0.0.1-a66cd4db-834c-4b8d-ab32-5e8ad2ac8802; session_id_admin=127.0.0.1-836f3ad2-1ab5-4286-8d99-62e64ccc038b'
p1126
asbasbasbag69
(g85
g71
NtRp1127
(dp1128
g74
(dp1129
sg83
g856
sg76
(lp1130
g69
(g90
g71
NtRp1131
(dp1132
g74
(dp1133
g94
g95
ssg83
g1127
sg76
(lp1134
S'http_host'
p1135
asbag69
(g90
g71
NtRp1136
(dp1137
g74
(dp1138
g101
g102
ssg83
g1127
sg76
(lp1139
S':'
asbag69
(g90
g71
NtRp1140
(dp1141
g74
(dp1142
sg83
g1127
sg76
(lp1143
g69
(g70
g71
NtRp1144
(dp1145
g74
(dp1146
g82
I4
ssg83
g1140
sg76
(lp1147
S'127.0.0.1:8000'
p1148
asbasbasbag69
(g85
g71
NtRp1149
(dp1150
g74
(dp1151
sg83
g856
sg76
(lp1152
g69
(g90
g71
NtRp1153
(dp1154
g74
(dp1155
g94
g95
ssg83
g1149
sg76
(lp1156
S'http_referer'
p1157
asbag69
(g90
g71
NtRp1158
(dp1159
g74
(dp1160
g101
g102
ssg83
g1149
sg76
(lp1161
S':'
asbag69
(g90
g71
NtRp1162
(dp1163
g74
(dp1164
sg83
g1149
sg76
(lp1165
g69
(g70
g71
NtRp1166
(dp1167
g74
(dp1168
g82
I4
ssg83
g1162
sg76
(lp1169
S'http://127.0.0.1:8000/paideia/exploring/index'
p1170
asbasbasbag69
(g85
g71
NtRp1171
(dp1172
g74
(dp1173
sg83
g856
sg76
(lp1174
g69
(g90
g71
NtRp1175
(dp1176
g74
(dp1177
g94
g95
ssg83
g1171
sg76
(lp1178
S'http_user_agent'
p1179
asbag69
(g90
g71
NtRp1180
(dp1181
g74
(dp1182
g101
g102
ssg83
g1171
sg76
(lp1183
S':'
asbag69
(g90
g71
NtRp1184
(dp1185
g74
(dp1186
sg83
g1171
sg76
(lp1187
g69
(g70
g71
NtRp1188
(dp1189
g74
(dp1190
g82
I4
ssg83
g1184
sg76
(lp1191
S'Mozilla/5.0 (X11; Ubuntu; Linux i686; rv:11.0) Gecko/20100101 Firefox/11.0 openid'
p1192
asbasbasbag69
(g85
g71
NtRp1193
(dp1194
g74
(dp1195
sg83
g856
sg76
(lp1196
g69
(g90
g71
NtRp1197
(dp1198
g74
(dp1199
g94
g95
ssg83
g1193
sg76
(lp1200
S'http_web2py_component_element'
p1201
asbag69
(g90
g71
NtRp1202
(dp1203
g74
(dp1204
g101
g102
ssg83
g1193
sg76
(lp1205
S':'
asbag69
(g90
g71
NtRp1206
(dp1207
g74
(dp1208
sg83
g1193
sg76
(lp1209
g69
(g70
g71
NtRp1210
(dp1211
g74
(dp1212
g82
I4
ssg83
g1206
sg76
(lp1213
g202
asbasbasbag69
(g85
g71
NtRp1214
(dp1215
g74
(dp1216
sg83
g856
sg76
(lp1217
g69
(g90
g71
NtRp1218
(dp1219
g74
(dp1220
g94
g95
ssg83
g1214
sg76
(lp1221
S'http_web2py_component_location'
p1222
asbag69
(g90
g71
NtRp1223
(dp1224
g74
(dp1225
g101
g102
ssg83
g1214
sg76
(lp1226
S':'
asbag69
(g90
g71
NtRp1227
(dp1228
g74
(dp1229
sg83
g1214
sg76
(lp1230
g69
(g70
g71
NtRp1231
(dp1232
g74
(dp1233
g82
I4
ssg83
g1227
sg76
(lp1234
S'http://127.0.0.1:8000/paideia/exploring/index'
p1235
asbasbasbag69
(g85
g71
NtRp1236
(dp1237
g74
(dp1238
sg83
g856
sg76
(lp1239
g69
(g90
g71
NtRp1240
(dp1241
g74
(dp1242
g94
g95
ssg83
g1236
sg76
(lp1243
S'http_x_requested_with'
p1244
asbag69
(g90
g71
NtRp1245
(dp1246
g74
(dp1247
g101
g102
ssg83
g1236
sg76
(lp1248
S':'
asbag69
(g90
g71
NtRp1249
(dp1250
g74
(dp1251
sg83
g1236
sg76
(lp1252
g69
(g70
g71
NtRp1253
(dp1254
g74
(dp1255
g82
I4
ssg83
g1249
sg76
(lp1256
S'XMLHttpRequest'
p1257
asbasbasbag69
(g85
g71
NtRp1258
(dp1259
g74
(dp1260
sg83
g856
sg76
(lp1261
g69
(g90
g71
NtRp1262
(dp1263
g74
(dp1264
g94
g95
ssg83
g1258
sg76
(lp1265
S'is_jython'
p1266
asbag69
(g90
g71
NtRp1267
(dp1268
g74
(dp1269
g101
g102
ssg83
g1258
sg76
(lp1270
S':'
asbag69
(g90
g71
NtRp1271
(dp1272
g74
(dp1273
sg83
g1258
sg76
(lp1274
g69
(g70
g71
NtRp1275
(dp1276
g74
(dp1277
g82
I4
ssg83
g1271
sg76
(lp1278
g994
asbasbasbag69
(g85
g71
NtRp1279
(dp1280
g74
(dp1281
sg83
g856
sg76
(lp1282
g69
(g90
g71
NtRp1283
(dp1284
g74
(dp1285
g94
g95
ssg83
g1279
sg76
(lp1286
S'is_pypy'
p1287
asbag69
(g90
g71
NtRp1288
(dp1289
g74
(dp1290
g101
g102
ssg83
g1279
sg76
(lp1291
S':'
asbag69
(g90
g71
NtRp1292
(dp1293
g74
(dp1294
sg83
g1279
sg76
(lp1295
g69
(g70
g71
NtRp1296
(dp1297
g74
(dp1298
g82
I4
ssg83
g1292
sg76
(lp1299
g994
asbasbasbag69
(g85
g71
NtRp1300
(dp1301
g74
(dp1302
sg83
g856
sg76
(lp1303
g69
(g90
g71
NtRp1304
(dp1305
g74
(dp1306
g94
g95
ssg83
g1300
sg76
(lp1307
S'path_info'
p1308
asbag69
(g90
g71
NtRp1309
(dp1310
g74
(dp1311
g101
g102
ssg83
g1300
sg76
(lp1312
S':'
asbag69
(g90
g71
NtRp1313
(dp1314
g74
(dp1315
sg83
g1300
sg76
(lp1316
g69
(g70
g71
NtRp1317
(dp1318
g74
(dp1319
g82
I4
ssg83
g1313
sg76
(lp1320
S'/paideia/exploring/index.load'
p1321
asbasbasbag69
(g85
g71
NtRp1322
(dp1323
g74
(dp1324
sg83
g856
sg76
(lp1325
g69
(g90
g71
NtRp1326
(dp1327
g74
(dp1328
g94
g95
ssg83
g1322
sg76
(lp1329
S'query_string'
p1330
asbag69
(g90
g71
NtRp1331
(dp1332
g74
(dp1333
g101
g102
ssg83
g1322
sg76
(lp1334
S':'
asbag69
(g90
g71
NtRp1335
(dp1336
g74
(dp1337
sg83
g1322
sg76
(lp1338
g69
(g70
g71
NtRp1339
(dp1340
g74
(dp1341
g82
I4
ssg83
g1335
sg76
(lp1342
S''
asbasbasbag69
(g85
g71
NtRp1343
(dp1344
g74
(dp1345
sg83
g856
sg76
(lp1346
g69
(g90
g71
NtRp1347
(dp1348
g74
(dp1349
g94
g95
ssg83
g1343
sg76
(lp1350
S'remote_addr'
p1351
asbag69
(g90
g71
NtRp1352
(dp1353
g74
(dp1354
g101
g102
ssg83
g1343
sg76
(lp1355
S':'
asbag69
(g90
g71
NtRp1356
(dp1357
g74
(dp1358
sg83
g1343
sg76
(lp1359
g69
(g70
g71
NtRp1360
(dp1361
g74
(dp1362
g82
I4
ssg83
g1356
sg76
(lp1363
g224
asbasbasbag69
(g85
g71
NtRp1364
(dp1365
g74
(dp1366
sg83
g856
sg76
(lp1367
g69
(g90
g71
NtRp1368
(dp1369
g74
(dp1370
g94
g95
ssg83
g1364
sg76
(lp1371
S'remote_port'
p1372
asbag69
(g90
g71
NtRp1373
(dp1374
g74
(dp1375
g101
g102
ssg83
g1364
sg76
(lp1376
S':'
asbag69
(g90
g71
NtRp1377
(dp1378
g74
(dp1379
sg83
g1364
sg76
(lp1380
g69
(g70
g71
NtRp1381
(dp1382
g74
(dp1383
g82
I4
ssg83
g1377
sg76
(lp1384
S'52415'
p1385
asbasbasbag69
(g85
g71
NtRp1386
(dp1387
g74
(dp1388
sg83
g856
sg76
(lp1389
g69
(g90
g71
NtRp1390
(dp1391
g74
(dp1392
g94
g95
ssg83
g1386
sg76
(lp1393
S'request_method'
p1394
asbag69
(g90
g71
NtRp1395
(dp1396
g74
(dp1397
g101
g102
ssg83
g1386
sg76
(lp1398
S':'
asbag69
(g90
g71
NtRp1399
(dp1400
g74
(dp1401
sg83
g1386
sg76
(lp1402
g69
(g70
g71
NtRp1403
(dp1404
g74
(dp1405
g82
I4
ssg83
g1399
sg76
(lp1406
S'GET'
p1407
asbasbasbag69
(g85
g71
NtRp1408
(dp1409
g74
(dp1410
sg83
g856
sg76
(lp1411
g69
(g90
g71
NtRp1412
(dp1413
g74
(dp1414
g94
g95
ssg83
g1408
sg76
(lp1415
S'script_name'
p1416
asbag69
(g90
g71
NtRp1417
(dp1418
g74
(dp1419
g101
g102
ssg83
g1408
sg76
(lp1420
S':'
asbag69
(g90
g71
NtRp1421
(dp1422
g74
(dp1423
sg83
g1408
sg76
(lp1424
g69
(g70
g71
NtRp1425
(dp1426
g74
(dp1427
g82
I4
ssg83
g1421
sg76
(lp1428
S''
asbasbasbag69
(g85
g71
NtRp1429
(dp1430
g74
(dp1431
sg83
g856
sg76
(lp1432
g69
(g90
g71
NtRp1433
(dp1434
g74
(dp1435
g94
g95
ssg83
g1429
sg76
(lp1436
S'server_name'
p1437
asbag69
(g90
g71
NtRp1438
(dp1439
g74
(dp1440
g101
g102
ssg83
g1429
sg76
(lp1441
S':'
asbag69
(g90
g71
NtRp1442
(dp1443
g74
(dp1444
sg83
g1429
sg76
(lp1445
g69
(g70
g71
NtRp1446
(dp1447
g74
(dp1448
g82
I4
ssg83
g1442
sg76
(lp1449
S'ubuntu'
p1450
asbasbasbag69
(g85
g71
NtRp1451
(dp1452
g74
(dp1453
sg83
g856
sg76
(lp1454
g69
(g90
g71
NtRp1455
(dp1456
g74
(dp1457
g94
g95
ssg83
g1451
sg76
(lp1458
S'server_port'
p1459
asbag69
(g90
g71
NtRp1460
(dp1461
g74
(dp1462
g101
g102
ssg83
g1451
sg76
(lp1463
S':'
asbag69
(g90
g71
NtRp1464
(dp1465
g74
(dp1466
sg83
g1451
sg76
(lp1467
g69
(g70
g71
NtRp1468
(dp1469
g74
(dp1470
g82
I4
ssg83
g1464
sg76
(lp1471
S'8000'
p1472
asbasbasbag69
(g85
g71
NtRp1473
(dp1474
g74
(dp1475
sg83
g856
sg76
(lp1476
g69
(g90
g71
NtRp1477
(dp1478
g74
(dp1479
g94
g95
ssg83
g1473
sg76
(lp1480
S'server_protocol'
p1481
asbag69
(g90
g71
NtRp1482
(dp1483
g74
(dp1484
g101
g102
ssg83
g1473
sg76
(lp1485
S':'
asbag69
(g90
g71
NtRp1486
(dp1487
g74
(dp1488
sg83
g1473
sg76
(lp1489
g69
(g70
g71
NtRp1490
(dp1491
g74
(dp1492
g82
I4
ssg83
g1486
sg76
(lp1493
S'HTTP/1.1'
p1494
asbasbasbag69
(g85
g71
NtRp1495
(dp1496
g74
(dp1497
sg83
g856
sg76
(lp1498
g69
(g90
g71
NtRp1499
(dp1500
g74
(dp1501
g94
g95
ssg83
g1495
sg76
(lp1502
S'server_software'
p1503
asbag69
(g90
g71
NtRp1504
(dp1505
g74
(dp1506
g101
g102
ssg83
g1495
sg76
(lp1507
S':'
asbag69
(g90
g71
NtRp1508
(dp1509
g74
(dp1510
sg83
g1495
sg76
(lp1511
g69
(g70
g71
NtRp1512
(dp1513
g74
(dp1514
g82
I4
ssg83
g1508
sg76
(lp1515
S'Rocket 1.2.4'
p1516
asbasbasbag69
(g85
g71
NtRp1517
(dp1518
g74
(dp1519
sg83
g856
sg76
(lp1520
g69
(g90
g71
NtRp1521
(dp1522
g74
(dp1523
g94
g95
ssg83
g1517
sg76
(lp1524
S'web2py_crontype'
p1525
asbag69
(g90
g71
NtRp1526
(dp1527
g74
(dp1528
g101
g102
ssg83
g1517
sg76
(lp1529
S':'
asbag69
(g90
g71
NtRp1530
(dp1531
g74
(dp1532
sg83
g1517
sg76
(lp1533
g69
(g70
g71
NtRp1534
(dp1535
g74
(dp1536
g82
I4
ssg83
g1530
sg76
(lp1537
S'hard'
p1538
asbasbasbag69
(g85
g71
NtRp1539
(dp1540
g74
(dp1541
sg83
g856
sg76
(lp1542
g69
(g90
g71
NtRp1543
(dp1544
g74
(dp1545
g94
g95
ssg83
g1539
sg76
(lp1546
S'web2py_path'
p1547
asbag69
(g90
g71
NtRp1548
(dp1549
g74
(dp1550
g101
g102
ssg83
g1539
sg76
(lp1551
S':'
asbag69
(g90
g71
NtRp1552
(dp1553
g74
(dp1554
sg83
g1539
sg76
(lp1555
g69
(g70
g71
NtRp1556
(dp1557
g74
(dp1558
g82
I4
ssg83
g1552
sg76
(lp1559
g903
asbasbasbag69
(g85
g71
NtRp1560
(dp1561
g74
(dp1562
sg83
g856
sg76
(lp1563
g69
(g90
g71
NtRp1564
(dp1565
g74
(dp1566
g94
g95
ssg83
g1560
sg76
(lp1567
S'web2py_version'
p1568
asbag69
(g90
g71
NtRp1569
(dp1570
g74
(dp1571
g101
g102
ssg83
g1560
sg76
(lp1572
S':'
asbag69
(g90
g71
NtRp1573
(dp1574
g74
(dp1575
sg83
g1560
sg76
(lp1576
g69
(g70
g71
NtRp1577
(dp1578
g74
(dp1579
g82
I4
ssg83
g1573
sg76
(lp1580
g69
(g78
g71
NtRp1581
(dp1582
g74
(dp1583
g82
I3
ssg83
Nsg76
(lp1584
g69
(g85
g71
NtRp1585
(dp1586
g74
(dp1587
sg83
g1581
sg76
(lp1588
g69
(g90
g71
NtRp1589
(dp1590
g74
(dp1591
sg83
g1585
sg76
(lp1592
g69
(g70
g71
NtRp1593
(dp1594
g74
(dp1595
g82
I3
ssg83
g1589
sg76
(lp1596
S'1'
asbasbasbag69
(g85
g71
NtRp1597
(dp1598
g74
(dp1599
sg83
g1581
sg76
(lp1600
g69
(g90
g71
NtRp1601
(dp1602
g74
(dp1603
sg83
g1597
sg76
(lp1604
g69
(g70
g71
NtRp1605
(dp1606
g74
(dp1607
g82
I3
ssg83
g1601
sg76
(lp1608
S'99'
p1609
asbasbasbag69
(g85
g71
NtRp1610
(dp1611
g74
(dp1612
sg83
g1581
sg76
(lp1613
g69
(g90
g71
NtRp1614
(dp1615
g74
(dp1616
sg83
g1610
sg76
(lp1617
g69
(g70
g71
NtRp1618
(dp1619
g74
(dp1620
g82
I3
ssg83
g1614
sg76
(lp1621
S'4'
asbasbasbag69
(g85
g71
NtRp1622
(dp1623
g74
(dp1624
sg83
g1581
sg76
(lp1625
g69
(g90
g71
NtRp1626
(dp1627
g74
(dp1628
sg83
g1622
sg76
(lp1629
g69
(g70
g71
NtRp1630
(dp1631
g74
(dp1632
g82
I3
ssg83
g1626
sg76
(lp1633
S'datetime.datetime(2011, 12, 14, 14, 46, 14)'
p1634
asbasbasbag69
(g85
g71
NtRp1635
(dp1636
g74
(dp1637
sg83
g1581
sg76
(lp1638
g69
(g90
g71
NtRp1639
(dp1640
g74
(dp1641
sg83
g1635
sg76
(lp1642
g69
(g70
g71
NtRp1643
(dp1644
g74
(dp1645
g82
I3
ssg83
g1639
sg76
(lp1646
S'stable'
p1647
asbasbasbasbasbasbasbag69
(g85
g71
NtRp1648
(dp1649
g74
(dp1650
sg83
g856
sg76
(lp1651
g69
(g90
g71
NtRp1652
(dp1653
g74
(dp1654
g94
g95
ssg83
g1648
sg76
(lp1655
S'wsgi_errors'
p1656
asbag69
(g90
g71
NtRp1657
(dp1658
g74
(dp1659
g101
g102
ssg83
g1648
sg76
(lp1660
S':'
asbag69
(g90
g71
NtRp1661
(dp1662
g74
(dp1663
sg83
g1648
sg76
(lp1664
g69
(g70
g71
NtRp1665
(dp1666
g74
(dp1667
g82
I4
ssg83
g1661
sg76
(lp1668
S"<open file '<stderr>', mode 'w' at 0xb77030d0>"
p1669
asbasbasbag69
(g85
g71
NtRp1670
(dp1671
g74
(dp1672
sg83
g856
sg76
(lp1673
g69
(g90
g71
NtRp1674
(dp1675
g74
(dp1676
g94
g95
ssg83
g1670
sg76
(lp1677
S'wsgi_file_wrapper'
p1678
asbag69
(g90
g71
NtRp1679
(dp1680
g74
(dp1681
g101
g102
ssg83
g1670
sg76
(lp1682
S':'
asbag69
(g90
g71
NtRp1683
(dp1684
g74
(dp1685
sg83
g1670
sg76
(lp1686
g69
(g70
g71
NtRp1687
(dp1688
g74
(dp1689
g82
I4
ssg83
g1683
sg76
(lp1690
S'<class wsgiref.util.FileWrapper at 0x8a6720c>'
p1691
asbasbasbag69
(g85
g71
NtRp1692
(dp1693
g74
(dp1694
sg83
g856
sg76
(lp1695
g69
(g90
g71
NtRp1696
(dp1697
g74
(dp1698
g94
g95
ssg83
g1692
sg76
(lp1699
S'wsgi_input'
p1700
asbag69
(g90
g71
NtRp1701
(dp1702
g74
(dp1703
g101
g102
ssg83
g1692
sg76
(lp1704
S':'
asbag69
(g90
g71
NtRp1705
(dp1706
g74
(dp1707
sg83
g1692
sg76
(lp1708
g69
(g70
g71
NtRp1709
(dp1710
g74
(dp1711
g82
I4
ssg83
g1705
sg76
(lp1712
S'<socket._fileobject object at 0x91a46ac>'
p1713
asbasbasbag69
(g85
g71
NtRp1714
(dp1715
g74
(dp1716
sg83
g856
sg76
(lp1717
g69
(g90
g71
NtRp1718
(dp1719
g74
(dp1720
g94
g95
ssg83
g1714
sg76
(lp1721
S'wsgi_multiprocess'
p1722
asbag69
(g90
g71
NtRp1723
(dp1724
g74
(dp1725
g101
g102
ssg83
g1714
sg76
(lp1726
S':'
asbag69
(g90
g71
NtRp1727
(dp1728
g74
(dp1729
sg83
g1714
sg76
(lp1730
g69
(g70
g71
NtRp1731
(dp1732
g74
(dp1733
g82
I4
ssg83
g1727
sg76
(lp1734
g994
asbasbasbag69
(g85
g71
NtRp1735
(dp1736
g74
(dp1737
sg83
g856
sg76
(lp1738
g69
(g90
g71
NtRp1739
(dp1740
g74
(dp1741
g94
g95
ssg83
g1735
sg76
(lp1742
S'wsgi_multithread'
p1743
asbag69
(g90
g71
NtRp1744
(dp1745
g74
(dp1746
g101
g102
ssg83
g1735
sg76
(lp1747
S':'
asbag69
(g90
g71
NtRp1748
(dp1749
g74
(dp1750
sg83
g1735
sg76
(lp1751
g69
(g70
g71
NtRp1752
(dp1753
g74
(dp1754
g82
I4
ssg83
g1748
sg76
(lp1755
g112
asbasbasbag69
(g85
g71
NtRp1756
(dp1757
g74
(dp1758
sg83
g856
sg76
(lp1759
g69
(g90
g71
NtRp1760
(dp1761
g74
(dp1762
g94
g95
ssg83
g1756
sg76
(lp1763
S'wsgi_run_once'
p1764
asbag69
(g90
g71
NtRp1765
(dp1766
g74
(dp1767
g101
g102
ssg83
g1756
sg76
(lp1768
S':'
asbag69
(g90
g71
NtRp1769
(dp1770
g74
(dp1771
sg83
g1756
sg76
(lp1772
g69
(g70
g71
NtRp1773
(dp1774
g74
(dp1775
g82
I4
ssg83
g1769
sg76
(lp1776
g994
asbasbasbag69
(g85
g71
NtRp1777
(dp1778
g74
(dp1779
sg83
g856
sg76
(lp1780
g69
(g90
g71
NtRp1781
(dp1782
g74
(dp1783
g94
g95
ssg83
g1777
sg76
(lp1784
S'wsgi_url_scheme'
p1785
asbag69
(g90
g71
NtRp1786
(dp1787
g74
(dp1788
g101
g102
ssg83
g1777
sg76
(lp1789
S':'
asbag69
(g90
g71
NtRp1790
(dp1791
g74
(dp1792
sg83
g1777
sg76
(lp1793
g69
(g70
g71
NtRp1794
(dp1795
g74
(dp1796
g82
I4
ssg83
g1790
sg76
(lp1797
S'http'
p1798
asbasbasbag69
(g85
g71
NtRp1799
(dp1800
g74
(dp1801
sg83
g856
sg76
(lp1802
g69
(g90
g71
NtRp1803
(dp1804
g74
(dp1805
g94
g95
ssg83
g1799
sg76
(lp1806
S'wsgi_version'
p1807
asbag69
(g90
g71
NtRp1808
(dp1809
g74
(dp1810
g101
g102
ssg83
g1799
sg76
(lp1811
S':'
asbag69
(g90
g71
NtRp1812
(dp1813
g74
(dp1814
sg83
g1799
sg76
(lp1815
g69
(g70
g71
NtRp1816
(dp1817
g74
(dp1818
g82
I4
ssg83
g1812
sg76
(lp1819
g69
(g78
g71
NtRp1820
(dp1821
g74
(dp1822
g82
I3
ssg83
Nsg76
(lp1823
g69
(g85
g71
NtRp1824
(dp1825
g74
(dp1826
sg83
g1820
sg76
(lp1827
g69
(g90
g71
NtRp1828
(dp1829
g74
(dp1830
sg83
g1824
sg76
(lp1831
g69
(g70
g71
NtRp1832
(dp1833
g74
(dp1834
g82
I3
ssg83
g1828
sg76
(lp1835
S'1'
asbasbasbag69
(g85
g71
NtRp1836
(dp1837
g74
(dp1838
sg83
g1820
sg76
(lp1839
g69
(g90
g71
NtRp1840
(dp1841
g74
(dp1842
sg83
g1836
sg76
(lp1843
g69
(g70
g71
NtRp1844
(dp1845
g74
(dp1846
g82
I3
ssg83
g1840
sg76
(lp1847
S'0'
asbasbasbasbasbasbasbasbasbasbasbag69
(g85
g71
NtRp1848
(dp1849
g74
(dp1850
sg83
g79
sg76
(lp1851
g69
(g90
g71
NtRp1852
(dp1853
g74
(dp1854
g94
g95
ssg83
g1848
sg76
(lp1855
S'extension'
p1856
asbag69
(g90
g71
NtRp1857
(dp1858
g74
(dp1859
g101
g102
ssg83
g1848
sg76
(lp1860
S':'
asbag69
(g90
g71
NtRp1861
(dp1862
g74
(dp1863
sg83
g1848
sg76
(lp1864
g69
(g70
g71
NtRp1865
(dp1866
g74
(dp1867
g82
I5
ssg83
g1861
sg76
(lp1868
S'load'
p1869
asbasbasbag69
(g85
g71
NtRp1870
(dp1871
g74
(dp1872
sg83
g79
sg76
(lp1873
g69
(g90
g71
NtRp1874
(dp1875
g74
(dp1876
g94
g95
ssg83
g1870
sg76
(lp1877
S'folder'
p1878
asbag69
(g90
g71
NtRp1879
(dp1880
g74
(dp1881
g101
g102
ssg83
g1870
sg76
(lp1882
S':'
asbag69
(g90
g71
NtRp1883
(dp1884
g74
(dp1885
sg83
g1870
sg76
(lp1886
g69
(g70
g71
NtRp1887
(dp1888
g74
(dp1889
g82
I5
ssg83
g1883
sg76
(lp1890
S'/home/iscott/web/web2py/applications/paideia/'
p1891
asbasbasbag69
(g85
g71
NtRp1892
(dp1893
g74
(dp1894
sg83
g79
sg76
(lp1895
g69
(g90
g71
NtRp1896
(dp1897
g74
(dp1898
g94
g95
ssg83
g1892
sg76
(lp1899
S'function'
p1900
asbag69
(g90
g71
NtRp1901
(dp1902
g74
(dp1903
g101
g102
ssg83
g1892
sg76
(lp1904
S':'
asbag69
(g90
g71
NtRp1905
(dp1906
g74
(dp1907
sg83
g1892
sg76
(lp1908
g69
(g70
g71
NtRp1909
(dp1910
g74
(dp1911
g82
I5
ssg83
g1905
sg76
(lp1912
S'index'
p1913
asbasbasbag69
(g85
g71
NtRp1914
(dp1915
g74
(dp1916
sg83
g79
sg76
(lp1917
g69
(g90
g71
NtRp1918
(dp1919
g74
(dp1920
g94
g95
ssg83
g1914
sg76
(lp1921
S'get_vars'
p1922
asbag69
(g90
g71
NtRp1923
(dp1924
g74
(dp1925
g101
g102
ssg83
g1914
sg76
(lp1926
S':'
asbag69
(g90
g71
NtRp1927
(dp1928
g74
(dp1929
sg83
g1914
sg76
(lp1930
g69
(g70
g71
NtRp1931
(dp1932
g74
(dp1933
g82
I5
ssg83
g1927
sg76
(lp1934
g69
(g78
g71
NtRp1935
(dp1936
g74
(dp1937
g82
I4
ssg83
Nsg76
(lp1938
sbasbasbasbag69
(g85
g71
NtRp1939
(dp1940
g74
(dp1941
sg83
g79
sg76
(lp1942
g69
(g90
g71
NtRp1943
(dp1944
g74
(dp1945
g94
g95
ssg83
g1939
sg76
(lp1946
S'global_settings'
p1947
asbag69
(g90
g71
NtRp1948
(dp1949
g74
(dp1950
g101
g102
ssg83
g1939
sg76
(lp1951
S':'
asbag69
(g90
g71
NtRp1952
(dp1953
g74
(dp1954
sg83
g1939
sg76
(lp1955
g69
(g70
g71
NtRp1956
(dp1957
g74
(dp1958
g82
I5
ssg83
g1952
sg76
(lp1959
g69
(g78
g71
NtRp1960
(dp1961
g74
(dp1962
g82
I4
ssg83
Nsg76
(lp1963
g69
(g85
g71
NtRp1964
(dp1965
g74
(dp1966
sg83
g1960
sg76
(lp1967
g69
(g90
g71
NtRp1968
(dp1969
g74
(dp1970
g94
g95
ssg83
g1964
sg76
(lp1971
g868
asbag69
(g90
g71
NtRp1972
(dp1973
g74
(dp1974
g101
g102
ssg83
g1964
sg76
(lp1975
S':'
asbag69
(g90
g71
NtRp1976
(dp1977
g74
(dp1978
sg83
g1964
sg76
(lp1979
g69
(g70
g71
NtRp1980
(dp1981
g74
(dp1982
g82
I4
ssg83
g1976
sg76
(lp1983
S"set(['/home/iscott/web/web2py/applications/paideia/', '/home/iscott/web/web2py/applications/welcome/'])"
p1984
asbasbasbag69
(g85
g71
NtRp1985
(dp1986
g74
(dp1987
sg83
g1960
sg76
(lp1988
g69
(g90
g71
NtRp1989
(dp1990
g74
(dp1991
g94
g95
ssg83
g1985
sg76
(lp1992
g890
asbag69
(g90
g71
NtRp1993
(dp1994
g74
(dp1995
g101
g102
ssg83
g1985
sg76
(lp1996
S':'
asbag69
(g90
g71
NtRp1997
(dp1998
g74
(dp1999
sg83
g1985
sg76
(lp2000
g69
(g70
g71
NtRp2001
(dp2002
g74
(dp2003
g82
I4
ssg83
g1997
sg76
(lp2004
g903
asbasbasbag69
(g85
g71
NtRp2005
(dp2006
g74
(dp2007
sg83
g1960
sg76
(lp2008
g69
(g90
g71
NtRp2009
(dp2010
g74
(dp2011
g94
g95
ssg83
g2005
sg76
(lp2012
g912
asbag69
(g90
g71
NtRp2013
(dp2014
g74
(dp2015
g101
g102
ssg83
g2005
sg76
(lp2016
S':'
asbag69
(g90
g71
NtRp2017
(dp2018
g74
(dp2019
sg83
g2005
sg76
(lp2020
g69
(g70
g71
NtRp2021
(dp2022
g74
(dp2023
g82
I4
ssg83
g2017
sg76
(lp2024
g69
(g78
g71
NtRp2025
(dp2026
g74
(dp2027
g82
I3
ssg83
Nsg76
(lp2028
sbasbasbasbag69
(g85
g71
NtRp2029
(dp2030
g74
(dp2031
sg83
g1960
sg76
(lp2032
g69
(g90
g71
NtRp2033
(dp2034
g74
(dp2035
g94
g95
ssg83
g2029
sg76
(lp2036
g937
asbag69
(g90
g71
NtRp2037
(dp2038
g74
(dp2039
g101
g102
ssg83
g2029
sg76
(lp2040
S':'
asbag69
(g90
g71
NtRp2041
(dp2042
g74
(dp2043
sg83
g2029
sg76
(lp2044
g69
(g70
g71
NtRp2045
(dp2046
g74
(dp2047
g82
I4
ssg83
g2041
sg76
(lp2048
S"<Values at 0x8b1eb8c: {'verbose': False, 'ip': '127.0.0.1', 'shutdown_timeout': 5, 'taskbar': False, 'nocron': False, 'pid_filename': 'httpserver.pid', 'maxthreads': None, 'softcron': False, 'server_name': 'ubuntu', 'bpython': False, 'nogui': False, 'port': 8000, 'extcron': False, 'debuglevel': 30, 'test': None, 'folder': '/home/iscott/web/web2py', 'config': '', 'import_models': False, 'winservice': '', 'shell': None, 'run': '', 'log_filename': 'httpserver.log', 'args': [''], 'socket_timeout': 1, 'ssl_ca_certificate': None, 'scheduler': None, 'profiler_filename': None, 'ssl_private_key': '', 'password': '<ask>', 'request_queue_size': 5, 'ssl_certificate': '', 'cronjob': False, 'numthreads': None, 'quiet': False, 'interfaces': None, 'minthreads': None, 'timeout': 10, 'plain': False, 'nobanner': False}>"
p2049
asbasbasbag69
(g85
g71
NtRp2050
(dp2051
g74
(dp2052
sg83
g1960
sg76
(lp2053
g69
(g90
g71
NtRp2054
(dp2055
g74
(dp2056
g94
g95
ssg83
g2050
sg76
(lp2057
g959
asbag69
(g90
g71
NtRp2058
(dp2059
g74
(dp2060
g101
g102
ssg83
g2050
sg76
(lp2061
S':'
asbag69
(g90
g71
NtRp2062
(dp2063
g74
(dp2064
sg83
g2050
sg76
(lp2065
g69
(g70
g71
NtRp2066
(dp2067
g74
(dp2068
g82
I4
ssg83
g2062
sg76
(lp2069
S'set([])'
p2070
asbasbasbag69
(g85
g71
NtRp2071
(dp2072
g74
(dp2073
sg83
g1960
sg76
(lp2074
g69
(g90
g71
NtRp2075
(dp2076
g74
(dp2077
g94
g95
ssg83
g2071
sg76
(lp2078
g981
asbag69
(g90
g71
NtRp2079
(dp2080
g74
(dp2081
g101
g102
ssg83
g2071
sg76
(lp2082
S':'
asbag69
(g90
g71
NtRp2083
(dp2084
g74
(dp2085
sg83
g2071
sg76
(lp2086
g69
(g70
g71
NtRp2087
(dp2088
g74
(dp2089
g82
I4
ssg83
g2083
sg76
(lp2090
g994
asbasbasbag69
(g85
g71
NtRp2091
(dp2092
g74
(dp2093
sg83
g1960
sg76
(lp2094
g69
(g90
g71
NtRp2095
(dp2096
g74
(dp2097
g94
g95
ssg83
g2091
sg76
(lp2098
g1003
asbag69
(g90
g71
NtRp2099
(dp2100
g74
(dp2101
g101
g102
ssg83
g2091
sg76
(lp2102
S':'
asbag69
(g90
g71
NtRp2103
(dp2104
g74
(dp2105
sg83
g2091
sg76
(lp2106
g69
(g70
g71
NtRp2107
(dp2108
g74
(dp2109
g82
I4
ssg83
g2103
sg76
(lp2110
g1016
asbasbasbag69
(g85
g71
NtRp2111
(dp2112
g74
(dp2113
sg83
g1960
sg76
(lp2114
g69
(g90
g71
NtRp2115
(dp2116
g74
(dp2117
g94
g95
ssg83
g2111
sg76
(lp2118
g1266
asbag69
(g90
g71
NtRp2119
(dp2120
g74
(dp2121
g101
g102
ssg83
g2111
sg76
(lp2122
S':'
asbag69
(g90
g71
NtRp2123
(dp2124
g74
(dp2125
sg83
g2111
sg76
(lp2126
g69
(g70
g71
NtRp2127
(dp2128
g74
(dp2129
g82
I4
ssg83
g2123
sg76
(lp2130
g994
asbasbasbag69
(g85
g71
NtRp2131
(dp2132
g74
(dp2133
sg83
g1960
sg76
(lp2134
g69
(g90
g71
NtRp2135
(dp2136
g74
(dp2137
g94
g95
ssg83
g2131
sg76
(lp2138
g1287
asbag69
(g90
g71
NtRp2139
(dp2140
g74
(dp2141
g101
g102
ssg83
g2131
sg76
(lp2142
S':'
asbag69
(g90
g71
NtRp2143
(dp2144
g74
(dp2145
sg83
g2131
sg76
(lp2146
g69
(g70
g71
NtRp2147
(dp2148
g74
(dp2149
g82
I4
ssg83
g2143
sg76
(lp2150
g994
asbasbasbag69
(g85
g71
NtRp2151
(dp2152
g74
(dp2153
sg83
g1960
sg76
(lp2154
g69
(g90
g71
NtRp2155
(dp2156
g74
(dp2157
g94
g95
ssg83
g2151
sg76
(lp2158
g1525
asbag69
(g90
g71
NtRp2159
(dp2160
g74
(dp2161
g101
g102
ssg83
g2151
sg76
(lp2162
S':'
asbag69
(g90
g71
NtRp2163
(dp2164
g74
(dp2165
sg83
g2151
sg76
(lp2166
g69
(g70
g71
NtRp2167
(dp2168
g74
(dp2169
g82
I4
ssg83
g2163
sg76
(lp2170
g1538
asbasbasbag69
(g85
g71
NtRp2171
(dp2172
g74
(dp2173
sg83
g1960
sg76
(lp2174
g69
(g90
g71
NtRp2175
(dp2176
g74
(dp2177
g94
g95
ssg83
g2171
sg76
(lp2178
g1568
asbag69
(g90
g71
NtRp2179
(dp2180
g74
(dp2181
g101
g102
ssg83
g2171
sg76
(lp2182
S':'
asbag69
(g90
g71
NtRp2183
(dp2184
g74
(dp2185
sg83
g2171
sg76
(lp2186
g69
(g70
g71
NtRp2187
(dp2188
g74
(dp2189
g82
I4
ssg83
g2183
sg76
(lp2190
g69
(g78
g71
NtRp2191
(dp2192
g74
(dp2193
g82
I3
ssg83
Nsg76
(lp2194
g69
(g85
g71
NtRp2195
(dp2196
g74
(dp2197
sg83
g2191
sg76
(lp2198
g69
(g90
g71
NtRp2199
(dp2200
g74
(dp2201
sg83
g2195
sg76
(lp2202
g69
(g70
g71
NtRp2203
(dp2204
g74
(dp2205
g82
I3
ssg83
g2199
sg76
(lp2206
S'1'
asbasbasbag69
(g85
g71
NtRp2207
(dp2208
g74
(dp2209
sg83
g2191
sg76
(lp2210
g69
(g90
g71
NtRp2211
(dp2212
g74
(dp2213
sg83
g2207
sg76
(lp2214
g69
(g70
g71
NtRp2215
(dp2216
g74
(dp2217
g82
I3
ssg83
g2211
sg76
(lp2218
S'99'
p2219
asbasbasbag69
(g85
g71
NtRp2220
(dp2221
g74
(dp2222
sg83
g2191
sg76
(lp2223
g69
(g90
g71
NtRp2224
(dp2225
g74
(dp2226
sg83
g2220
sg76
(lp2227
g69
(g70
g71
NtRp2228
(dp2229
g74
(dp2230
g82
I3
ssg83
g2224
sg76
(lp2231
S'4'
asbasbasbag69
(g85
g71
NtRp2232
(dp2233
g74
(dp2234
sg83
g2191
sg76
(lp2235
g69
(g90
g71
NtRp2236
(dp2237
g74
(dp2238
sg83
g2232
sg76
(lp2239
g69
(g70
g71
NtRp2240
(dp2241
g74
(dp2242
g82
I3
ssg83
g2236
sg76
(lp2243
S'datetime.datetime(2011, 12, 14, 14, 46, 14)'
p2244
asbasbasbag69
(g85
g71
NtRp2245
(dp2246
g74
(dp2247
sg83
g2191
sg76
(lp2248
g69
(g90
g71
NtRp2249
(dp2250
g74
(dp2251
sg83
g2245
sg76
(lp2252
g69
(g70
g71
NtRp2253
(dp2254
g74
(dp2255
g82
I3
ssg83
g2249
sg76
(lp2256
g1647
asbasbasbasbasbasbasbasbasbasbasbag69
(g85
g71
NtRp2257
(dp2258
g74
(dp2259
sg83
g79
sg76
(lp2260
g69
(g90
g71
NtRp2261
(dp2262
g74
(dp2263
g94
g95
ssg83
g2257
sg76
(lp2264
S'is_https'
p2265
asbag69
(g90
g71
NtRp2266
(dp2267
g74
(dp2268
g101
g102
ssg83
g2257
sg76
(lp2269
S':'
asbag69
(g90
g71
NtRp2270
(dp2271
g74
(dp2272
sg83
g2257
sg76
(lp2273
g69
(g70
g71
NtRp2274
(dp2275
g74
(dp2276
g82
I5
ssg83
g2270
sg76
(lp2277
g994
asbasbasbag69
(g85
g71
NtRp2278
(dp2279
g74
(dp2280
sg83
g79
sg76
(lp2281
g69
(g90
g71
NtRp2282
(dp2283
g74
(dp2284
g94
g95
ssg83
g2278
sg76
(lp2285
S'is_local'
p2286
asbag69
(g90
g71
NtRp2287
(dp2288
g74
(dp2289
g101
g102
ssg83
g2278
sg76
(lp2290
S':'
asbag69
(g90
g71
NtRp2291
(dp2292
g74
(dp2293
sg83
g2278
sg76
(lp2294
g69
(g70
g71
NtRp2295
(dp2296
g74
(dp2297
g82
I5
ssg83
g2291
sg76
(lp2298
g112
asbasbasbag69
(g85
g71
NtRp2299
(dp2300
g74
(dp2301
sg83
g79
sg76
(lp2302
g69
(g90
g71
NtRp2303
(dp2304
g74
(dp2305
g94
g95
ssg83
g2299
sg76
(lp2306
S'is_restful'
p2307
asbag69
(g90
g71
NtRp2308
(dp2309
g74
(dp2310
g101
g102
ssg83
g2299
sg76
(lp2311
S':'
asbag69
(g90
g71
NtRp2312
(dp2313
g74
(dp2314
sg83
g2299
sg76
(lp2315
g69
(g70
g71
NtRp2316
(dp2317
g74
(dp2318
g82
I5
ssg83
g2312
sg76
(lp2319
g994
asbasbasbag69
(g85
g71
NtRp2320
(dp2321
g74
(dp2322
sg83
g79
sg76
(lp2323
g69
(g90
g71
NtRp2324
(dp2325
g74
(dp2326
g94
g95
ssg83
g2320
sg76
(lp2327
S'now'
p2328
asbag69
(g90
g71
NtRp2329
(dp2330
g74
(dp2331
g101
g102
ssg83
g2320
sg76
(lp2332
S':'
asbag69
(g90
g71
NtRp2333
(dp2334
g74
(dp2335
sg83
g2320
sg76
(lp2336
g69
(g70
g71
NtRp2337
(dp2338
g74
(dp2339
g82
I5
ssg83
g2333
sg76
(lp2340
S'datetime.datetime(2012, 3, 20, 12, 27, 51, 273287)'
p2341
asbasbasbag69
(g85
g71
NtRp2342
(dp2343
g74
(dp2344
sg83
g79
sg76
(lp2345
g69
(g90
g71
NtRp2346
(dp2347
g74
(dp2348
g94
g95
ssg83
g2342
sg76
(lp2349
S'post_vars'
p2350
asbag69
(g90
g71
NtRp2351
(dp2352
g74
(dp2353
g101
g102
ssg83
g2342
sg76
(lp2354
S':'
asbag69
(g90
g71
NtRp2355
(dp2356
g74
(dp2357
sg83
g2342
sg76
(lp2358
g69
(g70
g71
NtRp2359
(dp2360
g74
(dp2361
g82
I5
ssg83
g2355
sg76
(lp2362
g69
(g78
g71
NtRp2363
(dp2364
g74
(dp2365
g82
I4
ssg83
Nsg76
(lp2366
sbasbasbasbag69
(g85
g71
NtRp2367
(dp2368
g74
(dp2369
sg83
g79
sg76
(lp2370
g69
(g90
g71
NtRp2371
(dp2372
g74
(dp2373
g94
g95
ssg83
g2367
sg76
(lp2374
S'raw_extension'
p2375
asbag69
(g90
g71
NtRp2376
(dp2377
g74
(dp2378
g101
g102
ssg83
g2367
sg76
(lp2379
S':'
asbag69
(g90
g71
NtRp2380
(dp2381
g74
(dp2382
sg83
g2367
sg76
(lp2383
g69
(g70
g71
NtRp2384
(dp2385
g74
(dp2386
g82
I5
ssg83
g2380
sg76
(lp2387
g1869
asbasbasbag69
(g85
g71
NtRp2388
(dp2389
g74
(dp2390
sg83
g79
sg76
(lp2391
g69
(g90
g71
NtRp2392
(dp2393
g74
(dp2394
g94
g95
ssg83
g2388
sg76
(lp2395
S'url'
p2396
asbag69
(g90
g71
NtRp2397
(dp2398
g74
(dp2399
g101
g102
ssg83
g2388
sg76
(lp2400
S':'
asbag69
(g90
g71
NtRp2401
(dp2402
g74
(dp2403
sg83
g2388
sg76
(lp2404
g69
(g70
g71
NtRp2405
(dp2406
g74
(dp2407
g82
I5
ssg83
g2401
sg76
(lp2408
S'/paideia/exploring/index.load'
p2409
asbasbasbag69
(g85
g71
NtRp2410
(dp2411
g74
(dp2412
sg83
g79
sg76
(lp2413
g69
(g90
g71
NtRp2414
(dp2415
g74
(dp2416
g94
g95
ssg83
g2410
sg76
(lp2417
S'utcnow'
p2418
asbag69
(g90
g71
NtRp2419
(dp2420
g74
(dp2421
g101
g102
ssg83
g2410
sg76
(lp2422
S':'
asbag69
(g90
g71
NtRp2423
(dp2424
g74
(dp2425
sg83
g2410
sg76
(lp2426
g69
(g70
g71
NtRp2427
(dp2428
g74
(dp2429
g82
I5
ssg83
g2423
sg76
(lp2430
S'datetime.datetime(2012, 3, 20, 16, 27, 51, 273345)'
p2431
asbasbasbag69
(g85
g71
NtRp2432
(dp2433
g74
(dp2434
sg83
g79
sg76
(lp2435
g69
(g90
g71
NtRp2436
(dp2437
g74
(dp2438
g94
g95
ssg83
g2432
sg76
(lp2439
S'uuid'
p2440
asbag69
(g90
g71
NtRp2441
(dp2442
g74
(dp2443
g101
g102
ssg83
g2432
sg76
(lp2444
S':'
asbag69
(g90
g71
NtRp2445
(dp2446
g74
(dp2447
sg83
g2432
sg76
(lp2448
g69
(g70
g71
NtRp2449
(dp2450
g74
(dp2451
g82
I5
ssg83
g2445
sg76
(lp2452
S'paideia/127.0.0.1.2012-03-20.12-27-51.ad371a20-792c-491d-9c4d-5d4a2f2da70e'
p2453
asbasbasbag69
(g85
g71
NtRp2454
(dp2455
g74
(dp2456
sg83
g79
sg76
(lp2457
g69
(g90
g71
NtRp2458
(dp2459
g74
(dp2460
g94
g95
ssg83
g2454
sg76
(lp2461
S'vars'
p2462
asbag69
(g90
g71
NtRp2463
(dp2464
g74
(dp2465
g101
g102
ssg83
g2454
sg76
(lp2466
S':'
asbag69
(g90
g71
NtRp2467
(dp2468
g74
(dp2469
sg83
g2454
sg76
(lp2470
g69
(g70
g71
NtRp2471
(dp2472
g74
(dp2473
g82
I5
ssg83
g2467
sg76
(lp2474
g69
(g78
g71
NtRp2475
(dp2476
g74
(dp2477
g82
I4
ssg83
Nsg76
(lp2478
sbasbasbasbag69
(g85
g71
NtRp2479
(dp2480
g74
(dp2481
sg83
g79
sg76
(lp2482
g69
(g90
g71
NtRp2483
(dp2484
g74
(dp2485
g94
g95
ssg83
g2479
sg76
(lp2486
S'wsgi'
p2487
asbag69
(g90
g71
NtRp2488
(dp2489
g74
(dp2490
g101
g102
ssg83
g2479
sg76
(lp2491
S':'
asbag69
(g90
g71
NtRp2492
(dp2493
g74
(dp2494
sg83
g2479
sg76
(lp2495
g69
(g70
g71
NtRp2496
(dp2497
g74
(dp2498
g82
I5
ssg83
g2492
sg76
(lp2499
g69
(g78
g71
NtRp2500
(dp2501
g74
(dp2502
g82
I4
ssg83
Nsg76
(lp2503
g69
(g85
g71
NtRp2504
(dp2505
g74
(dp2506
sg83
g2500
sg76
(lp2507
g69
(g90
g71
NtRp2508
(dp2509
g74
(dp2510
g94
g95
ssg83
g2504
sg76
(lp2511
S'environ'
p2512
asbag69
(g90
g71
NtRp2513
(dp2514
g74
(dp2515
g101
g102
ssg83
g2504
sg76
(lp2516
S':'
asbag69
(g90
g71
NtRp2517
(dp2518
g74
(dp2519
sg83
g2504
sg76
(lp2520
g69
(g70
g71
NtRp2521
(dp2522
g74
(dp2523
g82
I4
ssg83
g2517
sg76
(lp2524
g69
(g78
g71
NtRp2525
(dp2526
g74
(dp2527
g82
I3
ssg83
Nsg76
(lp2528
g69
(g85
g71
NtRp2529
(dp2530
g74
(dp2531
sg83
g2525
sg76
(lp2532
g69
(g90
g71
NtRp2533
(dp2534
g74
(dp2535
g94
g95
ssg83
g2529
sg76
(lp2536
S'HTTP_ACCEPT'
p2537
asbag69
(g90
g71
NtRp2538
(dp2539
g74
(dp2540
g101
g102
ssg83
g2529
sg76
(lp2541
S':'
asbag69
(g90
g71
NtRp2542
(dp2543
g74
(dp2544
sg83
g2529
sg76
(lp2545
g69
(g70
g71
NtRp2546
(dp2547
g74
(dp2548
g82
I3
ssg83
g2542
sg76
(lp2549
g1038
asbasbasbag69
(g85
g71
NtRp2550
(dp2551
g74
(dp2552
sg83
g2525
sg76
(lp2553
g69
(g90
g71
NtRp2554
(dp2555
g74
(dp2556
g94
g95
ssg83
g2550
sg76
(lp2557
S'HTTP_ACCEPT_ENCODING'
p2558
asbag69
(g90
g71
NtRp2559
(dp2560
g74
(dp2561
g101
g102
ssg83
g2550
sg76
(lp2562
S':'
asbag69
(g90
g71
NtRp2563
(dp2564
g74
(dp2565
sg83
g2550
sg76
(lp2566
g69
(g70
g71
NtRp2567
(dp2568
g74
(dp2569
g82
I3
ssg83
g2563
sg76
(lp2570
g1060
asbasbasbag69
(g85
g71
NtRp2571
(dp2572
g74
(dp2573
sg83
g2525
sg76
(lp2574
g69
(g90
g71
NtRp2575
(dp2576
g74
(dp2577
g94
g95
ssg83
g2571
sg76
(lp2578
S'HTTP_ACCEPT_LANGUAGE'
p2579
asbag69
(g90
g71
NtRp2580
(dp2581
g74
(dp2582
g101
g102
ssg83
g2571
sg76
(lp2583
S':'
asbag69
(g90
g71
NtRp2584
(dp2585
g74
(dp2586
sg83
g2571
sg76
(lp2587
g69
(g70
g71
NtRp2588
(dp2589
g74
(dp2590
g82
I3
ssg83
g2584
sg76
(lp2591
g1082
asbasbasbag69
(g85
g71
NtRp2592
(dp2593
g74
(dp2594
sg83
g2525
sg76
(lp2595
g69
(g90
g71
NtRp2596
(dp2597
g74
(dp2598
g94
g95
ssg83
g2592
sg76
(lp2599
S'HTTP_CONNECTION'
p2600
asbag69
(g90
g71
NtRp2601
(dp2602
g74
(dp2603
g101
g102
ssg83
g2592
sg76
(lp2604
S':'
asbag69
(g90
g71
NtRp2605
(dp2606
g74
(dp2607
sg83
g2592
sg76
(lp2608
g69
(g70
g71
NtRp2609
(dp2610
g74
(dp2611
g82
I3
ssg83
g2605
sg76
(lp2612
g1104
asbasbasbag69
(g85
g71
NtRp2613
(dp2614
g74
(dp2615
sg83
g2525
sg76
(lp2616
g69
(g90
g71
NtRp2617
(dp2618
g74
(dp2619
g94
g95
ssg83
g2613
sg76
(lp2620
S'HTTP_COOKIE'
p2621
asbag69
(g90
g71
NtRp2622
(dp2623
g74
(dp2624
g101
g102
ssg83
g2613
sg76
(lp2625
S':'
asbag69
(g90
g71
NtRp2626
(dp2627
g74
(dp2628
sg83
g2613
sg76
(lp2629
g69
(g70
g71
NtRp2630
(dp2631
g74
(dp2632
g82
I3
ssg83
g2626
sg76
(lp2633
g1126
asbasbasbag69
(g85
g71
NtRp2634
(dp2635
g74
(dp2636
sg83
g2525
sg76
(lp2637
g69
(g90
g71
NtRp2638
(dp2639
g74
(dp2640
g94
g95
ssg83
g2634
sg76
(lp2641
S'HTTP_HOST'
p2642
asbag69
(g90
g71
NtRp2643
(dp2644
g74
(dp2645
g101
g102
ssg83
g2634
sg76
(lp2646
S':'
asbag69
(g90
g71
NtRp2647
(dp2648
g74
(dp2649
sg83
g2634
sg76
(lp2650
g69
(g70
g71
NtRp2651
(dp2652
g74
(dp2653
g82
I3
ssg83
g2647
sg76
(lp2654
g1148
asbasbasbag69
(g85
g71
NtRp2655
(dp2656
g74
(dp2657
sg83
g2525
sg76
(lp2658
g69
(g90
g71
NtRp2659
(dp2660
g74
(dp2661
g94
g95
ssg83
g2655
sg76
(lp2662
S'HTTP_REFERER'
p2663
asbag69
(g90
g71
NtRp2664
(dp2665
g74
(dp2666
g101
g102
ssg83
g2655
sg76
(lp2667
S':'
asbag69
(g90
g71
NtRp2668
(dp2669
g74
(dp2670
sg83
g2655
sg76
(lp2671
g69
(g70
g71
NtRp2672
(dp2673
g74
(dp2674
g82
I3
ssg83
g2668
sg76
(lp2675
g1170
asbasbasbag69
(g85
g71
NtRp2676
(dp2677
g74
(dp2678
sg83
g2525
sg76
(lp2679
g69
(g90
g71
NtRp2680
(dp2681
g74
(dp2682
g94
g95
ssg83
g2676
sg76
(lp2683
S'HTTP_USER_AGENT'
p2684
asbag69
(g90
g71
NtRp2685
(dp2686
g74
(dp2687
g101
g102
ssg83
g2676
sg76
(lp2688
S':'
asbag69
(g90
g71
NtRp2689
(dp2690
g74
(dp2691
sg83
g2676
sg76
(lp2692
g69
(g70
g71
NtRp2693
(dp2694
g74
(dp2695
g82
I3
ssg83
g2689
sg76
(lp2696
g1192
asbasbasbag69
(g85
g71
NtRp2697
(dp2698
g74
(dp2699
sg83
g2525
sg76
(lp2700
g69
(g90
g71
NtRp2701
(dp2702
g74
(dp2703
g94
g95
ssg83
g2697
sg76
(lp2704
S'HTTP_WEB2PY_COMPONENT_ELEMENT'
p2705
asbag69
(g90
g71
NtRp2706
(dp2707
g74
(dp2708
g101
g102
ssg83
g2697
sg76
(lp2709
S':'
asbag69
(g90
g71
NtRp2710
(dp2711
g74
(dp2712
sg83
g2697
sg76
(lp2713
g69
(g70
g71
NtRp2714
(dp2715
g74
(dp2716
g82
I3
ssg83
g2710
sg76
(lp2717
g202
asbasbasbag69
(g85
g71
NtRp2718
(dp2719
g74
(dp2720
sg83
g2525
sg76
(lp2721
g69
(g90
g71
NtRp2722
(dp2723
g74
(dp2724
g94
g95
ssg83
g2718
sg76
(lp2725
S'HTTP_WEB2PY_COMPONENT_LOCATION'
p2726
asbag69
(g90
g71
NtRp2727
(dp2728
g74
(dp2729
g101
g102
ssg83
g2718
sg76
(lp2730
S':'
asbag69
(g90
g71
NtRp2731
(dp2732
g74
(dp2733
sg83
g2718
sg76
(lp2734
g69
(g70
g71
NtRp2735
(dp2736
g74
(dp2737
g82
I3
ssg83
g2731
sg76
(lp2738
g1235
asbasbasbag69
(g85
g71
NtRp2739
(dp2740
g74
(dp2741
sg83
g2525
sg76
(lp2742
g69
(g90
g71
NtRp2743
(dp2744
g74
(dp2745
g94
g95
ssg83
g2739
sg76
(lp2746
S'HTTP_X_REQUESTED_WITH'
p2747
asbag69
(g90
g71
NtRp2748
(dp2749
g74
(dp2750
g101
g102
ssg83
g2739
sg76
(lp2751
S':'
asbag69
(g90
g71
NtRp2752
(dp2753
g74
(dp2754
sg83
g2739
sg76
(lp2755
g69
(g70
g71
NtRp2756
(dp2757
g74
(dp2758
g82
I3
ssg83
g2752
sg76
(lp2759
g1257
asbasbasbag69
(g85
g71
NtRp2760
(dp2761
g74
(dp2762
sg83
g2525
sg76
(lp2763
g69
(g90
g71
NtRp2764
(dp2765
g74
(dp2766
g94
g95
ssg83
g2760
sg76
(lp2767
S'PATH_INFO'
p2768
asbag69
(g90
g71
NtRp2769
(dp2770
g74
(dp2771
g101
g102
ssg83
g2760
sg76
(lp2772
S':'
asbag69
(g90
g71
NtRp2773
(dp2774
g74
(dp2775
sg83
g2760
sg76
(lp2776
g69
(g70
g71
NtRp2777
(dp2778
g74
(dp2779
g82
I3
ssg83
g2773
sg76
(lp2780
g1321
asbasbasbag69
(g85
g71
NtRp2781
(dp2782
g74
(dp2783
sg83
g2525
sg76
(lp2784
g69
(g90
g71
NtRp2785
(dp2786
g74
(dp2787
g94
g95
ssg83
g2781
sg76
(lp2788
S'QUERY_STRING'
p2789
asbag69
(g90
g71
NtRp2790
(dp2791
g74
(dp2792
g101
g102
ssg83
g2781
sg76
(lp2793
S':'
asbag69
(g90
g71
NtRp2794
(dp2795
g74
(dp2796
sg83
g2781
sg76
(lp2797
g69
(g70
g71
NtRp2798
(dp2799
g74
(dp2800
g82
I3
ssg83
g2794
sg76
(lp2801
S''
asbasbasbag69
(g85
g71
NtRp2802
(dp2803
g74
(dp2804
sg83
g2525
sg76
(lp2805
g69
(g90
g71
NtRp2806
(dp2807
g74
(dp2808
g94
g95
ssg83
g2802
sg76
(lp2809
S'REMOTE_ADDR'
p2810
asbag69
(g90
g71
NtRp2811
(dp2812
g74
(dp2813
g101
g102
ssg83
g2802
sg76
(lp2814
S':'
asbag69
(g90
g71
NtRp2815
(dp2816
g74
(dp2817
sg83
g2802
sg76
(lp2818
g69
(g70
g71
NtRp2819
(dp2820
g74
(dp2821
g82
I3
ssg83
g2815
sg76
(lp2822
g224
asbasbasbag69
(g85
g71
NtRp2823
(dp2824
g74
(dp2825
sg83
g2525
sg76
(lp2826
g69
(g90
g71
NtRp2827
(dp2828
g74
(dp2829
g94
g95
ssg83
g2823
sg76
(lp2830
S'REMOTE_PORT'
p2831
asbag69
(g90
g71
NtRp2832
(dp2833
g74
(dp2834
g101
g102
ssg83
g2823
sg76
(lp2835
S':'
asbag69
(g90
g71
NtRp2836
(dp2837
g74
(dp2838
sg83
g2823
sg76
(lp2839
g69
(g70
g71
NtRp2840
(dp2841
g74
(dp2842
g82
I3
ssg83
g2836
sg76
(lp2843
g1385
asbasbasbag69
(g85
g71
NtRp2844
(dp2845
g74
(dp2846
sg83
g2525
sg76
(lp2847
g69
(g90
g71
NtRp2848
(dp2849
g74
(dp2850
g94
g95
ssg83
g2844
sg76
(lp2851
S'REQUEST_METHOD'
p2852
asbag69
(g90
g71
NtRp2853
(dp2854
g74
(dp2855
g101
g102
ssg83
g2844
sg76
(lp2856
S':'
asbag69
(g90
g71
NtRp2857
(dp2858
g74
(dp2859
sg83
g2844
sg76
(lp2860
g69
(g70
g71
NtRp2861
(dp2862
g74
(dp2863
g82
I3
ssg83
g2857
sg76
(lp2864
g1407
asbasbasbag69
(g85
g71
NtRp2865
(dp2866
g74
(dp2867
sg83
g2525
sg76
(lp2868
g69
(g90
g71
NtRp2869
(dp2870
g74
(dp2871
g94
g95
ssg83
g2865
sg76
(lp2872
S'SCRIPT_NAME'
p2873
asbag69
(g90
g71
NtRp2874
(dp2875
g74
(dp2876
g101
g102
ssg83
g2865
sg76
(lp2877
S':'
asbag69
(g90
g71
NtRp2878
(dp2879
g74
(dp2880
sg83
g2865
sg76
(lp2881
g69
(g70
g71
NtRp2882
(dp2883
g74
(dp2884
g82
I3
ssg83
g2878
sg76
(lp2885
S''
asbasbasbag69
(g85
g71
NtRp2886
(dp2887
g74
(dp2888
sg83
g2525
sg76
(lp2889
g69
(g90
g71
NtRp2890
(dp2891
g74
(dp2892
g94
g95
ssg83
g2886
sg76
(lp2893
S'SERVER_NAME'
p2894
asbag69
(g90
g71
NtRp2895
(dp2896
g74
(dp2897
g101
g102
ssg83
g2886
sg76
(lp2898
S':'
asbag69
(g90
g71
NtRp2899
(dp2900
g74
(dp2901
sg83
g2886
sg76
(lp2902
g69
(g70
g71
NtRp2903
(dp2904
g74
(dp2905
g82
I3
ssg83
g2899
sg76
(lp2906
g1450
asbasbasbag69
(g85
g71
NtRp2907
(dp2908
g74
(dp2909
sg83
g2525
sg76
(lp2910
g69
(g90
g71
NtRp2911
(dp2912
g74
(dp2913
g94
g95
ssg83
g2907
sg76
(lp2914
S'SERVER_PORT'
p2915
asbag69
(g90
g71
NtRp2916
(dp2917
g74
(dp2918
g101
g102
ssg83
g2907
sg76
(lp2919
S':'
asbag69
(g90
g71
NtRp2920
(dp2921
g74
(dp2922
sg83
g2907
sg76
(lp2923
g69
(g70
g71
NtRp2924
(dp2925
g74
(dp2926
g82
I3
ssg83
g2920
sg76
(lp2927
g1472
asbasbasbag69
(g85
g71
NtRp2928
(dp2929
g74
(dp2930
sg83
g2525
sg76
(lp2931
g69
(g90
g71
NtRp2932
(dp2933
g74
(dp2934
g94
g95
ssg83
g2928
sg76
(lp2935
S'SERVER_PROTOCOL'
p2936
asbag69
(g90
g71
NtRp2937
(dp2938
g74
(dp2939
g101
g102
ssg83
g2928
sg76
(lp2940
S':'
asbag69
(g90
g71
NtRp2941
(dp2942
g74
(dp2943
sg83
g2928
sg76
(lp2944
g69
(g70
g71
NtRp2945
(dp2946
g74
(dp2947
g82
I3
ssg83
g2941
sg76
(lp2948
g1494
asbasbasbag69
(g85
g71
NtRp2949
(dp2950
g74
(dp2951
sg83
g2525
sg76
(lp2952
g69
(g90
g71
NtRp2953
(dp2954
g74
(dp2955
g94
g95
ssg83
g2949
sg76
(lp2956
S'SERVER_SOFTWARE'
p2957
asbag69
(g90
g71
NtRp2958
(dp2959
g74
(dp2960
g101
g102
ssg83
g2949
sg76
(lp2961
S':'
asbag69
(g90
g71
NtRp2962
(dp2963
g74
(dp2964
sg83
g2949
sg76
(lp2965
g69
(g70
g71
NtRp2966
(dp2967
g74
(dp2968
g82
I3
ssg83
g2962
sg76
(lp2969
g1516
asbasbasbag69
(g85
g71
NtRp2970
(dp2971
g74
(dp2972
sg83
g2525
sg76
(lp2973
g69
(g90
g71
NtRp2974
(dp2975
g74
(dp2976
g94
g95
ssg83
g2970
sg76
(lp2977
S'wsgi.errors'
p2978
asbag69
(g90
g71
NtRp2979
(dp2980
g74
(dp2981
g101
g102
ssg83
g2970
sg76
(lp2982
S':'
asbag69
(g90
g71
NtRp2983
(dp2984
g74
(dp2985
sg83
g2970
sg76
(lp2986
g69
(g70
g71
NtRp2987
(dp2988
g74
(dp2989
g82
I3
ssg83
g2983
sg76
(lp2990
S"<open file '<stderr>', mode 'w' at 0xb77030d0>"
p2991
asbasbasbag69
(g85
g71
NtRp2992
(dp2993
g74
(dp2994
sg83
g2525
sg76
(lp2995
g69
(g90
g71
NtRp2996
(dp2997
g74
(dp2998
g94
g95
ssg83
g2992
sg76
(lp2999
S'wsgi.file_wrapper'
p3000
asbag69
(g90
g71
NtRp3001
(dp3002
g74
(dp3003
g101
g102
ssg83
g2992
sg76
(lp3004
S':'
asbag69
(g90
g71
NtRp3005
(dp3006
g74
(dp3007
sg83
g2992
sg76
(lp3008
g69
(g70
g71
NtRp3009
(dp3010
g74
(dp3011
g82
I3
ssg83
g3005
sg76
(lp3012
S'<class wsgiref.util.FileWrapper at 0x8a6720c>'
p3013
asbasbasbag69
(g85
g71
NtRp3014
(dp3015
g74
(dp3016
sg83
g2525
sg76
(lp3017
g69
(g90
g71
NtRp3018
(dp3019
g74
(dp3020
g94
g95
ssg83
g3014
sg76
(lp3021
S'wsgi.input'
p3022
asbag69
(g90
g71
NtRp3023
(dp3024
g74
(dp3025
g101
g102
ssg83
g3014
sg76
(lp3026
S':'
asbag69
(g90
g71
NtRp3027
(dp3028
g74
(dp3029
sg83
g3014
sg76
(lp3030
g69
(g70
g71
NtRp3031
(dp3032
g74
(dp3033
g82
I3
ssg83
g3027
sg76
(lp3034
S'<cStringIO.StringO object at 0x92eb2a0>'
p3035
asbasbasbag69
(g85
g71
NtRp3036
(dp3037
g74
(dp3038
sg83
g2525
sg76
(lp3039
g69
(g90
g71
NtRp3040
(dp3041
g74
(dp3042
g94
g95
ssg83
g3036
sg76
(lp3043
S'wsgi.multiprocess'
p3044
asbag69
(g90
g71
NtRp3045
(dp3046
g74
(dp3047
g101
g102
ssg83
g3036
sg76
(lp3048
S':'
asbag69
(g90
g71
NtRp3049
(dp3050
g74
(dp3051
sg83
g3036
sg76
(lp3052
g69
(g70
g71
NtRp3053
(dp3054
g74
(dp3055
g82
I3
ssg83
g3049
sg76
(lp3056
g994
asbasbasbag69
(g85
g71
NtRp3057
(dp3058
g74
(dp3059
sg83
g2525
sg76
(lp3060
g69
(g90
g71
NtRp3061
(dp3062
g74
(dp3063
g94
g95
ssg83
g3057
sg76
(lp3064
S'wsgi.multithread'
p3065
asbag69
(g90
g71
NtRp3066
(dp3067
g74
(dp3068
g101
g102
ssg83
g3057
sg76
(lp3069
S':'
asbag69
(g90
g71
NtRp3070
(dp3071
g74
(dp3072
sg83
g3057
sg76
(lp3073
g69
(g70
g71
NtRp3074
(dp3075
g74
(dp3076
g82
I3
ssg83
g3070
sg76
(lp3077
g112
asbasbasbag69
(g85
g71
NtRp3078
(dp3079
g74
(dp3080
sg83
g2525
sg76
(lp3081
g69
(g90
g71
NtRp3082
(dp3083
g74
(dp3084
g94
g95
ssg83
g3078
sg76
(lp3085
S'wsgi.run_once'
p3086
asbag69
(g90
g71
NtRp3087
(dp3088
g74
(dp3089
g101
g102
ssg83
g3078
sg76
(lp3090
S':'
asbag69
(g90
g71
NtRp3091
(dp3092
g74
(dp3093
sg83
g3078
sg76
(lp3094
g69
(g70
g71
NtRp3095
(dp3096
g74
(dp3097
g82
I3
ssg83
g3091
sg76
(lp3098
g994
asbasbasbag69
(g85
g71
NtRp3099
(dp3100
g74
(dp3101
sg83
g2525
sg76
(lp3102
g69
(g90
g71
NtRp3103
(dp3104
g74
(dp3105
g94
g95
ssg83
g3099
sg76
(lp3106
S'wsgi.url_scheme'
p3107
asbag69
(g90
g71
NtRp3108
(dp3109
g74
(dp3110
g101
g102
ssg83
g3099
sg76
(lp3111
S':'
asbag69
(g90
g71
NtRp3112
(dp3113
g74
(dp3114
sg83
g3099
sg76
(lp3115
g69
(g70
g71
NtRp3116
(dp3117
g74
(dp3118
g82
I3
ssg83
g3112
sg76
(lp3119
g1798
asbasbasbag69
(g85
g71
NtRp3120
(dp3121
g74
(dp3122
sg83
g2525
sg76
(lp3123
g69
(g90
g71
NtRp3124
(dp3125
g74
(dp3126
g94
g95
ssg83
g3120
sg76
(lp3127
S'wsgi.version'
p3128
asbag69
(g90
g71
NtRp3129
(dp3130
g74
(dp3131
g101
g102
ssg83
g3120
sg76
(lp3132
S':'
asbag69
(g90
g71
NtRp3133
(dp3134
g74
(dp3135
sg83
g3120
sg76
(lp3136
g69
(g70
g71
NtRp3137
(dp3138
g74
(dp3139
g82
I3
ssg83
g3133
sg76
(lp3140
S'1'
asbasbasbasbasbasbasbasbasbasbasbasbasbsS'frames'
p3141
(lp3142
(dp3143
S'file'
p3144
S'/home/iscott/web/web2py/gluon/restricted.py'
p3145
sS'dump'
p3146
(dp3147
S'environment'
p3148
S"{'A': <class 'gluon.html.A'>, 'AjaxSelect': <class applications.paideia.modules.plugin_ajaxselect.AjaxSelect>, 'Auth': <class 'gluon.tools.Auth'>, 'B': <class 'gluon.html.B'>, 'BEAUTIFY': <class 'gluon.html.BEAUTIFY'>, 'BODY': <class 'gluon.html.BODY'>, 'BR': <class 'gluon.html.BR'>, 'BUTTON': <class 'gluon.html.BUTTON'>, 'CAT': <class 'gluon.html.CAT'>, 'CENTER': <class 'gluon.html.CENTER'>, ...}"
p3149
sS'ccode'
p3150
S'<code object <module> at 0x8f10380, file "/home/...ations/paideia/controllers/exploring.py", line 2>'
p3151
ssS'lnum'
p3152
I204
sS'lines'
p3153
(dp3154
I199
S'    try:'
p3155
sI200
S'        if type(code) == types.CodeType:'
p3156
sI201
S'            ccode = code'
p3157
sI202
S'        else:'
p3158
sI203
S'            ccode = compile2(code,layer)'
p3159
sI204
S'        exec ccode in environment'
p3160
sI205
S'    except HTTP:'
p3161
sI206
S'        raise'
p3162
sI207
S'    except RestrictedError:'
p3163
sI208
S'        # do not encapsulate (obfuscate) the original RestrictedError'
p3164
ssS'call'
p3165
S"(code='# coding: utf8\\nfrom paideia_exploring import pai...herror()\\n\\nresponse._vars=response._caller(index)\\n', environment={'A': <class 'gluon.html.A'>, 'AjaxSelect': <class applications.paideia.modules.plugin_ajaxselect.AjaxSelect>, 'Auth': <class 'gluon.tools.Auth'>, 'B': <class 'gluon.html.B'>, 'BEAUTIFY': <class 'gluon.html.BEAUTIFY'>, 'BODY': <class 'gluon.html.BODY'>, 'BR': <class 'gluon.html.BR'>, 'BUTTON': <class 'gluon.html.BUTTON'>, 'CAT': <class 'gluon.html.CAT'>, 'CENTER': <class 'gluon.html.CENTER'>, ...}, layer='/home/iscott/web/web2py/applications/paideia/controllers/exploring.py')"
p3166
sS'func'
p3167
S'restricted'
p3168
sa(dp3169
g3144
S'/home/iscott/web/web2py/applications/paideia/controllers/exploring.py'
p3170
sg3146
(dp3171
S'builtinmap'
p3172
S'<built-in function map>'
p3173
sS'counter'
p3174
S'undefined'
p3175
sS'paideia_tag'
p3176
g3175
sS'paideia_exploring'
p3177
g3175
sS'paideia_path'
p3178
g3175
ssg3152
I2
sg3153
(dp3179
I2
S'from paideia_exploring import paideia_path, paideia_tag, counter, map'
p3180
sI3
S'from paideia_questions import question'
p3181
sI4
S'import pprint'
p3182
sI5
S''
sI6
S'def session_init():'
p3183
sI7
S"    print 'calling session_init'"
p3184
sI8
S''
sI9
S'    #categorize paths for today'
p3185
sI10
S'    tags = paideia_tag()'
p3186
sI11
S'    session.tagset = tags.categorize_tags()'
p3187
ssg3165
S'()'
p3188
sg3167
S'<module>'
p3189
sa(dp3190
g3144
S'/home/iscott/web/web2py/gluon/custom_import.py'
p3191
sg3146
(dp3192
S'fromlist'
p3193
S"('paideia_path', 'paideia_tag', 'counter', 'map')"
p3194
sS'globals'
p3195
S"{'A': <class 'gluon.html.A'>, 'AjaxSelect': <class applications.paideia.modules.plugin_ajaxselect.AjaxSelect>, 'Auth': <class 'gluon.tools.Auth'>, 'B': <class 'gluon.html.B'>, 'BEAUTIFY': <class 'gluon.html.BEAUTIFY'>, 'BODY': <class 'gluon.html.BODY'>, 'BR': <class 'gluon.html.BR'>, 'BUTTON': <class 'gluon.html.BUTTON'>, 'CAT': <class 'gluon.html.CAT'>, 'CENTER': <class 'gluon.html.CENTER'>, ...}"
p3196
sS'locals'
p3197
S"{'A': <class 'gluon.html.A'>, 'AjaxSelect': <class applications.paideia.modules.plugin_ajaxselect.AjaxSelect>, 'Auth': <class 'gluon.tools.Auth'>, 'B': <class 'gluon.html.B'>, 'BEAUTIFY': <class 'gluon.html.BEAUTIFY'>, 'BODY': <class 'gluon.html.BODY'>, 'BR': <class 'gluon.html.BR'>, 'BUTTON': <class 'gluon.html.BUTTON'>, 'CAT': <class 'gluon.html.CAT'>, 'CENTER': <class 'gluon.html.CENTER'>, ...}"
p3198
sS'level'
p3199
S'-1'
p3200
ssg3152
I289
sg3153
(dp3201
I288
S'                            .__call__(modules_prefix+"."+name,'
p3202
sI289
S'                                    globals, locals, fromlist, level)'
p3203
sI290
S'                except ImportError:'
p3204
sI291
S'                    pass'
p3205
sI292
S'        return super(_Web2pyImporter, self).__call__(name, globals, locals,'
p3206
sI293
S'                                                    fromlist, level)'
p3207
sI284
S'                            globals, locals, fromlist, level)'
p3208
sI285
S'                    else:'
p3209
sI286
S'                        # import like "from x import a, b, ..."'
p3210
sI287
S'                        return super(_Web2pyImporter, self) \\'
p3211
ssg3165
S"(self=<gluon.custom_import._Web2pyDateTrackerImporter object>, name='paideia_exploring', globals={'A': <class 'gluon.html.A'>, 'AjaxSelect': <class applications.paideia.modules.plugin_ajaxselect.AjaxSelect>, 'Auth': <class 'gluon.tools.Auth'>, 'B': <class 'gluon.html.B'>, 'BEAUTIFY': <class 'gluon.html.BEAUTIFY'>, 'BODY': <class 'gluon.html.BODY'>, 'BR': <class 'gluon.html.BR'>, 'BUTTON': <class 'gluon.html.BUTTON'>, 'CAT': <class 'gluon.html.CAT'>, 'CENTER': <class 'gluon.html.CENTER'>, ...}, locals={'A': <class 'gluon.html.A'>, 'AjaxSelect': <class applications.paideia.modules.plugin_ajaxselect.AjaxSelect>, 'Auth': <class 'gluon.tools.Auth'>, 'B': <class 'gluon.html.B'>, 'BEAUTIFY': <class 'gluon.html.BEAUTIFY'>, 'BODY': <class 'gluon.html.BODY'>, 'BR': <class 'gluon.html.BR'>, 'BUTTON': <class 'gluon.html.BUTTON'>, 'CAT': <class 'gluon.html.CAT'>, 'CENTER': <class 'gluon.html.CENTER'>, ...}, fromlist=('paideia_path', 'paideia_tag', 'counter', 'map'), level=-1)"
p3212
sg3167
S'__call__'
p3213
sa(dp3214
g3144
S'/home/iscott/web/web2py/gluon/custom_import.py'
p3215
sg3146
(dp3216
S'e'
S"SyntaxError('invalid syntax', ('applications/pai...ring.py', 379, 24, '    __init__(self, sid):\\n'))"
p3217
ssg3152
I132
sg3153
(dp3218
I128
S'            # Module maybe loaded for the 1st time so we need to set the date'
p3219
sI129
S'            self._update_dates(name, fromlist)'
p3220
sI130
S'            return result'
p3221
sI131
S'        except Exception, e:'
p3222
sI132
S"            raise e  # Don't hide something that went wrong"
p3223
sI133
S'        finally:'
p3224
sI134
S'            if call_begin_end:'
p3225
sI135
S'                self.end()'
p3226
sI136
S''
sI127
S'              .__call__(name, globals, locals, fromlist, level)'
p3227
ssg3165
S"(self=<gluon.custom_import._Web2pyDateTrackerImporter object>, name='applications.paideia.modules.paideia_exploring', globals={'A': <class 'gluon.html.A'>, 'AjaxSelect': <class applications.paideia.modules.plugin_ajaxselect.AjaxSelect>, 'Auth': <class 'gluon.tools.Auth'>, 'B': <class 'gluon.html.B'>, 'BEAUTIFY': <class 'gluon.html.BEAUTIFY'>, 'BODY': <class 'gluon.html.BODY'>, 'BR': <class 'gluon.html.BR'>, 'BUTTON': <class 'gluon.html.BUTTON'>, 'CAT': <class 'gluon.html.CAT'>, 'CENTER': <class 'gluon.html.CENTER'>, ...}, locals={'A': <class 'gluon.html.A'>, 'AjaxSelect': <class applications.paideia.modules.plugin_ajaxselect.AjaxSelect>, 'Auth': <class 'gluon.tools.Auth'>, 'B': <class 'gluon.html.B'>, 'BEAUTIFY': <class 'gluon.html.BEAUTIFY'>, 'BODY': <class 'gluon.html.BODY'>, 'BR': <class 'gluon.html.BR'>, 'BUTTON': <class 'gluon.html.BUTTON'>, 'CAT': <class 'gluon.html.CAT'>, 'CENTER': <class 'gluon.html.CENTER'>, ...}, fromlist=('paideia_path', 'paideia_tag', 'counter', 'map'), level=-1)"
p3228
sg3167
g3213
sasS'pyver'
p3229
S'Python 2.7.2+: /usr/bin/python2.7'
p3230
sS'session'
p3231
g69
(g70
g71
NtRp3232
(dp3233
g74
(dp3234
sg76
(lp3235
g69
(g78
g71
NtRp3236
(dp3237
g74
(dp3238
g82
I5
ssg83
Nsg76
(lp3239
g69
(g85
g71
NtRp3240
(dp3241
g74
(dp3242
sg83
g3236
sg76
(lp3243
g69
(g90
g71
NtRp3244
(dp3245
g74
(dp3246
g94
g95
ssg83
g3240
sg76
(lp3247
S'active_path'
p3248
asbag69
(g90
g71
NtRp3249
(dp3250
g74
(dp3251
g101
g102
ssg83
g3240
sg76
(lp3252
S':'
asbag69
(g90
g71
NtRp3253
(dp3254
g74
(dp3255
sg83
g3240
sg76
(lp3256
g69
(g70
g71
NtRp3257
(dp3258
g74
(dp3259
g82
I5
ssg83
g3253
sg76
(lp3260
S'None'
p3261
asbasbasbag69
(g85
g71
NtRp3262
(dp3263
g74
(dp3264
sg83
g3236
sg76
(lp3265
g69
(g90
g71
NtRp3266
(dp3267
g74
(dp3268
g94
g95
ssg83
g3262
sg76
(lp3269
S'active_paths'
p3270
asbag69
(g90
g71
NtRp3271
(dp3272
g74
(dp3273
g101
g102
ssg83
g3262
sg76
(lp3274
S':'
asbag69
(g90
g71
NtRp3275
(dp3276
g74
(dp3277
sg83
g3262
sg76
(lp3278
g69
(g70
g71
NtRp3279
(dp3280
g74
(dp3281
g82
I5
ssg83
g3275
sg76
(lp3282
g69
(g78
g71
NtRp3283
(dp3284
g74
(dp3285
g82
I4
ssg83
Nsg76
(lp3286
g69
(g85
g71
NtRp3287
(dp3288
g74
(dp3289
sg83
g3283
sg76
(lp3290
g69
(g90
g71
NtRp3291
(dp3292
g74
(dp3293
sg83
g3287
sg76
(lp3294
g69
(g70
g71
NtRp3295
(dp3296
g74
(dp3297
g82
I4
ssg83
g3291
sg76
(lp3298
S'3'
asbasbasbag69
(g85
g71
NtRp3299
(dp3300
g74
(dp3301
sg83
g3283
sg76
(lp3302
g69
(g90
g71
NtRp3303
(dp3304
g74
(dp3305
sg83
g3299
sg76
(lp3306
g69
(g70
g71
NtRp3307
(dp3308
g74
(dp3309
g82
I4
ssg83
g3303
sg76
(lp3310
S'3'
asbasbasbag69
(g85
g71
NtRp3311
(dp3312
g74
(dp3313
sg83
g3283
sg76
(lp3314
g69
(g90
g71
NtRp3315
(dp3316
g74
(dp3317
sg83
g3311
sg76
(lp3318
g69
(g70
g71
NtRp3319
(dp3320
g74
(dp3321
g82
I4
ssg83
g3315
sg76
(lp3322
S'2'
asbasbasbag69
(g85
g71
NtRp3323
(dp3324
g74
(dp3325
sg83
g3283
sg76
(lp3326
g69
(g90
g71
NtRp3327
(dp3328
g74
(dp3329
sg83
g3323
sg76
(lp3330
g69
(g70
g71
NtRp3331
(dp3332
g74
(dp3333
g82
I4
ssg83
g3327
sg76
(lp3334
S'1'
asbasbasbag69
(g85
g71
NtRp3335
(dp3336
g74
(dp3337
sg83
g3283
sg76
(lp3338
g69
(g90
g71
NtRp3339
(dp3340
g74
(dp3341
sg83
g3335
sg76
(lp3342
g69
(g70
g71
NtRp3343
(dp3344
g74
(dp3345
g82
I4
ssg83
g3339
sg76
(lp3346
S'3'
asbasbasbag69
(g85
g71
NtRp3347
(dp3348
g74
(dp3349
sg83
g3283
sg76
(lp3350
g69
(g90
g71
NtRp3351
(dp3352
g74
(dp3353
sg83
g3347
sg76
(lp3354
g69
(g70
g71
NtRp3355
(dp3356
g74
(dp3357
g82
I4
ssg83
g3351
sg76
(lp3358
S'1'
asbasbasbag69
(g85
g71
NtRp3359
(dp3360
g74
(dp3361
sg83
g3283
sg76
(lp3362
g69
(g90
g71
NtRp3363
(dp3364
g74
(dp3365
sg83
g3359
sg76
(lp3366
g69
(g70
g71
NtRp3367
(dp3368
g74
(dp3369
g82
I4
ssg83
g3363
sg76
(lp3370
S'2'
asbasbasbag69
(g85
g71
NtRp3371
(dp3372
g74
(dp3373
sg83
g3283
sg76
(lp3374
g69
(g90
g71
NtRp3375
(dp3376
g74
(dp3377
sg83
g3371
sg76
(lp3378
g69
(g70
g71
NtRp3379
(dp3380
g74
(dp3381
g82
I4
ssg83
g3375
sg76
(lp3382
S'3'
asbasbasbasbasbasbasbag69
(g85
g71
NtRp3383
(dp3384
g74
(dp3385
sg83
g3236
sg76
(lp3386
g69
(g90
g71
NtRp3387
(dp3388
g74
(dp3389
g94
g95
ssg83
g3383
sg76
(lp3390
S'answer'
p3391
asbag69
(g90
g71
NtRp3392
(dp3393
g74
(dp3394
g101
g102
ssg83
g3383
sg76
(lp3395
S':'
asbag69
(g90
g71
NtRp3396
(dp3397
g74
(dp3398
sg83
g3383
sg76
(lp3399
g69
(g70
g71
NtRp3400
(dp3401
g74
(dp3402
g82
I5
ssg83
g3396
sg76
(lp3403
S'^(through )(the |a )(road|street|way)( )*$'
p3404
asbasbasbag69
(g85
g71
NtRp3405
(dp3406
g74
(dp3407
sg83
g3236
sg76
(lp3408
g69
(g90
g71
NtRp3409
(dp3410
g74
(dp3411
g94
g95
ssg83
g3405
sg76
(lp3412
S'answer2'
p3413
asbag69
(g90
g71
NtRp3414
(dp3415
g74
(dp3416
g101
g102
ssg83
g3405
sg76
(lp3417
S':'
asbag69
(g90
g71
NtRp3418
(dp3419
g74
(dp3420
sg83
g3405
sg76
(lp3421
g69
(g70
g71
NtRp3422
(dp3423
g74
(dp3424
g82
I5
ssg83
g3418
sg76
(lp3425
S'null'
p3426
asbasbasbag69
(g85
g71
NtRp3427
(dp3428
g74
(dp3429
sg83
g3236
sg76
(lp3430
g69
(g90
g71
NtRp3431
(dp3432
g74
(dp3433
g94
g95
ssg83
g3427
sg76
(lp3434
S'answer3'
p3435
asbag69
(g90
g71
NtRp3436
(dp3437
g74
(dp3438
g101
g102
ssg83
g3427
sg76
(lp3439
S':'
asbag69
(g90
g71
NtRp3440
(dp3441
g74
(dp3442
sg83
g3427
sg76
(lp3443
g69
(g70
g71
NtRp3444
(dp3445
g74
(dp3446
g82
I5
ssg83
g3440
sg76
(lp3447
S'null'
p3448
asbasbasbag69
(g85
g71
NtRp3449
(dp3450
g74
(dp3451
sg83
g3236
sg76
(lp3452
g69
(g90
g71
NtRp3453
(dp3454
g74
(dp3455
g94
g95
ssg83
g3449
sg76
(lp3456
S'auth'
p3457
asbag69
(g90
g71
NtRp3458
(dp3459
g74
(dp3460
g101
g102
ssg83
g3449
sg76
(lp3461
S':'
asbag69
(g90
g71
NtRp3462
(dp3463
g74
(dp3464
sg83
g3449
sg76
(lp3465
g69
(g70
g71
NtRp3466
(dp3467
g74
(dp3468
g82
I5
ssg83
g3462
sg76
(lp3469
g69
(g78
g71
NtRp3470
(dp3471
g74
(dp3472
g82
I4
ssg83
Nsg76
(lp3473
g69
(g85
g71
NtRp3474
(dp3475
g74
(dp3476
sg83
g3470
sg76
(lp3477
g69
(g90
g71
NtRp3478
(dp3479
g74
(dp3480
g94
g95
ssg83
g3474
sg76
(lp3481
S'expiration'
p3482
asbag69
(g90
g71
NtRp3483
(dp3484
g74
(dp3485
g101
g102
ssg83
g3474
sg76
(lp3486
S':'
asbag69
(g90
g71
NtRp3487
(dp3488
g74
(dp3489
sg83
g3474
sg76
(lp3490
g69
(g70
g71
NtRp3491
(dp3492
g74
(dp3493
g82
I4
ssg83
g3487
sg76
(lp3494
S'2592000'
p3495
asbasbasbag69
(g85
g71
NtRp3496
(dp3497
g74
(dp3498
sg83
g3470
sg76
(lp3499
g69
(g90
g71
NtRp3500
(dp3501
g74
(dp3502
g94
g95
ssg83
g3496
sg76
(lp3503
S'hmac_key'
p3504
asbag69
(g90
g71
NtRp3505
(dp3506
g74
(dp3507
g101
g102
ssg83
g3496
sg76
(lp3508
S':'
asbag69
(g90
g71
NtRp3509
(dp3510
g74
(dp3511
sg83
g3496
sg76
(lp3512
g69
(g70
g71
NtRp3513
(dp3514
g74
(dp3515
g82
I4
ssg83
g3509
sg76
(lp3516
S'fce6e545-515a-4703-a164-38201539b3c6'
p3517
asbasbasbag69
(g85
g71
NtRp3518
(dp3519
g74
(dp3520
sg83
g3470
sg76
(lp3521
g69
(g90
g71
NtRp3522
(dp3523
g74
(dp3524
g94
g95
ssg83
g3518
sg76
(lp3525
S'last_visit'
p3526
asbag69
(g90
g71
NtRp3527
(dp3528
g74
(dp3529
g101
g102
ssg83
g3518
sg76
(lp3530
S':'
asbag69
(g90
g71
NtRp3531
(dp3532
g74
(dp3533
sg83
g3518
sg76
(lp3534
g69
(g70
g71
NtRp3535
(dp3536
g74
(dp3537
g82
I4
ssg83
g3531
sg76
(lp3538
S'datetime.datetime(2012, 3, 19, 12, 47, 12, 129644)'
p3539
asbasbasbag69
(g85
g71
NtRp3540
(dp3541
g74
(dp3542
sg83
g3470
sg76
(lp3543
g69
(g90
g71
NtRp3544
(dp3545
g74
(dp3546
g94
g95
ssg83
g3540
sg76
(lp3547
S'remember'
p3548
asbag69
(g90
g71
NtRp3549
(dp3550
g74
(dp3551
g101
g102
ssg83
g3540
sg76
(lp3552
S':'
asbag69
(g90
g71
NtRp3553
(dp3554
g74
(dp3555
sg83
g3540
sg76
(lp3556
g69
(g70
g71
NtRp3557
(dp3558
g74
(dp3559
g82
I4
ssg83
g3553
sg76
(lp3560
g112
asbasbasbag69
(g85
g71
NtRp3561
(dp3562
g74
(dp3563
sg83
g3470
sg76
(lp3564
g69
(g90
g71
NtRp3565
(dp3566
g74
(dp3567
g94
g95
ssg83
g3561
sg76
(lp3568
S'user'
p3569
asbag69
(g90
g71
NtRp3570
(dp3571
g74
(dp3572
g101
g102
ssg83
g3561
sg76
(lp3573
S':'
asbag69
(g90
g71
NtRp3574
(dp3575
g74
(dp3576
sg83
g3561
sg76
(lp3577
g69
(g70
g71
NtRp3578
(dp3579
g74
(dp3580
g82
I4
ssg83
g3574
sg76
(lp3581
g69
(g78
g71
NtRp3582
(dp3583
g74
(dp3584
g82
I3
ssg83
Nsg76
(lp3585
g69
(g85
g71
NtRp3586
(dp3587
g74
(dp3588
sg83
g3582
sg76
(lp3589
g69
(g90
g71
NtRp3590
(dp3591
g74
(dp3592
g94
g95
ssg83
g3586
sg76
(lp3593
S'email'
p3594
asbag69
(g90
g71
NtRp3595
(dp3596
g74
(dp3597
g101
g102
ssg83
g3586
sg76
(lp3598
S':'
asbag69
(g90
g71
NtRp3599
(dp3600
g74
(dp3601
sg83
g3586
sg76
(lp3602
g69
(g70
g71
NtRp3603
(dp3604
g74
(dp3605
g82
I3
ssg83
g3599
sg76
(lp3606
S'scottianw@gmail.com'
p3607
asbasbasbag69
(g85
g71
NtRp3608
(dp3609
g74
(dp3610
sg83
g3582
sg76
(lp3611
g69
(g90
g71
NtRp3612
(dp3613
g74
(dp3614
g94
g95
ssg83
g3608
sg76
(lp3615
S'first_name'
p3616
asbag69
(g90
g71
NtRp3617
(dp3618
g74
(dp3619
g101
g102
ssg83
g3608
sg76
(lp3620
S':'
asbag69
(g90
g71
NtRp3621
(dp3622
g74
(dp3623
sg83
g3608
sg76
(lp3624
g69
(g70
g71
NtRp3625
(dp3626
g74
(dp3627
g82
I3
ssg83
g3621
sg76
(lp3628
S'Ian'
p3629
asbasbasbag69
(g85
g71
NtRp3630
(dp3631
g74
(dp3632
sg83
g3582
sg76
(lp3633
g69
(g90
g71
NtRp3634
(dp3635
g74
(dp3636
g94
g95
ssg83
g3630
sg76
(lp3637
S'id'
p3638
asbag69
(g90
g71
NtRp3639
(dp3640
g74
(dp3641
g101
g102
ssg83
g3630
sg76
(lp3642
S':'
asbag69
(g90
g71
NtRp3643
(dp3644
g74
(dp3645
sg83
g3630
sg76
(lp3646
g69
(g70
g71
NtRp3647
(dp3648
g74
(dp3649
g82
I3
ssg83
g3643
sg76
(lp3650
S'2'
asbasbasbag69
(g85
g71
NtRp3651
(dp3652
g74
(dp3653
sg83
g3582
sg76
(lp3654
g69
(g90
g71
NtRp3655
(dp3656
g74
(dp3657
g94
g95
ssg83
g3651
sg76
(lp3658
S'last_name'
p3659
asbag69
(g90
g71
NtRp3660
(dp3661
g74
(dp3662
g101
g102
ssg83
g3651
sg76
(lp3663
S':'
asbag69
(g90
g71
NtRp3664
(dp3665
g74
(dp3666
sg83
g3651
sg76
(lp3667
g69
(g70
g71
NtRp3668
(dp3669
g74
(dp3670
g82
I3
ssg83
g3664
sg76
(lp3671
S'Scott'
p3672
asbasbasbag69
(g85
g71
NtRp3673
(dp3674
g74
(dp3675
sg83
g3582
sg76
(lp3676
g69
(g90
g71
NtRp3677
(dp3678
g74
(dp3679
g94
g95
ssg83
g3673
sg76
(lp3680
S'password'
p3681
asbag69
(g90
g71
NtRp3682
(dp3683
g74
(dp3684
g101
g102
ssg83
g3673
sg76
(lp3685
S':'
asbag69
(g90
g71
NtRp3686
(dp3687
g74
(dp3688
sg83
g3673
sg76
(lp3689
g69
(g70
g71
NtRp3690
(dp3691
g74
(dp3692
g82
I3
ssg83
g3686
sg76
(lp3693
S'19738f1e9a2c8eaac81936a86bf608a1a6995e02f527fa31723cb88a2e513a1efae33471354a02805bf25ea2ea17a59c025a5fc8eca6b3bb2137bda74e538737'
p3694
asbasbasbag69
(g85
g71
NtRp3695
(dp3696
g74
(dp3697
sg83
g3582
sg76
(lp3698
g69
(g90
g71
NtRp3699
(dp3700
g74
(dp3701
g94
g95
ssg83
g3695
sg76
(lp3702
S'registration_id'
p3703
asbag69
(g90
g71
NtRp3704
(dp3705
g74
(dp3706
g101
g102
ssg83
g3695
sg76
(lp3707
S':'
asbag69
(g90
g71
NtRp3708
(dp3709
g74
(dp3710
sg83
g3695
sg76
(lp3711
g69
(g70
g71
NtRp3712
(dp3713
g74
(dp3714
g82
I3
ssg83
g3708
sg76
(lp3715
S'None'
p3716
asbasbasbag69
(g85
g71
NtRp3717
(dp3718
g74
(dp3719
sg83
g3582
sg76
(lp3720
g69
(g90
g71
NtRp3721
(dp3722
g74
(dp3723
g94
g95
ssg83
g3717
sg76
(lp3724
S'registration_key'
p3725
asbag69
(g90
g71
NtRp3726
(dp3727
g74
(dp3728
g101
g102
ssg83
g3717
sg76
(lp3729
S':'
asbag69
(g90
g71
NtRp3730
(dp3731
g74
(dp3732
sg83
g3717
sg76
(lp3733
g69
(g70
g71
NtRp3734
(dp3735
g74
(dp3736
g82
I3
ssg83
g3730
sg76
(lp3737
S''
asbasbasbag69
(g85
g71
NtRp3738
(dp3739
g74
(dp3740
sg83
g3582
sg76
(lp3741
g69
(g90
g71
NtRp3742
(dp3743
g74
(dp3744
g94
g95
ssg83
g3738
sg76
(lp3745
S'reset_password_key'
p3746
asbag69
(g90
g71
NtRp3747
(dp3748
g74
(dp3749
g101
g102
ssg83
g3738
sg76
(lp3750
S':'
asbag69
(g90
g71
NtRp3751
(dp3752
g74
(dp3753
sg83
g3738
sg76
(lp3754
g69
(g70
g71
NtRp3755
(dp3756
g74
(dp3757
g82
I3
ssg83
g3751
sg76
(lp3758
S'1327083713-2cc5b0bb-81c6-473e-adeb-2160a9624c63'
p3759
asbasbasbasbasbasbasbasbasbasbasbag69
(g85
g71
NtRp3760
(dp3761
g74
(dp3762
sg83
g3236
sg76
(lp3763
g69
(g90
g71
NtRp3764
(dp3765
g74
(dp3766
g94
g95
ssg83
g3760
sg76
(lp3767
S'blocks'
p3768
asbag69
(g90
g71
NtRp3769
(dp3770
g74
(dp3771
g101
g102
ssg83
g3760
sg76
(lp3772
S':'
asbag69
(g90
g71
NtRp3773
(dp3774
g74
(dp3775
sg83
g3760
sg76
(lp3776
g69
(g70
g71
NtRp3777
(dp3778
g74
(dp3779
g82
I5
ssg83
g3773
sg76
(lp3780
S'None'
p3781
asbasbasbag69
(g85
g71
NtRp3782
(dp3783
g74
(dp3784
sg83
g3236
sg76
(lp3785
g69
(g90
g71
NtRp3786
(dp3787
g74
(dp3788
g94
g95
ssg83
g3782
sg76
(lp3789
S'completed_paths'
p3790
asbag69
(g90
g71
NtRp3791
(dp3792
g74
(dp3793
g101
g102
ssg83
g3782
sg76
(lp3794
S':'
asbag69
(g90
g71
NtRp3795
(dp3796
g74
(dp3797
sg83
g3782
sg76
(lp3798
g69
(g70
g71
NtRp3799
(dp3800
g74
(dp3801
g82
I5
ssg83
g3795
sg76
(lp3802
S'None'
p3803
asbasbasbag69
(g85
g71
NtRp3804
(dp3805
g74
(dp3806
sg83
g3236
sg76
(lp3807
g69
(g90
g71
NtRp3808
(dp3809
g74
(dp3810
g94
g95
ssg83
g3804
sg76
(lp3811
S'debug'
p3812
asbag69
(g90
g71
NtRp3813
(dp3814
g74
(dp3815
g101
g102
ssg83
g3804
sg76
(lp3816
S':'
asbag69
(g90
g71
NtRp3817
(dp3818
g74
(dp3819
sg83
g3804
sg76
(lp3820
g69
(g70
g71
NtRp3821
(dp3822
g74
(dp3823
g82
I5
ssg83
g3817
sg76
(lp3824
g69
(g78
g71
NtRp3825
(dp3826
g74
(dp3827
g82
I4
ssg83
Nsg76
(lp3828
sbasbasbasbag69
(g85
g71
NtRp3829
(dp3830
g74
(dp3831
sg83
g3236
sg76
(lp3832
g69
(g90
g71
NtRp3833
(dp3834
g74
(dp3835
g94
g95
ssg83
g3829
sg76
(lp3836
S'eval'
p3837
asbag69
(g90
g71
NtRp3838
(dp3839
g74
(dp3840
g101
g102
ssg83
g3829
sg76
(lp3841
S':'
asbag69
(g90
g71
NtRp3842
(dp3843
g74
(dp3844
sg83
g3829
sg76
(lp3845
g69
(g70
g71
NtRp3846
(dp3847
g74
(dp3848
g82
I5
ssg83
g3842
sg76
(lp3849
S'correct'
p3850
asbasbasbag69
(g85
g71
NtRp3851
(dp3852
g74
(dp3853
sg83
g3236
sg76
(lp3854
g69
(g90
g71
NtRp3855
(dp3856
g74
(dp3857
g94
g95
ssg83
g3851
sg76
(lp3858
S'last_query'
p3859
asbag69
(g90
g71
NtRp3860
(dp3861
g74
(dp3862
g101
g102
ssg83
g3851
sg76
(lp3863
S':'
asbag69
(g90
g71
NtRp3864
(dp3865
g74
(dp3866
sg83
g3851
sg76
(lp3867
g69
(g70
g71
NtRp3868
(dp3869
g74
(dp3870
g82
I5
ssg83
g3864
sg76
(lp3871
S'db.npcs.id>0'
p3872
asbasbasbag69
(g85
g71
NtRp3873
(dp3874
g74
(dp3875
sg83
g3236
sg76
(lp3876
g69
(g90
g71
NtRp3877
(dp3878
g74
(dp3879
g94
g95
ssg83
g3873
sg76
(lp3880
S'location'
p3881
asbag69
(g90
g71
NtRp3882
(dp3883
g74
(dp3884
g101
g102
ssg83
g3873
sg76
(lp3885
S':'
asbag69
(g90
g71
NtRp3886
(dp3887
g74
(dp3888
sg83
g3873
sg76
(lp3889
g69
(g70
g71
NtRp3890
(dp3891
g74
(dp3892
g82
I5
ssg83
g3886
sg76
(lp3893
S'1'
asbasbasbag69
(g85
g71
NtRp3894
(dp3895
g74
(dp3896
sg83
g3236
sg76
(lp3897
g69
(g90
g71
NtRp3898
(dp3899
g74
(dp3900
g94
g95
ssg83
g3894
sg76
(lp3901
S'path_freq'
p3902
asbag69
(g90
g71
NtRp3903
(dp3904
g74
(dp3905
g101
g102
ssg83
g3894
sg76
(lp3906
S':'
asbag69
(g90
g71
NtRp3907
(dp3908
g74
(dp3909
sg83
g3894
sg76
(lp3910
g69
(g70
g71
NtRp3911
(dp3912
g74
(dp3913
g82
I5
ssg83
g3907
sg76
(lp3914
S'70'
p3915
asbasbasbag69
(g85
g71
NtRp3916
(dp3917
g74
(dp3918
sg83
g3236
sg76
(lp3919
g69
(g90
g71
NtRp3920
(dp3921
g74
(dp3922
g94
g95
ssg83
g3916
sg76
(lp3923
S'path_id'
p3924
asbag69
(g90
g71
NtRp3925
(dp3926
g74
(dp3927
g101
g102
ssg83
g3916
sg76
(lp3928
S':'
asbag69
(g90
g71
NtRp3929
(dp3930
g74
(dp3931
sg83
g3916
sg76
(lp3932
g69
(g70
g71
NtRp3933
(dp3934
g74
(dp3935
g82
I5
ssg83
g3929
sg76
(lp3936
S'1'
asbasbasbag69
(g85
g71
NtRp3937
(dp3938
g74
(dp3939
sg83
g3236
sg76
(lp3940
g69
(g90
g71
NtRp3941
(dp3942
g74
(dp3943
g94
g95
ssg83
g3937
sg76
(lp3944
S'path_length'
p3945
asbag69
(g90
g71
NtRp3946
(dp3947
g74
(dp3948
g101
g102
ssg83
g3937
sg76
(lp3949
S':'
asbag69
(g90
g71
NtRp3950
(dp3951
g74
(dp3952
sg83
g3937
sg76
(lp3953
g69
(g70
g71
NtRp3954
(dp3955
g74
(dp3956
g82
I5
ssg83
g3950
sg76
(lp3957
S'20'
p3958
asbasbasbag69
(g85
g71
NtRp3959
(dp3960
g74
(dp3961
sg83
g3236
sg76
(lp3962
g69
(g90
g71
NtRp3963
(dp3964
g74
(dp3965
g94
g95
ssg83
g3959
sg76
(lp3966
S'path_name'
p3967
asbag69
(g90
g71
NtRp3968
(dp3969
g74
(dp3970
g101
g102
ssg83
g3959
sg76
(lp3971
S':'
asbag69
(g90
g71
NtRp3972
(dp3973
g74
(dp3974
sg83
g3959
sg76
(lp3975
g69
(g70
g71
NtRp3976
(dp3977
g74
(dp3978
g82
I5
ssg83
g3972
sg76
(lp3979
S'Tyndale - Greek Exegesis I - Week 1'
p3980
asbasbasbag69
(g85
g71
NtRp3981
(dp3982
g74
(dp3983
sg83
g3236
sg76
(lp3984
g69
(g90
g71
NtRp3985
(dp3986
g74
(dp3987
g94
g95
ssg83
g3981
sg76
(lp3988
S'path_tags'
p3989
asbag69
(g90
g71
NtRp3990
(dp3991
g74
(dp3992
g101
g102
ssg83
g3981
sg76
(lp3993
S':'
asbag69
(g90
g71
NtRp3994
(dp3995
g74
(dp3996
sg83
g3981
sg76
(lp3997
g69
(g70
g71
NtRp3998
(dp3999
g74
(dp4000
g82
I5
ssg83
g3994
sg76
(lp4001
g69
(g78
g71
NtRp4002
(dp4003
g74
(dp4004
g82
I4
ssg83
Nsg76
(lp4005
g69
(g85
g71
NtRp4006
(dp4007
g74
(dp4008
sg83
g4002
sg76
(lp4009
g69
(g90
g71
NtRp4010
(dp4011
g74
(dp4012
sg83
g4006
sg76
(lp4013
g69
(g70
g71
NtRp4014
(dp4015
g74
(dp4016
g82
I4
ssg83
g4010
sg76
(lp4017
S'6'
asbasbasbag69
(g85
g71
NtRp4018
(dp4019
g74
(dp4020
sg83
g4002
sg76
(lp4021
g69
(g90
g71
NtRp4022
(dp4023
g74
(dp4024
sg83
g4018
sg76
(lp4025
g69
(g70
g71
NtRp4026
(dp4027
g74
(dp4028
g82
I4
ssg83
g4022
sg76
(lp4029
S'1'
asbasbasbag69
(g85
g71
NtRp4030
(dp4031
g74
(dp4032
sg83
g4002
sg76
(lp4033
g69
(g90
g71
NtRp4034
(dp4035
g74
(dp4036
sg83
g4030
sg76
(lp4037
g69
(g70
g71
NtRp4038
(dp4039
g74
(dp4040
g82
I4
ssg83
g4034
sg76
(lp4041
S'7'
asbasbasbag69
(g85
g71
NtRp4042
(dp4043
g74
(dp4044
sg83
g4002
sg76
(lp4045
g69
(g90
g71
NtRp4046
(dp4047
g74
(dp4048
sg83
g4042
sg76
(lp4049
g69
(g70
g71
NtRp4050
(dp4051
g74
(dp4052
g82
I4
ssg83
g4046
sg76
(lp4053
S'8'
asbasbasbag69
(g85
g71
NtRp4054
(dp4055
g74
(dp4056
sg83
g4002
sg76
(lp4057
g69
(g90
g71
NtRp4058
(dp4059
g74
(dp4060
sg83
g4054
sg76
(lp4061
g69
(g70
g71
NtRp4062
(dp4063
g74
(dp4064
g82
I4
ssg83
g4058
sg76
(lp4065
S'9'
asbasbasbasbasbasbasbag69
(g85
g71
NtRp4066
(dp4067
g74
(dp4068
sg83
g3236
sg76
(lp4069
g69
(g90
g71
NtRp4070
(dp4071
g74
(dp4072
g94
g95
ssg83
g4066
sg76
(lp4073
S'qID'
p4074
asbag69
(g90
g71
NtRp4075
(dp4076
g74
(dp4077
g101
g102
ssg83
g4066
sg76
(lp4078
S':'
asbag69
(g90
g71
NtRp4079
(dp4080
g74
(dp4081
sg83
g4066
sg76
(lp4082
g69
(g70
g71
NtRp4083
(dp4084
g74
(dp4085
g82
I5
ssg83
g4079
sg76
(lp4086
S'32'
p4087
asbasbasbag69
(g85
g71
NtRp4088
(dp4089
g74
(dp4090
sg83
g3236
sg76
(lp4091
g69
(g90
g71
NtRp4092
(dp4093
g74
(dp4094
g94
g95
ssg83
g4088
sg76
(lp4095
S'q_counter'
p4096
asbag69
(g90
g71
NtRp4097
(dp4098
g74
(dp4099
g101
g102
ssg83
g4088
sg76
(lp4100
S':'
asbag69
(g90
g71
NtRp4101
(dp4102
g74
(dp4103
sg83
g4088
sg76
(lp4104
g69
(g70
g71
NtRp4105
(dp4106
g74
(dp4107
g82
I5
ssg83
g4101
sg76
(lp4108
S'17'
p4109
asbasbasbag69
(g85
g71
NtRp4110
(dp4111
g74
(dp4112
sg83
g3236
sg76
(lp4113
g69
(g90
g71
NtRp4114
(dp4115
g74
(dp4116
g94
g95
ssg83
g4110
sg76
(lp4117
S'question_text'
p4118
asbag69
(g90
g71
NtRp4119
(dp4120
g74
(dp4121
g101
g102
ssg83
g4110
sg76
(lp4122
S':'
asbag69
(g90
g71
NtRp4123
(dp4124
g74
(dp4125
sg83
g4110
sg76
(lp4126
g69
(g70
g71
NtRp4127
(dp4128
g74
(dp4129
g82
I5
ssg83
g4123
sg76
(lp4130
S'What does \xce\xb4\xce\xb9\xe1\xbd\xb0 \xcf\x84\xe1\xbd\xb4\xcf\x82 \xe1\xbd\x85\xce\xb4\xce\xbf\xcf\x85 mean?'
p4131
asbasbasbag69
(g85
g71
NtRp4132
(dp4133
g74
(dp4134
sg83
g3236
sg76
(lp4135
g69
(g90
g71
NtRp4136
(dp4137
g74
(dp4138
g94
g95
ssg83
g4132
sg76
(lp4139
S'quiz_type'
p4140
asbag69
(g90
g71
NtRp4141
(dp4142
g74
(dp4143
g101
g102
ssg83
g4132
sg76
(lp4144
S':'
asbag69
(g90
g71
NtRp4145
(dp4146
g74
(dp4147
sg83
g4132
sg76
(lp4148
g69
(g70
g71
NtRp4149
(dp4150
g74
(dp4151
g82
I5
ssg83
g4145
sg76
(lp4152
S'random'
p4153
asbasbasbag69
(g85
g71
NtRp4154
(dp4155
g74
(dp4156
sg83
g3236
sg76
(lp4157
g69
(g90
g71
NtRp4158
(dp4159
g74
(dp4160
g94
g95
ssg83
g4154
sg76
(lp4161
S'readable_answer'
p4162
asbag69
(g90
g71
NtRp4163
(dp4164
g74
(dp4165
g101
g102
ssg83
g4154
sg76
(lp4166
S':'
asbag69
(g90
g71
NtRp4167
(dp4168
g74
(dp4169
sg83
g4154
sg76
(lp4170
g69
(g70
g71
NtRp4171
(dp4172
g74
(dp4173
g82
I5
ssg83
g4167
sg76
(lp4174
S'through the road; through the street'
p4175
asbasbasbag69
(g85
g71
NtRp4176
(dp4177
g74
(dp4178
sg83
g3236
sg76
(lp4179
g69
(g90
g71
NtRp4180
(dp4181
g74
(dp4182
g94
g95
ssg83
g4176
sg76
(lp4183
S'response'
p4184
asbag69
(g90
g71
NtRp4185
(dp4186
g74
(dp4187
g101
g102
ssg83
g4176
sg76
(lp4188
S':'
asbag69
(g90
g71
NtRp4189
(dp4190
g74
(dp4191
sg83
g4176
sg76
(lp4192
g69
(g70
g71
NtRp4193
(dp4194
g74
(dp4195
g82
I5
ssg83
g4189
sg76
(lp4196
S'through the road'
p4197
asbasbasbag69
(g85
g71
NtRp4198
(dp4199
g74
(dp4200
sg83
g3236
sg76
(lp4201
g69
(g90
g71
NtRp4202
(dp4203
g74
(dp4204
g94
g95
ssg83
g4198
sg76
(lp4205
S'tagset'
p4206
asbag69
(g90
g71
NtRp4207
(dp4208
g74
(dp4209
g101
g102
ssg83
g4198
sg76
(lp4210
S':'
asbag69
(g90
g71
NtRp4211
(dp4212
g74
(dp4213
sg83
g4198
sg76
(lp4214
g69
(g70
g71
NtRp4215
(dp4216
g74
(dp4217
g82
I5
ssg83
g4211
sg76
(lp4218
g69
(g78
g71
NtRp4219
(dp4220
g74
(dp4221
g82
I4
ssg83
Nsg76
(lp4222
g69
(g85
g71
NtRp4223
(dp4224
g74
(dp4225
sg83
g4219
sg76
(lp4226
g69
(g90
g71
NtRp4227
(dp4228
g74
(dp4229
g94
g95
ssg83
g4223
sg76
(lp4230
S'1'
asbag69
(g90
g71
NtRp4231
(dp4232
g74
(dp4233
g101
g102
ssg83
g4223
sg76
(lp4234
S':'
asbag69
(g90
g71
NtRp4235
(dp4236
g74
(dp4237
sg83
g4223
sg76
(lp4238
g69
(g70
g71
NtRp4239
(dp4240
g74
(dp4241
g82
I4
ssg83
g4235
sg76
(lp4242
g69
(g78
g71
NtRp4243
(dp4244
g74
(dp4245
g82
I3
ssg83
Nsg76
(lp4246
g69
(g85
g71
NtRp4247
(dp4248
g74
(dp4249
sg83
g4243
sg76
(lp4250
g69
(g90
g71
NtRp4251
(dp4252
g74
(dp4253
sg83
g4247
sg76
(lp4254
g69
(g70
g71
NtRp4255
(dp4256
g74
(dp4257
g82
I3
ssg83
g4251
sg76
(lp4258
S'44'
p4259
asbasbasbag69
(g85
g71
NtRp4260
(dp4261
g74
(dp4262
sg83
g4243
sg76
(lp4263
g69
(g90
g71
NtRp4264
(dp4265
g74
(dp4266
sg83
g4260
sg76
(lp4267
g69
(g70
g71
NtRp4268
(dp4269
g74
(dp4270
g82
I3
ssg83
g4264
sg76
(lp4271
S'44'
p4272
asbasbasbag69
(g85
g71
NtRp4273
(dp4274
g74
(dp4275
sg83
g4243
sg76
(lp4276
g69
(g90
g71
NtRp4277
(dp4278
g74
(dp4279
sg83
g4273
sg76
(lp4280
g69
(g70
g71
NtRp4281
(dp4282
g74
(dp4283
g82
I3
ssg83
g4277
sg76
(lp4284
S'44'
p4285
asbasbasbag69
(g85
g71
NtRp4286
(dp4287
g74
(dp4288
sg83
g4243
sg76
(lp4289
g69
(g90
g71
NtRp4290
(dp4291
g74
(dp4292
sg83
g4286
sg76
(lp4293
g69
(g70
g71
NtRp4294
(dp4295
g74
(dp4296
g82
I3
ssg83
g4290
sg76
(lp4297
S'44'
p4298
asbasbasbag69
(g85
g71
NtRp4299
(dp4300
g74
(dp4301
sg83
g4243
sg76
(lp4302
g69
(g90
g71
NtRp4303
(dp4304
g74
(dp4305
sg83
g4299
sg76
(lp4306
g69
(g70
g71
NtRp4307
(dp4308
g74
(dp4309
g82
I3
ssg83
g4303
sg76
(lp4310
S'44'
p4311
asbasbasbag69
(g85
g71
NtRp4312
(dp4313
g74
(dp4314
sg83
g4243
sg76
(lp4315
g69
(g90
g71
NtRp4316
(dp4317
g74
(dp4318
sg83
g4312
sg76
(lp4319
g69
(g70
g71
NtRp4320
(dp4321
g74
(dp4322
g82
I3
ssg83
g4316
sg76
(lp4323
S'18'
p4324
asbasbasbag69
(g85
g71
NtRp4325
(dp4326
g74
(dp4327
sg83
g4243
sg76
(lp4328
g69
(g90
g71
NtRp4329
(dp4330
g74
(dp4331
sg83
g4325
sg76
(lp4332
g69
(g70
g71
NtRp4333
(dp4334
g74
(dp4335
g82
I3
ssg83
g4329
sg76
(lp4336
S'6'
asbasbasbag69
(g85
g71
NtRp4337
(dp4338
g74
(dp4339
sg83
g4243
sg76
(lp4340
g69
(g90
g71
NtRp4341
(dp4342
g74
(dp4343
sg83
g4337
sg76
(lp4344
g69
(g70
g71
NtRp4345
(dp4346
g74
(dp4347
g82
I3
ssg83
g4341
sg76
(lp4348
S'1'
asbasbasbag69
(g85
g71
NtRp4349
(dp4350
g74
(dp4351
sg83
g4243
sg76
(lp4352
g69
(g90
g71
NtRp4353
(dp4354
g74
(dp4355
sg83
g4349
sg76
(lp4356
g69
(g70
g71
NtRp4357
(dp4358
g74
(dp4359
g82
I3
ssg83
g4353
sg76
(lp4360
S'33'
p4361
asbasbasbag69
(g85
g71
NtRp4362
(dp4363
g74
(dp4364
sg83
g4243
sg76
(lp4365
g69
(g90
g71
NtRp4366
(dp4367
g74
(dp4368
sg83
g4362
sg76
(lp4369
g69
(g70
g71
NtRp4370
(dp4371
g74
(dp4372
g82
I3
ssg83
g4366
sg76
(lp4373
S'31'
p4374
asbasbasbag69
(g85
g71
NtRp4375
(dp4376
g74
(dp4377
sg83
g4243
sg76
(lp4378
g69
(g90
g71
NtRp4379
(dp4380
g74
(dp4381
sg83
g4375
sg76
(lp4382
g69
(g70
g71
NtRp4383
(dp4384
g74
(dp4385
g82
I3
ssg83
g4379
sg76
(lp4386
S'12'
p4387
asbasbasbag69
(g85
g71
NtRp4388
(dp4389
g74
(dp4390
sg83
g4243
sg76
(lp4391
g69
(g90
g71
NtRp4392
(dp4393
g74
(dp4394
sg83
g4388
sg76
(lp4395
g69
(g70
g71
NtRp4396
(dp4397
g74
(dp4398
g82
I3
ssg83
g4392
sg76
(lp4399
S'2'
asbasbasbag69
(g85
g71
NtRp4400
(dp4401
g74
(dp4402
sg83
g4243
sg76
(lp4403
g69
(g90
g71
NtRp4404
(dp4405
g74
(dp4406
sg83
g4400
sg76
(lp4407
g69
(g70
g71
NtRp4408
(dp4409
g74
(dp4410
g82
I3
ssg83
g4404
sg76
(lp4411
S'14'
p4412
asbasbasbag69
(g85
g71
NtRp4413
(dp4414
g74
(dp4415
sg83
g4243
sg76
(lp4416
g69
(g90
g71
NtRp4417
(dp4418
g74
(dp4419
sg83
g4413
sg76
(lp4420
g69
(g70
g71
NtRp4421
(dp4422
g74
(dp4423
g82
I3
ssg83
g4417
sg76
(lp4424
S'7'
asbasbasbag69
(g85
g71
NtRp4425
(dp4426
g74
(dp4427
sg83
g4243
sg76
(lp4428
g69
(g90
g71
NtRp4429
(dp4430
g74
(dp4431
sg83
g4425
sg76
(lp4432
g69
(g70
g71
NtRp4433
(dp4434
g74
(dp4435
g82
I3
ssg83
g4429
sg76
(lp4436
S'8'
asbasbasbag69
(g85
g71
NtRp4437
(dp4438
g74
(dp4439
sg83
g4243
sg76
(lp4440
g69
(g90
g71
NtRp4441
(dp4442
g74
(dp4443
sg83
g4437
sg76
(lp4444
g69
(g70
g71
NtRp4445
(dp4446
g74
(dp4447
g82
I3
ssg83
g4441
sg76
(lp4448
S'16'
p4449
asbasbasbag69
(g85
g71
NtRp4450
(dp4451
g74
(dp4452
sg83
g4243
sg76
(lp4453
g69
(g90
g71
NtRp4454
(dp4455
g74
(dp4456
sg83
g4450
sg76
(lp4457
g69
(g70
g71
NtRp4458
(dp4459
g74
(dp4460
g82
I3
ssg83
g4454
sg76
(lp4461
S'4'
asbasbasbag69
(g85
g71
NtRp4462
(dp4463
g74
(dp4464
sg83
g4243
sg76
(lp4465
g69
(g90
g71
NtRp4466
(dp4467
g74
(dp4468
sg83
g4462
sg76
(lp4469
g69
(g70
g71
NtRp4470
(dp4471
g74
(dp4472
g82
I3
ssg83
g4466
sg76
(lp4473
S'3'
asbasbasbag69
(g85
g71
NtRp4474
(dp4475
g74
(dp4476
sg83
g4243
sg76
(lp4477
g69
(g90
g71
NtRp4478
(dp4479
g74
(dp4480
sg83
g4474
sg76
(lp4481
g69
(g70
g71
NtRp4482
(dp4483
g74
(dp4484
g82
I3
ssg83
g4478
sg76
(lp4485
S'35'
p4486
asbasbasbag69
(g85
g71
NtRp4487
(dp4488
g74
(dp4489
sg83
g4243
sg76
(lp4490
g69
(g90
g71
NtRp4491
(dp4492
g74
(dp4493
sg83
g4487
sg76
(lp4494
g69
(g70
g71
NtRp4495
(dp4496
g74
(dp4497
g82
I3
ssg83
g4491
sg76
(lp4498
S'17'
p4499
asbasbasbag69
(g85
g71
NtRp4500
(dp4501
g74
(dp4502
sg83
g4243
sg76
(lp4503
g69
(g90
g71
NtRp4504
(dp4505
g74
(dp4506
sg83
g4500
sg76
(lp4507
g69
(g70
g71
NtRp4508
(dp4509
g74
(dp4510
g82
I3
ssg83
g4504
sg76
(lp4511
S'32'
p4512
asbasbasbag69
(g85
g71
NtRp4513
(dp4514
g74
(dp4515
sg83
g4243
sg76
(lp4516
g69
(g90
g71
NtRp4517
(dp4518
g74
(dp4519
sg83
g4513
sg76
(lp4520
g69
(g70
g71
NtRp4521
(dp4522
g74
(dp4523
g82
I3
ssg83
g4517
sg76
(lp4524
S'10'
p4525
asbasbasbag69
(g85
g71
NtRp4526
(dp4527
g74
(dp4528
sg83
g4243
sg76
(lp4529
g69
(g90
g71
NtRp4530
(dp4531
g74
(dp4532
sg83
g4526
sg76
(lp4533
g69
(g70
g71
NtRp4534
(dp4535
g74
(dp4536
g82
I3
ssg83
g4530
sg76
(lp4537
S'24'
p4538
asbasbasbag69
(g85
g71
NtRp4539
(dp4540
g74
(dp4541
sg83
g4243
sg76
(lp4542
g69
(g90
g71
NtRp4543
(dp4544
g74
(dp4545
sg83
g4539
sg76
(lp4546
g69
(g70
g71
NtRp4547
(dp4548
g74
(dp4549
g82
I3
ssg83
g4543
sg76
(lp4550
S'22'
p4551
asbasbasbag69
(g85
g71
NtRp4552
(dp4553
g74
(dp4554
sg83
g4243
sg76
(lp4555
g69
(g90
g71
NtRp4556
(dp4557
g74
(dp4558
sg83
g4552
sg76
(lp4559
g69
(g70
g71
NtRp4560
(dp4561
g74
(dp4562
g82
I3
ssg83
g4556
sg76
(lp4563
S'43'
p4564
asbasbasbag69
(g85
g71
NtRp4565
(dp4566
g74
(dp4567
sg83
g4243
sg76
(lp4568
g69
(g90
g71
NtRp4569
(dp4570
g74
(dp4571
sg83
g4565
sg76
(lp4572
g69
(g70
g71
NtRp4573
(dp4574
g74
(dp4575
g82
I3
ssg83
g4569
sg76
(lp4576
S'15'
p4577
asbasbasbag69
(g85
g71
NtRp4578
(dp4579
g74
(dp4580
sg83
g4243
sg76
(lp4581
g69
(g90
g71
NtRp4582
(dp4583
g74
(dp4584
sg83
g4578
sg76
(lp4585
g69
(g70
g71
NtRp4586
(dp4587
g74
(dp4588
g82
I3
ssg83
g4582
sg76
(lp4589
S'37'
p4590
asbasbasbag69
(g85
g71
NtRp4591
(dp4592
g74
(dp4593
sg83
g4243
sg76
(lp4594
g69
(g90
g71
NtRp4595
(dp4596
g74
(dp4597
sg83
g4591
sg76
(lp4598
g69
(g70
g71
NtRp4599
(dp4600
g74
(dp4601
g82
I3
ssg83
g4595
sg76
(lp4602
S'30'
p4603
asbasbasbag69
(g85
g71
NtRp4604
(dp4605
g74
(dp4606
sg83
g4243
sg76
(lp4607
g69
(g90
g71
NtRp4608
(dp4609
g74
(dp4610
sg83
g4604
sg76
(lp4611
g69
(g70
g71
NtRp4612
(dp4613
g74
(dp4614
g82
I3
ssg83
g4608
sg76
(lp4615
S'36'
p4616
asbasbasbag69
(g85
g71
NtRp4617
(dp4618
g74
(dp4619
sg83
g4243
sg76
(lp4620
g69
(g90
g71
NtRp4621
(dp4622
g74
(dp4623
sg83
g4617
sg76
(lp4624
g69
(g70
g71
NtRp4625
(dp4626
g74
(dp4627
g82
I3
ssg83
g4621
sg76
(lp4628
S'48'
p4629
asbasbasbag69
(g85
g71
NtRp4630
(dp4631
g74
(dp4632
sg83
g4243
sg76
(lp4633
g69
(g90
g71
NtRp4634
(dp4635
g74
(dp4636
sg83
g4630
sg76
(lp4637
g69
(g70
g71
NtRp4638
(dp4639
g74
(dp4640
g82
I3
ssg83
g4634
sg76
(lp4641
S'29'
p4642
asbasbasbag69
(g85
g71
NtRp4643
(dp4644
g74
(dp4645
sg83
g4243
sg76
(lp4646
g69
(g90
g71
NtRp4647
(dp4648
g74
(dp4649
sg83
g4643
sg76
(lp4650
g69
(g70
g71
NtRp4651
(dp4652
g74
(dp4653
g82
I3
ssg83
g4647
sg76
(lp4654
S'5'
asbasbasbag69
(g85
g71
NtRp4655
(dp4656
g74
(dp4657
sg83
g4243
sg76
(lp4658
g69
(g90
g71
NtRp4659
(dp4660
g74
(dp4661
sg83
g4655
sg76
(lp4662
g69
(g70
g71
NtRp4663
(dp4664
g74
(dp4665
g82
I3
ssg83
g4659
sg76
(lp4666
S'9'
asbasbasbag69
(g85
g71
NtRp4667
(dp4668
g74
(dp4669
sg83
g4243
sg76
(lp4670
g69
(g90
g71
NtRp4671
(dp4672
g74
(dp4673
sg83
g4667
sg76
(lp4674
g69
(g70
g71
NtRp4675
(dp4676
g74
(dp4677
g82
I3
ssg83
g4671
sg76
(lp4678
S'40'
p4679
asbasbasbag69
(g85
g71
NtRp4680
(dp4681
g74
(dp4682
sg83
g4243
sg76
(lp4683
g69
(g90
g71
NtRp4684
(dp4685
g74
(dp4686
sg83
g4680
sg76
(lp4687
g69
(g70
g71
NtRp4688
(dp4689
g74
(dp4690
g82
I3
ssg83
g4684
sg76
(lp4691
S'25'
p4692
asbasbasbag69
(g85
g71
NtRp4693
(dp4694
g74
(dp4695
sg83
g4243
sg76
(lp4696
g69
(g90
g71
NtRp4697
(dp4698
g74
(dp4699
sg83
g4693
sg76
(lp4700
g69
(g70
g71
NtRp4701
(dp4702
g74
(dp4703
g82
I3
ssg83
g4697
sg76
(lp4704
S'39'
p4705
asbasbasbasbasbasbasbag69
(g85
g71
NtRp4706
(dp4707
g74
(dp4708
sg83
g4219
sg76
(lp4709
g69
(g90
g71
NtRp4710
(dp4711
g74
(dp4712
g94
g95
ssg83
g4706
sg76
(lp4713
S'2'
asbag69
(g90
g71
NtRp4714
(dp4715
g74
(dp4716
g101
g102
ssg83
g4706
sg76
(lp4717
S':'
asbag69
(g90
g71
NtRp4718
(dp4719
g74
(dp4720
sg83
g4706
sg76
(lp4721
g69
(g70
g71
NtRp4722
(dp4723
g74
(dp4724
g82
I4
ssg83
g4718
sg76
(lp4725
g69
(g78
g71
NtRp4726
(dp4727
g74
(dp4728
g82
I3
ssg83
Nsg76
(lp4729
sbasbasbasbag69
(g85
g71
NtRp4730
(dp4731
g74
(dp4732
sg83
g4219
sg76
(lp4733
g69
(g90
g71
NtRp4734
(dp4735
g74
(dp4736
g94
g95
ssg83
g4730
sg76
(lp4737
S'3'
asbag69
(g90
g71
NtRp4738
(dp4739
g74
(dp4740
g101
g102
ssg83
g4730
sg76
(lp4741
S':'
asbag69
(g90
g71
NtRp4742
(dp4743
g74
(dp4744
sg83
g4730
sg76
(lp4745
g69
(g70
g71
NtRp4746
(dp4747
g74
(dp4748
g82
I4
ssg83
g4742
sg76
(lp4749
g69
(g78
g71
NtRp4750
(dp4751
g74
(dp4752
g82
I3
ssg83
Nsg76
(lp4753
sbasbasbasbag69
(g85
g71
NtRp4754
(dp4755
g74
(dp4756
sg83
g4219
sg76
(lp4757
g69
(g90
g71
NtRp4758
(dp4759
g74
(dp4760
g94
g95
ssg83
g4754
sg76
(lp4761
S'4'
asbag69
(g90
g71
NtRp4762
(dp4763
g74
(dp4764
g101
g102
ssg83
g4754
sg76
(lp4765
S':'
asbag69
(g90
g71
NtRp4766
(dp4767
g74
(dp4768
sg83
g4754
sg76
(lp4769
g69
(g70
g71
NtRp4770
(dp4771
g74
(dp4772
g82
I4
ssg83
g4766
sg76
(lp4773
g69
(g78
g71
NtRp4774
(dp4775
g74
(dp4776
g82
I3
ssg83
Nsg76
(lp4777
sbasbasbasbasbasbasbasbasbasbsS'etype'
p4778
S"<type 'exceptions.SyntaxError'>"
p4779
sS'date'
p4780
S'Tue Mar 20 12:27:51 2012'
p4781
sS'response'
p4782
g69
(g70
g71
NtRp4783
(dp4784
g74
(dp4785
sg76
(lp4786
g69
(g78
g71
NtRp4787
(dp4788
g74
(dp4789
g82
I5
ssg83
Nsg76
(lp4790
g69
(g85
g71
NtRp4791
(dp4792
g74
(dp4793
sg83
g4787
sg76
(lp4794
g69
(g90
g71
NtRp4795
(dp4796
g74
(dp4797
g94
g95
ssg83
g4791
sg76
(lp4798
g167
asbag69
(g90
g71
NtRp4799
(dp4800
g74
(dp4801
g101
g102
ssg83
g4791
sg76
(lp4802
S':'
asbag69
(g90
g71
NtRp4803
(dp4804
g74
(dp4805
sg83
g4791
sg76
(lp4806
g69
(g70
g71
NtRp4807
(dp4808
g74
(dp4809
g82
I5
ssg83
g4803
sg76
(lp4810
S'<cStringIO.StringO object at 0x921db40>'
p4811
asbasbasbag69
(g85
g71
NtRp4812
(dp4813
g74
(dp4814
sg83
g4787
sg76
(lp4815
g69
(g90
g71
NtRp4816
(dp4817
g74
(dp4818
g94
g95
ssg83
g4812
sg76
(lp4819
g255
asbag69
(g90
g71
NtRp4820
(dp4821
g74
(dp4822
g101
g102
ssg83
g4812
sg76
(lp4823
S':'
asbag69
(g90
g71
NtRp4824
(dp4825
g74
(dp4826
sg83
g4812
sg76
(lp4827
g69
(g70
g71
NtRp4828
(dp4829
g74
(dp4830
g82
I5
ssg83
g4824
sg76
(lp4831
g69
(g78
g71
NtRp4832
(dp4833
g74
(dp4834
g82
I4
ssg83
Nsg76
(lp4835
g69
(g85
g71
NtRp4836
(dp4837
g74
(dp4838
sg83
g4832
sg76
(lp4839
g69
(g90
g71
NtRp4840
(dp4841
g74
(dp4842
g94
g95
ssg83
g4836
sg76
(lp4843
S'session_id_paideia'
p4844
asbag69
(g90
g71
NtRp4845
(dp4846
g74
(dp4847
g101
g102
ssg83
g4836
sg76
(lp4848
S':'
asbag69
(g90
g71
NtRp4849
(dp4850
g74
(dp4851
sg83
g4836
sg76
(lp4852
g69
(g70
g71
NtRp4853
(dp4854
g74
(dp4855
g82
I4
ssg83
g4849
sg76
(lp4856
g69
(g78
g71
NtRp4857
(dp4858
g74
(dp4859
g82
I3
ssg83
Nsg76
(lp4860
g69
(g85
g71
NtRp4861
(dp4862
g74
(dp4863
sg83
g4857
sg76
(lp4864
g69
(g90
g71
NtRp4865
(dp4866
g74
(dp4867
g94
g95
ssg83
g4861
sg76
(lp4868
g305
asbag69
(g90
g71
NtRp4869
(dp4870
g74
(dp4871
g101
g102
ssg83
g4861
sg76
(lp4872
S':'
asbag69
(g90
g71
NtRp4873
(dp4874
g74
(dp4875
sg83
g4861
sg76
(lp4876
g69
(g70
g71
NtRp4877
(dp4878
g74
(dp4879
g82
I3
ssg83
g4873
sg76
(lp4880
S''
asbasbasbag69
(g85
g71
NtRp4881
(dp4882
g74
(dp4883
sg83
g4857
sg76
(lp4884
g69
(g90
g71
NtRp4885
(dp4886
g74
(dp4887
g94
g95
ssg83
g4881
sg76
(lp4888
g326
asbag69
(g90
g71
NtRp4889
(dp4890
g74
(dp4891
g101
g102
ssg83
g4881
sg76
(lp4892
S':'
asbag69
(g90
g71
NtRp4893
(dp4894
g74
(dp4895
sg83
g4881
sg76
(lp4896
g69
(g70
g71
NtRp4897
(dp4898
g74
(dp4899
g82
I3
ssg83
g4893
sg76
(lp4900
S''
asbasbasbag69
(g85
g71
NtRp4901
(dp4902
g74
(dp4903
sg83
g4857
sg76
(lp4904
g69
(g90
g71
NtRp4905
(dp4906
g74
(dp4907
g94
g95
ssg83
g4901
sg76
(lp4908
g347
asbag69
(g90
g71
NtRp4909
(dp4910
g74
(dp4911
g101
g102
ssg83
g4901
sg76
(lp4912
S':'
asbag69
(g90
g71
NtRp4913
(dp4914
g74
(dp4915
sg83
g4901
sg76
(lp4916
g69
(g70
g71
NtRp4917
(dp4918
g74
(dp4919
g82
I3
ssg83
g4913
sg76
(lp4920
S'2592000'
p4921
asbasbasbag69
(g85
g71
NtRp4922
(dp4923
g74
(dp4924
sg83
g4857
sg76
(lp4925
g69
(g90
g71
NtRp4926
(dp4927
g74
(dp4928
g94
g95
ssg83
g4922
sg76
(lp4929
g368
asbag69
(g90
g71
NtRp4930
(dp4931
g74
(dp4932
g101
g102
ssg83
g4922
sg76
(lp4933
S':'
asbag69
(g90
g71
NtRp4934
(dp4935
g74
(dp4936
sg83
g4922
sg76
(lp4937
g69
(g70
g71
NtRp4938
(dp4939
g74
(dp4940
g82
I3
ssg83
g4934
sg76
(lp4941
S''
asbasbasbag69
(g85
g71
NtRp4942
(dp4943
g74
(dp4944
sg83
g4857
sg76
(lp4945
g69
(g90
g71
NtRp4946
(dp4947
g74
(dp4948
g94
g95
ssg83
g4942
sg76
(lp4949
g389
asbag69
(g90
g71
NtRp4950
(dp4951
g74
(dp4952
g101
g102
ssg83
g4942
sg76
(lp4953
S':'
asbag69
(g90
g71
NtRp4954
(dp4955
g74
(dp4956
sg83
g4942
sg76
(lp4957
g69
(g70
g71
NtRp4958
(dp4959
g74
(dp4960
g82
I3
ssg83
g4954
sg76
(lp4961
S''
asbasbasbag69
(g85
g71
NtRp4962
(dp4963
g74
(dp4964
sg83
g4857
sg76
(lp4965
g69
(g90
g71
NtRp4966
(dp4967
g74
(dp4968
g94
g95
ssg83
g4962
sg76
(lp4969
g410
asbag69
(g90
g71
NtRp4970
(dp4971
g74
(dp4972
g101
g102
ssg83
g4962
sg76
(lp4973
S':'
asbag69
(g90
g71
NtRp4974
(dp4975
g74
(dp4976
sg83
g4962
sg76
(lp4977
g69
(g70
g71
NtRp4978
(dp4979
g74
(dp4980
g82
I3
ssg83
g4974
sg76
(lp4981
S'/'
asbasbasbag69
(g85
g71
NtRp4982
(dp4983
g74
(dp4984
sg83
g4857
sg76
(lp4985
g69
(g90
g71
NtRp4986
(dp4987
g74
(dp4988
g94
g95
ssg83
g4982
sg76
(lp4989
g431
asbag69
(g90
g71
NtRp4990
(dp4991
g74
(dp4992
g101
g102
ssg83
g4982
sg76
(lp4993
S':'
asbag69
(g90
g71
NtRp4994
(dp4995
g74
(dp4996
sg83
g4982
sg76
(lp4997
g69
(g70
g71
NtRp4998
(dp4999
g74
(dp5000
g82
I3
ssg83
g4994
sg76
(lp5001
S''
asbasbasbag69
(g85
g71
NtRp5002
(dp5003
g74
(dp5004
sg83
g4857
sg76
(lp5005
g69
(g90
g71
NtRp5006
(dp5007
g74
(dp5008
g94
g95
ssg83
g5002
sg76
(lp5009
g452
asbag69
(g90
g71
NtRp5010
(dp5011
g74
(dp5012
g101
g102
ssg83
g5002
sg76
(lp5013
S':'
asbag69
(g90
g71
NtRp5014
(dp5015
g74
(dp5016
sg83
g5002
sg76
(lp5017
g69
(g70
g71
NtRp5018
(dp5019
g74
(dp5020
g82
I3
ssg83
g5014
sg76
(lp5021
S''
asbasbasbasbasbasbasbasbasbasbasbag69
(g85
g71
NtRp5022
(dp5023
g74
(dp5024
sg83
g4787
sg76
(lp5025
g69
(g90
g71
NtRp5026
(dp5027
g74
(dp5028
g94
g95
ssg83
g5022
sg76
(lp5029
S'files'
p5030
asbag69
(g90
g71
NtRp5031
(dp5032
g74
(dp5033
g101
g102
ssg83
g5022
sg76
(lp5034
S':'
asbag69
(g90
g71
NtRp5035
(dp5036
g74
(dp5037
sg83
g5022
sg76
(lp5038
g69
(g70
g71
NtRp5039
(dp5040
g74
(dp5041
g82
I5
ssg83
g5035
sg76
(lp5042
g69
(g78
g71
NtRp5043
(dp5044
g74
(dp5045
g82
I4
ssg83
Nsg76
(lp5046
g69
(g85
g71
NtRp5047
(dp5048
g74
(dp5049
sg83
g5043
sg76
(lp5050
g69
(g90
g71
NtRp5051
(dp5052
g74
(dp5053
sg83
g5047
sg76
(lp5054
g69
(g70
g71
NtRp5055
(dp5056
g74
(dp5057
g82
I4
ssg83
g5051
sg76
(lp5058
S'/paideia/static/plugin_ajaxselect/plugin_ajaxselect.js'
p5059
asbasbasbasbasbasbasbag69
(g85
g71
NtRp5060
(dp5061
g74
(dp5062
sg83
g4787
sg76
(lp5063
g69
(g90
g71
NtRp5064
(dp5065
g74
(dp5066
g94
g95
ssg83
g5060
sg76
(lp5067
S'flash'
p5068
asbag69
(g90
g71
NtRp5069
(dp5070
g74
(dp5071
g101
g102
ssg83
g5060
sg76
(lp5072
S':'
asbag69
(g90
g71
NtRp5073
(dp5074
g74
(dp5075
sg83
g5060
sg76
(lp5076
g69
(g70
g71
NtRp5077
(dp5078
g74
(dp5079
g82
I5
ssg83
g5073
sg76
(lp5080
S''
asbasbasbag69
(g85
g71
NtRp5081
(dp5082
g74
(dp5083
sg83
g4787
sg76
(lp5084
g69
(g90
g71
NtRp5085
(dp5086
g74
(dp5087
g94
g95
ssg83
g5081
sg76
(lp5088
S'generic_patterns'
p5089
asbag69
(g90
g71
NtRp5090
(dp5091
g74
(dp5092
g101
g102
ssg83
g5081
sg76
(lp5093
S':'
asbag69
(g90
g71
NtRp5094
(dp5095
g74
(dp5096
sg83
g5081
sg76
(lp5097
g69
(g70
g71
NtRp5098
(dp5099
g74
(dp5100
g82
I5
ssg83
g5094
sg76
(lp5101
g69
(g78
g71
NtRp5102
(dp5103
g74
(dp5104
g82
I4
ssg83
Nsg76
(lp5105
g69
(g85
g71
NtRp5106
(dp5107
g74
(dp5108
sg83
g5102
sg76
(lp5109
g69
(g90
g71
NtRp5110
(dp5111
g74
(dp5112
sg83
g5106
sg76
(lp5113
g69
(g70
g71
NtRp5114
(dp5115
g74
(dp5116
g82
I4
ssg83
g5110
sg76
(lp5117
S'*'
asbasbasbasbasbasbasbag69
(g85
g71
NtRp5118
(dp5119
g74
(dp5120
sg83
g4787
sg76
(lp5121
g69
(g90
g71
NtRp5122
(dp5123
g74
(dp5124
g94
g95
ssg83
g5118
sg76
(lp5125
S'headers'
p5126
asbag69
(g90
g71
NtRp5127
(dp5128
g74
(dp5129
g101
g102
ssg83
g5118
sg76
(lp5130
S':'
asbag69
(g90
g71
NtRp5131
(dp5132
g74
(dp5133
sg83
g5118
sg76
(lp5134
g69
(g70
g71
NtRp5135
(dp5136
g74
(dp5137
g82
I5
ssg83
g5131
sg76
(lp5138
g69
(g78
g71
NtRp5139
(dp5140
g74
(dp5141
g82
I4
ssg83
Nsg76
(lp5142
g69
(g85
g71
NtRp5143
(dp5144
g74
(dp5145
sg83
g5139
sg76
(lp5146
g69
(g90
g71
NtRp5147
(dp5148
g74
(dp5149
g94
g95
ssg83
g5143
sg76
(lp5150
S'Cache-Control'
p5151
asbag69
(g90
g71
NtRp5152
(dp5153
g74
(dp5154
g101
g102
ssg83
g5143
sg76
(lp5155
S':'
asbag69
(g90
g71
NtRp5156
(dp5157
g74
(dp5158
sg83
g5143
sg76
(lp5159
g69
(g70
g71
NtRp5160
(dp5161
g74
(dp5162
g82
I4
ssg83
g5156
sg76
(lp5163
S'no-store, no-cache, must-revalidate, post-check=0, pre-check=0'
p5164
asbasbasbag69
(g85
g71
NtRp5165
(dp5166
g74
(dp5167
sg83
g5139
sg76
(lp5168
g69
(g90
g71
NtRp5169
(dp5170
g74
(dp5171
g94
g95
ssg83
g5165
sg76
(lp5172
S'Content-Type'
p5173
asbag69
(g90
g71
NtRp5174
(dp5175
g74
(dp5176
g101
g102
ssg83
g5165
sg76
(lp5177
S':'
asbag69
(g90
g71
NtRp5178
(dp5179
g74
(dp5180
sg83
g5165
sg76
(lp5181
g69
(g70
g71
NtRp5182
(dp5183
g74
(dp5184
g82
I4
ssg83
g5178
sg76
(lp5185
S'text/html; charset=utf-8'
p5186
asbasbasbag69
(g85
g71
NtRp5187
(dp5188
g74
(dp5189
sg83
g5139
sg76
(lp5190
g69
(g90
g71
NtRp5191
(dp5192
g74
(dp5193
g94
g95
ssg83
g5187
sg76
(lp5194
S'Expires'
p5195
asbag69
(g90
g71
NtRp5196
(dp5197
g74
(dp5198
g101
g102
ssg83
g5187
sg76
(lp5199
S':'
asbag69
(g90
g71
NtRp5200
(dp5201
g74
(dp5202
sg83
g5187
sg76
(lp5203
g69
(g70
g71
NtRp5204
(dp5205
g74
(dp5206
g82
I4
ssg83
g5200
sg76
(lp5207
S'Tue, 20 Mar 2012 16:27:51 GMT'
p5208
asbasbasbag69
(g85
g71
NtRp5209
(dp5210
g74
(dp5211
sg83
g5139
sg76
(lp5212
g69
(g90
g71
NtRp5213
(dp5214
g74
(dp5215
g94
g95
ssg83
g5209
sg76
(lp5216
S'Pragma'
p5217
asbag69
(g90
g71
NtRp5218
(dp5219
g74
(dp5220
g101
g102
ssg83
g5209
sg76
(lp5221
S':'
asbag69
(g90
g71
NtRp5222
(dp5223
g74
(dp5224
sg83
g5209
sg76
(lp5225
g69
(g70
g71
NtRp5226
(dp5227
g74
(dp5228
g82
I4
ssg83
g5222
sg76
(lp5229
S'no-cache'
p5230
asbasbasbag69
(g85
g71
NtRp5231
(dp5232
g74
(dp5233
sg83
g5139
sg76
(lp5234
g69
(g90
g71
NtRp5235
(dp5236
g74
(dp5237
g94
g95
ssg83
g5231
sg76
(lp5238
S'X-Powered-By'
p5239
asbag69
(g90
g71
NtRp5240
(dp5241
g74
(dp5242
g101
g102
ssg83
g5231
sg76
(lp5243
S':'
asbag69
(g90
g71
NtRp5244
(dp5245
g74
(dp5246
sg83
g5231
sg76
(lp5247
g69
(g70
g71
NtRp5248
(dp5249
g74
(dp5250
g82
I4
ssg83
g5244
sg76
(lp5251
S'web2py'
p5252
asbasbasbasbasbasbasbag69
(g85
g71
NtRp5253
(dp5254
g74
(dp5255
sg83
g4787
sg76
(lp5256
g69
(g90
g71
NtRp5257
(dp5258
g74
(dp5259
g94
g95
ssg83
g5253
sg76
(lp5260
S'menu'
p5261
asbag69
(g90
g71
NtRp5262
(dp5263
g74
(dp5264
g101
g102
ssg83
g5253
sg76
(lp5265
S':'
asbag69
(g90
g71
NtRp5266
(dp5267
g74
(dp5268
sg83
g5253
sg76
(lp5269
g69
(g70
g71
NtRp5270
(dp5271
g74
(dp5272
g82
I5
ssg83
g5266
sg76
(lp5273
g69
(g78
g71
NtRp5274
(dp5275
g74
(dp5276
g82
I4
ssg83
Nsg76
(lp5277
g69
(g85
g71
NtRp5278
(dp5279
g74
(dp5280
sg83
g5274
sg76
(lp5281
g69
(g90
g71
NtRp5282
(dp5283
g74
(dp5284
sg83
g5278
sg76
(lp5285
g69
(g70
g71
NtRp5286
(dp5287
g74
(dp5288
g82
I4
ssg83
g5282
sg76
(lp5289
g69
(g78
g71
NtRp5290
(dp5291
g74
(dp5292
g82
I3
ssg83
Nsg76
(lp5293
g69
(g85
g71
NtRp5294
(dp5295
g74
(dp5296
sg83
g5290
sg76
(lp5297
g69
(g90
g71
NtRp5298
(dp5299
g74
(dp5300
sg83
g5294
sg76
(lp5301
g69
(g70
g71
NtRp5302
(dp5303
g74
(dp5304
g82
I3
ssg83
g5298
sg76
(lp5305
cgluon.languages
lazyT_unpickle
p5306
(S't\x04\x00\x00\x00Home'
tRp5307
asbasbasbag69
(g85
g71
NtRp5308
(dp5309
g74
(dp5310
sg83
g5290
sg76
(lp5311
g69
(g90
g71
NtRp5312
(dp5313
g74
(dp5314
sg83
g5308
sg76
(lp5315
g69
(g70
g71
NtRp5316
(dp5317
g74
(dp5318
g82
I3
ssg83
g5312
sg76
(lp5319
g994
asbasbasbag69
(g85
g71
NtRp5320
(dp5321
g74
(dp5322
sg83
g5290
sg76
(lp5323
g69
(g90
g71
NtRp5324
(dp5325
g74
(dp5326
sg83
g5320
sg76
(lp5327
g69
(g70
g71
NtRp5328
(dp5329
g74
(dp5330
g82
I3
ssg83
g5324
sg76
(lp5331
S'/paideia/default/index.load'
p5332
asbasbasbag69
(g85
g71
NtRp5333
(dp5334
g74
(dp5335
sg83
g5290
sg76
(lp5336
g69
(g90
g71
NtRp5337
(dp5338
g74
(dp5339
sg83
g5333
sg76
(lp5340
g69
(g70
g71
NtRp5341
(dp5342
g74
(dp5343
g82
I3
ssg83
g5337
sg76
(lp5344
g69
(g78
g71
NtRp5345
(dp5346
g74
(dp5347
g82
I2
ssg83
Nsg76
(lp5348
sbasbasbasbasbasbasbasbag69
(g85
g71
NtRp5349
(dp5350
g74
(dp5351
sg83
g5274
sg76
(lp5352
g69
(g90
g71
NtRp5353
(dp5354
g74
(dp5355
sg83
g5349
sg76
(lp5356
g69
(g70
g71
NtRp5357
(dp5358
g74
(dp5359
g82
I4
ssg83
g5353
sg76
(lp5360
g69
(g78
g71
NtRp5361
(dp5362
g74
(dp5363
g82
I3
ssg83
Nsg76
(lp5364
g69
(g85
g71
NtRp5365
(dp5366
g74
(dp5367
sg83
g5361
sg76
(lp5368
g69
(g90
g71
NtRp5369
(dp5370
g74
(dp5371
sg83
g5365
sg76
(lp5372
g69
(g70
g71
NtRp5373
(dp5374
g74
(dp5375
g82
I3
ssg83
g5369
sg76
(lp5376
g5306
(S't\x05\x00\x00\x00Admin'
tRp5377
asbasbasbag69
(g85
g71
NtRp5378
(dp5379
g74
(dp5380
sg83
g5361
sg76
(lp5381
g69
(g90
g71
NtRp5382
(dp5383
g74
(dp5384
sg83
g5378
sg76
(lp5385
g69
(g70
g71
NtRp5386
(dp5387
g74
(dp5388
g82
I3
ssg83
g5382
sg76
(lp5389
g994
asbasbasbag69
(g85
g71
NtRp5390
(dp5391
g74
(dp5392
sg83
g5361
sg76
(lp5393
g69
(g90
g71
NtRp5394
(dp5395
g74
(dp5396
sg83
g5390
sg76
(lp5397
g69
(g70
g71
NtRp5398
(dp5399
g74
(dp5400
g82
I3
ssg83
g5394
sg76
(lp5401
S'None'
p5402
asbasbasbag69
(g85
g71
NtRp5403
(dp5404
g74
(dp5405
sg83
g5361
sg76
(lp5406
g69
(g90
g71
NtRp5407
(dp5408
g74
(dp5409
sg83
g5403
sg76
(lp5410
g69
(g70
g71
NtRp5411
(dp5412
g74
(dp5413
g82
I3
ssg83
g5407
sg76
(lp5414
g69
(g78
g71
NtRp5415
(dp5416
g74
(dp5417
g82
I2
ssg83
Nsg76
(lp5418
g69
(g85
g71
NtRp5419
(dp5420
g74
(dp5421
sg83
g5415
sg76
(lp5422
g69
(g90
g71
NtRp5423
(dp5424
g74
(dp5425
sg83
g5419
sg76
(lp5426
g69
(g70
g71
NtRp5427
(dp5428
g74
(dp5429
g82
I2
ssg83
g5423
sg76
(lp5430
g69
(g78
g71
NtRp5431
(dp5432
g74
(dp5433
g82
I1
ssg83
Nsg76
(lp5434
g69
(g85
g71
NtRp5435
(dp5436
g74
(dp5437
sg83
g5431
sg76
(lp5438
g69
(g90
g71
NtRp5439
(dp5440
g74
(dp5441
sg83
g5435
sg76
(lp5442
g69
(g70
g71
NtRp5443
(dp5444
g74
(dp5445
g82
I1
ssg83
g5439
sg76
(lp5446
g5306
(S's\x07\x00\x00\x00Web IDE'
tRp5447
asbasbasbag69
(g85
g71
NtRp5448
(dp5449
g74
(dp5450
sg83
g5431
sg76
(lp5451
g69
(g90
g71
NtRp5452
(dp5453
g74
(dp5454
sg83
g5448
sg76
(lp5455
g69
(g70
g71
NtRp5456
(dp5457
g74
(dp5458
g82
I1
ssg83
g5452
sg76
(lp5459
I00
asbasbasbag69
(g85
g71
NtRp5460
(dp5461
g74
(dp5462
sg83
g5431
sg76
(lp5463
g69
(g90
g71
NtRp5464
(dp5465
g74
(dp5466
sg83
g5460
sg76
(lp5467
g69
(g70
g71
NtRp5468
(dp5469
g74
(dp5470
g82
I1
ssg83
g5464
sg76
(lp5471
S'/admin/default/index.load'
p5472
asbasbasbasbasbasbasbag69
(g85
g71
NtRp5473
(dp5474
g74
(dp5475
sg83
g5415
sg76
(lp5476
g69
(g90
g71
NtRp5477
(dp5478
g74
(dp5479
sg83
g5473
sg76
(lp5480
g69
(g70
g71
NtRp5481
(dp5482
g74
(dp5483
g82
I2
ssg83
g5477
sg76
(lp5484
g69
(g78
g71
NtRp5485
(dp5486
g74
(dp5487
g82
I1
ssg83
Nsg76
(lp5488
g69
(g85
g71
NtRp5489
(dp5490
g74
(dp5491
sg83
g5485
sg76
(lp5492
g69
(g90
g71
NtRp5493
(dp5494
g74
(dp5495
sg83
g5489
sg76
(lp5496
g69
(g70
g71
NtRp5497
(dp5498
g74
(dp5499
g82
I1
ssg83
g5493
sg76
(lp5500
g5306
(S't\x08\x00\x00\x00Database'
tRp5501
asbasbasbag69
(g85
g71
NtRp5502
(dp5503
g74
(dp5504
sg83
g5485
sg76
(lp5505
g69
(g90
g71
NtRp5506
(dp5507
g74
(dp5508
sg83
g5502
sg76
(lp5509
g69
(g70
g71
NtRp5510
(dp5511
g74
(dp5512
g82
I1
ssg83
g5506
sg76
(lp5513
I00
asbasbasbag69
(g85
g71
NtRp5514
(dp5515
g74
(dp5516
sg83
g5485
sg76
(lp5517
g69
(g90
g71
NtRp5518
(dp5519
g74
(dp5520
sg83
g5514
sg76
(lp5521
g69
(g70
g71
NtRp5522
(dp5523
g74
(dp5524
g82
I1
ssg83
g5518
sg76
(lp5525
S'/paideia/appadmin/index.load'
p5526
asbasbasbasbasbasbasbag69
(g85
g71
NtRp5527
(dp5528
g74
(dp5529
sg83
g5415
sg76
(lp5530
g69
(g90
g71
NtRp5531
(dp5532
g74
(dp5533
sg83
g5527
sg76
(lp5534
g69
(g70
g71
NtRp5535
(dp5536
g74
(dp5537
g82
I2
ssg83
g5531
sg76
(lp5538
g69
(g78
g71
NtRp5539
(dp5540
g74
(dp5541
g82
I1
ssg83
Nsg76
(lp5542
g69
(g85
g71
NtRp5543
(dp5544
g74
(dp5545
sg83
g5539
sg76
(lp5546
g69
(g90
g71
NtRp5547
(dp5548
g74
(dp5549
sg83
g5543
sg76
(lp5550
g69
(g70
g71
NtRp5551
(dp5552
g74
(dp5553
g82
I1
ssg83
g5547
sg76
(lp5554
g5306
(S't\x05\x00\x00\x00Users'
tRp5555
asbasbasbag69
(g85
g71
NtRp5556
(dp5557
g74
(dp5558
sg83
g5539
sg76
(lp5559
g69
(g90
g71
NtRp5560
(dp5561
g74
(dp5562
sg83
g5556
sg76
(lp5563
g69
(g70
g71
NtRp5564
(dp5565
g74
(dp5566
g82
I1
ssg83
g5560
sg76
(lp5567
I00
asbasbasbag69
(g85
g71
NtRp5568
(dp5569
g74
(dp5570
sg83
g5539
sg76
(lp5571
g69
(g90
g71
NtRp5572
(dp5573
g74
(dp5574
sg83
g5568
sg76
(lp5575
g69
(g70
g71
NtRp5576
(dp5577
g74
(dp5578
g82
I1
ssg83
g5572
sg76
(lp5579
S'/paideia/listing/user.load'
p5580
asbasbasbasbasbasbasbag69
(g85
g71
NtRp5581
(dp5582
g74
(dp5583
sg83
g5415
sg76
(lp5584
g69
(g90
g71
NtRp5585
(dp5586
g74
(dp5587
sg83
g5581
sg76
(lp5588
g69
(g70
g71
NtRp5589
(dp5590
g74
(dp5591
g82
I2
ssg83
g5585
sg76
(lp5592
g69
(g78
g71
NtRp5593
(dp5594
g74
(dp5595
g82
I1
ssg83
Nsg76
(lp5596
g69
(g85
g71
NtRp5597
(dp5598
g74
(dp5599
sg83
g5593
sg76
(lp5600
g69
(g90
g71
NtRp5601
(dp5602
g74
(dp5603
sg83
g5597
sg76
(lp5604
g69
(g70
g71
NtRp5605
(dp5606
g74
(dp5607
g82
I1
ssg83
g5601
sg76
(lp5608
g5306
(S't\x05\x00\x00\x00Paths'
tRp5609
asbasbasbag69
(g85
g71
NtRp5610
(dp5611
g74
(dp5612
sg83
g5593
sg76
(lp5613
g69
(g90
g71
NtRp5614
(dp5615
g74
(dp5616
sg83
g5610
sg76
(lp5617
g69
(g70
g71
NtRp5618
(dp5619
g74
(dp5620
g82
I1
ssg83
g5614
sg76
(lp5621
I00
asbasbasbag69
(g85
g71
NtRp5622
(dp5623
g74
(dp5624
sg83
g5593
sg76
(lp5625
g69
(g90
g71
NtRp5626
(dp5627
g74
(dp5628
sg83
g5622
sg76
(lp5629
g69
(g70
g71
NtRp5630
(dp5631
g74
(dp5632
g82
I1
ssg83
g5626
sg76
(lp5633
S'/paideia/plugin_listandedit/listing.html/paths'
p5634
asbasbasbasbasbasbasbag69
(g85
g71
NtRp5635
(dp5636
g74
(dp5637
sg83
g5415
sg76
(lp5638
g69
(g90
g71
NtRp5639
(dp5640
g74
(dp5641
sg83
g5635
sg76
(lp5642
g69
(g70
g71
NtRp5643
(dp5644
g74
(dp5645
g82
I2
ssg83
g5639
sg76
(lp5646
g69
(g78
g71
NtRp5647
(dp5648
g74
(dp5649
g82
I1
ssg83
Nsg76
(lp5650
g69
(g85
g71
NtRp5651
(dp5652
g74
(dp5653
sg83
g5647
sg76
(lp5654
g69
(g90
g71
NtRp5655
(dp5656
g74
(dp5657
sg83
g5651
sg76
(lp5658
g69
(g70
g71
NtRp5659
(dp5660
g74
(dp5661
g82
I1
ssg83
g5655
sg76
(lp5662
g5306
(S't\x05\x00\x00\x00Steps'
tRp5663
asbasbasbag69
(g85
g71
NtRp5664
(dp5665
g74
(dp5666
sg83
g5647
sg76
(lp5667
g69
(g90
g71
NtRp5668
(dp5669
g74
(dp5670
sg83
g5664
sg76
(lp5671
g69
(g70
g71
NtRp5672
(dp5673
g74
(dp5674
g82
I1
ssg83
g5668
sg76
(lp5675
I00
asbasbasbag69
(g85
g71
NtRp5676
(dp5677
g74
(dp5678
sg83
g5647
sg76
(lp5679
g69
(g90
g71
NtRp5680
(dp5681
g74
(dp5682
sg83
g5676
sg76
(lp5683
g69
(g70
g71
NtRp5684
(dp5685
g74
(dp5686
g82
I1
ssg83
g5680
sg76
(lp5687
S'/paideia/plugin_listandedit/listing.html/steps'
p5688
asbasbasbasbasbasbasbag69
(g85
g71
NtRp5689
(dp5690
g74
(dp5691
sg83
g5415
sg76
(lp5692
g69
(g90
g71
NtRp5693
(dp5694
g74
(dp5695
sg83
g5689
sg76
(lp5696
g69
(g70
g71
NtRp5697
(dp5698
g74
(dp5699
g82
I2
ssg83
g5693
sg76
(lp5700
g69
(g78
g71
NtRp5701
(dp5702
g74
(dp5703
g82
I1
ssg83
Nsg76
(lp5704
g69
(g85
g71
NtRp5705
(dp5706
g74
(dp5707
sg83
g5701
sg76
(lp5708
g69
(g90
g71
NtRp5709
(dp5710
g74
(dp5711
sg83
g5705
sg76
(lp5712
g69
(g70
g71
NtRp5713
(dp5714
g74
(dp5715
g82
I1
ssg83
g5709
sg76
(lp5716
g5306
(S't\t\x00\x00\x00Questions'
tRp5717
asbasbasbag69
(g85
g71
NtRp5718
(dp5719
g74
(dp5720
sg83
g5701
sg76
(lp5721
g69
(g90
g71
NtRp5722
(dp5723
g74
(dp5724
sg83
g5718
sg76
(lp5725
g69
(g70
g71
NtRp5726
(dp5727
g74
(dp5728
g82
I1
ssg83
g5722
sg76
(lp5729
I00
asbasbasbag69
(g85
g71
NtRp5730
(dp5731
g74
(dp5732
sg83
g5701
sg76
(lp5733
g69
(g90
g71
NtRp5734
(dp5735
g74
(dp5736
sg83
g5730
sg76
(lp5737
g69
(g70
g71
NtRp5738
(dp5739
g74
(dp5740
g82
I1
ssg83
g5734
sg76
(lp5741
S'/paideia/plugin_listandedit/listing.html/questions'
p5742
asbasbasbasbasbasbasbag69
(g85
g71
NtRp5743
(dp5744
g74
(dp5745
sg83
g5415
sg76
(lp5746
g69
(g90
g71
NtRp5747
(dp5748
g74
(dp5749
sg83
g5743
sg76
(lp5750
g69
(g70
g71
NtRp5751
(dp5752
g74
(dp5753
g82
I2
ssg83
g5747
sg76
(lp5754
g69
(g78
g71
NtRp5755
(dp5756
g74
(dp5757
g82
I1
ssg83
Nsg76
(lp5758
g69
(g85
g71
NtRp5759
(dp5760
g74
(dp5761
sg83
g5755
sg76
(lp5762
g69
(g90
g71
NtRp5763
(dp5764
g74
(dp5765
sg83
g5759
sg76
(lp5766
g69
(g70
g71
NtRp5767
(dp5768
g74
(dp5769
g82
I1
ssg83
g5763
sg76
(lp5770
g5306
(S't\x07\x00\x00\x00Quizzes'
tRp5771
asbasbasbag69
(g85
g71
NtRp5772
(dp5773
g74
(dp5774
sg83
g5755
sg76
(lp5775
g69
(g90
g71
NtRp5776
(dp5777
g74
(dp5778
sg83
g5772
sg76
(lp5779
g69
(g70
g71
NtRp5780
(dp5781
g74
(dp5782
g82
I1
ssg83
g5776
sg76
(lp5783
I00
asbasbasbag69
(g85
g71
NtRp5784
(dp5785
g74
(dp5786
sg83
g5755
sg76
(lp5787
g69
(g90
g71
NtRp5788
(dp5789
g74
(dp5790
sg83
g5784
sg76
(lp5791
g69
(g70
g71
NtRp5792
(dp5793
g74
(dp5794
g82
I1
ssg83
g5788
sg76
(lp5795
S'/paideia/plugin_listandedit/listing.html/quizzes'
p5796
asbasbasbasbasbasbasbag69
(g85
g71
NtRp5797
(dp5798
g74
(dp5799
sg83
g5415
sg76
(lp5800
g69
(g90
g71
NtRp5801
(dp5802
g74
(dp5803
sg83
g5797
sg76
(lp5804
g69
(g70
g71
NtRp5805
(dp5806
g74
(dp5807
g82
I2
ssg83
g5801
sg76
(lp5808
g69
(g78
g71
NtRp5809
(dp5810
g74
(dp5811
g82
I1
ssg83
Nsg76
(lp5812
g69
(g85
g71
NtRp5813
(dp5814
g74
(dp5815
sg83
g5809
sg76
(lp5816
g69
(g90
g71
NtRp5817
(dp5818
g74
(dp5819
sg83
g5813
sg76
(lp5820
g69
(g70
g71
NtRp5821
(dp5822
g74
(dp5823
g82
I1
ssg83
g5817
sg76
(lp5824
g5306
(S't\x04\x00\x00\x00Tags'
tRp5825
asbasbasbag69
(g85
g71
NtRp5826
(dp5827
g74
(dp5828
sg83
g5809
sg76
(lp5829
g69
(g90
g71
NtRp5830
(dp5831
g74
(dp5832
sg83
g5826
sg76
(lp5833
g69
(g70
g71
NtRp5834
(dp5835
g74
(dp5836
g82
I1
ssg83
g5830
sg76
(lp5837
I00
asbasbasbag69
(g85
g71
NtRp5838
(dp5839
g74
(dp5840
sg83
g5809
sg76
(lp5841
g69
(g90
g71
NtRp5842
(dp5843
g74
(dp5844
sg83
g5838
sg76
(lp5845
g69
(g70
g71
NtRp5846
(dp5847
g74
(dp5848
g82
I1
ssg83
g5842
sg76
(lp5849
S'/paideia/plugin_listandedit/listing.html/tags'
p5850
asbasbasbasbasbasbasbag69
(g85
g71
NtRp5851
(dp5852
g74
(dp5853
sg83
g5415
sg76
(lp5854
g69
(g90
g71
NtRp5855
(dp5856
g74
(dp5857
sg83
g5851
sg76
(lp5858
g69
(g70
g71
NtRp5859
(dp5860
g74
(dp5861
g82
I2
ssg83
g5855
sg76
(lp5862
g69
(g78
g71
NtRp5863
(dp5864
g74
(dp5865
g82
I1
ssg83
Nsg76
(lp5866
g69
(g85
g71
NtRp5867
(dp5868
g74
(dp5869
sg83
g5863
sg76
(lp5870
g69
(g90
g71
NtRp5871
(dp5872
g74
(dp5873
sg83
g5867
sg76
(lp5874
g69
(g70
g71
NtRp5875
(dp5876
g74
(dp5877
g82
I1
ssg83
g5871
sg76
(lp5878
g5306
(S't\x04\x00\x00\x00NPCs'
tRp5879
asbasbasbag69
(g85
g71
NtRp5880
(dp5881
g74
(dp5882
sg83
g5863
sg76
(lp5883
g69
(g90
g71
NtRp5884
(dp5885
g74
(dp5886
sg83
g5880
sg76
(lp5887
g69
(g70
g71
NtRp5888
(dp5889
g74
(dp5890
g82
I1
ssg83
g5884
sg76
(lp5891
I00
asbasbasbag69
(g85
g71
NtRp5892
(dp5893
g74
(dp5894
sg83
g5863
sg76
(lp5895
g69
(g90
g71
NtRp5896
(dp5897
g74
(dp5898
sg83
g5892
sg76
(lp5899
g69
(g70
g71
NtRp5900
(dp5901
g74
(dp5902
g82
I1
ssg83
g5896
sg76
(lp5903
S'/paideia/plugin_listandedit/listing.html/npcs'
p5904
asbasbasbasbasbasbasbag69
(g85
g71
NtRp5905
(dp5906
g74
(dp5907
sg83
g5415
sg76
(lp5908
g69
(g90
g71
NtRp5909
(dp5910
g74
(dp5911
sg83
g5905
sg76
(lp5912
g69
(g70
g71
NtRp5913
(dp5914
g74
(dp5915
g82
I2
ssg83
g5909
sg76
(lp5916
g69
(g78
g71
NtRp5917
(dp5918
g74
(dp5919
g82
I1
ssg83
Nsg76
(lp5920
g69
(g85
g71
NtRp5921
(dp5922
g74
(dp5923
sg83
g5917
sg76
(lp5924
g69
(g90
g71
NtRp5925
(dp5926
g74
(dp5927
sg83
g5921
sg76
(lp5928
g69
(g70
g71
NtRp5929
(dp5930
g74
(dp5931
g82
I1
ssg83
g5925
sg76
(lp5932
g5306
(S't\t\x00\x00\x00locations'
tRp5933
asbasbasbag69
(g85
g71
NtRp5934
(dp5935
g74
(dp5936
sg83
g5917
sg76
(lp5937
g69
(g90
g71
NtRp5938
(dp5939
g74
(dp5940
sg83
g5934
sg76
(lp5941
g69
(g70
g71
NtRp5942
(dp5943
g74
(dp5944
g82
I1
ssg83
g5938
sg76
(lp5945
I00
asbasbasbag69
(g85
g71
NtRp5946
(dp5947
g74
(dp5948
sg83
g5917
sg76
(lp5949
g69
(g90
g71
NtRp5950
(dp5951
g74
(dp5952
sg83
g5946
sg76
(lp5953
g69
(g70
g71
NtRp5954
(dp5955
g74
(dp5956
g82
I1
ssg83
g5950
sg76
(lp5957
S'/paideia/plugin_listandedit/listing.html/locations'
p5958
asbasbasbasbasbasbasbasbasbasbasbasbasbasbasbasbasbasbasbag69
(g85
g71
NtRp5959
(dp5960
g74
(dp5961
sg83
g4787
sg76
(lp5962
g69
(g90
g71
NtRp5963
(dp5964
g74
(dp5965
g94
g95
ssg83
g5959
sg76
(lp5966
S'meta'
p5967
asbag69
(g90
g71
NtRp5968
(dp5969
g74
(dp5970
g101
g102
ssg83
g5959
sg76
(lp5971
S':'
asbag69
(g90
g71
NtRp5972
(dp5973
g74
(dp5974
sg83
g5959
sg76
(lp5975
g69
(g70
g71
NtRp5976
(dp5977
g74
(dp5978
g82
I5
ssg83
g5972
sg76
(lp5979
g69
(g78
g71
NtRp5980
(dp5981
g74
(dp5982
g82
I4
ssg83
Nsg76
(lp5983
g69
(g85
g71
NtRp5984
(dp5985
g74
(dp5986
sg83
g5980
sg76
(lp5987
g69
(g90
g71
NtRp5988
(dp5989
g74
(dp5990
g94
g95
ssg83
g5984
sg76
(lp5991
S'author'
p5992
asbag69
(g90
g71
NtRp5993
(dp5994
g74
(dp5995
g101
g102
ssg83
g5984
sg76
(lp5996
S':'
asbag69
(g90
g71
NtRp5997
(dp5998
g74
(dp5999
sg83
g5984
sg76
(lp6000
g69
(g70
g71
NtRp6001
(dp6002
g74
(dp6003
g82
I4
ssg83
g5997
sg76
(lp6004
S'Ian W. Scott'
p6005
asbasbasbag69
(g85
g71
NtRp6006
(dp6007
g74
(dp6008
sg83
g5980
sg76
(lp6009
g69
(g90
g71
NtRp6010
(dp6011
g74
(dp6012
g94
g95
ssg83
g6006
sg76
(lp6013
S'copyright'
p6014
asbag69
(g90
g71
NtRp6015
(dp6016
g74
(dp6017
g101
g102
ssg83
g6006
sg76
(lp6018
S':'
asbag69
(g90
g71
NtRp6019
(dp6020
g74
(dp6021
sg83
g6006
sg76
(lp6022
g69
(g70
g71
NtRp6023
(dp6024
g74
(dp6025
g82
I4
ssg83
g6019
sg76
(lp6026
S'Copyright 2011'
p6027
asbasbasbag69
(g85
g71
NtRp6028
(dp6029
g74
(dp6030
sg83
g5980
sg76
(lp6031
g69
(g90
g71
NtRp6032
(dp6033
g74
(dp6034
g94
g95
ssg83
g6028
sg76
(lp6035
S'description'
p6036
asbag69
(g90
g71
NtRp6037
(dp6038
g74
(dp6039
g101
g102
ssg83
g6028
sg76
(lp6040
S':'
asbag69
(g90
g71
NtRp6041
(dp6042
g74
(dp6043
sg83
g6028
sg76
(lp6044
g69
(g70
g71
NtRp6045
(dp6046
g74
(dp6047
g82
I4
ssg83
g6041
sg76
(lp6048
S'An online space for learning New Testament Greek'
p6049
asbasbasbag69
(g85
g71
NtRp6050
(dp6051
g74
(dp6052
sg83
g5980
sg76
(lp6053
g69
(g90
g71
NtRp6054
(dp6055
g74
(dp6056
g94
g95
ssg83
g6050
sg76
(lp6057
S'generator'
p6058
asbag69
(g90
g71
NtRp6059
(dp6060
g74
(dp6061
g101
g102
ssg83
g6050
sg76
(lp6062
S':'
asbag69
(g90
g71
NtRp6063
(dp6064
g74
(dp6065
sg83
g6050
sg76
(lp6066
g69
(g70
g71
NtRp6067
(dp6068
g74
(dp6069
g82
I4
ssg83
g6063
sg76
(lp6070
S'Web2py Enterprise Framework'
p6071
asbasbasbag69
(g85
g71
NtRp6072
(dp6073
g74
(dp6074
sg83
g5980
sg76
(lp6075
g69
(g90
g71
NtRp6076
(dp6077
g74
(dp6078
g94
g95
ssg83
g6072
sg76
(lp6079
S'keywords'
p6080
asbag69
(g90
g71
NtRp6081
(dp6082
g74
(dp6083
g101
g102
ssg83
g6072
sg76
(lp6084
S':'
asbag69
(g90
g71
NtRp6085
(dp6086
g74
(dp6087
sg83
g6072
sg76
(lp6088
g69
(g70
g71
NtRp6089
(dp6090
g74
(dp6091
g82
I4
ssg83
g6085
sg76
(lp6092
S'Greek, koine, New Testament, language, education, learning'
p6093
asbasbasbasbasbasbasbag69
(g85
g71
NtRp6094
(dp6095
g74
(dp6096
sg83
g4787
sg76
(lp6097
g69
(g90
g71
NtRp6098
(dp6099
g74
(dp6100
g94
g95
ssg83
g6094
sg76
(lp6101
S'mobiletitle'
p6102
asbag69
(g90
g71
NtRp6103
(dp6104
g74
(dp6105
g101
g102
ssg83
g6094
sg76
(lp6106
S':'
asbag69
(g90
g71
NtRp6107
(dp6108
g74
(dp6109
sg83
g6094
sg76
(lp6110
g69
(g70
g71
NtRp6111
(dp6112
g74
(dp6113
g82
I5
ssg83
g6107
sg76
(lp6114
g134
asbasbasbag69
(g85
g71
NtRp6115
(dp6116
g74
(dp6117
sg83
g4787
sg76
(lp6118
g69
(g90
g71
NtRp6119
(dp6120
g74
(dp6121
g94
g95
ssg83
g6115
sg76
(lp6122
S'postprocessing'
p6123
asbag69
(g90
g71
NtRp6124
(dp6125
g74
(dp6126
g101
g102
ssg83
g6115
sg76
(lp6127
S':'
asbag69
(g90
g71
NtRp6128
(dp6129
g74
(dp6130
sg83
g6115
sg76
(lp6131
g69
(g70
g71
NtRp6132
(dp6133
g74
(dp6134
g82
I5
ssg83
g6128
sg76
(lp6135
g69
(g78
g71
NtRp6136
(dp6137
g74
(dp6138
g82
I4
ssg83
Nsg76
(lp6139
sbasbasbasbag69
(g85
g71
NtRp6140
(dp6141
g74
(dp6142
sg83
g4787
sg76
(lp6143
g69
(g90
g71
NtRp6144
(dp6145
g74
(dp6146
g94
g95
ssg83
g6140
sg76
(lp6147
S'session_file'
p6148
asbag69
(g90
g71
NtRp6149
(dp6150
g74
(dp6151
g101
g102
ssg83
g6140
sg76
(lp6152
S':'
asbag69
(g90
g71
NtRp6153
(dp6154
g74
(dp6155
sg83
g6140
sg76
(lp6156
g69
(g70
g71
NtRp6157
(dp6158
g74
(dp6159
g82
I5
ssg83
g6153
sg76
(lp6160
S"<open file '/home/iscott/web/web2py/applications/paideia/sessions/127.0.0.1-2edda130-d654-4b0f-a819-06652e443aa6', mode 'rb+' at 0x8ec7cd8>"
p6161
asbasbasbag69
(g85
g71
NtRp6162
(dp6163
g74
(dp6164
sg83
g4787
sg76
(lp6165
g69
(g90
g71
NtRp6166
(dp6167
g74
(dp6168
g94
g95
ssg83
g6162
sg76
(lp6169
S'session_filename'
p6170
asbag69
(g90
g71
NtRp6171
(dp6172
g74
(dp6173
g101
g102
ssg83
g6162
sg76
(lp6174
S':'
asbag69
(g90
g71
NtRp6175
(dp6176
g74
(dp6177
sg83
g6162
sg76
(lp6178
g69
(g70
g71
NtRp6179
(dp6180
g74
(dp6181
g82
I5
ssg83
g6175
sg76
(lp6182
S'/home/iscott/web/web2py/applications/paideia/sessions/127.0.0.1-2edda130-d654-4b0f-a819-06652e443aa6'
p6183
asbasbasbag69
(g85
g71
NtRp6184
(dp6185
g74
(dp6186
sg83
g4787
sg76
(lp6187
g69
(g90
g71
NtRp6188
(dp6189
g74
(dp6190
g94
g95
ssg83
g6184
sg76
(lp6191
S'session_id'
p6192
asbag69
(g90
g71
NtRp6193
(dp6194
g74
(dp6195
g101
g102
ssg83
g6184
sg76
(lp6196
S':'
asbag69
(g90
g71
NtRp6197
(dp6198
g74
(dp6199
sg83
g6184
sg76
(lp6200
g69
(g70
g71
NtRp6201
(dp6202
g74
(dp6203
g82
I5
ssg83
g6197
sg76
(lp6204
S'127.0.0.1-2edda130-d654-4b0f-a819-06652e443aa6'
p6205
asbasbasbag69
(g85
g71
NtRp6206
(dp6207
g74
(dp6208
sg83
g4787
sg76
(lp6209
g69
(g90
g71
NtRp6210
(dp6211
g74
(dp6212
g94
g95
ssg83
g6206
sg76
(lp6213
S'session_id_name'
p6214
asbag69
(g90
g71
NtRp6215
(dp6216
g74
(dp6217
g101
g102
ssg83
g6206
sg76
(lp6218
S':'
asbag69
(g90
g71
NtRp6219
(dp6220
g74
(dp6221
sg83
g6206
sg76
(lp6222
g69
(g70
g71
NtRp6223
(dp6224
g74
(dp6225
g82
I5
ssg83
g6219
sg76
(lp6226
g4844
asbasbasbag69
(g85
g71
NtRp6227
(dp6228
g74
(dp6229
sg83
g4787
sg76
(lp6230
g69
(g90
g71
NtRp6231
(dp6232
g74
(dp6233
g94
g95
ssg83
g6227
sg76
(lp6234
S'session_locked'
p6235
asbag69
(g90
g71
NtRp6236
(dp6237
g74
(dp6238
g101
g102
ssg83
g6227
sg76
(lp6239
S':'
asbag69
(g90
g71
NtRp6240
(dp6241
g74
(dp6242
sg83
g6227
sg76
(lp6243
g69
(g70
g71
NtRp6244
(dp6245
g74
(dp6246
g82
I5
ssg83
g6240
sg76
(lp6247
g112
asbasbasbag69
(g85
g71
NtRp6248
(dp6249
g74
(dp6250
sg83
g4787
sg76
(lp6251
g69
(g90
g71
NtRp6252
(dp6253
g74
(dp6254
g94
g95
ssg83
g6248
sg76
(lp6255
S'session_new'
p6256
asbag69
(g90
g71
NtRp6257
(dp6258
g74
(dp6259
g101
g102
ssg83
g6248
sg76
(lp6260
S':'
asbag69
(g90
g71
NtRp6261
(dp6262
g74
(dp6263
sg83
g6248
sg76
(lp6264
g69
(g70
g71
NtRp6265
(dp6266
g74
(dp6267
g82
I5
ssg83
g6261
sg76
(lp6268
g994
asbasbasbag69
(g85
g71
NtRp6269
(dp6270
g74
(dp6271
sg83
g4787
sg76
(lp6272
g69
(g90
g71
NtRp6273
(dp6274
g74
(dp6275
g94
g95
ssg83
g6269
sg76
(lp6276
S'status'
p6277
asbag69
(g90
g71
NtRp6278
(dp6279
g74
(dp6280
g101
g102
ssg83
g6269
sg76
(lp6281
S':'
asbag69
(g90
g71
NtRp6282
(dp6283
g74
(dp6284
sg83
g6269
sg76
(lp6285
g69
(g70
g71
NtRp6286
(dp6287
g74
(dp6288
g82
I5
ssg83
g6282
sg76
(lp6289
S'200'
p6290
asbasbasbag69
(g85
g71
NtRp6291
(dp6292
g74
(dp6293
sg83
g4787
sg76
(lp6294
g69
(g90
g71
NtRp6295
(dp6296
g74
(dp6297
g94
g95
ssg83
g6291
sg76
(lp6298
S'subtitle'
p6299
asbag69
(g90
g71
NtRp6300
(dp6301
g74
(dp6302
g101
g102
ssg83
g6291
sg76
(lp6303
S':'
asbag69
(g90
g71
NtRp6304
(dp6305
g74
(dp6306
sg83
g6291
sg76
(lp6307
g69
(g70
g71
NtRp6308
(dp6309
g74
(dp6310
g82
I5
ssg83
g6304
sg76
(lp6311
g5306
(S's0\x00\x00\x00An online space for learning New Testament Greek'
tRp6312
asbasbasbag69
(g85
g71
NtRp6313
(dp6314
g74
(dp6315
sg83
g4787
sg76
(lp6316
g69
(g90
g71
NtRp6317
(dp6318
g74
(dp6319
g94
g95
ssg83
g6313
sg76
(lp6320
S'title'
p6321
asbag69
(g90
g71
NtRp6322
(dp6323
g74
(dp6324
g101
g102
ssg83
g6313
sg76
(lp6325
S':'
asbag69
(g90
g71
NtRp6326
(dp6327
g74
(dp6328
sg83
g6313
sg76
(lp6329
g69
(g70
g71
NtRp6330
(dp6331
g74
(dp6332
g82
I5
ssg83
g6326
sg76
(lp6333
g134
asbasbasbag69
(g85
g71
NtRp6334
(dp6335
g74
(dp6336
sg83
g4787
sg76
(lp6337
g69
(g90
g71
NtRp6338
(dp6339
g74
(dp6340
g94
g95
ssg83
g6334
sg76
(lp6341
g2440
asbag69
(g90
g71
NtRp6342
(dp6343
g74
(dp6344
g101
g102
ssg83
g6334
sg76
(lp6345
S':'
asbag69
(g90
g71
NtRp6346
(dp6347
g74
(dp6348
sg83
g6334
sg76
(lp6349
g69
(g70
g71
NtRp6350
(dp6351
g74
(dp6352
g82
I5
ssg83
g6346
sg76
(lp6353
g2453
asbasbasbag69
(g85
g71
NtRp6354
(dp6355
g74
(dp6356
sg83
g4787
sg76
(lp6357
g69
(g90
g71
NtRp6358
(dp6359
g74
(dp6360
g94
g95
ssg83
g6354
sg76
(lp6361
S'view'
p6362
asbag69
(g90
g71
NtRp6363
(dp6364
g74
(dp6365
g101
g102
ssg83
g6354
sg76
(lp6366
S':'
asbag69
(g90
g71
NtRp6367
(dp6368
g74
(dp6369
sg83
g6354
sg76
(lp6370
g69
(g70
g71
NtRp6371
(dp6372
g74
(dp6373
g82
I5
ssg83
g6367
sg76
(lp6374
S'exploring/index.load'
p6375
asbasbasbasbasbsS'locals'
p6376
(dp6377
S'fromlist'
p6378
S"('paideia_path', 'paideia_tag', 'counter', 'map')"
p6379
sS'e'
S"SyntaxError('invalid syntax', ('applications/pai...ring.py', 379, 24, '    __init__(self, sid):\\n'))"
p6380
sS'name'
p6381
S"'applications.paideia.modules.paideia_exploring'"
p6382
sg82
S'-1'
p6383
sS'self'
p6384
S'<gluon.custom_import._Web2pyDateTrackerImporter object>'
p6385
sS'globals'
p6386
S"{'A': <class 'gluon.html.A'>, 'AjaxSelect': <class applications.paideia.modules.plugin_ajaxselect.AjaxSelect>, 'Auth': <class 'gluon.tools.Auth'>, 'B': <class 'gluon.html.B'>, 'BEAUTIFY': <class 'gluon.html.BEAUTIFY'>, 'BODY': <class 'gluon.html.BODY'>, 'BR': <class 'gluon.html.BR'>, 'BUTTON': <class 'gluon.html.BUTTON'>, 'CAT': <class 'gluon.html.CAT'>, 'CENTER': <class 'gluon.html.CENTER'>, ...}"
p6387
sS'call_begin_end'
p6388
g994
sg6376
S"{'A': <class 'gluon.html.A'>, 'AjaxSelect': <class applications.paideia.modules.plugin_ajaxselect.AjaxSelect>, 'Auth': <class 'gluon.tools.Auth'>, 'B': <class 'gluon.html.B'>, 'BEAUTIFY': <class 'gluon.html.BEAUTIFY'>, 'BODY': <class 'gluon.html.BODY'>, 'BR': <class 'gluon.html.BR'>, 'BUTTON': <class 'gluon.html.BUTTON'>, 'CAT': <class 'gluon.html.CAT'>, 'CENTER': <class 'gluon.html.CENTER'>, ...}"
p6389
sssS'traceback'
p6390
S'Traceback (most recent call last):\n  File "/home/iscott/web/web2py/gluon/restricted.py", line 204, in restricted\n    exec ccode in environment\n  File "/home/iscott/web/web2py/applications/paideia/controllers/exploring.py", line 2, in <module>\n    from paideia_exploring import paideia_path, paideia_tag, counter, map\n  File "/home/iscott/web/web2py/gluon/custom_import.py", line 289, in __call__\n    globals, locals, fromlist, level)\n  File "/home/iscott/web/web2py/gluon/custom_import.py", line 132, in __call__\n    raise e  # Don\'t hide something that went wrong\n  File "applications/paideia/modules/paideia_exploring.py", line 379\n    __init__(self, sid):\n                       ^\nSyntaxError: invalid syntax\n'
p6391
s.