(dp1
S'output'
p2
S''
sS'layer'
p3
S'Framework'
p4
sS'code'
p5
S''
sS'snapshot'
p6
(dp7
S'exception'
p8
(dp9
S'__hash__'
p10
S"<method-wrapper '__hash__' of exceptions.TypeError object>"
p11
sS'__setattr__'
p12
S"<method-wrapper '__setattr__' of exceptions.TypeError object>"
p13
sS'__reduce_ex__'
p14
S'<built-in method __reduce_ex__ of exceptions.TypeError object>'
p15
sS'__getslice__'
p16
S"<method-wrapper '__getslice__' of exceptions.TypeError object>"
p17
sS'__getitem__'
p18
S"<method-wrapper '__getitem__' of exceptions.TypeError object>"
p19
sS'__setstate__'
p20
S'<built-in method __setstate__ of exceptions.TypeError object>'
p21
sS'args'
p22
S'("can\'t pickle instancemethod objects",)'
p23
sS'__reduce__'
p24
S'<built-in method __reduce__ of exceptions.TypeError object>'
p25
sS'__str__'
p26
S"<method-wrapper '__str__' of exceptions.TypeError object>"
p27
sS'__format__'
p28
S'<built-in method __format__ of exceptions.TypeError object>'
p29
sS'__getattribute__'
p30
S"<method-wrapper '__getattribute__' of exceptions.TypeError object>"
p31
sS'__class__'
p32
S"<type 'exceptions.TypeError'>"
p33
sS'__unicode__'
p34
S'<built-in method __unicode__ of exceptions.TypeError object>'
p35
sS'__delattr__'
p36
S"<method-wrapper '__delattr__' of exceptions.TypeError object>"
p37
sS'__subclasshook__'
p38
S'<built-in method __subclasshook__ of type object>'
p39
sS'__repr__'
p40
S"<method-wrapper '__repr__' of exceptions.TypeError object>"
p41
sS'__dict__'
p42
S'{}'
p43
sS'__sizeof__'
p44
S'<built-in method __sizeof__ of exceptions.TypeError object>'
p45
sS'__doc__'
p46
S"'Inappropriate argument type.'"
p47
sS'__init__'
p48
S"<method-wrapper '__init__' of exceptions.TypeError object>"
p49
sS'__new__'
p50
S'<built-in method __new__ of type object>'
p51
ssS'evalue'
p52
S"can't pickle instancemethod objects"
p53
sS'request'
p54
ccopy_reg
_reconstructor
p55
(cgluon.html
BEAUTIFY
p56
c__builtin__
object
p57
NtRp58
(dp59
S'attributes'
p60
(dp61
sS'components'
p62
(lp63
g55
(cgluon.html
TABLE
p64
g57
NtRp65
(dp66
g60
(dp67
S'level'
p68
I5
ssS'parent'
p69
Nsg62
(lp70
g55
(cgluon.html
TR
p71
g57
NtRp72
(dp73
g60
(dp74
sg69
g65
sg62
(lp75
g55
(cgluon.html
TD
p76
g57
NtRp77
(dp78
g60
(dp79
S'_style'
p80
S'font-weight:bold;vertical-align:top'
p81
ssg69
g72
sg62
(lp82
S'ajax'
p83
asbag55
(g76
g57
NtRp84
(dp85
g60
(dp86
S'_valign'
p87
S'top'
p88
ssg69
g72
sg62
(lp89
S':'
asbag55
(g76
g57
NtRp90
(dp91
g60
(dp92
sg69
g72
sg62
(lp93
g55
(g56
g57
NtRp94
(dp95
g60
(dp96
g68
I5
ssg69
g90
sg62
(lp97
S'False'
p98
asbasbasbag55
(g71
g57
NtRp99
(dp100
g60
(dp101
sg69
g65
sg62
(lp102
g55
(g76
g57
NtRp103
(dp104
g60
(dp105
g80
g81
ssg69
g99
sg62
(lp106
S'application'
p107
asbag55
(g76
g57
NtRp108
(dp109
g60
(dp110
g87
g88
ssg69
g99
sg62
(lp111
S':'
asbag55
(g76
g57
NtRp112
(dp113
g60
(dp114
sg69
g99
sg62
(lp115
g55
(g56
g57
NtRp116
(dp117
g60
(dp118
g68
I5
ssg69
g112
sg62
(lp119
S'paideia'
p120
asbasbasbag55
(g71
g57
NtRp121
(dp122
g60
(dp123
sg69
g65
sg62
(lp124
g55
(g76
g57
NtRp125
(dp126
g60
(dp127
g80
g81
ssg69
g121
sg62
(lp128
g22
asbag55
(g76
g57
NtRp129
(dp130
g60
(dp131
g87
g88
ssg69
g121
sg62
(lp132
S':'
asbag55
(g76
g57
NtRp133
(dp134
g60
(dp135
sg69
g121
sg62
(lp136
g55
(g56
g57
NtRp137
(dp138
g60
(dp139
g68
I5
ssg69
g133
sg62
(lp140
g55
(g64
g57
NtRp141
(dp142
g60
(dp143
g68
I4
ssg69
Nsg62
(lp144
sbasbasbasbag55
(g71
g57
NtRp145
(dp146
g60
(dp147
sg69
g65
sg62
(lp148
g55
(g76
g57
NtRp149
(dp150
g60
(dp151
g80
g81
ssg69
g145
sg62
(lp152
S'body'
p153
asbag55
(g76
g57
NtRp154
(dp155
g60
(dp156
g87
g88
ssg69
g145
sg62
(lp157
S':'
asbag55
(g76
g57
NtRp158
(dp159
g60
(dp160
sg69
g145
sg62
(lp161
g55
(g56
g57
NtRp162
(dp163
g60
(dp164
g68
I5
ssg69
g158
sg62
(lp165
S'<cStringIO.StringO object at 0x7f89ac349260>'
p166
asbasbasbag55
(g71
g57
NtRp167
(dp168
g60
(dp169
sg69
g65
sg62
(lp170
g55
(g76
g57
NtRp171
(dp172
g60
(dp173
g80
g81
ssg69
g167
sg62
(lp174
S'client'
p175
asbag55
(g76
g57
NtRp176
(dp177
g60
(dp178
g87
g88
ssg69
g167
sg62
(lp179
S':'
asbag55
(g76
g57
NtRp180
(dp181
g60
(dp182
sg69
g167
sg62
(lp183
g55
(g56
g57
NtRp184
(dp185
g60
(dp186
g68
I5
ssg69
g180
sg62
(lp187
S'127.0.0.1'
p188
asbasbasbag55
(g71
g57
NtRp189
(dp190
g60
(dp191
sg69
g65
sg62
(lp192
g55
(g76
g57
NtRp193
(dp194
g60
(dp195
g80
g81
ssg69
g189
sg62
(lp196
S'controller'
p197
asbag55
(g76
g57
NtRp198
(dp199
g60
(dp200
g87
g88
ssg69
g189
sg62
(lp201
S':'
asbag55
(g76
g57
NtRp202
(dp203
g60
(dp204
sg69
g189
sg62
(lp205
g55
(g56
g57
NtRp206
(dp207
g60
(dp208
g68
I5
ssg69
g202
sg62
(lp209
S'exploring'
p210
asbasbasbag55
(g71
g57
NtRp211
(dp212
g60
(dp213
sg69
g65
sg62
(lp214
g55
(g76
g57
NtRp215
(dp216
g60
(dp217
g80
g81
ssg69
g211
sg62
(lp218
S'cookies'
p219
asbag55
(g76
g57
NtRp220
(dp221
g60
(dp222
g87
g88
ssg69
g211
sg62
(lp223
S':'
asbag55
(g76
g57
NtRp224
(dp225
g60
(dp226
sg69
g211
sg62
(lp227
g55
(g56
g57
NtRp228
(dp229
g60
(dp230
g68
I5
ssg69
g224
sg62
(lp231
g55
(g64
g57
NtRp232
(dp233
g60
(dp234
g68
I4
ssg69
Nsg62
(lp235
g55
(g71
g57
NtRp236
(dp237
g60
(dp238
sg69
g232
sg62
(lp239
g55
(g76
g57
NtRp240
(dp241
g60
(dp242
g80
g81
ssg69
g236
sg62
(lp243
S'session_id_admin'
p244
asbag55
(g76
g57
NtRp245
(dp246
g60
(dp247
g87
g88
ssg69
g236
sg62
(lp248
S':'
asbag55
(g76
g57
NtRp249
(dp250
g60
(dp251
sg69
g236
sg62
(lp252
g55
(g56
g57
NtRp253
(dp254
g60
(dp255
g68
I4
ssg69
g249
sg62
(lp256
g55
(g64
g57
NtRp257
(dp258
g60
(dp259
g68
I3
ssg69
Nsg62
(lp260
g55
(g71
g57
NtRp261
(dp262
g60
(dp263
sg69
g257
sg62
(lp264
g55
(g76
g57
NtRp265
(dp266
g60
(dp267
g80
g81
ssg69
g261
sg62
(lp268
S'comment'
p269
asbag55
(g76
g57
NtRp270
(dp271
g60
(dp272
g87
g88
ssg69
g261
sg62
(lp273
S':'
asbag55
(g76
g57
NtRp274
(dp275
g60
(dp276
sg69
g261
sg62
(lp277
g55
(g56
g57
NtRp278
(dp279
g60
(dp280
g68
I3
ssg69
g274
sg62
(lp281
S''
asbasbasbag55
(g71
g57
NtRp282
(dp283
g60
(dp284
sg69
g257
sg62
(lp285
g55
(g76
g57
NtRp286
(dp287
g60
(dp288
g80
g81
ssg69
g282
sg62
(lp289
S'domain'
p290
asbag55
(g76
g57
NtRp291
(dp292
g60
(dp293
g87
g88
ssg69
g282
sg62
(lp294
S':'
asbag55
(g76
g57
NtRp295
(dp296
g60
(dp297
sg69
g282
sg62
(lp298
g55
(g56
g57
NtRp299
(dp300
g60
(dp301
g68
I3
ssg69
g295
sg62
(lp302
S''
asbasbasbag55
(g71
g57
NtRp303
(dp304
g60
(dp305
sg69
g257
sg62
(lp306
g55
(g76
g57
NtRp307
(dp308
g60
(dp309
g80
g81
ssg69
g303
sg62
(lp310
S'expires'
p311
asbag55
(g76
g57
NtRp312
(dp313
g60
(dp314
g87
g88
ssg69
g303
sg62
(lp315
S':'
asbag55
(g76
g57
NtRp316
(dp317
g60
(dp318
sg69
g303
sg62
(lp319
g55
(g56
g57
NtRp320
(dp321
g60
(dp322
g68
I3
ssg69
g316
sg62
(lp323
S''
asbasbasbag55
(g71
g57
NtRp324
(dp325
g60
(dp326
sg69
g257
sg62
(lp327
g55
(g76
g57
NtRp328
(dp329
g60
(dp330
g80
g81
ssg69
g324
sg62
(lp331
S'httponly'
p332
asbag55
(g76
g57
NtRp333
(dp334
g60
(dp335
g87
g88
ssg69
g324
sg62
(lp336
S':'
asbag55
(g76
g57
NtRp337
(dp338
g60
(dp339
sg69
g324
sg62
(lp340
g55
(g56
g57
NtRp341
(dp342
g60
(dp343
g68
I3
ssg69
g337
sg62
(lp344
S''
asbasbasbag55
(g71
g57
NtRp345
(dp346
g60
(dp347
sg69
g257
sg62
(lp348
g55
(g76
g57
NtRp349
(dp350
g60
(dp351
g80
g81
ssg69
g345
sg62
(lp352
S'max-age'
p353
asbag55
(g76
g57
NtRp354
(dp355
g60
(dp356
g87
g88
ssg69
g345
sg62
(lp357
S':'
asbag55
(g76
g57
NtRp358
(dp359
g60
(dp360
sg69
g345
sg62
(lp361
g55
(g56
g57
NtRp362
(dp363
g60
(dp364
g68
I3
ssg69
g358
sg62
(lp365
S''
asbasbasbag55
(g71
g57
NtRp366
(dp367
g60
(dp368
sg69
g257
sg62
(lp369
g55
(g76
g57
NtRp370
(dp371
g60
(dp372
g80
g81
ssg69
g366
sg62
(lp373
S'path'
p374
asbag55
(g76
g57
NtRp375
(dp376
g60
(dp377
g87
g88
ssg69
g366
sg62
(lp378
S':'
asbag55
(g76
g57
NtRp379
(dp380
g60
(dp381
sg69
g366
sg62
(lp382
g55
(g56
g57
NtRp383
(dp384
g60
(dp385
g68
I3
ssg69
g379
sg62
(lp386
S''
asbasbasbag55
(g71
g57
NtRp387
(dp388
g60
(dp389
sg69
g257
sg62
(lp390
g55
(g76
g57
NtRp391
(dp392
g60
(dp393
g80
g81
ssg69
g387
sg62
(lp394
S'secure'
p395
asbag55
(g76
g57
NtRp396
(dp397
g60
(dp398
g87
g88
ssg69
g387
sg62
(lp399
S':'
asbag55
(g76
g57
NtRp400
(dp401
g60
(dp402
sg69
g387
sg62
(lp403
g55
(g56
g57
NtRp404
(dp405
g60
(dp406
g68
I3
ssg69
g400
sg62
(lp407
S''
asbasbasbag55
(g71
g57
NtRp408
(dp409
g60
(dp410
sg69
g257
sg62
(lp411
g55
(g76
g57
NtRp412
(dp413
g60
(dp414
g80
g81
ssg69
g408
sg62
(lp415
S'version'
p416
asbag55
(g76
g57
NtRp417
(dp418
g60
(dp419
g87
g88
ssg69
g408
sg62
(lp420
S':'
asbag55
(g76
g57
NtRp421
(dp422
g60
(dp423
sg69
g408
sg62
(lp424
g55
(g56
g57
NtRp425
(dp426
g60
(dp427
g68
I3
ssg69
g421
sg62
(lp428
S''
asbasbasbasbasbasbasbag55
(g71
g57
NtRp429
(dp430
g60
(dp431
sg69
g232
sg62
(lp432
g55
(g76
g57
NtRp433
(dp434
g60
(dp435
g80
g81
ssg69
g429
sg62
(lp436
S'session_id_grammateus3'
p437
asbag55
(g76
g57
NtRp438
(dp439
g60
(dp440
g87
g88
ssg69
g429
sg62
(lp441
S':'
asbag55
(g76
g57
NtRp442
(dp443
g60
(dp444
sg69
g429
sg62
(lp445
g55
(g56
g57
NtRp446
(dp447
g60
(dp448
g68
I4
ssg69
g442
sg62
(lp449
g55
(g64
g57
NtRp450
(dp451
g60
(dp452
g68
I3
ssg69
Nsg62
(lp453
g55
(g71
g57
NtRp454
(dp455
g60
(dp456
sg69
g450
sg62
(lp457
g55
(g76
g57
NtRp458
(dp459
g60
(dp460
g80
g81
ssg69
g454
sg62
(lp461
g269
asbag55
(g76
g57
NtRp462
(dp463
g60
(dp464
g87
g88
ssg69
g454
sg62
(lp465
S':'
asbag55
(g76
g57
NtRp466
(dp467
g60
(dp468
sg69
g454
sg62
(lp469
g55
(g56
g57
NtRp470
(dp471
g60
(dp472
g68
I3
ssg69
g466
sg62
(lp473
S''
asbasbasbag55
(g71
g57
NtRp474
(dp475
g60
(dp476
sg69
g450
sg62
(lp477
g55
(g76
g57
NtRp478
(dp479
g60
(dp480
g80
g81
ssg69
g474
sg62
(lp481
g290
asbag55
(g76
g57
NtRp482
(dp483
g60
(dp484
g87
g88
ssg69
g474
sg62
(lp485
S':'
asbag55
(g76
g57
NtRp486
(dp487
g60
(dp488
sg69
g474
sg62
(lp489
g55
(g56
g57
NtRp490
(dp491
g60
(dp492
g68
I3
ssg69
g486
sg62
(lp493
S''
asbasbasbag55
(g71
g57
NtRp494
(dp495
g60
(dp496
sg69
g450
sg62
(lp497
g55
(g76
g57
NtRp498
(dp499
g60
(dp500
g80
g81
ssg69
g494
sg62
(lp501
g311
asbag55
(g76
g57
NtRp502
(dp503
g60
(dp504
g87
g88
ssg69
g494
sg62
(lp505
S':'
asbag55
(g76
g57
NtRp506
(dp507
g60
(dp508
sg69
g494
sg62
(lp509
g55
(g56
g57
NtRp510
(dp511
g60
(dp512
g68
I3
ssg69
g506
sg62
(lp513
S''
asbasbasbag55
(g71
g57
NtRp514
(dp515
g60
(dp516
sg69
g450
sg62
(lp517
g55
(g76
g57
NtRp518
(dp519
g60
(dp520
g80
g81
ssg69
g514
sg62
(lp521
g332
asbag55
(g76
g57
NtRp522
(dp523
g60
(dp524
g87
g88
ssg69
g514
sg62
(lp525
S':'
asbag55
(g76
g57
NtRp526
(dp527
g60
(dp528
sg69
g514
sg62
(lp529
g55
(g56
g57
NtRp530
(dp531
g60
(dp532
g68
I3
ssg69
g526
sg62
(lp533
S''
asbasbasbag55
(g71
g57
NtRp534
(dp535
g60
(dp536
sg69
g450
sg62
(lp537
g55
(g76
g57
NtRp538
(dp539
g60
(dp540
g80
g81
ssg69
g534
sg62
(lp541
g353
asbag55
(g76
g57
NtRp542
(dp543
g60
(dp544
g87
g88
ssg69
g534
sg62
(lp545
S':'
asbag55
(g76
g57
NtRp546
(dp547
g60
(dp548
sg69
g534
sg62
(lp549
g55
(g56
g57
NtRp550
(dp551
g60
(dp552
g68
I3
ssg69
g546
sg62
(lp553
S''
asbasbasbag55
(g71
g57
NtRp554
(dp555
g60
(dp556
sg69
g450
sg62
(lp557
g55
(g76
g57
NtRp558
(dp559
g60
(dp560
g80
g81
ssg69
g554
sg62
(lp561
g374
asbag55
(g76
g57
NtRp562
(dp563
g60
(dp564
g87
g88
ssg69
g554
sg62
(lp565
S':'
asbag55
(g76
g57
NtRp566
(dp567
g60
(dp568
sg69
g554
sg62
(lp569
g55
(g56
g57
NtRp570
(dp571
g60
(dp572
g68
I3
ssg69
g566
sg62
(lp573
S''
asbasbasbag55
(g71
g57
NtRp574
(dp575
g60
(dp576
sg69
g450
sg62
(lp577
g55
(g76
g57
NtRp578
(dp579
g60
(dp580
g80
g81
ssg69
g574
sg62
(lp581
g395
asbag55
(g76
g57
NtRp582
(dp583
g60
(dp584
g87
g88
ssg69
g574
sg62
(lp585
S':'
asbag55
(g76
g57
NtRp586
(dp587
g60
(dp588
sg69
g574
sg62
(lp589
g55
(g56
g57
NtRp590
(dp591
g60
(dp592
g68
I3
ssg69
g586
sg62
(lp593
S''
asbasbasbag55
(g71
g57
NtRp594
(dp595
g60
(dp596
sg69
g450
sg62
(lp597
g55
(g76
g57
NtRp598
(dp599
g60
(dp600
g80
g81
ssg69
g594
sg62
(lp601
g416
asbag55
(g76
g57
NtRp602
(dp603
g60
(dp604
g87
g88
ssg69
g594
sg62
(lp605
S':'
asbag55
(g76
g57
NtRp606
(dp607
g60
(dp608
sg69
g594
sg62
(lp609
g55
(g56
g57
NtRp610
(dp611
g60
(dp612
g68
I3
ssg69
g606
sg62
(lp613
S''
asbasbasbasbasbasbasbag55
(g71
g57
NtRp614
(dp615
g60
(dp616
sg69
g232
sg62
(lp617
g55
(g76
g57
NtRp618
(dp619
g60
(dp620
g80
g81
ssg69
g614
sg62
(lp621
S'session_id_paideia'
p622
asbag55
(g76
g57
NtRp623
(dp624
g60
(dp625
g87
g88
ssg69
g614
sg62
(lp626
S':'
asbag55
(g76
g57
NtRp627
(dp628
g60
(dp629
sg69
g614
sg62
(lp630
g55
(g56
g57
NtRp631
(dp632
g60
(dp633
g68
I4
ssg69
g627
sg62
(lp634
g55
(g64
g57
NtRp635
(dp636
g60
(dp637
g68
I3
ssg69
Nsg62
(lp638
g55
(g71
g57
NtRp639
(dp640
g60
(dp641
sg69
g635
sg62
(lp642
g55
(g76
g57
NtRp643
(dp644
g60
(dp645
g80
g81
ssg69
g639
sg62
(lp646
g269
asbag55
(g76
g57
NtRp647
(dp648
g60
(dp649
g87
g88
ssg69
g639
sg62
(lp650
S':'
asbag55
(g76
g57
NtRp651
(dp652
g60
(dp653
sg69
g639
sg62
(lp654
g55
(g56
g57
NtRp655
(dp656
g60
(dp657
g68
I3
ssg69
g651
sg62
(lp658
S''
asbasbasbag55
(g71
g57
NtRp659
(dp660
g60
(dp661
sg69
g635
sg62
(lp662
g55
(g76
g57
NtRp663
(dp664
g60
(dp665
g80
g81
ssg69
g659
sg62
(lp666
g290
asbag55
(g76
g57
NtRp667
(dp668
g60
(dp669
g87
g88
ssg69
g659
sg62
(lp670
S':'
asbag55
(g76
g57
NtRp671
(dp672
g60
(dp673
sg69
g659
sg62
(lp674
g55
(g56
g57
NtRp675
(dp676
g60
(dp677
g68
I3
ssg69
g671
sg62
(lp678
S''
asbasbasbag55
(g71
g57
NtRp679
(dp680
g60
(dp681
sg69
g635
sg62
(lp682
g55
(g76
g57
NtRp683
(dp684
g60
(dp685
g80
g81
ssg69
g679
sg62
(lp686
g311
asbag55
(g76
g57
NtRp687
(dp688
g60
(dp689
g87
g88
ssg69
g679
sg62
(lp690
S':'
asbag55
(g76
g57
NtRp691
(dp692
g60
(dp693
sg69
g679
sg62
(lp694
g55
(g56
g57
NtRp695
(dp696
g60
(dp697
g68
I3
ssg69
g691
sg62
(lp698
S''
asbasbasbag55
(g71
g57
NtRp699
(dp700
g60
(dp701
sg69
g635
sg62
(lp702
g55
(g76
g57
NtRp703
(dp704
g60
(dp705
g80
g81
ssg69
g699
sg62
(lp706
g332
asbag55
(g76
g57
NtRp707
(dp708
g60
(dp709
g87
g88
ssg69
g699
sg62
(lp710
S':'
asbag55
(g76
g57
NtRp711
(dp712
g60
(dp713
sg69
g699
sg62
(lp714
g55
(g56
g57
NtRp715
(dp716
g60
(dp717
g68
I3
ssg69
g711
sg62
(lp718
S''
asbasbasbag55
(g71
g57
NtRp719
(dp720
g60
(dp721
sg69
g635
sg62
(lp722
g55
(g76
g57
NtRp723
(dp724
g60
(dp725
g80
g81
ssg69
g719
sg62
(lp726
g353
asbag55
(g76
g57
NtRp727
(dp728
g60
(dp729
g87
g88
ssg69
g719
sg62
(lp730
S':'
asbag55
(g76
g57
NtRp731
(dp732
g60
(dp733
sg69
g719
sg62
(lp734
g55
(g56
g57
NtRp735
(dp736
g60
(dp737
g68
I3
ssg69
g731
sg62
(lp738
S''
asbasbasbag55
(g71
g57
NtRp739
(dp740
g60
(dp741
sg69
g635
sg62
(lp742
g55
(g76
g57
NtRp743
(dp744
g60
(dp745
g80
g81
ssg69
g739
sg62
(lp746
g374
asbag55
(g76
g57
NtRp747
(dp748
g60
(dp749
g87
g88
ssg69
g739
sg62
(lp750
S':'
asbag55
(g76
g57
NtRp751
(dp752
g60
(dp753
sg69
g739
sg62
(lp754
g55
(g56
g57
NtRp755
(dp756
g60
(dp757
g68
I3
ssg69
g751
sg62
(lp758
S''
asbasbasbag55
(g71
g57
NtRp759
(dp760
g60
(dp761
sg69
g635
sg62
(lp762
g55
(g76
g57
NtRp763
(dp764
g60
(dp765
g80
g81
ssg69
g759
sg62
(lp766
g395
asbag55
(g76
g57
NtRp767
(dp768
g60
(dp769
g87
g88
ssg69
g759
sg62
(lp770
S':'
asbag55
(g76
g57
NtRp771
(dp772
g60
(dp773
sg69
g759
sg62
(lp774
g55
(g56
g57
NtRp775
(dp776
g60
(dp777
g68
I3
ssg69
g771
sg62
(lp778
S''
asbasbasbag55
(g71
g57
NtRp779
(dp780
g60
(dp781
sg69
g635
sg62
(lp782
g55
(g76
g57
NtRp783
(dp784
g60
(dp785
g80
g81
ssg69
g779
sg62
(lp786
g416
asbag55
(g76
g57
NtRp787
(dp788
g60
(dp789
g87
g88
ssg69
g779
sg62
(lp790
S':'
asbag55
(g76
g57
NtRp791
(dp792
g60
(dp793
sg69
g779
sg62
(lp794
g55
(g56
g57
NtRp795
(dp796
g60
(dp797
g68
I3
ssg69
g791
sg62
(lp798
S''
asbasbasbasbasbasbasbag55
(g71
g57
NtRp799
(dp800
g60
(dp801
sg69
g232
sg62
(lp802
g55
(g76
g57
NtRp803
(dp804
g60
(dp805
g80
g81
ssg69
g799
sg62
(lp806
S'session_id_welcome'
p807
asbag55
(g76
g57
NtRp808
(dp809
g60
(dp810
g87
g88
ssg69
g799
sg62
(lp811
S':'
asbag55
(g76
g57
NtRp812
(dp813
g60
(dp814
sg69
g799
sg62
(lp815
g55
(g56
g57
NtRp816
(dp817
g60
(dp818
g68
I4
ssg69
g812
sg62
(lp819
g55
(g64
g57
NtRp820
(dp821
g60
(dp822
g68
I3
ssg69
Nsg62
(lp823
g55
(g71
g57
NtRp824
(dp825
g60
(dp826
sg69
g820
sg62
(lp827
g55
(g76
g57
NtRp828
(dp829
g60
(dp830
g80
g81
ssg69
g824
sg62
(lp831
g269
asbag55
(g76
g57
NtRp832
(dp833
g60
(dp834
g87
g88
ssg69
g824
sg62
(lp835
S':'
asbag55
(g76
g57
NtRp836
(dp837
g60
(dp838
sg69
g824
sg62
(lp839
g55
(g56
g57
NtRp840
(dp841
g60
(dp842
g68
I3
ssg69
g836
sg62
(lp843
S''
asbasbasbag55
(g71
g57
NtRp844
(dp845
g60
(dp846
sg69
g820
sg62
(lp847
g55
(g76
g57
NtRp848
(dp849
g60
(dp850
g80
g81
ssg69
g844
sg62
(lp851
g290
asbag55
(g76
g57
NtRp852
(dp853
g60
(dp854
g87
g88
ssg69
g844
sg62
(lp855
S':'
asbag55
(g76
g57
NtRp856
(dp857
g60
(dp858
sg69
g844
sg62
(lp859
g55
(g56
g57
NtRp860
(dp861
g60
(dp862
g68
I3
ssg69
g856
sg62
(lp863
S''
asbasbasbag55
(g71
g57
NtRp864
(dp865
g60
(dp866
sg69
g820
sg62
(lp867
g55
(g76
g57
NtRp868
(dp869
g60
(dp870
g80
g81
ssg69
g864
sg62
(lp871
g311
asbag55
(g76
g57
NtRp872
(dp873
g60
(dp874
g87
g88
ssg69
g864
sg62
(lp875
S':'
asbag55
(g76
g57
NtRp876
(dp877
g60
(dp878
sg69
g864
sg62
(lp879
g55
(g56
g57
NtRp880
(dp881
g60
(dp882
g68
I3
ssg69
g876
sg62
(lp883
S''
asbasbasbag55
(g71
g57
NtRp884
(dp885
g60
(dp886
sg69
g820
sg62
(lp887
g55
(g76
g57
NtRp888
(dp889
g60
(dp890
g80
g81
ssg69
g884
sg62
(lp891
g332
asbag55
(g76
g57
NtRp892
(dp893
g60
(dp894
g87
g88
ssg69
g884
sg62
(lp895
S':'
asbag55
(g76
g57
NtRp896
(dp897
g60
(dp898
sg69
g884
sg62
(lp899
g55
(g56
g57
NtRp900
(dp901
g60
(dp902
g68
I3
ssg69
g896
sg62
(lp903
S''
asbasbasbag55
(g71
g57
NtRp904
(dp905
g60
(dp906
sg69
g820
sg62
(lp907
g55
(g76
g57
NtRp908
(dp909
g60
(dp910
g80
g81
ssg69
g904
sg62
(lp911
g353
asbag55
(g76
g57
NtRp912
(dp913
g60
(dp914
g87
g88
ssg69
g904
sg62
(lp915
S':'
asbag55
(g76
g57
NtRp916
(dp917
g60
(dp918
sg69
g904
sg62
(lp919
g55
(g56
g57
NtRp920
(dp921
g60
(dp922
g68
I3
ssg69
g916
sg62
(lp923
S''
asbasbasbag55
(g71
g57
NtRp924
(dp925
g60
(dp926
sg69
g820
sg62
(lp927
g55
(g76
g57
NtRp928
(dp929
g60
(dp930
g80
g81
ssg69
g924
sg62
(lp931
g374
asbag55
(g76
g57
NtRp932
(dp933
g60
(dp934
g87
g88
ssg69
g924
sg62
(lp935
S':'
asbag55
(g76
g57
NtRp936
(dp937
g60
(dp938
sg69
g924
sg62
(lp939
g55
(g56
g57
NtRp940
(dp941
g60
(dp942
g68
I3
ssg69
g936
sg62
(lp943
S''
asbasbasbag55
(g71
g57
NtRp944
(dp945
g60
(dp946
sg69
g820
sg62
(lp947
g55
(g76
g57
NtRp948
(dp949
g60
(dp950
g80
g81
ssg69
g944
sg62
(lp951
g395
asbag55
(g76
g57
NtRp952
(dp953
g60
(dp954
g87
g88
ssg69
g944
sg62
(lp955
S':'
asbag55
(g76
g57
NtRp956
(dp957
g60
(dp958
sg69
g944
sg62
(lp959
g55
(g56
g57
NtRp960
(dp961
g60
(dp962
g68
I3
ssg69
g956
sg62
(lp963
S''
asbasbasbag55
(g71
g57
NtRp964
(dp965
g60
(dp966
sg69
g820
sg62
(lp967
g55
(g76
g57
NtRp968
(dp969
g60
(dp970
g80
g81
ssg69
g964
sg62
(lp971
g416
asbag55
(g76
g57
NtRp972
(dp973
g60
(dp974
g87
g88
ssg69
g964
sg62
(lp975
S':'
asbag55
(g76
g57
NtRp976
(dp977
g60
(dp978
sg69
g964
sg62
(lp979
g55
(g56
g57
NtRp980
(dp981
g60
(dp982
g68
I3
ssg69
g976
sg62
(lp983
S''
asbasbasbasbasbasbasbasbasbasbasbag55
(g71
g57
NtRp984
(dp985
g60
(dp986
sg69
g65
sg62
(lp987
g55
(g76
g57
NtRp988
(dp989
g60
(dp990
g80
g81
ssg69
g984
sg62
(lp991
S'env'
p992
asbag55
(g76
g57
NtRp993
(dp994
g60
(dp995
g87
g88
ssg69
g984
sg62
(lp996
S':'
asbag55
(g76
g57
NtRp997
(dp998
g60
(dp999
sg69
g984
sg62
(lp1000
g55
(g56
g57
NtRp1001
(dp1002
g60
(dp1003
g68
I5
ssg69
g997
sg62
(lp1004
g55
(g64
g57
NtRp1005
(dp1006
g60
(dp1007
g68
I4
ssg69
Nsg62
(lp1008
g55
(g71
g57
NtRp1009
(dp1010
g60
(dp1011
sg69
g1005
sg62
(lp1012
g55
(g76
g57
NtRp1013
(dp1014
g60
(dp1015
g80
g81
ssg69
g1009
sg62
(lp1016
S'app_folders'
p1017
asbag55
(g76
g57
NtRp1018
(dp1019
g60
(dp1020
g87
g88
ssg69
g1009
sg62
(lp1021
S':'
asbag55
(g76
g57
NtRp1022
(dp1023
g60
(dp1024
sg69
g1009
sg62
(lp1025
g55
(g56
g57
NtRp1026
(dp1027
g60
(dp1028
g68
I4
ssg69
g1022
sg62
(lp1029
S"set(['/home/ian/web/web2py/applications/welcome/', '/home/ian/web/web2py/applications/paideia/', '/home/ian/web/web2py/applications/admin/'])"
p1030
asbasbasbag55
(g71
g57
NtRp1031
(dp1032
g60
(dp1033
sg69
g1005
sg62
(lp1034
g55
(g76
g57
NtRp1035
(dp1036
g60
(dp1037
g80
g81
ssg69
g1031
sg62
(lp1038
S'applications_parent'
p1039
asbag55
(g76
g57
NtRp1040
(dp1041
g60
(dp1042
g87
g88
ssg69
g1031
sg62
(lp1043
S':'
asbag55
(g76
g57
NtRp1044
(dp1045
g60
(dp1046
sg69
g1031
sg62
(lp1047
g55
(g56
g57
NtRp1048
(dp1049
g60
(dp1050
g68
I4
ssg69
g1044
sg62
(lp1051
S'/home/ian/web/web2py'
p1052
asbasbasbag55
(g71
g57
NtRp1053
(dp1054
g60
(dp1055
sg69
g1005
sg62
(lp1056
g55
(g76
g57
NtRp1057
(dp1058
g60
(dp1059
g80
g81
ssg69
g1053
sg62
(lp1060
S'cmd_args'
p1061
asbag55
(g76
g57
NtRp1062
(dp1063
g60
(dp1064
g87
g88
ssg69
g1053
sg62
(lp1065
S':'
asbag55
(g76
g57
NtRp1066
(dp1067
g60
(dp1068
sg69
g1053
sg62
(lp1069
g55
(g56
g57
NtRp1070
(dp1071
g60
(dp1072
g68
I4
ssg69
g1066
sg62
(lp1073
g55
(g64
g57
NtRp1074
(dp1075
g60
(dp1076
g68
I3
ssg69
Nsg62
(lp1077
sbasbasbasbag55
(g71
g57
NtRp1078
(dp1079
g60
(dp1080
sg69
g1005
sg62
(lp1081
g55
(g76
g57
NtRp1082
(dp1083
g60
(dp1084
g80
g81
ssg69
g1078
sg62
(lp1085
S'cmd_options'
p1086
asbag55
(g76
g57
NtRp1087
(dp1088
g60
(dp1089
g87
g88
ssg69
g1078
sg62
(lp1090
S':'
asbag55
(g76
g57
NtRp1091
(dp1092
g60
(dp1093
sg69
g1078
sg62
(lp1094
g55
(g56
g57
NtRp1095
(dp1096
g60
(dp1097
g68
I4
ssg69
g1091
sg62
(lp1098
S"<Values at 0x1a38758: {'verbose': False, 'ip': '127.0.0.1', 'shutdown_timeout': 5, 'taskbar': False, 'nocron': False, 'pid_filename': 'httpserver.pid', 'maxthreads': None, 'softcron': False, 'server_name': 'uriel', 'bpython': False, 'nogui': False, 'port': 8000, 'extcron': False, 'debuglevel': 30, 'test': None, 'folder': '/home/ian/web/web2py', 'config': '', 'import_models': False, 'winservice': '', 'shell': None, 'run': '', 'log_filename': 'httpserver.log', 'args': [''], 'socket_timeout': 1, 'ssl_ca_certificate': None, 'scheduler': None, 'profiler_filename': None, 'ssl_private_key': '', 'password': '<ask>', 'request_queue_size': 5, 'ssl_certificate': '', 'cronjob': False, 'numthreads': None, 'quiet': False, 'interfaces': None, 'minthreads': None, 'timeout': 10, 'plain': False, 'nobanner': False}>"
p1099
asbasbasbag55
(g71
g57
NtRp1100
(dp1101
g60
(dp1102
sg69
g1005
sg62
(lp1103
g55
(g76
g57
NtRp1104
(dp1105
g60
(dp1106
g80
g81
ssg69
g1100
sg62
(lp1107
S'db_sessions'
p1108
asbag55
(g76
g57
NtRp1109
(dp1110
g60
(dp1111
g87
g88
ssg69
g1100
sg62
(lp1112
S':'
asbag55
(g76
g57
NtRp1113
(dp1114
g60
(dp1115
sg69
g1100
sg62
(lp1116
g55
(g56
g57
NtRp1117
(dp1118
g60
(dp1119
g68
I4
ssg69
g1113
sg62
(lp1120
S'set([])'
p1121
asbasbasbag55
(g71
g57
NtRp1122
(dp1123
g60
(dp1124
sg69
g1005
sg62
(lp1125
g55
(g76
g57
NtRp1126
(dp1127
g60
(dp1128
g80
g81
ssg69
g1122
sg62
(lp1129
S'debugging'
p1130
asbag55
(g76
g57
NtRp1131
(dp1132
g60
(dp1133
g87
g88
ssg69
g1122
sg62
(lp1134
S':'
asbag55
(g76
g57
NtRp1135
(dp1136
g60
(dp1137
sg69
g1122
sg62
(lp1138
g55
(g56
g57
NtRp1139
(dp1140
g60
(dp1141
g68
I4
ssg69
g1135
sg62
(lp1142
g98
asbasbasbag55
(g71
g57
NtRp1143
(dp1144
g60
(dp1145
sg69
g1005
sg62
(lp1146
g55
(g76
g57
NtRp1147
(dp1148
g60
(dp1149
g80
g81
ssg69
g1143
sg62
(lp1150
S'gluon_parent'
p1151
asbag55
(g76
g57
NtRp1152
(dp1153
g60
(dp1154
g87
g88
ssg69
g1143
sg62
(lp1155
S':'
asbag55
(g76
g57
NtRp1156
(dp1157
g60
(dp1158
sg69
g1143
sg62
(lp1159
g55
(g56
g57
NtRp1160
(dp1161
g60
(dp1162
g68
I4
ssg69
g1156
sg62
(lp1163
S'/home/ian/web/web2py'
p1164
asbasbasbag55
(g71
g57
NtRp1165
(dp1166
g60
(dp1167
sg69
g1005
sg62
(lp1168
g55
(g76
g57
NtRp1169
(dp1170
g60
(dp1171
g80
g81
ssg69
g1165
sg62
(lp1172
S'http_accept'
p1173
asbag55
(g76
g57
NtRp1174
(dp1175
g60
(dp1176
g87
g88
ssg69
g1165
sg62
(lp1177
S':'
asbag55
(g76
g57
NtRp1178
(dp1179
g60
(dp1180
sg69
g1165
sg62
(lp1181
g55
(g56
g57
NtRp1182
(dp1183
g60
(dp1184
g68
I4
ssg69
g1178
sg62
(lp1185
S'text/html,application/xhtml+xml,application/xml;q=0.9,*/*;q=0.8'
p1186
asbasbasbag55
(g71
g57
NtRp1187
(dp1188
g60
(dp1189
sg69
g1005
sg62
(lp1190
g55
(g76
g57
NtRp1191
(dp1192
g60
(dp1193
g80
g81
ssg69
g1187
sg62
(lp1194
S'http_accept_encoding'
p1195
asbag55
(g76
g57
NtRp1196
(dp1197
g60
(dp1198
g87
g88
ssg69
g1187
sg62
(lp1199
S':'
asbag55
(g76
g57
NtRp1200
(dp1201
g60
(dp1202
sg69
g1187
sg62
(lp1203
g55
(g56
g57
NtRp1204
(dp1205
g60
(dp1206
g68
I4
ssg69
g1200
sg62
(lp1207
S'gzip, deflate'
p1208
asbasbasbag55
(g71
g57
NtRp1209
(dp1210
g60
(dp1211
sg69
g1005
sg62
(lp1212
g55
(g76
g57
NtRp1213
(dp1214
g60
(dp1215
g80
g81
ssg69
g1209
sg62
(lp1216
S'http_accept_language'
p1217
asbag55
(g76
g57
NtRp1218
(dp1219
g60
(dp1220
g87
g88
ssg69
g1209
sg62
(lp1221
S':'
asbag55
(g76
g57
NtRp1222
(dp1223
g60
(dp1224
sg69
g1209
sg62
(lp1225
g55
(g56
g57
NtRp1226
(dp1227
g60
(dp1228
g68
I4
ssg69
g1222
sg62
(lp1229
S'en-us,en;q=0.5'
p1230
asbasbasbag55
(g71
g57
NtRp1231
(dp1232
g60
(dp1233
sg69
g1005
sg62
(lp1234
g55
(g76
g57
NtRp1235
(dp1236
g60
(dp1237
g80
g81
ssg69
g1231
sg62
(lp1238
S'http_cache_control'
p1239
asbag55
(g76
g57
NtRp1240
(dp1241
g60
(dp1242
g87
g88
ssg69
g1231
sg62
(lp1243
S':'
asbag55
(g76
g57
NtRp1244
(dp1245
g60
(dp1246
sg69
g1231
sg62
(lp1247
g55
(g56
g57
NtRp1248
(dp1249
g60
(dp1250
g68
I4
ssg69
g1244
sg62
(lp1251
S'max-age=0'
p1252
asbasbasbag55
(g71
g57
NtRp1253
(dp1254
g60
(dp1255
sg69
g1005
sg62
(lp1256
g55
(g76
g57
NtRp1257
(dp1258
g60
(dp1259
g80
g81
ssg69
g1253
sg62
(lp1260
S'http_connection'
p1261
asbag55
(g76
g57
NtRp1262
(dp1263
g60
(dp1264
g87
g88
ssg69
g1253
sg62
(lp1265
S':'
asbag55
(g76
g57
NtRp1266
(dp1267
g60
(dp1268
sg69
g1253
sg62
(lp1269
g55
(g56
g57
NtRp1270
(dp1271
g60
(dp1272
g68
I4
ssg69
g1266
sg62
(lp1273
S'keep-alive'
p1274
asbasbasbag55
(g71
g57
NtRp1275
(dp1276
g60
(dp1277
sg69
g1005
sg62
(lp1278
g55
(g76
g57
NtRp1279
(dp1280
g60
(dp1281
g80
g81
ssg69
g1275
sg62
(lp1282
S'http_cookie'
p1283
asbag55
(g76
g57
NtRp1284
(dp1285
g60
(dp1286
g87
g88
ssg69
g1275
sg62
(lp1287
S':'
asbag55
(g76
g57
NtRp1288
(dp1289
g60
(dp1290
sg69
g1275
sg62
(lp1291
g55
(g56
g57
NtRp1292
(dp1293
g60
(dp1294
g68
I4
ssg69
g1288
sg62
(lp1295
S'session_id_paideia=127.0.0.1-d2b16629-afad-4e3f-840d-43f7f7183774; session_id_grammateus3=127.0.0.1-ae131346-de62-453a-b308-33d5b317e3e5; session_id_welcome=127.0.0.1-2d7c426d-8b25-4e09-8198-5df3cafff407; session_id_admin=127.0.0.1-629e8be1-afe5-45fc-bfd2-0df6ba96261e'
p1296
asbasbasbag55
(g71
g57
NtRp1297
(dp1298
g60
(dp1299
sg69
g1005
sg62
(lp1300
g55
(g76
g57
NtRp1301
(dp1302
g60
(dp1303
g80
g81
ssg69
g1297
sg62
(lp1304
S'http_host'
p1305
asbag55
(g76
g57
NtRp1306
(dp1307
g60
(dp1308
g87
g88
ssg69
g1297
sg62
(lp1309
S':'
asbag55
(g76
g57
NtRp1310
(dp1311
g60
(dp1312
sg69
g1297
sg62
(lp1313
g55
(g56
g57
NtRp1314
(dp1315
g60
(dp1316
g68
I4
ssg69
g1310
sg62
(lp1317
S'127.0.0.1:8000'
p1318
asbasbasbag55
(g71
g57
NtRp1319
(dp1320
g60
(dp1321
sg69
g1005
sg62
(lp1322
g55
(g76
g57
NtRp1323
(dp1324
g60
(dp1325
g80
g81
ssg69
g1319
sg62
(lp1326
S'http_referer'
p1327
asbag55
(g76
g57
NtRp1328
(dp1329
g60
(dp1330
g87
g88
ssg69
g1319
sg62
(lp1331
S':'
asbag55
(g76
g57
NtRp1332
(dp1333
g60
(dp1334
sg69
g1319
sg62
(lp1335
g55
(g56
g57
NtRp1336
(dp1337
g60
(dp1338
g68
I4
ssg69
g1332
sg62
(lp1339
S'http://127.0.0.1:8000/paideia/default/user/login?_next=/paideia/exploring/index'
p1340
asbasbasbag55
(g71
g57
NtRp1341
(dp1342
g60
(dp1343
sg69
g1005
sg62
(lp1344
g55
(g76
g57
NtRp1345
(dp1346
g60
(dp1347
g80
g81
ssg69
g1341
sg62
(lp1348
S'http_user_agent'
p1349
asbag55
(g76
g57
NtRp1350
(dp1351
g60
(dp1352
g87
g88
ssg69
g1341
sg62
(lp1353
S':'
asbag55
(g76
g57
NtRp1354
(dp1355
g60
(dp1356
sg69
g1341
sg62
(lp1357
g55
(g56
g57
NtRp1358
(dp1359
g60
(dp1360
g68
I4
ssg69
g1354
sg62
(lp1361
S'Mozilla/5.0 (X11; Ubuntu; Linux x86_64; rv:11.0) Gecko/20100101 Firefox/11.0 openid'
p1362
asbasbasbag55
(g71
g57
NtRp1363
(dp1364
g60
(dp1365
sg69
g1005
sg62
(lp1366
g55
(g76
g57
NtRp1367
(dp1368
g60
(dp1369
g80
g81
ssg69
g1363
sg62
(lp1370
S'is_jython'
p1371
asbag55
(g76
g57
NtRp1372
(dp1373
g60
(dp1374
g87
g88
ssg69
g1363
sg62
(lp1375
S':'
asbag55
(g76
g57
NtRp1376
(dp1377
g60
(dp1378
sg69
g1363
sg62
(lp1379
g55
(g56
g57
NtRp1380
(dp1381
g60
(dp1382
g68
I4
ssg69
g1376
sg62
(lp1383
g98
asbasbasbag55
(g71
g57
NtRp1384
(dp1385
g60
(dp1386
sg69
g1005
sg62
(lp1387
g55
(g76
g57
NtRp1388
(dp1389
g60
(dp1390
g80
g81
ssg69
g1384
sg62
(lp1391
S'is_pypy'
p1392
asbag55
(g76
g57
NtRp1393
(dp1394
g60
(dp1395
g87
g88
ssg69
g1384
sg62
(lp1396
S':'
asbag55
(g76
g57
NtRp1397
(dp1398
g60
(dp1399
sg69
g1384
sg62
(lp1400
g55
(g56
g57
NtRp1401
(dp1402
g60
(dp1403
g68
I4
ssg69
g1397
sg62
(lp1404
g98
asbasbasbag55
(g71
g57
NtRp1405
(dp1406
g60
(dp1407
sg69
g1005
sg62
(lp1408
g55
(g76
g57
NtRp1409
(dp1410
g60
(dp1411
g80
g81
ssg69
g1405
sg62
(lp1412
S'path_info'
p1413
asbag55
(g76
g57
NtRp1414
(dp1415
g60
(dp1416
g87
g88
ssg69
g1405
sg62
(lp1417
S':'
asbag55
(g76
g57
NtRp1418
(dp1419
g60
(dp1420
sg69
g1405
sg62
(lp1421
g55
(g56
g57
NtRp1422
(dp1423
g60
(dp1424
g68
I4
ssg69
g1418
sg62
(lp1425
S'/paideia/exploring/index'
p1426
asbasbasbag55
(g71
g57
NtRp1427
(dp1428
g60
(dp1429
sg69
g1005
sg62
(lp1430
g55
(g76
g57
NtRp1431
(dp1432
g60
(dp1433
g80
g81
ssg69
g1427
sg62
(lp1434
S'query_string'
p1435
asbag55
(g76
g57
NtRp1436
(dp1437
g60
(dp1438
g87
g88
ssg69
g1427
sg62
(lp1439
S':'
asbag55
(g76
g57
NtRp1440
(dp1441
g60
(dp1442
sg69
g1427
sg62
(lp1443
g55
(g56
g57
NtRp1444
(dp1445
g60
(dp1446
g68
I4
ssg69
g1440
sg62
(lp1447
S''
asbasbasbag55
(g71
g57
NtRp1448
(dp1449
g60
(dp1450
sg69
g1005
sg62
(lp1451
g55
(g76
g57
NtRp1452
(dp1453
g60
(dp1454
g80
g81
ssg69
g1448
sg62
(lp1455
S'remote_addr'
p1456
asbag55
(g76
g57
NtRp1457
(dp1458
g60
(dp1459
g87
g88
ssg69
g1448
sg62
(lp1460
S':'
asbag55
(g76
g57
NtRp1461
(dp1462
g60
(dp1463
sg69
g1448
sg62
(lp1464
g55
(g56
g57
NtRp1465
(dp1466
g60
(dp1467
g68
I4
ssg69
g1461
sg62
(lp1468
g188
asbasbasbag55
(g71
g57
NtRp1469
(dp1470
g60
(dp1471
sg69
g1005
sg62
(lp1472
g55
(g76
g57
NtRp1473
(dp1474
g60
(dp1475
g80
g81
ssg69
g1469
sg62
(lp1476
S'remote_port'
p1477
asbag55
(g76
g57
NtRp1478
(dp1479
g60
(dp1480
g87
g88
ssg69
g1469
sg62
(lp1481
S':'
asbag55
(g76
g57
NtRp1482
(dp1483
g60
(dp1484
sg69
g1469
sg62
(lp1485
g55
(g56
g57
NtRp1486
(dp1487
g60
(dp1488
g68
I4
ssg69
g1482
sg62
(lp1489
S'43254'
p1490
asbasbasbag55
(g71
g57
NtRp1491
(dp1492
g60
(dp1493
sg69
g1005
sg62
(lp1494
g55
(g76
g57
NtRp1495
(dp1496
g60
(dp1497
g80
g81
ssg69
g1491
sg62
(lp1498
S'request_method'
p1499
asbag55
(g76
g57
NtRp1500
(dp1501
g60
(dp1502
g87
g88
ssg69
g1491
sg62
(lp1503
S':'
asbag55
(g76
g57
NtRp1504
(dp1505
g60
(dp1506
sg69
g1491
sg62
(lp1507
g55
(g56
g57
NtRp1508
(dp1509
g60
(dp1510
g68
I4
ssg69
g1504
sg62
(lp1511
S'GET'
p1512
asbasbasbag55
(g71
g57
NtRp1513
(dp1514
g60
(dp1515
sg69
g1005
sg62
(lp1516
g55
(g76
g57
NtRp1517
(dp1518
g60
(dp1519
g80
g81
ssg69
g1513
sg62
(lp1520
S'script_name'
p1521
asbag55
(g76
g57
NtRp1522
(dp1523
g60
(dp1524
g87
g88
ssg69
g1513
sg62
(lp1525
S':'
asbag55
(g76
g57
NtRp1526
(dp1527
g60
(dp1528
sg69
g1513
sg62
(lp1529
g55
(g56
g57
NtRp1530
(dp1531
g60
(dp1532
g68
I4
ssg69
g1526
sg62
(lp1533
S''
asbasbasbag55
(g71
g57
NtRp1534
(dp1535
g60
(dp1536
sg69
g1005
sg62
(lp1537
g55
(g76
g57
NtRp1538
(dp1539
g60
(dp1540
g80
g81
ssg69
g1534
sg62
(lp1541
S'server_name'
p1542
asbag55
(g76
g57
NtRp1543
(dp1544
g60
(dp1545
g87
g88
ssg69
g1534
sg62
(lp1546
S':'
asbag55
(g76
g57
NtRp1547
(dp1548
g60
(dp1549
sg69
g1534
sg62
(lp1550
g55
(g56
g57
NtRp1551
(dp1552
g60
(dp1553
g68
I4
ssg69
g1547
sg62
(lp1554
S'uriel'
p1555
asbasbasbag55
(g71
g57
NtRp1556
(dp1557
g60
(dp1558
sg69
g1005
sg62
(lp1559
g55
(g76
g57
NtRp1560
(dp1561
g60
(dp1562
g80
g81
ssg69
g1556
sg62
(lp1563
S'server_port'
p1564
asbag55
(g76
g57
NtRp1565
(dp1566
g60
(dp1567
g87
g88
ssg69
g1556
sg62
(lp1568
S':'
asbag55
(g76
g57
NtRp1569
(dp1570
g60
(dp1571
sg69
g1556
sg62
(lp1572
g55
(g56
g57
NtRp1573
(dp1574
g60
(dp1575
g68
I4
ssg69
g1569
sg62
(lp1576
S'8000'
p1577
asbasbasbag55
(g71
g57
NtRp1578
(dp1579
g60
(dp1580
sg69
g1005
sg62
(lp1581
g55
(g76
g57
NtRp1582
(dp1583
g60
(dp1584
g80
g81
ssg69
g1578
sg62
(lp1585
S'server_protocol'
p1586
asbag55
(g76
g57
NtRp1587
(dp1588
g60
(dp1589
g87
g88
ssg69
g1578
sg62
(lp1590
S':'
asbag55
(g76
g57
NtRp1591
(dp1592
g60
(dp1593
sg69
g1578
sg62
(lp1594
g55
(g56
g57
NtRp1595
(dp1596
g60
(dp1597
g68
I4
ssg69
g1591
sg62
(lp1598
S'HTTP/1.1'
p1599
asbasbasbag55
(g71
g57
NtRp1600
(dp1601
g60
(dp1602
sg69
g1005
sg62
(lp1603
g55
(g76
g57
NtRp1604
(dp1605
g60
(dp1606
g80
g81
ssg69
g1600
sg62
(lp1607
S'server_software'
p1608
asbag55
(g76
g57
NtRp1609
(dp1610
g60
(dp1611
g87
g88
ssg69
g1600
sg62
(lp1612
S':'
asbag55
(g76
g57
NtRp1613
(dp1614
g60
(dp1615
sg69
g1600
sg62
(lp1616
g55
(g56
g57
NtRp1617
(dp1618
g60
(dp1619
g68
I4
ssg69
g1613
sg62
(lp1620
S'Rocket 1.2.4'
p1621
asbasbasbag55
(g71
g57
NtRp1622
(dp1623
g60
(dp1624
sg69
g1005
sg62
(lp1625
g55
(g76
g57
NtRp1626
(dp1627
g60
(dp1628
g80
g81
ssg69
g1622
sg62
(lp1629
S'web2py_crontype'
p1630
asbag55
(g76
g57
NtRp1631
(dp1632
g60
(dp1633
g87
g88
ssg69
g1622
sg62
(lp1634
S':'
asbag55
(g76
g57
NtRp1635
(dp1636
g60
(dp1637
sg69
g1622
sg62
(lp1638
g55
(g56
g57
NtRp1639
(dp1640
g60
(dp1641
g68
I4
ssg69
g1635
sg62
(lp1642
S'hard'
p1643
asbasbasbag55
(g71
g57
NtRp1644
(dp1645
g60
(dp1646
sg69
g1005
sg62
(lp1647
g55
(g76
g57
NtRp1648
(dp1649
g60
(dp1650
g80
g81
ssg69
g1644
sg62
(lp1651
S'web2py_path'
p1652
asbag55
(g76
g57
NtRp1653
(dp1654
g60
(dp1655
g87
g88
ssg69
g1644
sg62
(lp1656
S':'
asbag55
(g76
g57
NtRp1657
(dp1658
g60
(dp1659
sg69
g1644
sg62
(lp1660
g55
(g56
g57
NtRp1661
(dp1662
g60
(dp1663
g68
I4
ssg69
g1657
sg62
(lp1664
g1052
asbasbasbag55
(g71
g57
NtRp1665
(dp1666
g60
(dp1667
sg69
g1005
sg62
(lp1668
g55
(g76
g57
NtRp1669
(dp1670
g60
(dp1671
g80
g81
ssg69
g1665
sg62
(lp1672
S'web2py_version'
p1673
asbag55
(g76
g57
NtRp1674
(dp1675
g60
(dp1676
g87
g88
ssg69
g1665
sg62
(lp1677
S':'
asbag55
(g76
g57
NtRp1678
(dp1679
g60
(dp1680
sg69
g1665
sg62
(lp1681
g55
(g56
g57
NtRp1682
(dp1683
g60
(dp1684
g68
I4
ssg69
g1678
sg62
(lp1685
g55
(g64
g57
NtRp1686
(dp1687
g60
(dp1688
g68
I3
ssg69
Nsg62
(lp1689
g55
(g71
g57
NtRp1690
(dp1691
g60
(dp1692
sg69
g1686
sg62
(lp1693
g55
(g76
g57
NtRp1694
(dp1695
g60
(dp1696
sg69
g1690
sg62
(lp1697
g55
(g56
g57
NtRp1698
(dp1699
g60
(dp1700
g68
I3
ssg69
g1694
sg62
(lp1701
S'1'
asbasbasbag55
(g71
g57
NtRp1702
(dp1703
g60
(dp1704
sg69
g1686
sg62
(lp1705
g55
(g76
g57
NtRp1706
(dp1707
g60
(dp1708
sg69
g1702
sg62
(lp1709
g55
(g56
g57
NtRp1710
(dp1711
g60
(dp1712
g68
I3
ssg69
g1706
sg62
(lp1713
S'99'
p1714
asbasbasbag55
(g71
g57
NtRp1715
(dp1716
g60
(dp1717
sg69
g1686
sg62
(lp1718
g55
(g76
g57
NtRp1719
(dp1720
g60
(dp1721
sg69
g1715
sg62
(lp1722
g55
(g56
g57
NtRp1723
(dp1724
g60
(dp1725
g68
I3
ssg69
g1719
sg62
(lp1726
S'4'
asbasbasbag55
(g71
g57
NtRp1727
(dp1728
g60
(dp1729
sg69
g1686
sg62
(lp1730
g55
(g76
g57
NtRp1731
(dp1732
g60
(dp1733
sg69
g1727
sg62
(lp1734
g55
(g56
g57
NtRp1735
(dp1736
g60
(dp1737
g68
I3
ssg69
g1731
sg62
(lp1738
S'datetime.datetime(2011, 12, 14, 14, 46, 14)'
p1739
asbasbasbag55
(g71
g57
NtRp1740
(dp1741
g60
(dp1742
sg69
g1686
sg62
(lp1743
g55
(g76
g57
NtRp1744
(dp1745
g60
(dp1746
sg69
g1740
sg62
(lp1747
g55
(g56
g57
NtRp1748
(dp1749
g60
(dp1750
g68
I3
ssg69
g1744
sg62
(lp1751
S'stable'
p1752
asbasbasbasbasbasbasbag55
(g71
g57
NtRp1753
(dp1754
g60
(dp1755
sg69
g1005
sg62
(lp1756
g55
(g76
g57
NtRp1757
(dp1758
g60
(dp1759
g80
g81
ssg69
g1753
sg62
(lp1760
S'wsgi_errors'
p1761
asbag55
(g76
g57
NtRp1762
(dp1763
g60
(dp1764
g87
g88
ssg69
g1753
sg62
(lp1765
S':'
asbag55
(g76
g57
NtRp1766
(dp1767
g60
(dp1768
sg69
g1753
sg62
(lp1769
g55
(g56
g57
NtRp1770
(dp1771
g60
(dp1772
g68
I4
ssg69
g1766
sg62
(lp1773
S"<open file '<stderr>', mode 'w' at 0x7f89dd6d5270>"
p1774
asbasbasbag55
(g71
g57
NtRp1775
(dp1776
g60
(dp1777
sg69
g1005
sg62
(lp1778
g55
(g76
g57
NtRp1779
(dp1780
g60
(dp1781
g80
g81
ssg69
g1775
sg62
(lp1782
S'wsgi_file_wrapper'
p1783
asbag55
(g76
g57
NtRp1784
(dp1785
g60
(dp1786
g87
g88
ssg69
g1775
sg62
(lp1787
S':'
asbag55
(g76
g57
NtRp1788
(dp1789
g60
(dp1790
sg69
g1775
sg62
(lp1791
g55
(g56
g57
NtRp1792
(dp1793
g60
(dp1794
g68
I4
ssg69
g1788
sg62
(lp1795
S'<class wsgiref.util.FileWrapper at 0x1902d50>'
p1796
asbasbasbag55
(g71
g57
NtRp1797
(dp1798
g60
(dp1799
sg69
g1005
sg62
(lp1800
g55
(g76
g57
NtRp1801
(dp1802
g60
(dp1803
g80
g81
ssg69
g1797
sg62
(lp1804
S'wsgi_input'
p1805
asbag55
(g76
g57
NtRp1806
(dp1807
g60
(dp1808
g87
g88
ssg69
g1797
sg62
(lp1809
S':'
asbag55
(g76
g57
NtRp1810
(dp1811
g60
(dp1812
sg69
g1797
sg62
(lp1813
g55
(g56
g57
NtRp1814
(dp1815
g60
(dp1816
g68
I4
ssg69
g1810
sg62
(lp1817
S'<socket._fileobject object at 0x7f89c01df250>'
p1818
asbasbasbag55
(g71
g57
NtRp1819
(dp1820
g60
(dp1821
sg69
g1005
sg62
(lp1822
g55
(g76
g57
NtRp1823
(dp1824
g60
(dp1825
g80
g81
ssg69
g1819
sg62
(lp1826
S'wsgi_multiprocess'
p1827
asbag55
(g76
g57
NtRp1828
(dp1829
g60
(dp1830
g87
g88
ssg69
g1819
sg62
(lp1831
S':'
asbag55
(g76
g57
NtRp1832
(dp1833
g60
(dp1834
sg69
g1819
sg62
(lp1835
g55
(g56
g57
NtRp1836
(dp1837
g60
(dp1838
g68
I4
ssg69
g1832
sg62
(lp1839
g98
asbasbasbag55
(g71
g57
NtRp1840
(dp1841
g60
(dp1842
sg69
g1005
sg62
(lp1843
g55
(g76
g57
NtRp1844
(dp1845
g60
(dp1846
g80
g81
ssg69
g1840
sg62
(lp1847
S'wsgi_multithread'
p1848
asbag55
(g76
g57
NtRp1849
(dp1850
g60
(dp1851
g87
g88
ssg69
g1840
sg62
(lp1852
S':'
asbag55
(g76
g57
NtRp1853
(dp1854
g60
(dp1855
sg69
g1840
sg62
(lp1856
g55
(g56
g57
NtRp1857
(dp1858
g60
(dp1859
g68
I4
ssg69
g1853
sg62
(lp1860
S'True'
p1861
asbasbasbag55
(g71
g57
NtRp1862
(dp1863
g60
(dp1864
sg69
g1005
sg62
(lp1865
g55
(g76
g57
NtRp1866
(dp1867
g60
(dp1868
g80
g81
ssg69
g1862
sg62
(lp1869
S'wsgi_run_once'
p1870
asbag55
(g76
g57
NtRp1871
(dp1872
g60
(dp1873
g87
g88
ssg69
g1862
sg62
(lp1874
S':'
asbag55
(g76
g57
NtRp1875
(dp1876
g60
(dp1877
sg69
g1862
sg62
(lp1878
g55
(g56
g57
NtRp1879
(dp1880
g60
(dp1881
g68
I4
ssg69
g1875
sg62
(lp1882
g98
asbasbasbag55
(g71
g57
NtRp1883
(dp1884
g60
(dp1885
sg69
g1005
sg62
(lp1886
g55
(g76
g57
NtRp1887
(dp1888
g60
(dp1889
g80
g81
ssg69
g1883
sg62
(lp1890
S'wsgi_url_scheme'
p1891
asbag55
(g76
g57
NtRp1892
(dp1893
g60
(dp1894
g87
g88
ssg69
g1883
sg62
(lp1895
S':'
asbag55
(g76
g57
NtRp1896
(dp1897
g60
(dp1898
sg69
g1883
sg62
(lp1899
g55
(g56
g57
NtRp1900
(dp1901
g60
(dp1902
g68
I4
ssg69
g1896
sg62
(lp1903
S'http'
p1904
asbasbasbag55
(g71
g57
NtRp1905
(dp1906
g60
(dp1907
sg69
g1005
sg62
(lp1908
g55
(g76
g57
NtRp1909
(dp1910
g60
(dp1911
g80
g81
ssg69
g1905
sg62
(lp1912
S'wsgi_version'
p1913
asbag55
(g76
g57
NtRp1914
(dp1915
g60
(dp1916
g87
g88
ssg69
g1905
sg62
(lp1917
S':'
asbag55
(g76
g57
NtRp1918
(dp1919
g60
(dp1920
sg69
g1905
sg62
(lp1921
g55
(g56
g57
NtRp1922
(dp1923
g60
(dp1924
g68
I4
ssg69
g1918
sg62
(lp1925
g55
(g64
g57
NtRp1926
(dp1927
g60
(dp1928
g68
I3
ssg69
Nsg62
(lp1929
g55
(g71
g57
NtRp1930
(dp1931
g60
(dp1932
sg69
g1926
sg62
(lp1933
g55
(g76
g57
NtRp1934
(dp1935
g60
(dp1936
sg69
g1930
sg62
(lp1937
g55
(g56
g57
NtRp1938
(dp1939
g60
(dp1940
g68
I3
ssg69
g1934
sg62
(lp1941
S'1'
asbasbasbag55
(g71
g57
NtRp1942
(dp1943
g60
(dp1944
sg69
g1926
sg62
(lp1945
g55
(g76
g57
NtRp1946
(dp1947
g60
(dp1948
sg69
g1942
sg62
(lp1949
g55
(g56
g57
NtRp1950
(dp1951
g60
(dp1952
g68
I3
ssg69
g1946
sg62
(lp1953
S'0'
asbasbasbasbasbasbasbasbasbasbasbag55
(g71
g57
NtRp1954
(dp1955
g60
(dp1956
sg69
g65
sg62
(lp1957
g55
(g76
g57
NtRp1958
(dp1959
g60
(dp1960
g80
g81
ssg69
g1954
sg62
(lp1961
S'extension'
p1962
asbag55
(g76
g57
NtRp1963
(dp1964
g60
(dp1965
g87
g88
ssg69
g1954
sg62
(lp1966
S':'
asbag55
(g76
g57
NtRp1967
(dp1968
g60
(dp1969
sg69
g1954
sg62
(lp1970
g55
(g56
g57
NtRp1971
(dp1972
g60
(dp1973
g68
I5
ssg69
g1967
sg62
(lp1974
S'html'
p1975
asbasbasbag55
(g71
g57
NtRp1976
(dp1977
g60
(dp1978
sg69
g65
sg62
(lp1979
g55
(g76
g57
NtRp1980
(dp1981
g60
(dp1982
g80
g81
ssg69
g1976
sg62
(lp1983
S'folder'
p1984
asbag55
(g76
g57
NtRp1985
(dp1986
g60
(dp1987
g87
g88
ssg69
g1976
sg62
(lp1988
S':'
asbag55
(g76
g57
NtRp1989
(dp1990
g60
(dp1991
sg69
g1976
sg62
(lp1992
g55
(g56
g57
NtRp1993
(dp1994
g60
(dp1995
g68
I5
ssg69
g1989
sg62
(lp1996
S'/home/ian/web/web2py/applications/paideia/'
p1997
asbasbasbag55
(g71
g57
NtRp1998
(dp1999
g60
(dp2000
sg69
g65
sg62
(lp2001
g55
(g76
g57
NtRp2002
(dp2003
g60
(dp2004
g80
g81
ssg69
g1998
sg62
(lp2005
S'function'
p2006
asbag55
(g76
g57
NtRp2007
(dp2008
g60
(dp2009
g87
g88
ssg69
g1998
sg62
(lp2010
S':'
asbag55
(g76
g57
NtRp2011
(dp2012
g60
(dp2013
sg69
g1998
sg62
(lp2014
g55
(g56
g57
NtRp2015
(dp2016
g60
(dp2017
g68
I5
ssg69
g2011
sg62
(lp2018
S'index'
p2019
asbasbasbag55
(g71
g57
NtRp2020
(dp2021
g60
(dp2022
sg69
g65
sg62
(lp2023
g55
(g76
g57
NtRp2024
(dp2025
g60
(dp2026
g80
g81
ssg69
g2020
sg62
(lp2027
S'get_vars'
p2028
asbag55
(g76
g57
NtRp2029
(dp2030
g60
(dp2031
g87
g88
ssg69
g2020
sg62
(lp2032
S':'
asbag55
(g76
g57
NtRp2033
(dp2034
g60
(dp2035
sg69
g2020
sg62
(lp2036
g55
(g56
g57
NtRp2037
(dp2038
g60
(dp2039
g68
I5
ssg69
g2033
sg62
(lp2040
g55
(g64
g57
NtRp2041
(dp2042
g60
(dp2043
g68
I4
ssg69
Nsg62
(lp2044
sbasbasbasbag55
(g71
g57
NtRp2045
(dp2046
g60
(dp2047
sg69
g65
sg62
(lp2048
g55
(g76
g57
NtRp2049
(dp2050
g60
(dp2051
g80
g81
ssg69
g2045
sg62
(lp2052
S'global_settings'
p2053
asbag55
(g76
g57
NtRp2054
(dp2055
g60
(dp2056
g87
g88
ssg69
g2045
sg62
(lp2057
S':'
asbag55
(g76
g57
NtRp2058
(dp2059
g60
(dp2060
sg69
g2045
sg62
(lp2061
g55
(g56
g57
NtRp2062
(dp2063
g60
(dp2064
g68
I5
ssg69
g2058
sg62
(lp2065
g55
(g64
g57
NtRp2066
(dp2067
g60
(dp2068
g68
I4
ssg69
Nsg62
(lp2069
g55
(g71
g57
NtRp2070
(dp2071
g60
(dp2072
sg69
g2066
sg62
(lp2073
g55
(g76
g57
NtRp2074
(dp2075
g60
(dp2076
g80
g81
ssg69
g2070
sg62
(lp2077
g1017
asbag55
(g76
g57
NtRp2078
(dp2079
g60
(dp2080
g87
g88
ssg69
g2070
sg62
(lp2081
S':'
asbag55
(g76
g57
NtRp2082
(dp2083
g60
(dp2084
sg69
g2070
sg62
(lp2085
g55
(g56
g57
NtRp2086
(dp2087
g60
(dp2088
g68
I4
ssg69
g2082
sg62
(lp2089
S"set(['/home/ian/web/web2py/applications/welcome/', '/home/ian/web/web2py/applications/paideia/', '/home/ian/web/web2py/applications/admin/'])"
p2090
asbasbasbag55
(g71
g57
NtRp2091
(dp2092
g60
(dp2093
sg69
g2066
sg62
(lp2094
g55
(g76
g57
NtRp2095
(dp2096
g60
(dp2097
g80
g81
ssg69
g2091
sg62
(lp2098
g1039
asbag55
(g76
g57
NtRp2099
(dp2100
g60
(dp2101
g87
g88
ssg69
g2091
sg62
(lp2102
S':'
asbag55
(g76
g57
NtRp2103
(dp2104
g60
(dp2105
sg69
g2091
sg62
(lp2106
g55
(g56
g57
NtRp2107
(dp2108
g60
(dp2109
g68
I4
ssg69
g2103
sg62
(lp2110
g1052
asbasbasbag55
(g71
g57
NtRp2111
(dp2112
g60
(dp2113
sg69
g2066
sg62
(lp2114
g55
(g76
g57
NtRp2115
(dp2116
g60
(dp2117
g80
g81
ssg69
g2111
sg62
(lp2118
g1061
asbag55
(g76
g57
NtRp2119
(dp2120
g60
(dp2121
g87
g88
ssg69
g2111
sg62
(lp2122
S':'
asbag55
(g76
g57
NtRp2123
(dp2124
g60
(dp2125
sg69
g2111
sg62
(lp2126
g55
(g56
g57
NtRp2127
(dp2128
g60
(dp2129
g68
I4
ssg69
g2123
sg62
(lp2130
g55
(g64
g57
NtRp2131
(dp2132
g60
(dp2133
g68
I3
ssg69
Nsg62
(lp2134
sbasbasbasbag55
(g71
g57
NtRp2135
(dp2136
g60
(dp2137
sg69
g2066
sg62
(lp2138
g55
(g76
g57
NtRp2139
(dp2140
g60
(dp2141
g80
g81
ssg69
g2135
sg62
(lp2142
g1086
asbag55
(g76
g57
NtRp2143
(dp2144
g60
(dp2145
g87
g88
ssg69
g2135
sg62
(lp2146
S':'
asbag55
(g76
g57
NtRp2147
(dp2148
g60
(dp2149
sg69
g2135
sg62
(lp2150
g55
(g56
g57
NtRp2151
(dp2152
g60
(dp2153
g68
I4
ssg69
g2147
sg62
(lp2154
S"<Values at 0x1a38758: {'verbose': False, 'ip': '127.0.0.1', 'shutdown_timeout': 5, 'taskbar': False, 'nocron': False, 'pid_filename': 'httpserver.pid', 'maxthreads': None, 'softcron': False, 'server_name': 'uriel', 'bpython': False, 'nogui': False, 'port': 8000, 'extcron': False, 'debuglevel': 30, 'test': None, 'folder': '/home/ian/web/web2py', 'config': '', 'import_models': False, 'winservice': '', 'shell': None, 'run': '', 'log_filename': 'httpserver.log', 'args': [''], 'socket_timeout': 1, 'ssl_ca_certificate': None, 'scheduler': None, 'profiler_filename': None, 'ssl_private_key': '', 'password': '<ask>', 'request_queue_size': 5, 'ssl_certificate': '', 'cronjob': False, 'numthreads': None, 'quiet': False, 'interfaces': None, 'minthreads': None, 'timeout': 10, 'plain': False, 'nobanner': False}>"
p2155
asbasbasbag55
(g71
g57
NtRp2156
(dp2157
g60
(dp2158
sg69
g2066
sg62
(lp2159
g55
(g76
g57
NtRp2160
(dp2161
g60
(dp2162
g80
g81
ssg69
g2156
sg62
(lp2163
g1108
asbag55
(g76
g57
NtRp2164
(dp2165
g60
(dp2166
g87
g88
ssg69
g2156
sg62
(lp2167
S':'
asbag55
(g76
g57
NtRp2168
(dp2169
g60
(dp2170
sg69
g2156
sg62
(lp2171
g55
(g56
g57
NtRp2172
(dp2173
g60
(dp2174
g68
I4
ssg69
g2168
sg62
(lp2175
S'set([])'
p2176
asbasbasbag55
(g71
g57
NtRp2177
(dp2178
g60
(dp2179
sg69
g2066
sg62
(lp2180
g55
(g76
g57
NtRp2181
(dp2182
g60
(dp2183
g80
g81
ssg69
g2177
sg62
(lp2184
g1130
asbag55
(g76
g57
NtRp2185
(dp2186
g60
(dp2187
g87
g88
ssg69
g2177
sg62
(lp2188
S':'
asbag55
(g76
g57
NtRp2189
(dp2190
g60
(dp2191
sg69
g2177
sg62
(lp2192
g55
(g56
g57
NtRp2193
(dp2194
g60
(dp2195
g68
I4
ssg69
g2189
sg62
(lp2196
g98
asbasbasbag55
(g71
g57
NtRp2197
(dp2198
g60
(dp2199
sg69
g2066
sg62
(lp2200
g55
(g76
g57
NtRp2201
(dp2202
g60
(dp2203
g80
g81
ssg69
g2197
sg62
(lp2204
g1151
asbag55
(g76
g57
NtRp2205
(dp2206
g60
(dp2207
g87
g88
ssg69
g2197
sg62
(lp2208
S':'
asbag55
(g76
g57
NtRp2209
(dp2210
g60
(dp2211
sg69
g2197
sg62
(lp2212
g55
(g56
g57
NtRp2213
(dp2214
g60
(dp2215
g68
I4
ssg69
g2209
sg62
(lp2216
g1164
asbasbasbag55
(g71
g57
NtRp2217
(dp2218
g60
(dp2219
sg69
g2066
sg62
(lp2220
g55
(g76
g57
NtRp2221
(dp2222
g60
(dp2223
g80
g81
ssg69
g2217
sg62
(lp2224
g1371
asbag55
(g76
g57
NtRp2225
(dp2226
g60
(dp2227
g87
g88
ssg69
g2217
sg62
(lp2228
S':'
asbag55
(g76
g57
NtRp2229
(dp2230
g60
(dp2231
sg69
g2217
sg62
(lp2232
g55
(g56
g57
NtRp2233
(dp2234
g60
(dp2235
g68
I4
ssg69
g2229
sg62
(lp2236
g98
asbasbasbag55
(g71
g57
NtRp2237
(dp2238
g60
(dp2239
sg69
g2066
sg62
(lp2240
g55
(g76
g57
NtRp2241
(dp2242
g60
(dp2243
g80
g81
ssg69
g2237
sg62
(lp2244
g1392
asbag55
(g76
g57
NtRp2245
(dp2246
g60
(dp2247
g87
g88
ssg69
g2237
sg62
(lp2248
S':'
asbag55
(g76
g57
NtRp2249
(dp2250
g60
(dp2251
sg69
g2237
sg62
(lp2252
g55
(g56
g57
NtRp2253
(dp2254
g60
(dp2255
g68
I4
ssg69
g2249
sg62
(lp2256
g98
asbasbasbag55
(g71
g57
NtRp2257
(dp2258
g60
(dp2259
sg69
g2066
sg62
(lp2260
g55
(g76
g57
NtRp2261
(dp2262
g60
(dp2263
g80
g81
ssg69
g2257
sg62
(lp2264
g1630
asbag55
(g76
g57
NtRp2265
(dp2266
g60
(dp2267
g87
g88
ssg69
g2257
sg62
(lp2268
S':'
asbag55
(g76
g57
NtRp2269
(dp2270
g60
(dp2271
sg69
g2257
sg62
(lp2272
g55
(g56
g57
NtRp2273
(dp2274
g60
(dp2275
g68
I4
ssg69
g2269
sg62
(lp2276
g1643
asbasbasbag55
(g71
g57
NtRp2277
(dp2278
g60
(dp2279
sg69
g2066
sg62
(lp2280
g55
(g76
g57
NtRp2281
(dp2282
g60
(dp2283
g80
g81
ssg69
g2277
sg62
(lp2284
g1673
asbag55
(g76
g57
NtRp2285
(dp2286
g60
(dp2287
g87
g88
ssg69
g2277
sg62
(lp2288
S':'
asbag55
(g76
g57
NtRp2289
(dp2290
g60
(dp2291
sg69
g2277
sg62
(lp2292
g55
(g56
g57
NtRp2293
(dp2294
g60
(dp2295
g68
I4
ssg69
g2289
sg62
(lp2296
g55
(g64
g57
NtRp2297
(dp2298
g60
(dp2299
g68
I3
ssg69
Nsg62
(lp2300
g55
(g71
g57
NtRp2301
(dp2302
g60
(dp2303
sg69
g2297
sg62
(lp2304
g55
(g76
g57
NtRp2305
(dp2306
g60
(dp2307
sg69
g2301
sg62
(lp2308
g55
(g56
g57
NtRp2309
(dp2310
g60
(dp2311
g68
I3
ssg69
g2305
sg62
(lp2312
S'1'
asbasbasbag55
(g71
g57
NtRp2313
(dp2314
g60
(dp2315
sg69
g2297
sg62
(lp2316
g55
(g76
g57
NtRp2317
(dp2318
g60
(dp2319
sg69
g2313
sg62
(lp2320
g55
(g56
g57
NtRp2321
(dp2322
g60
(dp2323
g68
I3
ssg69
g2317
sg62
(lp2324
S'99'
p2325
asbasbasbag55
(g71
g57
NtRp2326
(dp2327
g60
(dp2328
sg69
g2297
sg62
(lp2329
g55
(g76
g57
NtRp2330
(dp2331
g60
(dp2332
sg69
g2326
sg62
(lp2333
g55
(g56
g57
NtRp2334
(dp2335
g60
(dp2336
g68
I3
ssg69
g2330
sg62
(lp2337
S'4'
asbasbasbag55
(g71
g57
NtRp2338
(dp2339
g60
(dp2340
sg69
g2297
sg62
(lp2341
g55
(g76
g57
NtRp2342
(dp2343
g60
(dp2344
sg69
g2338
sg62
(lp2345
g55
(g56
g57
NtRp2346
(dp2347
g60
(dp2348
g68
I3
ssg69
g2342
sg62
(lp2349
S'datetime.datetime(2011, 12, 14, 14, 46, 14)'
p2350
asbasbasbag55
(g71
g57
NtRp2351
(dp2352
g60
(dp2353
sg69
g2297
sg62
(lp2354
g55
(g76
g57
NtRp2355
(dp2356
g60
(dp2357
sg69
g2351
sg62
(lp2358
g55
(g56
g57
NtRp2359
(dp2360
g60
(dp2361
g68
I3
ssg69
g2355
sg62
(lp2362
g1752
asbasbasbasbasbasbasbasbasbasbasbag55
(g71
g57
NtRp2363
(dp2364
g60
(dp2365
sg69
g65
sg62
(lp2366
g55
(g76
g57
NtRp2367
(dp2368
g60
(dp2369
g80
g81
ssg69
g2363
sg62
(lp2370
S'is_https'
p2371
asbag55
(g76
g57
NtRp2372
(dp2373
g60
(dp2374
g87
g88
ssg69
g2363
sg62
(lp2375
S':'
asbag55
(g76
g57
NtRp2376
(dp2377
g60
(dp2378
sg69
g2363
sg62
(lp2379
g55
(g56
g57
NtRp2380
(dp2381
g60
(dp2382
g68
I5
ssg69
g2376
sg62
(lp2383
g98
asbasbasbag55
(g71
g57
NtRp2384
(dp2385
g60
(dp2386
sg69
g65
sg62
(lp2387
g55
(g76
g57
NtRp2388
(dp2389
g60
(dp2390
g80
g81
ssg69
g2384
sg62
(lp2391
S'is_local'
p2392
asbag55
(g76
g57
NtRp2393
(dp2394
g60
(dp2395
g87
g88
ssg69
g2384
sg62
(lp2396
S':'
asbag55
(g76
g57
NtRp2397
(dp2398
g60
(dp2399
sg69
g2384
sg62
(lp2400
g55
(g56
g57
NtRp2401
(dp2402
g60
(dp2403
g68
I5
ssg69
g2397
sg62
(lp2404
g1861
asbasbasbag55
(g71
g57
NtRp2405
(dp2406
g60
(dp2407
sg69
g65
sg62
(lp2408
g55
(g76
g57
NtRp2409
(dp2410
g60
(dp2411
g80
g81
ssg69
g2405
sg62
(lp2412
S'is_restful'
p2413
asbag55
(g76
g57
NtRp2414
(dp2415
g60
(dp2416
g87
g88
ssg69
g2405
sg62
(lp2417
S':'
asbag55
(g76
g57
NtRp2418
(dp2419
g60
(dp2420
sg69
g2405
sg62
(lp2421
g55
(g56
g57
NtRp2422
(dp2423
g60
(dp2424
g68
I5
ssg69
g2418
sg62
(lp2425
g98
asbasbasbag55
(g71
g57
NtRp2426
(dp2427
g60
(dp2428
sg69
g65
sg62
(lp2429
g55
(g76
g57
NtRp2430
(dp2431
g60
(dp2432
g80
g81
ssg69
g2426
sg62
(lp2433
S'now'
p2434
asbag55
(g76
g57
NtRp2435
(dp2436
g60
(dp2437
g87
g88
ssg69
g2426
sg62
(lp2438
S':'
asbag55
(g76
g57
NtRp2439
(dp2440
g60
(dp2441
sg69
g2426
sg62
(lp2442
g55
(g56
g57
NtRp2443
(dp2444
g60
(dp2445
g68
I5
ssg69
g2439
sg62
(lp2446
S'datetime.datetime(2012, 3, 14, 11, 43, 4, 657418)'
p2447
asbasbasbag55
(g71
g57
NtRp2448
(dp2449
g60
(dp2450
sg69
g65
sg62
(lp2451
g55
(g76
g57
NtRp2452
(dp2453
g60
(dp2454
g80
g81
ssg69
g2448
sg62
(lp2455
S'post_vars'
p2456
asbag55
(g76
g57
NtRp2457
(dp2458
g60
(dp2459
g87
g88
ssg69
g2448
sg62
(lp2460
S':'
asbag55
(g76
g57
NtRp2461
(dp2462
g60
(dp2463
sg69
g2448
sg62
(lp2464
g55
(g56
g57
NtRp2465
(dp2466
g60
(dp2467
g68
I5
ssg69
g2461
sg62
(lp2468
g55
(g64
g57
NtRp2469
(dp2470
g60
(dp2471
g68
I4
ssg69
Nsg62
(lp2472
sbasbasbasbag55
(g71
g57
NtRp2473
(dp2474
g60
(dp2475
sg69
g65
sg62
(lp2476
g55
(g76
g57
NtRp2477
(dp2478
g60
(dp2479
g80
g81
ssg69
g2473
sg62
(lp2480
S'url'
p2481
asbag55
(g76
g57
NtRp2482
(dp2483
g60
(dp2484
g87
g88
ssg69
g2473
sg62
(lp2485
S':'
asbag55
(g76
g57
NtRp2486
(dp2487
g60
(dp2488
sg69
g2473
sg62
(lp2489
g55
(g56
g57
NtRp2490
(dp2491
g60
(dp2492
g68
I5
ssg69
g2486
sg62
(lp2493
S'/paideia/exploring/index'
p2494
asbasbasbag55
(g71
g57
NtRp2495
(dp2496
g60
(dp2497
sg69
g65
sg62
(lp2498
g55
(g76
g57
NtRp2499
(dp2500
g60
(dp2501
g80
g81
ssg69
g2495
sg62
(lp2502
S'utcnow'
p2503
asbag55
(g76
g57
NtRp2504
(dp2505
g60
(dp2506
g87
g88
ssg69
g2495
sg62
(lp2507
S':'
asbag55
(g76
g57
NtRp2508
(dp2509
g60
(dp2510
sg69
g2495
sg62
(lp2511
g55
(g56
g57
NtRp2512
(dp2513
g60
(dp2514
g68
I5
ssg69
g2508
sg62
(lp2515
S'datetime.datetime(2012, 3, 14, 15, 43, 4, 657481)'
p2516
asbasbasbag55
(g71
g57
NtRp2517
(dp2518
g60
(dp2519
sg69
g65
sg62
(lp2520
g55
(g76
g57
NtRp2521
(dp2522
g60
(dp2523
g80
g81
ssg69
g2517
sg62
(lp2524
S'uuid'
p2525
asbag55
(g76
g57
NtRp2526
(dp2527
g60
(dp2528
g87
g88
ssg69
g2517
sg62
(lp2529
S':'
asbag55
(g76
g57
NtRp2530
(dp2531
g60
(dp2532
sg69
g2517
sg62
(lp2533
g55
(g56
g57
NtRp2534
(dp2535
g60
(dp2536
g68
I5
ssg69
g2530
sg62
(lp2537
S'paideia/127.0.0.1.2012-03-14.11-43-04.bc3940e2-7a67-48f6-af34-83e495a44bca'
p2538
asbasbasbag55
(g71
g57
NtRp2539
(dp2540
g60
(dp2541
sg69
g65
sg62
(lp2542
g55
(g76
g57
NtRp2543
(dp2544
g60
(dp2545
g80
g81
ssg69
g2539
sg62
(lp2546
S'vars'
p2547
asbag55
(g76
g57
NtRp2548
(dp2549
g60
(dp2550
g87
g88
ssg69
g2539
sg62
(lp2551
S':'
asbag55
(g76
g57
NtRp2552
(dp2553
g60
(dp2554
sg69
g2539
sg62
(lp2555
g55
(g56
g57
NtRp2556
(dp2557
g60
(dp2558
g68
I5
ssg69
g2552
sg62
(lp2559
g55
(g64
g57
NtRp2560
(dp2561
g60
(dp2562
g68
I4
ssg69
Nsg62
(lp2563
sbasbasbasbag55
(g71
g57
NtRp2564
(dp2565
g60
(dp2566
sg69
g65
sg62
(lp2567
g55
(g76
g57
NtRp2568
(dp2569
g60
(dp2570
g80
g81
ssg69
g2564
sg62
(lp2571
S'wsgi'
p2572
asbag55
(g76
g57
NtRp2573
(dp2574
g60
(dp2575
g87
g88
ssg69
g2564
sg62
(lp2576
S':'
asbag55
(g76
g57
NtRp2577
(dp2578
g60
(dp2579
sg69
g2564
sg62
(lp2580
g55
(g56
g57
NtRp2581
(dp2582
g60
(dp2583
g68
I5
ssg69
g2577
sg62
(lp2584
g55
(g64
g57
NtRp2585
(dp2586
g60
(dp2587
g68
I4
ssg69
Nsg62
(lp2588
g55
(g71
g57
NtRp2589
(dp2590
g60
(dp2591
sg69
g2585
sg62
(lp2592
g55
(g76
g57
NtRp2593
(dp2594
g60
(dp2595
g80
g81
ssg69
g2589
sg62
(lp2596
S'environ'
p2597
asbag55
(g76
g57
NtRp2598
(dp2599
g60
(dp2600
g87
g88
ssg69
g2589
sg62
(lp2601
S':'
asbag55
(g76
g57
NtRp2602
(dp2603
g60
(dp2604
sg69
g2589
sg62
(lp2605
g55
(g56
g57
NtRp2606
(dp2607
g60
(dp2608
g68
I4
ssg69
g2602
sg62
(lp2609
g55
(g64
g57
NtRp2610
(dp2611
g60
(dp2612
g68
I3
ssg69
Nsg62
(lp2613
g55
(g71
g57
NtRp2614
(dp2615
g60
(dp2616
sg69
g2610
sg62
(lp2617
g55
(g76
g57
NtRp2618
(dp2619
g60
(dp2620
g80
g81
ssg69
g2614
sg62
(lp2621
S'HTTP_ACCEPT'
p2622
asbag55
(g76
g57
NtRp2623
(dp2624
g60
(dp2625
g87
g88
ssg69
g2614
sg62
(lp2626
S':'
asbag55
(g76
g57
NtRp2627
(dp2628
g60
(dp2629
sg69
g2614
sg62
(lp2630
g55
(g56
g57
NtRp2631
(dp2632
g60
(dp2633
g68
I3
ssg69
g2627
sg62
(lp2634
g1186
asbasbasbag55
(g71
g57
NtRp2635
(dp2636
g60
(dp2637
sg69
g2610
sg62
(lp2638
g55
(g76
g57
NtRp2639
(dp2640
g60
(dp2641
g80
g81
ssg69
g2635
sg62
(lp2642
S'HTTP_ACCEPT_ENCODING'
p2643
asbag55
(g76
g57
NtRp2644
(dp2645
g60
(dp2646
g87
g88
ssg69
g2635
sg62
(lp2647
S':'
asbag55
(g76
g57
NtRp2648
(dp2649
g60
(dp2650
sg69
g2635
sg62
(lp2651
g55
(g56
g57
NtRp2652
(dp2653
g60
(dp2654
g68
I3
ssg69
g2648
sg62
(lp2655
g1208
asbasbasbag55
(g71
g57
NtRp2656
(dp2657
g60
(dp2658
sg69
g2610
sg62
(lp2659
g55
(g76
g57
NtRp2660
(dp2661
g60
(dp2662
g80
g81
ssg69
g2656
sg62
(lp2663
S'HTTP_ACCEPT_LANGUAGE'
p2664
asbag55
(g76
g57
NtRp2665
(dp2666
g60
(dp2667
g87
g88
ssg69
g2656
sg62
(lp2668
S':'
asbag55
(g76
g57
NtRp2669
(dp2670
g60
(dp2671
sg69
g2656
sg62
(lp2672
g55
(g56
g57
NtRp2673
(dp2674
g60
(dp2675
g68
I3
ssg69
g2669
sg62
(lp2676
g1230
asbasbasbag55
(g71
g57
NtRp2677
(dp2678
g60
(dp2679
sg69
g2610
sg62
(lp2680
g55
(g76
g57
NtRp2681
(dp2682
g60
(dp2683
g80
g81
ssg69
g2677
sg62
(lp2684
S'HTTP_CACHE_CONTROL'
p2685
asbag55
(g76
g57
NtRp2686
(dp2687
g60
(dp2688
g87
g88
ssg69
g2677
sg62
(lp2689
S':'
asbag55
(g76
g57
NtRp2690
(dp2691
g60
(dp2692
sg69
g2677
sg62
(lp2693
g55
(g56
g57
NtRp2694
(dp2695
g60
(dp2696
g68
I3
ssg69
g2690
sg62
(lp2697
g1252
asbasbasbag55
(g71
g57
NtRp2698
(dp2699
g60
(dp2700
sg69
g2610
sg62
(lp2701
g55
(g76
g57
NtRp2702
(dp2703
g60
(dp2704
g80
g81
ssg69
g2698
sg62
(lp2705
S'HTTP_CONNECTION'
p2706
asbag55
(g76
g57
NtRp2707
(dp2708
g60
(dp2709
g87
g88
ssg69
g2698
sg62
(lp2710
S':'
asbag55
(g76
g57
NtRp2711
(dp2712
g60
(dp2713
sg69
g2698
sg62
(lp2714
g55
(g56
g57
NtRp2715
(dp2716
g60
(dp2717
g68
I3
ssg69
g2711
sg62
(lp2718
g1274
asbasbasbag55
(g71
g57
NtRp2719
(dp2720
g60
(dp2721
sg69
g2610
sg62
(lp2722
g55
(g76
g57
NtRp2723
(dp2724
g60
(dp2725
g80
g81
ssg69
g2719
sg62
(lp2726
S'HTTP_COOKIE'
p2727
asbag55
(g76
g57
NtRp2728
(dp2729
g60
(dp2730
g87
g88
ssg69
g2719
sg62
(lp2731
S':'
asbag55
(g76
g57
NtRp2732
(dp2733
g60
(dp2734
sg69
g2719
sg62
(lp2735
g55
(g56
g57
NtRp2736
(dp2737
g60
(dp2738
g68
I3
ssg69
g2732
sg62
(lp2739
g1296
asbasbasbag55
(g71
g57
NtRp2740
(dp2741
g60
(dp2742
sg69
g2610
sg62
(lp2743
g55
(g76
g57
NtRp2744
(dp2745
g60
(dp2746
g80
g81
ssg69
g2740
sg62
(lp2747
S'HTTP_HOST'
p2748
asbag55
(g76
g57
NtRp2749
(dp2750
g60
(dp2751
g87
g88
ssg69
g2740
sg62
(lp2752
S':'
asbag55
(g76
g57
NtRp2753
(dp2754
g60
(dp2755
sg69
g2740
sg62
(lp2756
g55
(g56
g57
NtRp2757
(dp2758
g60
(dp2759
g68
I3
ssg69
g2753
sg62
(lp2760
g1318
asbasbasbag55
(g71
g57
NtRp2761
(dp2762
g60
(dp2763
sg69
g2610
sg62
(lp2764
g55
(g76
g57
NtRp2765
(dp2766
g60
(dp2767
g80
g81
ssg69
g2761
sg62
(lp2768
S'HTTP_REFERER'
p2769
asbag55
(g76
g57
NtRp2770
(dp2771
g60
(dp2772
g87
g88
ssg69
g2761
sg62
(lp2773
S':'
asbag55
(g76
g57
NtRp2774
(dp2775
g60
(dp2776
sg69
g2761
sg62
(lp2777
g55
(g56
g57
NtRp2778
(dp2779
g60
(dp2780
g68
I3
ssg69
g2774
sg62
(lp2781
g1340
asbasbasbag55
(g71
g57
NtRp2782
(dp2783
g60
(dp2784
sg69
g2610
sg62
(lp2785
g55
(g76
g57
NtRp2786
(dp2787
g60
(dp2788
g80
g81
ssg69
g2782
sg62
(lp2789
S'HTTP_USER_AGENT'
p2790
asbag55
(g76
g57
NtRp2791
(dp2792
g60
(dp2793
g87
g88
ssg69
g2782
sg62
(lp2794
S':'
asbag55
(g76
g57
NtRp2795
(dp2796
g60
(dp2797
sg69
g2782
sg62
(lp2798
g55
(g56
g57
NtRp2799
(dp2800
g60
(dp2801
g68
I3
ssg69
g2795
sg62
(lp2802
g1362
asbasbasbag55
(g71
g57
NtRp2803
(dp2804
g60
(dp2805
sg69
g2610
sg62
(lp2806
g55
(g76
g57
NtRp2807
(dp2808
g60
(dp2809
g80
g81
ssg69
g2803
sg62
(lp2810
S'PATH_INFO'
p2811
asbag55
(g76
g57
NtRp2812
(dp2813
g60
(dp2814
g87
g88
ssg69
g2803
sg62
(lp2815
S':'
asbag55
(g76
g57
NtRp2816
(dp2817
g60
(dp2818
sg69
g2803
sg62
(lp2819
g55
(g56
g57
NtRp2820
(dp2821
g60
(dp2822
g68
I3
ssg69
g2816
sg62
(lp2823
g1426
asbasbasbag55
(g71
g57
NtRp2824
(dp2825
g60
(dp2826
sg69
g2610
sg62
(lp2827
g55
(g76
g57
NtRp2828
(dp2829
g60
(dp2830
g80
g81
ssg69
g2824
sg62
(lp2831
S'QUERY_STRING'
p2832
asbag55
(g76
g57
NtRp2833
(dp2834
g60
(dp2835
g87
g88
ssg69
g2824
sg62
(lp2836
S':'
asbag55
(g76
g57
NtRp2837
(dp2838
g60
(dp2839
sg69
g2824
sg62
(lp2840
g55
(g56
g57
NtRp2841
(dp2842
g60
(dp2843
g68
I3
ssg69
g2837
sg62
(lp2844
S''
asbasbasbag55
(g71
g57
NtRp2845
(dp2846
g60
(dp2847
sg69
g2610
sg62
(lp2848
g55
(g76
g57
NtRp2849
(dp2850
g60
(dp2851
g80
g81
ssg69
g2845
sg62
(lp2852
S'REMOTE_ADDR'
p2853
asbag55
(g76
g57
NtRp2854
(dp2855
g60
(dp2856
g87
g88
ssg69
g2845
sg62
(lp2857
S':'
asbag55
(g76
g57
NtRp2858
(dp2859
g60
(dp2860
sg69
g2845
sg62
(lp2861
g55
(g56
g57
NtRp2862
(dp2863
g60
(dp2864
g68
I3
ssg69
g2858
sg62
(lp2865
g188
asbasbasbag55
(g71
g57
NtRp2866
(dp2867
g60
(dp2868
sg69
g2610
sg62
(lp2869
g55
(g76
g57
NtRp2870
(dp2871
g60
(dp2872
g80
g81
ssg69
g2866
sg62
(lp2873
S'REMOTE_PORT'
p2874
asbag55
(g76
g57
NtRp2875
(dp2876
g60
(dp2877
g87
g88
ssg69
g2866
sg62
(lp2878
S':'
asbag55
(g76
g57
NtRp2879
(dp2880
g60
(dp2881
sg69
g2866
sg62
(lp2882
g55
(g56
g57
NtRp2883
(dp2884
g60
(dp2885
g68
I3
ssg69
g2879
sg62
(lp2886
g1490
asbasbasbag55
(g71
g57
NtRp2887
(dp2888
g60
(dp2889
sg69
g2610
sg62
(lp2890
g55
(g76
g57
NtRp2891
(dp2892
g60
(dp2893
g80
g81
ssg69
g2887
sg62
(lp2894
S'REQUEST_METHOD'
p2895
asbag55
(g76
g57
NtRp2896
(dp2897
g60
(dp2898
g87
g88
ssg69
g2887
sg62
(lp2899
S':'
asbag55
(g76
g57
NtRp2900
(dp2901
g60
(dp2902
sg69
g2887
sg62
(lp2903
g55
(g56
g57
NtRp2904
(dp2905
g60
(dp2906
g68
I3
ssg69
g2900
sg62
(lp2907
g1512
asbasbasbag55
(g71
g57
NtRp2908
(dp2909
g60
(dp2910
sg69
g2610
sg62
(lp2911
g55
(g76
g57
NtRp2912
(dp2913
g60
(dp2914
g80
g81
ssg69
g2908
sg62
(lp2915
S'SCRIPT_NAME'
p2916
asbag55
(g76
g57
NtRp2917
(dp2918
g60
(dp2919
g87
g88
ssg69
g2908
sg62
(lp2920
S':'
asbag55
(g76
g57
NtRp2921
(dp2922
g60
(dp2923
sg69
g2908
sg62
(lp2924
g55
(g56
g57
NtRp2925
(dp2926
g60
(dp2927
g68
I3
ssg69
g2921
sg62
(lp2928
S''
asbasbasbag55
(g71
g57
NtRp2929
(dp2930
g60
(dp2931
sg69
g2610
sg62
(lp2932
g55
(g76
g57
NtRp2933
(dp2934
g60
(dp2935
g80
g81
ssg69
g2929
sg62
(lp2936
S'SERVER_NAME'
p2937
asbag55
(g76
g57
NtRp2938
(dp2939
g60
(dp2940
g87
g88
ssg69
g2929
sg62
(lp2941
S':'
asbag55
(g76
g57
NtRp2942
(dp2943
g60
(dp2944
sg69
g2929
sg62
(lp2945
g55
(g56
g57
NtRp2946
(dp2947
g60
(dp2948
g68
I3
ssg69
g2942
sg62
(lp2949
g1555
asbasbasbag55
(g71
g57
NtRp2950
(dp2951
g60
(dp2952
sg69
g2610
sg62
(lp2953
g55
(g76
g57
NtRp2954
(dp2955
g60
(dp2956
g80
g81
ssg69
g2950
sg62
(lp2957
S'SERVER_PORT'
p2958
asbag55
(g76
g57
NtRp2959
(dp2960
g60
(dp2961
g87
g88
ssg69
g2950
sg62
(lp2962
S':'
asbag55
(g76
g57
NtRp2963
(dp2964
g60
(dp2965
sg69
g2950
sg62
(lp2966
g55
(g56
g57
NtRp2967
(dp2968
g60
(dp2969
g68
I3
ssg69
g2963
sg62
(lp2970
g1577
asbasbasbag55
(g71
g57
NtRp2971
(dp2972
g60
(dp2973
sg69
g2610
sg62
(lp2974
g55
(g76
g57
NtRp2975
(dp2976
g60
(dp2977
g80
g81
ssg69
g2971
sg62
(lp2978
S'SERVER_PROTOCOL'
p2979
asbag55
(g76
g57
NtRp2980
(dp2981
g60
(dp2982
g87
g88
ssg69
g2971
sg62
(lp2983
S':'
asbag55
(g76
g57
NtRp2984
(dp2985
g60
(dp2986
sg69
g2971
sg62
(lp2987
g55
(g56
g57
NtRp2988
(dp2989
g60
(dp2990
g68
I3
ssg69
g2984
sg62
(lp2991
g1599
asbasbasbag55
(g71
g57
NtRp2992
(dp2993
g60
(dp2994
sg69
g2610
sg62
(lp2995
g55
(g76
g57
NtRp2996
(dp2997
g60
(dp2998
g80
g81
ssg69
g2992
sg62
(lp2999
S'SERVER_SOFTWARE'
p3000
asbag55
(g76
g57
NtRp3001
(dp3002
g60
(dp3003
g87
g88
ssg69
g2992
sg62
(lp3004
S':'
asbag55
(g76
g57
NtRp3005
(dp3006
g60
(dp3007
sg69
g2992
sg62
(lp3008
g55
(g56
g57
NtRp3009
(dp3010
g60
(dp3011
g68
I3
ssg69
g3005
sg62
(lp3012
g1621
asbasbasbag55
(g71
g57
NtRp3013
(dp3014
g60
(dp3015
sg69
g2610
sg62
(lp3016
g55
(g76
g57
NtRp3017
(dp3018
g60
(dp3019
g80
g81
ssg69
g3013
sg62
(lp3020
S'wsgi.errors'
p3021
asbag55
(g76
g57
NtRp3022
(dp3023
g60
(dp3024
g87
g88
ssg69
g3013
sg62
(lp3025
S':'
asbag55
(g76
g57
NtRp3026
(dp3027
g60
(dp3028
sg69
g3013
sg62
(lp3029
g55
(g56
g57
NtRp3030
(dp3031
g60
(dp3032
g68
I3
ssg69
g3026
sg62
(lp3033
S"<open file '<stderr>', mode 'w' at 0x7f89dd6d5270>"
p3034
asbasbasbag55
(g71
g57
NtRp3035
(dp3036
g60
(dp3037
sg69
g2610
sg62
(lp3038
g55
(g76
g57
NtRp3039
(dp3040
g60
(dp3041
g80
g81
ssg69
g3035
sg62
(lp3042
S'wsgi.file_wrapper'
p3043
asbag55
(g76
g57
NtRp3044
(dp3045
g60
(dp3046
g87
g88
ssg69
g3035
sg62
(lp3047
S':'
asbag55
(g76
g57
NtRp3048
(dp3049
g60
(dp3050
sg69
g3035
sg62
(lp3051
g55
(g56
g57
NtRp3052
(dp3053
g60
(dp3054
g68
I3
ssg69
g3048
sg62
(lp3055
S'<class wsgiref.util.FileWrapper at 0x1902d50>'
p3056
asbasbasbag55
(g71
g57
NtRp3057
(dp3058
g60
(dp3059
sg69
g2610
sg62
(lp3060
g55
(g76
g57
NtRp3061
(dp3062
g60
(dp3063
g80
g81
ssg69
g3057
sg62
(lp3064
S'wsgi.input'
p3065
asbag55
(g76
g57
NtRp3066
(dp3067
g60
(dp3068
g87
g88
ssg69
g3057
sg62
(lp3069
S':'
asbag55
(g76
g57
NtRp3070
(dp3071
g60
(dp3072
sg69
g3057
sg62
(lp3073
g55
(g56
g57
NtRp3074
(dp3075
g60
(dp3076
g68
I3
ssg69
g3070
sg62
(lp3077
S'<cStringIO.StringO object at 0x7f89ac349260>'
p3078
asbasbasbag55
(g71
g57
NtRp3079
(dp3080
g60
(dp3081
sg69
g2610
sg62
(lp3082
g55
(g76
g57
NtRp3083
(dp3084
g60
(dp3085
g80
g81
ssg69
g3079
sg62
(lp3086
S'wsgi.multiprocess'
p3087
asbag55
(g76
g57
NtRp3088
(dp3089
g60
(dp3090
g87
g88
ssg69
g3079
sg62
(lp3091
S':'
asbag55
(g76
g57
NtRp3092
(dp3093
g60
(dp3094
sg69
g3079
sg62
(lp3095
g55
(g56
g57
NtRp3096
(dp3097
g60
(dp3098
g68
I3
ssg69
g3092
sg62
(lp3099
g98
asbasbasbag55
(g71
g57
NtRp3100
(dp3101
g60
(dp3102
sg69
g2610
sg62
(lp3103
g55
(g76
g57
NtRp3104
(dp3105
g60
(dp3106
g80
g81
ssg69
g3100
sg62
(lp3107
S'wsgi.multithread'
p3108
asbag55
(g76
g57
NtRp3109
(dp3110
g60
(dp3111
g87
g88
ssg69
g3100
sg62
(lp3112
S':'
asbag55
(g76
g57
NtRp3113
(dp3114
g60
(dp3115
sg69
g3100
sg62
(lp3116
g55
(g56
g57
NtRp3117
(dp3118
g60
(dp3119
g68
I3
ssg69
g3113
sg62
(lp3120
g1861
asbasbasbag55
(g71
g57
NtRp3121
(dp3122
g60
(dp3123
sg69
g2610
sg62
(lp3124
g55
(g76
g57
NtRp3125
(dp3126
g60
(dp3127
g80
g81
ssg69
g3121
sg62
(lp3128
S'wsgi.run_once'
p3129
asbag55
(g76
g57
NtRp3130
(dp3131
g60
(dp3132
g87
g88
ssg69
g3121
sg62
(lp3133
S':'
asbag55
(g76
g57
NtRp3134
(dp3135
g60
(dp3136
sg69
g3121
sg62
(lp3137
g55
(g56
g57
NtRp3138
(dp3139
g60
(dp3140
g68
I3
ssg69
g3134
sg62
(lp3141
g98
asbasbasbag55
(g71
g57
NtRp3142
(dp3143
g60
(dp3144
sg69
g2610
sg62
(lp3145
g55
(g76
g57
NtRp3146
(dp3147
g60
(dp3148
g80
g81
ssg69
g3142
sg62
(lp3149
S'wsgi.url_scheme'
p3150
asbag55
(g76
g57
NtRp3151
(dp3152
g60
(dp3153
g87
g88
ssg69
g3142
sg62
(lp3154
S':'
asbag55
(g76
g57
NtRp3155
(dp3156
g60
(dp3157
sg69
g3142
sg62
(lp3158
g55
(g56
g57
NtRp3159
(dp3160
g60
(dp3161
g68
I3
ssg69
g3155
sg62
(lp3162
g1904
asbasbasbag55
(g71
g57
NtRp3163
(dp3164
g60
(dp3165
sg69
g2610
sg62
(lp3166
g55
(g76
g57
NtRp3167
(dp3168
g60
(dp3169
g80
g81
ssg69
g3163
sg62
(lp3170
S'wsgi.version'
p3171
asbag55
(g76
g57
NtRp3172
(dp3173
g60
(dp3174
g87
g88
ssg69
g3163
sg62
(lp3175
S':'
asbag55
(g76
g57
NtRp3176
(dp3177
g60
(dp3178
sg69
g3163
sg62
(lp3179
g55
(g56
g57
NtRp3180
(dp3181
g60
(dp3182
g68
I3
ssg69
g3176
sg62
(lp3183
S'1'
asbasbasbasbasbasbasbasbasbasbasbasbasbsS'frames'
p3184
(lp3185
(dp3186
S'file'
p3187
S'/home/ian/web/web2py/gluon/main.py'
p3188
sS'dump'
p3189
(dp3190
S'session._try_store_on_disk'
p3191
S"<bound method Session._try_store_on_disk of <Sto...ps/1]': '4e7a22e3-ed88-4937-9ac3-051d52294360'}>>"
p3192
sS'session'
p3193
S"<Storage {'active_path': None, 'blocks': None, '...eps/1]': '4e7a22e3-ed88-4937-9ac3-051d52294360'}>"
p3194
sS'request'
p3195
S"<Storage {'body': <cStringIO.StringO object at 0..._vars': <Storage {}>, 'post_vars': <Storage {}>}>"
p3196
sS'response'
p3197
S"<Storage {'body': <cStringIO.StringO object at 0...0x7f89ac377320>, 'view': 'exploring/index.html'}>"
p3198
ssS'lnum'
p3199
I523
sS'lines'
p3200
(dp3201
I518
S'                # ##################################################'
p3202
sI519
S'                # if session not in db try store session on filesystem'
p3203
sI520
S'                # this must be done after trying to commit database!'
p3204
sI521
S'                # ##################################################'
p3205
sI522
S''
sI523
S'                session._try_store_on_disk(request, response)'
p3206
sI524
S''
sI525
S'                # ##################################################'
p3207
sI526
S'                # store cookies in headers'
p3208
sI527
S'                # ##################################################'
p3209
ssS'call'
p3210
S"(environ={'HTTP_ACCEPT': 'text/html,application/xhtml+xml,application/xml;q=0.9,*/*;q=0.8', 'HTTP_ACCEPT_ENCODING': 'gzip, deflate', 'HTTP_ACCEPT_LANGUAGE': 'en-us,en;q=0.5', 'HTTP_CACHE_CONTROL': 'max-age=0', 'HTTP_CONNECTION': 'keep-alive', 'HTTP_COOKIE': 'session_id_paideia=127.0.0.1-d2b16629-afad-4e3f-...in=127.0.0.1-629e8be1-afe5-45fc-bfd2-0df6ba96261e', 'HTTP_HOST': '127.0.0.1:8000', 'HTTP_REFERER': 'http://127.0.0.1:8000/paideia/default/user/login?_next=/paideia/exploring/index', 'HTTP_USER_AGENT': 'Mozilla/5.0 (X11; Ubuntu; Linux x86_64; rv:11.0) Gecko/20100101 Firefox/11.0 openid', 'PATH_INFO': '/paideia/exploring/index', ...}, responder=<function responder2>)"
p3211
sS'func'
p3212
S'wsgibase'
p3213
sa(dp3214
g3187
S'/home/ian/web/web2py/gluon/globals.py'
p3215
sg3189
(dp3216
S'self'
p3217
S"<Storage {'active_path': None, 'blocks': None, '...eps/1]': '4e7a22e3-ed88-4937-9ac3-051d52294360'}>"
p3218
sS'response.session_file'
p3219
S"<open file '/home/ian/web/web2py/applications/pa...2b16629-afad-4e3f-840d-43f7f7183774', mode 'rb+'>"
p3220
sS'global cPickle'
p3221
S"<module 'cPickle' (built-in)>"
p3222
sS'cPickle.dump'
p3223
S'<built-in function dump>'
p3224
sS'response'
p3225
S"<Storage {'body': <cStringIO.StringO object at 0...0x7f89ac377320>, 'view': 'exploring/index.html'}>"
p3226
sS'builtindict'
p3227
S"<type 'dict'>"
p3228
ssg3199
I591
sg3200
(dp3229
I586
S"            response.session_file = open(response.session_filename, 'wb')"
p3230
sI587
S'            portalocker.lock(response.session_file, portalocker.LOCK_EX)'
p3231
sI588
S'            response.session_locked = True'
p3232
sI589
S''
sI590
S'        if response.session_file:'
p3233
sI591
S'            cPickle.dump(dict(self), response.session_file)'
p3234
sI592
S'            response.session_file.truncate()'
p3235
sI593
S'            self._close(response)'
p3236
sI594
S''
sI595
S'    def _unlock(self, response):'
p3237
ssg3210
S"(self=<Storage {'active_path': None, 'blocks': None, '...eps/1]': '4e7a22e3-ed88-4937-9ac3-051d52294360'}>, request=<Storage {'body': <cStringIO.StringO object at 0..._vars': <Storage {}>, 'post_vars': <Storage {}>}>, response=<Storage {'body': <cStringIO.StringO object at 0...0x7f89ac377320>, 'view': 'exploring/index.html'}>)"
p3238
sg3212
S'_try_store_on_disk'
p3239
sa(dp3240
g3187
S'/usr/lib/python2.7/copy_reg.py'
p3241
sg3189
(dp3242
S'base.__name__'
p3243
S"'instancemethod'"
p3244
sS'base'
p3245
S"<type 'instancemethod'>"
p3246
sS'builtinTypeError'
p3247
S"<type 'exceptions.TypeError'>"
p3248
ssg3199
I70
sg3200
(dp3249
I65
S'        base = object # not really reachable'
p3250
sI66
S'    if base is object:'
p3251
sI67
S'        state = None'
p3252
sI68
S'    else:'
p3253
sI69
S'        if base is self.__class__:'
p3254
sI70
S'            raise TypeError, "can\'t pickle %s objects" % base.__name__'
p3255
sI71
S'        state = base(self)'
p3256
sI72
S'    args = (self.__class__, base, state)'
p3257
sI73
S'    try:'
p3258
sI74
S'        getstate = self.__getstate__'
p3259
ssg3210
S'(self=<bound method paideia_path.find_unfinished of <a...modules.paideia_exploring.paideia_path instance>>, proto=0)'
p3260
sg3212
S'_reduce_ex'
p3261
sasS'pyver'
p3262
S'Python 2.7.3rc1: /usr/bin/python2.7'
p3263
sS'session'
p3264
g55
(g56
g57
NtRp3265
(dp3266
g60
(dp3267
sg62
(lp3268
g55
(g64
g57
NtRp3269
(dp3270
g60
(dp3271
g68
I5
ssg69
Nsg62
(lp3272
g55
(g71
g57
NtRp3273
(dp3274
g60
(dp3275
sg69
g3269
sg62
(lp3276
g55
(g76
g57
NtRp3277
(dp3278
g60
(dp3279
g80
g81
ssg69
g3273
sg62
(lp3280
S'active_path'
p3281
asbag55
(g76
g57
NtRp3282
(dp3283
g60
(dp3284
g87
g88
ssg69
g3273
sg62
(lp3285
S':'
asbag55
(g76
g57
NtRp3286
(dp3287
g60
(dp3288
sg69
g3273
sg62
(lp3289
g55
(g56
g57
NtRp3290
(dp3291
g60
(dp3292
g68
I5
ssg69
g3286
sg62
(lp3293
S'None'
p3294
asbasbasbag55
(g71
g57
NtRp3295
(dp3296
g60
(dp3297
sg69
g3269
sg62
(lp3298
g55
(g76
g57
NtRp3299
(dp3300
g60
(dp3301
g80
g81
ssg69
g3295
sg62
(lp3302
S'active_paths'
p3303
asbag55
(g76
g57
NtRp3304
(dp3305
g60
(dp3306
g87
g88
ssg69
g3295
sg62
(lp3307
S':'
asbag55
(g76
g57
NtRp3308
(dp3309
g60
(dp3310
sg69
g3295
sg62
(lp3311
g55
(g56
g57
NtRp3312
(dp3313
g60
(dp3314
g68
I5
ssg69
g3308
sg62
(lp3315
S'<bound method paideia_path.find_unfinished of <applications.paideia.modules.paideia_exploring.paideia_path instance at 0x7f89b829d710>>'
p3316
asbasbasbag55
(g71
g57
NtRp3317
(dp3318
g60
(dp3319
sg69
g3269
sg62
(lp3320
g55
(g76
g57
NtRp3321
(dp3322
g60
(dp3323
g80
g81
ssg69
g3317
sg62
(lp3324
S'ajaxselect_value'
p3325
asbag55
(g76
g57
NtRp3326
(dp3327
g60
(dp3328
g87
g88
ssg69
g3317
sg62
(lp3329
S':'
asbag55
(g76
g57
NtRp3330
(dp3331
g60
(dp3332
sg69
g3317
sg62
(lp3333
g55
(g56
g57
NtRp3334
(dp3335
g60
(dp3336
g68
I5
ssg69
g3330
sg62
(lp3337
S'3'
asbasbasbag55
(g71
g57
NtRp3338
(dp3339
g60
(dp3340
sg69
g3269
sg62
(lp3341
g55
(g76
g57
NtRp3342
(dp3343
g60
(dp3344
g80
g81
ssg69
g3338
sg62
(lp3345
S'answer'
p3346
asbag55
(g76
g57
NtRp3347
(dp3348
g60
(dp3349
g87
g88
ssg69
g3338
sg62
(lp3350
S':'
asbag55
(g76
g57
NtRp3351
(dp3352
g60
(dp3353
sg69
g3338
sg62
(lp3354
g55
(g56
g57
NtRp3355
(dp3356
g60
(dp3357
g68
I5
ssg69
g3351
sg62
(lp3358
S'^(the)?(egypt)(ian)?(s)?( people| nation)?(.)?$'
p3359
asbasbasbag55
(g71
g57
NtRp3360
(dp3361
g60
(dp3362
sg69
g3269
sg62
(lp3363
g55
(g76
g57
NtRp3364
(dp3365
g60
(dp3366
g80
g81
ssg69
g3360
sg62
(lp3367
S'answer2'
p3368
asbag55
(g76
g57
NtRp3369
(dp3370
g60
(dp3371
g87
g88
ssg69
g3360
sg62
(lp3372
S':'
asbag55
(g76
g57
NtRp3373
(dp3374
g60
(dp3375
sg69
g3360
sg62
(lp3376
g55
(g56
g57
NtRp3377
(dp3378
g60
(dp3379
g68
I5
ssg69
g3373
sg62
(lp3380
S'(her people)|(her nation)'
p3381
asbasbasbag55
(g71
g57
NtRp3382
(dp3383
g60
(dp3384
sg69
g3269
sg62
(lp3385
g55
(g76
g57
NtRp3386
(dp3387
g60
(dp3388
g80
g81
ssg69
g3382
sg62
(lp3389
S'answer3'
p3390
asbag55
(g76
g57
NtRp3391
(dp3392
g60
(dp3393
g87
g88
ssg69
g3382
sg62
(lp3394
S':'
asbag55
(g76
g57
NtRp3395
(dp3396
g60
(dp3397
sg69
g3382
sg62
(lp3398
g55
(g56
g57
NtRp3399
(dp3400
g60
(dp3401
g68
I5
ssg69
g3395
sg62
(lp3402
S'people|nation|her|what|who'
p3403
asbasbasbag55
(g71
g57
NtRp3404
(dp3405
g60
(dp3406
sg69
g3269
sg62
(lp3407
g55
(g76
g57
NtRp3408
(dp3409
g60
(dp3410
g80
g81
ssg69
g3404
sg62
(lp3411
S'auth'
p3412
asbag55
(g76
g57
NtRp3413
(dp3414
g60
(dp3415
g87
g88
ssg69
g3404
sg62
(lp3416
S':'
asbag55
(g76
g57
NtRp3417
(dp3418
g60
(dp3419
sg69
g3404
sg62
(lp3420
g55
(g56
g57
NtRp3421
(dp3422
g60
(dp3423
g68
I5
ssg69
g3417
sg62
(lp3424
g55
(g64
g57
NtRp3425
(dp3426
g60
(dp3427
g68
I4
ssg69
Nsg62
(lp3428
g55
(g71
g57
NtRp3429
(dp3430
g60
(dp3431
sg69
g3425
sg62
(lp3432
g55
(g76
g57
NtRp3433
(dp3434
g60
(dp3435
g80
g81
ssg69
g3429
sg62
(lp3436
S'expiration'
p3437
asbag55
(g76
g57
NtRp3438
(dp3439
g60
(dp3440
g87
g88
ssg69
g3429
sg62
(lp3441
S':'
asbag55
(g76
g57
NtRp3442
(dp3443
g60
(dp3444
sg69
g3429
sg62
(lp3445
g55
(g56
g57
NtRp3446
(dp3447
g60
(dp3448
g68
I4
ssg69
g3442
sg62
(lp3449
S'2592000'
p3450
asbasbasbag55
(g71
g57
NtRp3451
(dp3452
g60
(dp3453
sg69
g3425
sg62
(lp3454
g55
(g76
g57
NtRp3455
(dp3456
g60
(dp3457
g80
g81
ssg69
g3451
sg62
(lp3458
S'hmac_key'
p3459
asbag55
(g76
g57
NtRp3460
(dp3461
g60
(dp3462
g87
g88
ssg69
g3451
sg62
(lp3463
S':'
asbag55
(g76
g57
NtRp3464
(dp3465
g60
(dp3466
sg69
g3451
sg62
(lp3467
g55
(g56
g57
NtRp3468
(dp3469
g60
(dp3470
g68
I4
ssg69
g3464
sg62
(lp3471
S'31829caa-93ee-4900-a512-2bba3aa9bc40'
p3472
asbasbasbag55
(g71
g57
NtRp3473
(dp3474
g60
(dp3475
sg69
g3425
sg62
(lp3476
g55
(g76
g57
NtRp3477
(dp3478
g60
(dp3479
g80
g81
ssg69
g3473
sg62
(lp3480
S'last_visit'
p3481
asbag55
(g76
g57
NtRp3482
(dp3483
g60
(dp3484
g87
g88
ssg69
g3473
sg62
(lp3485
S':'
asbag55
(g76
g57
NtRp3486
(dp3487
g60
(dp3488
sg69
g3473
sg62
(lp3489
g55
(g56
g57
NtRp3490
(dp3491
g60
(dp3492
g68
I4
ssg69
g3486
sg62
(lp3493
S'datetime.datetime(2012, 3, 13, 17, 38, 28, 633934)'
p3494
asbasbasbag55
(g71
g57
NtRp3495
(dp3496
g60
(dp3497
sg69
g3425
sg62
(lp3498
g55
(g76
g57
NtRp3499
(dp3500
g60
(dp3501
g80
g81
ssg69
g3495
sg62
(lp3502
S'remember'
p3503
asbag55
(g76
g57
NtRp3504
(dp3505
g60
(dp3506
g87
g88
ssg69
g3495
sg62
(lp3507
S':'
asbag55
(g76
g57
NtRp3508
(dp3509
g60
(dp3510
sg69
g3495
sg62
(lp3511
g55
(g56
g57
NtRp3512
(dp3513
g60
(dp3514
g68
I4
ssg69
g3508
sg62
(lp3515
g1861
asbasbasbag55
(g71
g57
NtRp3516
(dp3517
g60
(dp3518
sg69
g3425
sg62
(lp3519
g55
(g76
g57
NtRp3520
(dp3521
g60
(dp3522
g80
g81
ssg69
g3516
sg62
(lp3523
S'user'
p3524
asbag55
(g76
g57
NtRp3525
(dp3526
g60
(dp3527
g87
g88
ssg69
g3516
sg62
(lp3528
S':'
asbag55
(g76
g57
NtRp3529
(dp3530
g60
(dp3531
sg69
g3516
sg62
(lp3532
g55
(g56
g57
NtRp3533
(dp3534
g60
(dp3535
g68
I4
ssg69
g3529
sg62
(lp3536
g55
(g64
g57
NtRp3537
(dp3538
g60
(dp3539
g68
I3
ssg69
Nsg62
(lp3540
g55
(g71
g57
NtRp3541
(dp3542
g60
(dp3543
sg69
g3537
sg62
(lp3544
g55
(g76
g57
NtRp3545
(dp3546
g60
(dp3547
g80
g81
ssg69
g3541
sg62
(lp3548
S'email'
p3549
asbag55
(g76
g57
NtRp3550
(dp3551
g60
(dp3552
g87
g88
ssg69
g3541
sg62
(lp3553
S':'
asbag55
(g76
g57
NtRp3554
(dp3555
g60
(dp3556
sg69
g3541
sg62
(lp3557
g55
(g56
g57
NtRp3558
(dp3559
g60
(dp3560
g68
I3
ssg69
g3554
sg62
(lp3561
S'scottianw@gmail.com'
p3562
asbasbasbag55
(g71
g57
NtRp3563
(dp3564
g60
(dp3565
sg69
g3537
sg62
(lp3566
g55
(g76
g57
NtRp3567
(dp3568
g60
(dp3569
g80
g81
ssg69
g3563
sg62
(lp3570
S'first_name'
p3571
asbag55
(g76
g57
NtRp3572
(dp3573
g60
(dp3574
g87
g88
ssg69
g3563
sg62
(lp3575
S':'
asbag55
(g76
g57
NtRp3576
(dp3577
g60
(dp3578
sg69
g3563
sg62
(lp3579
g55
(g56
g57
NtRp3580
(dp3581
g60
(dp3582
g68
I3
ssg69
g3576
sg62
(lp3583
S'Ian'
p3584
asbasbasbag55
(g71
g57
NtRp3585
(dp3586
g60
(dp3587
sg69
g3537
sg62
(lp3588
g55
(g76
g57
NtRp3589
(dp3590
g60
(dp3591
g80
g81
ssg69
g3585
sg62
(lp3592
S'id'
p3593
asbag55
(g76
g57
NtRp3594
(dp3595
g60
(dp3596
g87
g88
ssg69
g3585
sg62
(lp3597
S':'
asbag55
(g76
g57
NtRp3598
(dp3599
g60
(dp3600
sg69
g3585
sg62
(lp3601
g55
(g56
g57
NtRp3602
(dp3603
g60
(dp3604
g68
I3
ssg69
g3598
sg62
(lp3605
S'2'
asbasbasbag55
(g71
g57
NtRp3606
(dp3607
g60
(dp3608
sg69
g3537
sg62
(lp3609
g55
(g76
g57
NtRp3610
(dp3611
g60
(dp3612
g80
g81
ssg69
g3606
sg62
(lp3613
S'last_name'
p3614
asbag55
(g76
g57
NtRp3615
(dp3616
g60
(dp3617
g87
g88
ssg69
g3606
sg62
(lp3618
S':'
asbag55
(g76
g57
NtRp3619
(dp3620
g60
(dp3621
sg69
g3606
sg62
(lp3622
g55
(g56
g57
NtRp3623
(dp3624
g60
(dp3625
g68
I3
ssg69
g3619
sg62
(lp3626
S'Scott'
p3627
asbasbasbag55
(g71
g57
NtRp3628
(dp3629
g60
(dp3630
sg69
g3537
sg62
(lp3631
g55
(g76
g57
NtRp3632
(dp3633
g60
(dp3634
g80
g81
ssg69
g3628
sg62
(lp3635
S'password'
p3636
asbag55
(g76
g57
NtRp3637
(dp3638
g60
(dp3639
g87
g88
ssg69
g3628
sg62
(lp3640
S':'
asbag55
(g76
g57
NtRp3641
(dp3642
g60
(dp3643
sg69
g3628
sg62
(lp3644
g55
(g56
g57
NtRp3645
(dp3646
g60
(dp3647
g68
I3
ssg69
g3641
sg62
(lp3648
S'19738f1e9a2c8eaac81936a86bf608a1a6995e02f527fa31723cb88a2e513a1efae33471354a02805bf25ea2ea17a59c025a5fc8eca6b3bb2137bda74e538737'
p3649
asbasbasbag55
(g71
g57
NtRp3650
(dp3651
g60
(dp3652
sg69
g3537
sg62
(lp3653
g55
(g76
g57
NtRp3654
(dp3655
g60
(dp3656
g80
g81
ssg69
g3650
sg62
(lp3657
S'registration_id'
p3658
asbag55
(g76
g57
NtRp3659
(dp3660
g60
(dp3661
g87
g88
ssg69
g3650
sg62
(lp3662
S':'
asbag55
(g76
g57
NtRp3663
(dp3664
g60
(dp3665
sg69
g3650
sg62
(lp3666
g55
(g56
g57
NtRp3667
(dp3668
g60
(dp3669
g68
I3
ssg69
g3663
sg62
(lp3670
S'None'
p3671
asbasbasbag55
(g71
g57
NtRp3672
(dp3673
g60
(dp3674
sg69
g3537
sg62
(lp3675
g55
(g76
g57
NtRp3676
(dp3677
g60
(dp3678
g80
g81
ssg69
g3672
sg62
(lp3679
S'registration_key'
p3680
asbag55
(g76
g57
NtRp3681
(dp3682
g60
(dp3683
g87
g88
ssg69
g3672
sg62
(lp3684
S':'
asbag55
(g76
g57
NtRp3685
(dp3686
g60
(dp3687
sg69
g3672
sg62
(lp3688
g55
(g56
g57
NtRp3689
(dp3690
g60
(dp3691
g68
I3
ssg69
g3685
sg62
(lp3692
S''
asbasbasbag55
(g71
g57
NtRp3693
(dp3694
g60
(dp3695
sg69
g3537
sg62
(lp3696
g55
(g76
g57
NtRp3697
(dp3698
g60
(dp3699
g80
g81
ssg69
g3693
sg62
(lp3700
S'reset_password_key'
p3701
asbag55
(g76
g57
NtRp3702
(dp3703
g60
(dp3704
g87
g88
ssg69
g3693
sg62
(lp3705
S':'
asbag55
(g76
g57
NtRp3706
(dp3707
g60
(dp3708
sg69
g3693
sg62
(lp3709
g55
(g56
g57
NtRp3710
(dp3711
g60
(dp3712
g68
I3
ssg69
g3706
sg62
(lp3713
S'1327083713-2cc5b0bb-81c6-473e-adeb-2160a9624c63'
p3714
asbasbasbasbasbasbasbasbasbasbasbag55
(g71
g57
NtRp3715
(dp3716
g60
(dp3717
sg69
g3269
sg62
(lp3718
g55
(g76
g57
NtRp3719
(dp3720
g60
(dp3721
g80
g81
ssg69
g3715
sg62
(lp3722
S'blocks'
p3723
asbag55
(g76
g57
NtRp3724
(dp3725
g60
(dp3726
g87
g88
ssg69
g3715
sg62
(lp3727
S':'
asbag55
(g76
g57
NtRp3728
(dp3729
g60
(dp3730
sg69
g3715
sg62
(lp3731
g55
(g56
g57
NtRp3732
(dp3733
g60
(dp3734
g68
I5
ssg69
g3728
sg62
(lp3735
S'None'
p3736
asbasbasbag55
(g71
g57
NtRp3737
(dp3738
g60
(dp3739
sg69
g3269
sg62
(lp3740
g55
(g76
g57
NtRp3741
(dp3742
g60
(dp3743
g80
g81
ssg69
g3737
sg62
(lp3744
S'completed_paths'
p3745
asbag55
(g76
g57
NtRp3746
(dp3747
g60
(dp3748
g87
g88
ssg69
g3737
sg62
(lp3749
S':'
asbag55
(g76
g57
NtRp3750
(dp3751
g60
(dp3752
sg69
g3737
sg62
(lp3753
g55
(g56
g57
NtRp3754
(dp3755
g60
(dp3756
g68
I5
ssg69
g3750
sg62
(lp3757
S'None'
p3758
asbasbasbag55
(g71
g57
NtRp3759
(dp3760
g60
(dp3761
sg69
g3269
sg62
(lp3762
g55
(g76
g57
NtRp3763
(dp3764
g60
(dp3765
g80
g81
ssg69
g3759
sg62
(lp3766
S'debug'
p3767
asbag55
(g76
g57
NtRp3768
(dp3769
g60
(dp3770
g87
g88
ssg69
g3759
sg62
(lp3771
S':'
asbag55
(g76
g57
NtRp3772
(dp3773
g60
(dp3774
sg69
g3759
sg62
(lp3775
g55
(g56
g57
NtRp3776
(dp3777
g60
(dp3778
g68
I5
ssg69
g3772
sg62
(lp3779
g55
(g64
g57
NtRp3780
(dp3781
g60
(dp3782
g68
I4
ssg69
Nsg62
(lp3783
sbasbasbasbag55
(g71
g57
NtRp3784
(dp3785
g60
(dp3786
sg69
g3269
sg62
(lp3787
g55
(g76
g57
NtRp3788
(dp3789
g60
(dp3790
g80
g81
ssg69
g3784
sg62
(lp3791
S'last_query'
p3792
asbag55
(g76
g57
NtRp3793
(dp3794
g60
(dp3795
g87
g88
ssg69
g3784
sg62
(lp3796
S':'
asbag55
(g76
g57
NtRp3797
(dp3798
g60
(dp3799
sg69
g3784
sg62
(lp3800
g55
(g56
g57
NtRp3801
(dp3802
g60
(dp3803
g68
I5
ssg69
g3797
sg62
(lp3804
S'db.auth_user.id>0'
p3805
asbasbasbag55
(g71
g57
NtRp3806
(dp3807
g60
(dp3808
sg69
g3269
sg62
(lp3809
g55
(g76
g57
NtRp3810
(dp3811
g60
(dp3812
g80
g81
ssg69
g3806
sg62
(lp3813
S'paths_npcs_loader'
p3814
asbag55
(g76
g57
NtRp3815
(dp3816
g60
(dp3817
g87
g88
ssg69
g3806
sg62
(lp3818
S':'
asbag55
(g76
g57
NtRp3819
(dp3820
g60
(dp3821
sg69
g3806
sg62
(lp3822
g55
(g56
g57
NtRp3823
(dp3824
g60
(dp3825
g68
I5
ssg69
g3819
sg62
(lp3826
g55
(g64
g57
NtRp3827
(dp3828
g60
(dp3829
g68
I4
ssg69
Nsg62
(lp3830
g55
(g71
g57
NtRp3831
(dp3832
g60
(dp3833
sg69
g3827
sg62
(lp3834
g55
(g76
g57
NtRp3835
(dp3836
g60
(dp3837
sg69
g3831
sg62
(lp3838
g55
(g56
g57
NtRp3839
(dp3840
g60
(dp3841
g68
I4
ssg69
g3835
sg62
(lp3842
S'14'
p3843
asbasbasbasbasbasbasbag55
(g71
g57
NtRp3844
(dp3845
g60
(dp3846
sg69
g3269
sg62
(lp3847
g55
(g76
g57
NtRp3848
(dp3849
g60
(dp3850
g80
g81
ssg69
g3844
sg62
(lp3851
S'paths_steps_loader'
p3852
asbag55
(g76
g57
NtRp3853
(dp3854
g60
(dp3855
g87
g88
ssg69
g3844
sg62
(lp3856
S':'
asbag55
(g76
g57
NtRp3857
(dp3858
g60
(dp3859
sg69
g3844
sg62
(lp3860
g55
(g56
g57
NtRp3861
(dp3862
g60
(dp3863
g68
I5
ssg69
g3857
sg62
(lp3864
S'None'
p3865
asbasbasbag55
(g71
g57
NtRp3866
(dp3867
g60
(dp3868
sg69
g3269
sg62
(lp3869
g55
(g76
g57
NtRp3870
(dp3871
g60
(dp3872
g80
g81
ssg69
g3866
sg62
(lp3873
S'qID'
p3874
asbag55
(g76
g57
NtRp3875
(dp3876
g60
(dp3877
g87
g88
ssg69
g3866
sg62
(lp3878
S':'
asbag55
(g76
g57
NtRp3879
(dp3880
g60
(dp3881
sg69
g3866
sg62
(lp3882
g55
(g56
g57
NtRp3883
(dp3884
g60
(dp3885
g68
I5
ssg69
g3879
sg62
(lp3886
S'147'
p3887
asbasbasbag55
(g71
g57
NtRp3888
(dp3889
g60
(dp3890
sg69
g3269
sg62
(lp3891
g55
(g76
g57
NtRp3892
(dp3893
g60
(dp3894
g80
g81
ssg69
g3888
sg62
(lp3895
S'question_text'
p3896
asbag55
(g76
g57
NtRp3897
(dp3898
g60
(dp3899
g87
g88
ssg69
g3888
sg62
(lp3900
S':'
asbag55
(g76
g57
NtRp3901
(dp3902
g60
(dp3903
sg69
g3888
sg62
(lp3904
g55
(g56
g57
NtRp3905
(dp3906
g60
(dp3907
g68
I5
ssg69
g3901
sg62
(lp3908
S'Our neighbour is Egyptian. \xce\xa4\xce\xaf\xcf\x82 \xe1\xbd\x81 \xce\xb1\xe1\xbd\x90\xcf\x84\xe1\xbd\xb4\xcf\x82 \xce\xbb\xce\xac\xce\xbf\xcf\x82;'
p3909
asbasbasbag55
(g71
g57
NtRp3910
(dp3911
g60
(dp3912
sg69
g3269
sg62
(lp3913
g55
(g76
g57
NtRp3914
(dp3915
g60
(dp3916
g80
g81
ssg69
g3910
sg62
(lp3917
S'quiz_type'
p3918
asbag55
(g76
g57
NtRp3919
(dp3920
g60
(dp3921
g87
g88
ssg69
g3910
sg62
(lp3922
S':'
asbag55
(g76
g57
NtRp3923
(dp3924
g60
(dp3925
sg69
g3910
sg62
(lp3926
g55
(g56
g57
NtRp3927
(dp3928
g60
(dp3929
g68
I5
ssg69
g3923
sg62
(lp3930
S'category 1'
p3931
asbasbasbag55
(g71
g57
NtRp3932
(dp3933
g60
(dp3934
sg69
g3269
sg62
(lp3935
g55
(g76
g57
NtRp3936
(dp3937
g60
(dp3938
g80
g81
ssg69
g3932
sg62
(lp3939
S'readable_answer'
p3940
asbag55
(g76
g57
NtRp3941
(dp3942
g60
(dp3943
g87
g88
ssg69
g3932
sg62
(lp3944
S':'
asbag55
(g76
g57
NtRp3945
(dp3946
g60
(dp3947
sg69
g3932
sg62
(lp3948
g55
(g56
g57
NtRp3949
(dp3950
g60
(dp3951
g68
I5
ssg69
g3945
sg62
(lp3952
S'Egypt; the egyptians'
p3953
asbasbasbag55
(g71
g57
NtRp3954
(dp3955
g60
(dp3956
sg69
g3269
sg62
(lp3957
g55
(g76
g57
NtRp3958
(dp3959
g60
(dp3960
g80
g81
ssg69
g3954
sg62
(lp3961
S'tagCat'
p3962
asbag55
(g76
g57
NtRp3963
(dp3964
g60
(dp3965
g87
g88
ssg69
g3954
sg62
(lp3966
S':'
asbag55
(g76
g57
NtRp3967
(dp3968
g60
(dp3969
sg69
g3954
sg62
(lp3970
g55
(g56
g57
NtRp3971
(dp3972
g60
(dp3973
g68
I5
ssg69
g3967
sg62
(lp3974
g55
(g64
g57
NtRp3975
(dp3976
g60
(dp3977
g68
I4
ssg69
Nsg62
(lp3978
g55
(g71
g57
NtRp3979
(dp3980
g60
(dp3981
sg69
g3975
sg62
(lp3982
g55
(g76
g57
NtRp3983
(dp3984
g60
(dp3985
g80
g81
ssg69
g3979
sg62
(lp3986
S'1'
asbag55
(g76
g57
NtRp3987
(dp3988
g60
(dp3989
g87
g88
ssg69
g3979
sg62
(lp3990
S':'
asbag55
(g76
g57
NtRp3991
(dp3992
g60
(dp3993
sg69
g3979
sg62
(lp3994
g55
(g56
g57
NtRp3995
(dp3996
g60
(dp3997
g68
I4
ssg69
g3991
sg62
(lp3998
S'1'
asbasbasbag55
(g71
g57
NtRp3999
(dp4000
g60
(dp4001
sg69
g3975
sg62
(lp4002
g55
(g76
g57
NtRp4003
(dp4004
g60
(dp4005
g80
g81
ssg69
g3999
sg62
(lp4006
S'2'
asbag55
(g76
g57
NtRp4007
(dp4008
g60
(dp4009
g87
g88
ssg69
g3999
sg62
(lp4010
S':'
asbag55
(g76
g57
NtRp4011
(dp4012
g60
(dp4013
sg69
g3999
sg62
(lp4014
g55
(g56
g57
NtRp4015
(dp4016
g60
(dp4017
g68
I4
ssg69
g4011
sg62
(lp4018
S'2'
asbasbasbag55
(g71
g57
NtRp4019
(dp4020
g60
(dp4021
sg69
g3975
sg62
(lp4022
g55
(g76
g57
NtRp4023
(dp4024
g60
(dp4025
g80
g81
ssg69
g4019
sg62
(lp4026
S'3'
asbag55
(g76
g57
NtRp4027
(dp4028
g60
(dp4029
g87
g88
ssg69
g4019
sg62
(lp4030
S':'
asbag55
(g76
g57
NtRp4031
(dp4032
g60
(dp4033
sg69
g4019
sg62
(lp4034
g55
(g56
g57
NtRp4035
(dp4036
g60
(dp4037
g68
I4
ssg69
g4031
sg62
(lp4038
S'2'
asbasbasbag55
(g71
g57
NtRp4039
(dp4040
g60
(dp4041
sg69
g3975
sg62
(lp4042
g55
(g76
g57
NtRp4043
(dp4044
g60
(dp4045
g80
g81
ssg69
g4039
sg62
(lp4046
S'4'
asbag55
(g76
g57
NtRp4047
(dp4048
g60
(dp4049
g87
g88
ssg69
g4039
sg62
(lp4050
S':'
asbag55
(g76
g57
NtRp4051
(dp4052
g60
(dp4053
sg69
g4039
sg62
(lp4054
g55
(g56
g57
NtRp4055
(dp4056
g60
(dp4057
g68
I4
ssg69
g4051
sg62
(lp4058
S'2'
asbasbasbag55
(g71
g57
NtRp4059
(dp4060
g60
(dp4061
sg69
g3975
sg62
(lp4062
g55
(g76
g57
NtRp4063
(dp4064
g60
(dp4065
g80
g81
ssg69
g4059
sg62
(lp4066
S'5'
asbag55
(g76
g57
NtRp4067
(dp4068
g60
(dp4069
g87
g88
ssg69
g4059
sg62
(lp4070
S':'
asbag55
(g76
g57
NtRp4071
(dp4072
g60
(dp4073
sg69
g4059
sg62
(lp4074
g55
(g56
g57
NtRp4075
(dp4076
g60
(dp4077
g68
I4
ssg69
g4071
sg62
(lp4078
S'2'
asbasbasbag55
(g71
g57
NtRp4079
(dp4080
g60
(dp4081
sg69
g3975
sg62
(lp4082
g55
(g76
g57
NtRp4083
(dp4084
g60
(dp4085
g80
g81
ssg69
g4079
sg62
(lp4086
S'6'
asbag55
(g76
g57
NtRp4087
(dp4088
g60
(dp4089
g87
g88
ssg69
g4079
sg62
(lp4090
S':'
asbag55
(g76
g57
NtRp4091
(dp4092
g60
(dp4093
sg69
g4079
sg62
(lp4094
g55
(g56
g57
NtRp4095
(dp4096
g60
(dp4097
g68
I4
ssg69
g4091
sg62
(lp4098
S'1'
asbasbasbag55
(g71
g57
NtRp4099
(dp4100
g60
(dp4101
sg69
g3975
sg62
(lp4102
g55
(g76
g57
NtRp4103
(dp4104
g60
(dp4105
g80
g81
ssg69
g4099
sg62
(lp4106
S'7'
asbag55
(g76
g57
NtRp4107
(dp4108
g60
(dp4109
g87
g88
ssg69
g4099
sg62
(lp4110
S':'
asbag55
(g76
g57
NtRp4111
(dp4112
g60
(dp4113
sg69
g4099
sg62
(lp4114
g55
(g56
g57
NtRp4115
(dp4116
g60
(dp4117
g68
I4
ssg69
g4111
sg62
(lp4118
S'2'
asbasbasbag55
(g71
g57
NtRp4119
(dp4120
g60
(dp4121
sg69
g3975
sg62
(lp4122
g55
(g76
g57
NtRp4123
(dp4124
g60
(dp4125
g80
g81
ssg69
g4119
sg62
(lp4126
S'8'
asbag55
(g76
g57
NtRp4127
(dp4128
g60
(dp4129
g87
g88
ssg69
g4119
sg62
(lp4130
S':'
asbag55
(g76
g57
NtRp4131
(dp4132
g60
(dp4133
sg69
g4119
sg62
(lp4134
g55
(g56
g57
NtRp4135
(dp4136
g60
(dp4137
g68
I4
ssg69
g4131
sg62
(lp4138
S'1'
asbasbasbag55
(g71
g57
NtRp4139
(dp4140
g60
(dp4141
sg69
g3975
sg62
(lp4142
g55
(g76
g57
NtRp4143
(dp4144
g60
(dp4145
g80
g81
ssg69
g4139
sg62
(lp4146
S'9'
asbag55
(g76
g57
NtRp4147
(dp4148
g60
(dp4149
g87
g88
ssg69
g4139
sg62
(lp4150
S':'
asbag55
(g76
g57
NtRp4151
(dp4152
g60
(dp4153
sg69
g4139
sg62
(lp4154
g55
(g56
g57
NtRp4155
(dp4156
g60
(dp4157
g68
I4
ssg69
g4151
sg62
(lp4158
S'2'
asbasbasbag55
(g71
g57
NtRp4159
(dp4160
g60
(dp4161
sg69
g3975
sg62
(lp4162
g55
(g76
g57
NtRp4163
(dp4164
g60
(dp4165
g80
g81
ssg69
g4159
sg62
(lp4166
S'10'
p4167
asbag55
(g76
g57
NtRp4168
(dp4169
g60
(dp4170
g87
g88
ssg69
g4159
sg62
(lp4171
S':'
asbag55
(g76
g57
NtRp4172
(dp4173
g60
(dp4174
sg69
g4159
sg62
(lp4175
g55
(g56
g57
NtRp4176
(dp4177
g60
(dp4178
g68
I4
ssg69
g4172
sg62
(lp4179
S'1'
asbasbasbag55
(g71
g57
NtRp4180
(dp4181
g60
(dp4182
sg69
g3975
sg62
(lp4183
g55
(g76
g57
NtRp4184
(dp4185
g60
(dp4186
g80
g81
ssg69
g4180
sg62
(lp4187
S'12'
p4188
asbag55
(g76
g57
NtRp4189
(dp4190
g60
(dp4191
g87
g88
ssg69
g4180
sg62
(lp4192
S':'
asbag55
(g76
g57
NtRp4193
(dp4194
g60
(dp4195
sg69
g4180
sg62
(lp4196
g55
(g56
g57
NtRp4197
(dp4198
g60
(dp4199
g68
I4
ssg69
g4193
sg62
(lp4200
S'1'
asbasbasbag55
(g71
g57
NtRp4201
(dp4202
g60
(dp4203
sg69
g3975
sg62
(lp4204
g55
(g76
g57
NtRp4205
(dp4206
g60
(dp4207
g80
g81
ssg69
g4201
sg62
(lp4208
S'14'
p4209
asbag55
(g76
g57
NtRp4210
(dp4211
g60
(dp4212
g87
g88
ssg69
g4201
sg62
(lp4213
S':'
asbag55
(g76
g57
NtRp4214
(dp4215
g60
(dp4216
sg69
g4201
sg62
(lp4217
g55
(g56
g57
NtRp4218
(dp4219
g60
(dp4220
g68
I4
ssg69
g4214
sg62
(lp4221
S'1'
asbasbasbag55
(g71
g57
NtRp4222
(dp4223
g60
(dp4224
sg69
g3975
sg62
(lp4225
g55
(g76
g57
NtRp4226
(dp4227
g60
(dp4228
g80
g81
ssg69
g4222
sg62
(lp4229
S'15'
p4230
asbag55
(g76
g57
NtRp4231
(dp4232
g60
(dp4233
g87
g88
ssg69
g4222
sg62
(lp4234
S':'
asbag55
(g76
g57
NtRp4235
(dp4236
g60
(dp4237
sg69
g4222
sg62
(lp4238
g55
(g56
g57
NtRp4239
(dp4240
g60
(dp4241
g68
I4
ssg69
g4235
sg62
(lp4242
S'2'
asbasbasbag55
(g71
g57
NtRp4243
(dp4244
g60
(dp4245
sg69
g3975
sg62
(lp4246
g55
(g76
g57
NtRp4247
(dp4248
g60
(dp4249
g80
g81
ssg69
g4243
sg62
(lp4250
S'16'
p4251
asbag55
(g76
g57
NtRp4252
(dp4253
g60
(dp4254
g87
g88
ssg69
g4243
sg62
(lp4255
S':'
asbag55
(g76
g57
NtRp4256
(dp4257
g60
(dp4258
sg69
g4243
sg62
(lp4259
g55
(g56
g57
NtRp4260
(dp4261
g60
(dp4262
g68
I4
ssg69
g4256
sg62
(lp4263
S'2'
asbasbasbag55
(g71
g57
NtRp4264
(dp4265
g60
(dp4266
sg69
g3975
sg62
(lp4267
g55
(g76
g57
NtRp4268
(dp4269
g60
(dp4270
g80
g81
ssg69
g4264
sg62
(lp4271
S'17'
p4272
asbag55
(g76
g57
NtRp4273
(dp4274
g60
(dp4275
g87
g88
ssg69
g4264
sg62
(lp4276
S':'
asbag55
(g76
g57
NtRp4277
(dp4278
g60
(dp4279
sg69
g4264
sg62
(lp4280
g55
(g56
g57
NtRp4281
(dp4282
g60
(dp4283
g68
I4
ssg69
g4277
sg62
(lp4284
S'1'
asbasbasbag55
(g71
g57
NtRp4285
(dp4286
g60
(dp4287
sg69
g3975
sg62
(lp4288
g55
(g76
g57
NtRp4289
(dp4290
g60
(dp4291
g80
g81
ssg69
g4285
sg62
(lp4292
S'18'
p4293
asbag55
(g76
g57
NtRp4294
(dp4295
g60
(dp4296
g87
g88
ssg69
g4285
sg62
(lp4297
S':'
asbag55
(g76
g57
NtRp4298
(dp4299
g60
(dp4300
sg69
g4285
sg62
(lp4301
g55
(g56
g57
NtRp4302
(dp4303
g60
(dp4304
g68
I4
ssg69
g4298
sg62
(lp4305
S'2'
asbasbasbag55
(g71
g57
NtRp4306
(dp4307
g60
(dp4308
sg69
g3975
sg62
(lp4309
g55
(g76
g57
NtRp4310
(dp4311
g60
(dp4312
g80
g81
ssg69
g4306
sg62
(lp4313
S'22'
p4314
asbag55
(g76
g57
NtRp4315
(dp4316
g60
(dp4317
g87
g88
ssg69
g4306
sg62
(lp4318
S':'
asbag55
(g76
g57
NtRp4319
(dp4320
g60
(dp4321
sg69
g4306
sg62
(lp4322
g55
(g56
g57
NtRp4323
(dp4324
g60
(dp4325
g68
I4
ssg69
g4319
sg62
(lp4326
S'2'
asbasbasbag55
(g71
g57
NtRp4327
(dp4328
g60
(dp4329
sg69
g3975
sg62
(lp4330
g55
(g76
g57
NtRp4331
(dp4332
g60
(dp4333
g80
g81
ssg69
g4327
sg62
(lp4334
S'24'
p4335
asbag55
(g76
g57
NtRp4336
(dp4337
g60
(dp4338
g87
g88
ssg69
g4327
sg62
(lp4339
S':'
asbag55
(g76
g57
NtRp4340
(dp4341
g60
(dp4342
sg69
g4327
sg62
(lp4343
g55
(g56
g57
NtRp4344
(dp4345
g60
(dp4346
g68
I4
ssg69
g4340
sg62
(lp4347
S'2'
asbasbasbag55
(g71
g57
NtRp4348
(dp4349
g60
(dp4350
sg69
g3975
sg62
(lp4351
g55
(g76
g57
NtRp4352
(dp4353
g60
(dp4354
g80
g81
ssg69
g4348
sg62
(lp4355
S'25'
p4356
asbag55
(g76
g57
NtRp4357
(dp4358
g60
(dp4359
g87
g88
ssg69
g4348
sg62
(lp4360
S':'
asbag55
(g76
g57
NtRp4361
(dp4362
g60
(dp4363
sg69
g4348
sg62
(lp4364
g55
(g56
g57
NtRp4365
(dp4366
g60
(dp4367
g68
I4
ssg69
g4361
sg62
(lp4368
S'2'
asbasbasbag55
(g71
g57
NtRp4369
(dp4370
g60
(dp4371
sg69
g3975
sg62
(lp4372
g55
(g76
g57
NtRp4373
(dp4374
g60
(dp4375
g80
g81
ssg69
g4369
sg62
(lp4376
S'29'
p4377
asbag55
(g76
g57
NtRp4378
(dp4379
g60
(dp4380
g87
g88
ssg69
g4369
sg62
(lp4381
S':'
asbag55
(g76
g57
NtRp4382
(dp4383
g60
(dp4384
sg69
g4369
sg62
(lp4385
g55
(g56
g57
NtRp4386
(dp4387
g60
(dp4388
g68
I4
ssg69
g4382
sg62
(lp4389
S'2'
asbasbasbag55
(g71
g57
NtRp4390
(dp4391
g60
(dp4392
sg69
g3975
sg62
(lp4393
g55
(g76
g57
NtRp4394
(dp4395
g60
(dp4396
g80
g81
ssg69
g4390
sg62
(lp4397
S'30'
p4398
asbag55
(g76
g57
NtRp4399
(dp4400
g60
(dp4401
g87
g88
ssg69
g4390
sg62
(lp4402
S':'
asbag55
(g76
g57
NtRp4403
(dp4404
g60
(dp4405
sg69
g4390
sg62
(lp4406
g55
(g56
g57
NtRp4407
(dp4408
g60
(dp4409
g68
I4
ssg69
g4403
sg62
(lp4410
S'2'
asbasbasbag55
(g71
g57
NtRp4411
(dp4412
g60
(dp4413
sg69
g3975
sg62
(lp4414
g55
(g76
g57
NtRp4415
(dp4416
g60
(dp4417
g80
g81
ssg69
g4411
sg62
(lp4418
S'31'
p4419
asbag55
(g76
g57
NtRp4420
(dp4421
g60
(dp4422
g87
g88
ssg69
g4411
sg62
(lp4423
S':'
asbag55
(g76
g57
NtRp4424
(dp4425
g60
(dp4426
sg69
g4411
sg62
(lp4427
g55
(g56
g57
NtRp4428
(dp4429
g60
(dp4430
g68
I4
ssg69
g4424
sg62
(lp4431
S'2'
asbasbasbag55
(g71
g57
NtRp4432
(dp4433
g60
(dp4434
sg69
g3975
sg62
(lp4435
g55
(g76
g57
NtRp4436
(dp4437
g60
(dp4438
g80
g81
ssg69
g4432
sg62
(lp4439
S'32'
p4440
asbag55
(g76
g57
NtRp4441
(dp4442
g60
(dp4443
g87
g88
ssg69
g4432
sg62
(lp4444
S':'
asbag55
(g76
g57
NtRp4445
(dp4446
g60
(dp4447
sg69
g4432
sg62
(lp4448
g55
(g56
g57
NtRp4449
(dp4450
g60
(dp4451
g68
I4
ssg69
g4445
sg62
(lp4452
S'2'
asbasbasbag55
(g71
g57
NtRp4453
(dp4454
g60
(dp4455
sg69
g3975
sg62
(lp4456
g55
(g76
g57
NtRp4457
(dp4458
g60
(dp4459
g80
g81
ssg69
g4453
sg62
(lp4460
S'33'
p4461
asbag55
(g76
g57
NtRp4462
(dp4463
g60
(dp4464
g87
g88
ssg69
g4453
sg62
(lp4465
S':'
asbag55
(g76
g57
NtRp4466
(dp4467
g60
(dp4468
sg69
g4453
sg62
(lp4469
g55
(g56
g57
NtRp4470
(dp4471
g60
(dp4472
g68
I4
ssg69
g4466
sg62
(lp4473
S'2'
asbasbasbag55
(g71
g57
NtRp4474
(dp4475
g60
(dp4476
sg69
g3975
sg62
(lp4477
g55
(g76
g57
NtRp4478
(dp4479
g60
(dp4480
g80
g81
ssg69
g4474
sg62
(lp4481
S'35'
p4482
asbag55
(g76
g57
NtRp4483
(dp4484
g60
(dp4485
g87
g88
ssg69
g4474
sg62
(lp4486
S':'
asbag55
(g76
g57
NtRp4487
(dp4488
g60
(dp4489
sg69
g4474
sg62
(lp4490
g55
(g56
g57
NtRp4491
(dp4492
g60
(dp4493
g68
I4
ssg69
g4487
sg62
(lp4494
S'2'
asbasbasbag55
(g71
g57
NtRp4495
(dp4496
g60
(dp4497
sg69
g3975
sg62
(lp4498
g55
(g76
g57
NtRp4499
(dp4500
g60
(dp4501
g80
g81
ssg69
g4495
sg62
(lp4502
S'36'
p4503
asbag55
(g76
g57
NtRp4504
(dp4505
g60
(dp4506
g87
g88
ssg69
g4495
sg62
(lp4507
S':'
asbag55
(g76
g57
NtRp4508
(dp4509
g60
(dp4510
sg69
g4495
sg62
(lp4511
g55
(g56
g57
NtRp4512
(dp4513
g60
(dp4514
g68
I4
ssg69
g4508
sg62
(lp4515
S'2'
asbasbasbag55
(g71
g57
NtRp4516
(dp4517
g60
(dp4518
sg69
g3975
sg62
(lp4519
g55
(g76
g57
NtRp4520
(dp4521
g60
(dp4522
g80
g81
ssg69
g4516
sg62
(lp4523
S'37'
p4524
asbag55
(g76
g57
NtRp4525
(dp4526
g60
(dp4527
g87
g88
ssg69
g4516
sg62
(lp4528
S':'
asbag55
(g76
g57
NtRp4529
(dp4530
g60
(dp4531
sg69
g4516
sg62
(lp4532
g55
(g56
g57
NtRp4533
(dp4534
g60
(dp4535
g68
I4
ssg69
g4529
sg62
(lp4536
S'2'
asbasbasbag55
(g71
g57
NtRp4537
(dp4538
g60
(dp4539
sg69
g3975
sg62
(lp4540
g55
(g76
g57
NtRp4541
(dp4542
g60
(dp4543
g80
g81
ssg69
g4537
sg62
(lp4544
S'39'
p4545
asbag55
(g76
g57
NtRp4546
(dp4547
g60
(dp4548
g87
g88
ssg69
g4537
sg62
(lp4549
S':'
asbag55
(g76
g57
NtRp4550
(dp4551
g60
(dp4552
sg69
g4537
sg62
(lp4553
g55
(g56
g57
NtRp4554
(dp4555
g60
(dp4556
g68
I4
ssg69
g4550
sg62
(lp4557
S'2'
asbasbasbag55
(g71
g57
NtRp4558
(dp4559
g60
(dp4560
sg69
g3975
sg62
(lp4561
g55
(g76
g57
NtRp4562
(dp4563
g60
(dp4564
g80
g81
ssg69
g4558
sg62
(lp4565
S'40'
p4566
asbag55
(g76
g57
NtRp4567
(dp4568
g60
(dp4569
g87
g88
ssg69
g4558
sg62
(lp4570
S':'
asbag55
(g76
g57
NtRp4571
(dp4572
g60
(dp4573
sg69
g4558
sg62
(lp4574
g55
(g56
g57
NtRp4575
(dp4576
g60
(dp4577
g68
I4
ssg69
g4571
sg62
(lp4578
S'1'
asbasbasbag55
(g71
g57
NtRp4579
(dp4580
g60
(dp4581
sg69
g3975
sg62
(lp4582
g55
(g76
g57
NtRp4583
(dp4584
g60
(dp4585
g80
g81
ssg69
g4579
sg62
(lp4586
S'43'
p4587
asbag55
(g76
g57
NtRp4588
(dp4589
g60
(dp4590
g87
g88
ssg69
g4579
sg62
(lp4591
S':'
asbag55
(g76
g57
NtRp4592
(dp4593
g60
(dp4594
sg69
g4579
sg62
(lp4595
g55
(g56
g57
NtRp4596
(dp4597
g60
(dp4598
g68
I4
ssg69
g4592
sg62
(lp4599
S'2'
asbasbasbag55
(g71
g57
NtRp4600
(dp4601
g60
(dp4602
sg69
g3975
sg62
(lp4603
g55
(g76
g57
NtRp4604
(dp4605
g60
(dp4606
g80
g81
ssg69
g4600
sg62
(lp4607
S'44'
p4608
asbag55
(g76
g57
NtRp4609
(dp4610
g60
(dp4611
g87
g88
ssg69
g4600
sg62
(lp4612
S':'
asbag55
(g76
g57
NtRp4613
(dp4614
g60
(dp4615
sg69
g4600
sg62
(lp4616
g55
(g56
g57
NtRp4617
(dp4618
g60
(dp4619
g68
I4
ssg69
g4613
sg62
(lp4620
S'1'
asbasbasbag55
(g71
g57
NtRp4621
(dp4622
g60
(dp4623
sg69
g3975
sg62
(lp4624
g55
(g76
g57
NtRp4625
(dp4626
g60
(dp4627
g80
g81
ssg69
g4621
sg62
(lp4628
S'48'
p4629
asbag55
(g76
g57
NtRp4630
(dp4631
g60
(dp4632
g87
g88
ssg69
g4621
sg62
(lp4633
S':'
asbag55
(g76
g57
NtRp4634
(dp4635
g60
(dp4636
sg69
g4621
sg62
(lp4637
g55
(g56
g57
NtRp4638
(dp4639
g60
(dp4640
g68
I4
ssg69
g4634
sg62
(lp4641
S'1'
asbasbasbasbasbasbasbag55
(g71
g57
NtRp4642
(dp4643
g60
(dp4644
sg69
g3269
sg62
(lp4645
g55
(g76
g57
NtRp4646
(dp4647
g60
(dp4648
g80
g81
ssg69
g4642
sg62
(lp4649
S'tagset'
p4650
asbag55
(g76
g57
NtRp4651
(dp4652
g60
(dp4653
g87
g88
ssg69
g4642
sg62
(lp4654
S':'
asbag55
(g76
g57
NtRp4655
(dp4656
g60
(dp4657
sg69
g4642
sg62
(lp4658
g55
(g56
g57
NtRp4659
(dp4660
g60
(dp4661
g68
I5
ssg69
g4655
sg62
(lp4662
g55
(g64
g57
NtRp4663
(dp4664
g60
(dp4665
g68
I4
ssg69
Nsg62
(lp4666
g55
(g71
g57
NtRp4667
(dp4668
g60
(dp4669
sg69
g4663
sg62
(lp4670
g55
(g76
g57
NtRp4671
(dp4672
g60
(dp4673
g80
g81
ssg69
g4667
sg62
(lp4674
S'1'
asbag55
(g76
g57
NtRp4675
(dp4676
g60
(dp4677
g87
g88
ssg69
g4667
sg62
(lp4678
S':'
asbag55
(g76
g57
NtRp4679
(dp4680
g60
(dp4681
sg69
g4667
sg62
(lp4682
g55
(g56
g57
NtRp4683
(dp4684
g60
(dp4685
g68
I4
ssg69
g4679
sg62
(lp4686
S'1'
asbasbasbag55
(g71
g57
NtRp4687
(dp4688
g60
(dp4689
sg69
g4663
sg62
(lp4690
g55
(g76
g57
NtRp4691
(dp4692
g60
(dp4693
g80
g81
ssg69
g4687
sg62
(lp4694
S'2'
asbag55
(g76
g57
NtRp4695
(dp4696
g60
(dp4697
g87
g88
ssg69
g4687
sg62
(lp4698
S':'
asbag55
(g76
g57
NtRp4699
(dp4700
g60
(dp4701
sg69
g4687
sg62
(lp4702
g55
(g56
g57
NtRp4703
(dp4704
g60
(dp4705
g68
I4
ssg69
g4699
sg62
(lp4706
S'1'
asbasbasbag55
(g71
g57
NtRp4707
(dp4708
g60
(dp4709
sg69
g4663
sg62
(lp4710
g55
(g76
g57
NtRp4711
(dp4712
g60
(dp4713
g80
g81
ssg69
g4707
sg62
(lp4714
S'3'
asbag55
(g76
g57
NtRp4715
(dp4716
g60
(dp4717
g87
g88
ssg69
g4707
sg62
(lp4718
S':'
asbag55
(g76
g57
NtRp4719
(dp4720
g60
(dp4721
sg69
g4707
sg62
(lp4722
g55
(g56
g57
NtRp4723
(dp4724
g60
(dp4725
g68
I4
ssg69
g4719
sg62
(lp4726
S'1'
asbasbasbag55
(g71
g57
NtRp4727
(dp4728
g60
(dp4729
sg69
g4663
sg62
(lp4730
g55
(g76
g57
NtRp4731
(dp4732
g60
(dp4733
g80
g81
ssg69
g4727
sg62
(lp4734
S'4'
asbag55
(g76
g57
NtRp4735
(dp4736
g60
(dp4737
g87
g88
ssg69
g4727
sg62
(lp4738
S':'
asbag55
(g76
g57
NtRp4739
(dp4740
g60
(dp4741
sg69
g4727
sg62
(lp4742
g55
(g56
g57
NtRp4743
(dp4744
g60
(dp4745
g68
I4
ssg69
g4739
sg62
(lp4746
S'1'
asbasbasbag55
(g71
g57
NtRp4747
(dp4748
g60
(dp4749
sg69
g4663
sg62
(lp4750
g55
(g76
g57
NtRp4751
(dp4752
g60
(dp4753
g80
g81
ssg69
g4747
sg62
(lp4754
S'5'
asbag55
(g76
g57
NtRp4755
(dp4756
g60
(dp4757
g87
g88
ssg69
g4747
sg62
(lp4758
S':'
asbag55
(g76
g57
NtRp4759
(dp4760
g60
(dp4761
sg69
g4747
sg62
(lp4762
g55
(g56
g57
NtRp4763
(dp4764
g60
(dp4765
g68
I4
ssg69
g4759
sg62
(lp4766
S'1'
asbasbasbag55
(g71
g57
NtRp4767
(dp4768
g60
(dp4769
sg69
g4663
sg62
(lp4770
g55
(g76
g57
NtRp4771
(dp4772
g60
(dp4773
g80
g81
ssg69
g4767
sg62
(lp4774
S'6'
asbag55
(g76
g57
NtRp4775
(dp4776
g60
(dp4777
g87
g88
ssg69
g4767
sg62
(lp4778
S':'
asbag55
(g76
g57
NtRp4779
(dp4780
g60
(dp4781
sg69
g4767
sg62
(lp4782
g55
(g56
g57
NtRp4783
(dp4784
g60
(dp4785
g68
I4
ssg69
g4779
sg62
(lp4786
S'1'
asbasbasbag55
(g71
g57
NtRp4787
(dp4788
g60
(dp4789
sg69
g4663
sg62
(lp4790
g55
(g76
g57
NtRp4791
(dp4792
g60
(dp4793
g80
g81
ssg69
g4787
sg62
(lp4794
S'7'
asbag55
(g76
g57
NtRp4795
(dp4796
g60
(dp4797
g87
g88
ssg69
g4787
sg62
(lp4798
S':'
asbag55
(g76
g57
NtRp4799
(dp4800
g60
(dp4801
sg69
g4787
sg62
(lp4802
g55
(g56
g57
NtRp4803
(dp4804
g60
(dp4805
g68
I4
ssg69
g4799
sg62
(lp4806
S'1'
asbasbasbag55
(g71
g57
NtRp4807
(dp4808
g60
(dp4809
sg69
g4663
sg62
(lp4810
g55
(g76
g57
NtRp4811
(dp4812
g60
(dp4813
g80
g81
ssg69
g4807
sg62
(lp4814
S'8'
asbag55
(g76
g57
NtRp4815
(dp4816
g60
(dp4817
g87
g88
ssg69
g4807
sg62
(lp4818
S':'
asbag55
(g76
g57
NtRp4819
(dp4820
g60
(dp4821
sg69
g4807
sg62
(lp4822
g55
(g56
g57
NtRp4823
(dp4824
g60
(dp4825
g68
I4
ssg69
g4819
sg62
(lp4826
S'1'
asbasbasbag55
(g71
g57
NtRp4827
(dp4828
g60
(dp4829
sg69
g4663
sg62
(lp4830
g55
(g76
g57
NtRp4831
(dp4832
g60
(dp4833
g80
g81
ssg69
g4827
sg62
(lp4834
S'9'
asbag55
(g76
g57
NtRp4835
(dp4836
g60
(dp4837
g87
g88
ssg69
g4827
sg62
(lp4838
S':'
asbag55
(g76
g57
NtRp4839
(dp4840
g60
(dp4841
sg69
g4827
sg62
(lp4842
g55
(g56
g57
NtRp4843
(dp4844
g60
(dp4845
g68
I4
ssg69
g4839
sg62
(lp4846
S'1'
asbasbasbag55
(g71
g57
NtRp4847
(dp4848
g60
(dp4849
sg69
g4663
sg62
(lp4850
g55
(g76
g57
NtRp4851
(dp4852
g60
(dp4853
g80
g81
ssg69
g4847
sg62
(lp4854
S'10'
p4855
asbag55
(g76
g57
NtRp4856
(dp4857
g60
(dp4858
g87
g88
ssg69
g4847
sg62
(lp4859
S':'
asbag55
(g76
g57
NtRp4860
(dp4861
g60
(dp4862
sg69
g4847
sg62
(lp4863
g55
(g56
g57
NtRp4864
(dp4865
g60
(dp4866
g68
I4
ssg69
g4860
sg62
(lp4867
S'1'
asbasbasbag55
(g71
g57
NtRp4868
(dp4869
g60
(dp4870
sg69
g4663
sg62
(lp4871
g55
(g76
g57
NtRp4872
(dp4873
g60
(dp4874
g80
g81
ssg69
g4868
sg62
(lp4875
S'12'
p4876
asbag55
(g76
g57
NtRp4877
(dp4878
g60
(dp4879
g87
g88
ssg69
g4868
sg62
(lp4880
S':'
asbag55
(g76
g57
NtRp4881
(dp4882
g60
(dp4883
sg69
g4868
sg62
(lp4884
g55
(g56
g57
NtRp4885
(dp4886
g60
(dp4887
g68
I4
ssg69
g4881
sg62
(lp4888
S'1'
asbasbasbag55
(g71
g57
NtRp4889
(dp4890
g60
(dp4891
sg69
g4663
sg62
(lp4892
g55
(g76
g57
NtRp4893
(dp4894
g60
(dp4895
g80
g81
ssg69
g4889
sg62
(lp4896
S'14'
p4897
asbag55
(g76
g57
NtRp4898
(dp4899
g60
(dp4900
g87
g88
ssg69
g4889
sg62
(lp4901
S':'
asbag55
(g76
g57
NtRp4902
(dp4903
g60
(dp4904
sg69
g4889
sg62
(lp4905
g55
(g56
g57
NtRp4906
(dp4907
g60
(dp4908
g68
I4
ssg69
g4902
sg62
(lp4909
S'1'
asbasbasbag55
(g71
g57
NtRp4910
(dp4911
g60
(dp4912
sg69
g4663
sg62
(lp4913
g55
(g76
g57
NtRp4914
(dp4915
g60
(dp4916
g80
g81
ssg69
g4910
sg62
(lp4917
S'15'
p4918
asbag55
(g76
g57
NtRp4919
(dp4920
g60
(dp4921
g87
g88
ssg69
g4910
sg62
(lp4922
S':'
asbag55
(g76
g57
NtRp4923
(dp4924
g60
(dp4925
sg69
g4910
sg62
(lp4926
g55
(g56
g57
NtRp4927
(dp4928
g60
(dp4929
g68
I4
ssg69
g4923
sg62
(lp4930
S'1'
asbasbasbag55
(g71
g57
NtRp4931
(dp4932
g60
(dp4933
sg69
g4663
sg62
(lp4934
g55
(g76
g57
NtRp4935
(dp4936
g60
(dp4937
g80
g81
ssg69
g4931
sg62
(lp4938
S'16'
p4939
asbag55
(g76
g57
NtRp4940
(dp4941
g60
(dp4942
g87
g88
ssg69
g4931
sg62
(lp4943
S':'
asbag55
(g76
g57
NtRp4944
(dp4945
g60
(dp4946
sg69
g4931
sg62
(lp4947
g55
(g56
g57
NtRp4948
(dp4949
g60
(dp4950
g68
I4
ssg69
g4944
sg62
(lp4951
S'1'
asbasbasbag55
(g71
g57
NtRp4952
(dp4953
g60
(dp4954
sg69
g4663
sg62
(lp4955
g55
(g76
g57
NtRp4956
(dp4957
g60
(dp4958
g80
g81
ssg69
g4952
sg62
(lp4959
S'17'
p4960
asbag55
(g76
g57
NtRp4961
(dp4962
g60
(dp4963
g87
g88
ssg69
g4952
sg62
(lp4964
S':'
asbag55
(g76
g57
NtRp4965
(dp4966
g60
(dp4967
sg69
g4952
sg62
(lp4968
g55
(g56
g57
NtRp4969
(dp4970
g60
(dp4971
g68
I4
ssg69
g4965
sg62
(lp4972
S'1'
asbasbasbag55
(g71
g57
NtRp4973
(dp4974
g60
(dp4975
sg69
g4663
sg62
(lp4976
g55
(g76
g57
NtRp4977
(dp4978
g60
(dp4979
g80
g81
ssg69
g4973
sg62
(lp4980
S'18'
p4981
asbag55
(g76
g57
NtRp4982
(dp4983
g60
(dp4984
g87
g88
ssg69
g4973
sg62
(lp4985
S':'
asbag55
(g76
g57
NtRp4986
(dp4987
g60
(dp4988
sg69
g4973
sg62
(lp4989
g55
(g56
g57
NtRp4990
(dp4991
g60
(dp4992
g68
I4
ssg69
g4986
sg62
(lp4993
S'1'
asbasbasbag55
(g71
g57
NtRp4994
(dp4995
g60
(dp4996
sg69
g4663
sg62
(lp4997
g55
(g76
g57
NtRp4998
(dp4999
g60
(dp5000
g80
g81
ssg69
g4994
sg62
(lp5001
S'22'
p5002
asbag55
(g76
g57
NtRp5003
(dp5004
g60
(dp5005
g87
g88
ssg69
g4994
sg62
(lp5006
S':'
asbag55
(g76
g57
NtRp5007
(dp5008
g60
(dp5009
sg69
g4994
sg62
(lp5010
g55
(g56
g57
NtRp5011
(dp5012
g60
(dp5013
g68
I4
ssg69
g5007
sg62
(lp5014
S'1'
asbasbasbag55
(g71
g57
NtRp5015
(dp5016
g60
(dp5017
sg69
g4663
sg62
(lp5018
g55
(g76
g57
NtRp5019
(dp5020
g60
(dp5021
g80
g81
ssg69
g5015
sg62
(lp5022
S'24'
p5023
asbag55
(g76
g57
NtRp5024
(dp5025
g60
(dp5026
g87
g88
ssg69
g5015
sg62
(lp5027
S':'
asbag55
(g76
g57
NtRp5028
(dp5029
g60
(dp5030
sg69
g5015
sg62
(lp5031
g55
(g56
g57
NtRp5032
(dp5033
g60
(dp5034
g68
I4
ssg69
g5028
sg62
(lp5035
S'1'
asbasbasbag55
(g71
g57
NtRp5036
(dp5037
g60
(dp5038
sg69
g4663
sg62
(lp5039
g55
(g76
g57
NtRp5040
(dp5041
g60
(dp5042
g80
g81
ssg69
g5036
sg62
(lp5043
S'25'
p5044
asbag55
(g76
g57
NtRp5045
(dp5046
g60
(dp5047
g87
g88
ssg69
g5036
sg62
(lp5048
S':'
asbag55
(g76
g57
NtRp5049
(dp5050
g60
(dp5051
sg69
g5036
sg62
(lp5052
g55
(g56
g57
NtRp5053
(dp5054
g60
(dp5055
g68
I4
ssg69
g5049
sg62
(lp5056
S'1'
asbasbasbag55
(g71
g57
NtRp5057
(dp5058
g60
(dp5059
sg69
g4663
sg62
(lp5060
g55
(g76
g57
NtRp5061
(dp5062
g60
(dp5063
g80
g81
ssg69
g5057
sg62
(lp5064
S'29'
p5065
asbag55
(g76
g57
NtRp5066
(dp5067
g60
(dp5068
g87
g88
ssg69
g5057
sg62
(lp5069
S':'
asbag55
(g76
g57
NtRp5070
(dp5071
g60
(dp5072
sg69
g5057
sg62
(lp5073
g55
(g56
g57
NtRp5074
(dp5075
g60
(dp5076
g68
I4
ssg69
g5070
sg62
(lp5077
S'1'
asbasbasbag55
(g71
g57
NtRp5078
(dp5079
g60
(dp5080
sg69
g4663
sg62
(lp5081
g55
(g76
g57
NtRp5082
(dp5083
g60
(dp5084
g80
g81
ssg69
g5078
sg62
(lp5085
S'30'
p5086
asbag55
(g76
g57
NtRp5087
(dp5088
g60
(dp5089
g87
g88
ssg69
g5078
sg62
(lp5090
S':'
asbag55
(g76
g57
NtRp5091
(dp5092
g60
(dp5093
sg69
g5078
sg62
(lp5094
g55
(g56
g57
NtRp5095
(dp5096
g60
(dp5097
g68
I4
ssg69
g5091
sg62
(lp5098
S'1'
asbasbasbag55
(g71
g57
NtRp5099
(dp5100
g60
(dp5101
sg69
g4663
sg62
(lp5102
g55
(g76
g57
NtRp5103
(dp5104
g60
(dp5105
g80
g81
ssg69
g5099
sg62
(lp5106
S'31'
p5107
asbag55
(g76
g57
NtRp5108
(dp5109
g60
(dp5110
g87
g88
ssg69
g5099
sg62
(lp5111
S':'
asbag55
(g76
g57
NtRp5112
(dp5113
g60
(dp5114
sg69
g5099
sg62
(lp5115
g55
(g56
g57
NtRp5116
(dp5117
g60
(dp5118
g68
I4
ssg69
g5112
sg62
(lp5119
S'1'
asbasbasbag55
(g71
g57
NtRp5120
(dp5121
g60
(dp5122
sg69
g4663
sg62
(lp5123
g55
(g76
g57
NtRp5124
(dp5125
g60
(dp5126
g80
g81
ssg69
g5120
sg62
(lp5127
S'32'
p5128
asbag55
(g76
g57
NtRp5129
(dp5130
g60
(dp5131
g87
g88
ssg69
g5120
sg62
(lp5132
S':'
asbag55
(g76
g57
NtRp5133
(dp5134
g60
(dp5135
sg69
g5120
sg62
(lp5136
g55
(g56
g57
NtRp5137
(dp5138
g60
(dp5139
g68
I4
ssg69
g5133
sg62
(lp5140
S'1'
asbasbasbag55
(g71
g57
NtRp5141
(dp5142
g60
(dp5143
sg69
g4663
sg62
(lp5144
g55
(g76
g57
NtRp5145
(dp5146
g60
(dp5147
g80
g81
ssg69
g5141
sg62
(lp5148
S'33'
p5149
asbag55
(g76
g57
NtRp5150
(dp5151
g60
(dp5152
g87
g88
ssg69
g5141
sg62
(lp5153
S':'
asbag55
(g76
g57
NtRp5154
(dp5155
g60
(dp5156
sg69
g5141
sg62
(lp5157
g55
(g56
g57
NtRp5158
(dp5159
g60
(dp5160
g68
I4
ssg69
g5154
sg62
(lp5161
S'1'
asbasbasbag55
(g71
g57
NtRp5162
(dp5163
g60
(dp5164
sg69
g4663
sg62
(lp5165
g55
(g76
g57
NtRp5166
(dp5167
g60
(dp5168
g80
g81
ssg69
g5162
sg62
(lp5169
S'35'
p5170
asbag55
(g76
g57
NtRp5171
(dp5172
g60
(dp5173
g87
g88
ssg69
g5162
sg62
(lp5174
S':'
asbag55
(g76
g57
NtRp5175
(dp5176
g60
(dp5177
sg69
g5162
sg62
(lp5178
g55
(g56
g57
NtRp5179
(dp5180
g60
(dp5181
g68
I4
ssg69
g5175
sg62
(lp5182
S'1'
asbasbasbag55
(g71
g57
NtRp5183
(dp5184
g60
(dp5185
sg69
g4663
sg62
(lp5186
g55
(g76
g57
NtRp5187
(dp5188
g60
(dp5189
g80
g81
ssg69
g5183
sg62
(lp5190
S'36'
p5191
asbag55
(g76
g57
NtRp5192
(dp5193
g60
(dp5194
g87
g88
ssg69
g5183
sg62
(lp5195
S':'
asbag55
(g76
g57
NtRp5196
(dp5197
g60
(dp5198
sg69
g5183
sg62
(lp5199
g55
(g56
g57
NtRp5200
(dp5201
g60
(dp5202
g68
I4
ssg69
g5196
sg62
(lp5203
S'1'
asbasbasbag55
(g71
g57
NtRp5204
(dp5205
g60
(dp5206
sg69
g4663
sg62
(lp5207
g55
(g76
g57
NtRp5208
(dp5209
g60
(dp5210
g80
g81
ssg69
g5204
sg62
(lp5211
S'37'
p5212
asbag55
(g76
g57
NtRp5213
(dp5214
g60
(dp5215
g87
g88
ssg69
g5204
sg62
(lp5216
S':'
asbag55
(g76
g57
NtRp5217
(dp5218
g60
(dp5219
sg69
g5204
sg62
(lp5220
g55
(g56
g57
NtRp5221
(dp5222
g60
(dp5223
g68
I4
ssg69
g5217
sg62
(lp5224
S'1'
asbasbasbag55
(g71
g57
NtRp5225
(dp5226
g60
(dp5227
sg69
g4663
sg62
(lp5228
g55
(g76
g57
NtRp5229
(dp5230
g60
(dp5231
g80
g81
ssg69
g5225
sg62
(lp5232
S'39'
p5233
asbag55
(g76
g57
NtRp5234
(dp5235
g60
(dp5236
g87
g88
ssg69
g5225
sg62
(lp5237
S':'
asbag55
(g76
g57
NtRp5238
(dp5239
g60
(dp5240
sg69
g5225
sg62
(lp5241
g55
(g56
g57
NtRp5242
(dp5243
g60
(dp5244
g68
I4
ssg69
g5238
sg62
(lp5245
S'1'
asbasbasbag55
(g71
g57
NtRp5246
(dp5247
g60
(dp5248
sg69
g4663
sg62
(lp5249
g55
(g76
g57
NtRp5250
(dp5251
g60
(dp5252
g80
g81
ssg69
g5246
sg62
(lp5253
S'40'
p5254
asbag55
(g76
g57
NtRp5255
(dp5256
g60
(dp5257
g87
g88
ssg69
g5246
sg62
(lp5258
S':'
asbag55
(g76
g57
NtRp5259
(dp5260
g60
(dp5261
sg69
g5246
sg62
(lp5262
g55
(g56
g57
NtRp5263
(dp5264
g60
(dp5265
g68
I4
ssg69
g5259
sg62
(lp5266
S'1'
asbasbasbag55
(g71
g57
NtRp5267
(dp5268
g60
(dp5269
sg69
g4663
sg62
(lp5270
g55
(g76
g57
NtRp5271
(dp5272
g60
(dp5273
g80
g81
ssg69
g5267
sg62
(lp5274
S'43'
p5275
asbag55
(g76
g57
NtRp5276
(dp5277
g60
(dp5278
g87
g88
ssg69
g5267
sg62
(lp5279
S':'
asbag55
(g76
g57
NtRp5280
(dp5281
g60
(dp5282
sg69
g5267
sg62
(lp5283
g55
(g56
g57
NtRp5284
(dp5285
g60
(dp5286
g68
I4
ssg69
g5280
sg62
(lp5287
S'1'
asbasbasbag55
(g71
g57
NtRp5288
(dp5289
g60
(dp5290
sg69
g4663
sg62
(lp5291
g55
(g76
g57
NtRp5292
(dp5293
g60
(dp5294
g80
g81
ssg69
g5288
sg62
(lp5295
S'44'
p5296
asbag55
(g76
g57
NtRp5297
(dp5298
g60
(dp5299
g87
g88
ssg69
g5288
sg62
(lp5300
S':'
asbag55
(g76
g57
NtRp5301
(dp5302
g60
(dp5303
sg69
g5288
sg62
(lp5304
g55
(g56
g57
NtRp5305
(dp5306
g60
(dp5307
g68
I4
ssg69
g5301
sg62
(lp5308
S'1'
asbasbasbag55
(g71
g57
NtRp5309
(dp5310
g60
(dp5311
sg69
g4663
sg62
(lp5312
g55
(g76
g57
NtRp5313
(dp5314
g60
(dp5315
g80
g81
ssg69
g5309
sg62
(lp5316
S'48'
p5317
asbag55
(g76
g57
NtRp5318
(dp5319
g60
(dp5320
g87
g88
ssg69
g5309
sg62
(lp5321
S':'
asbag55
(g76
g57
NtRp5322
(dp5323
g60
(dp5324
sg69
g5309
sg62
(lp5325
g55
(g56
g57
NtRp5326
(dp5327
g60
(dp5328
g68
I4
ssg69
g5322
sg62
(lp5329
S'1'
asbasbasbasbasbasbasbasbasbsS'etype'
p5330
S"<type 'exceptions.TypeError'>"
p5331
sS'date'
p5332
S'Wed Mar 14 11:43:04 2012'
p5333
sS'response'
p5334
g55
(g56
g57
NtRp5335
(dp5336
g60
(dp5337
sg62
(lp5338
g55
(g64
g57
NtRp5339
(dp5340
g60
(dp5341
g68
I5
ssg69
Nsg62
(lp5342
g55
(g71
g57
NtRp5343
(dp5344
g60
(dp5345
sg69
g5339
sg62
(lp5346
g55
(g76
g57
NtRp5347
(dp5348
g60
(dp5349
g80
g81
ssg69
g5343
sg62
(lp5350
g153
asbag55
(g76
g57
NtRp5351
(dp5352
g60
(dp5353
g87
g88
ssg69
g5343
sg62
(lp5354
S':'
asbag55
(g76
g57
NtRp5355
(dp5356
g60
(dp5357
sg69
g5343
sg62
(lp5358
g55
(g56
g57
NtRp5359
(dp5360
g60
(dp5361
g68
I5
ssg69
g5355
sg62
(lp5362
S'<cStringIO.StringO object at 0x7f89ac349110>'
p5363
asbasbasbag55
(g71
g57
NtRp5364
(dp5365
g60
(dp5366
sg69
g5339
sg62
(lp5367
g55
(g76
g57
NtRp5368
(dp5369
g60
(dp5370
g80
g81
ssg69
g5364
sg62
(lp5371
g219
asbag55
(g76
g57
NtRp5372
(dp5373
g60
(dp5374
g87
g88
ssg69
g5364
sg62
(lp5375
S':'
asbag55
(g76
g57
NtRp5376
(dp5377
g60
(dp5378
sg69
g5364
sg62
(lp5379
g55
(g56
g57
NtRp5380
(dp5381
g60
(dp5382
g68
I5
ssg69
g5376
sg62
(lp5383
g55
(g64
g57
NtRp5384
(dp5385
g60
(dp5386
g68
I4
ssg69
Nsg62
(lp5387
g55
(g71
g57
NtRp5388
(dp5389
g60
(dp5390
sg69
g5384
sg62
(lp5391
g55
(g76
g57
NtRp5392
(dp5393
g60
(dp5394
g80
g81
ssg69
g5388
sg62
(lp5395
S'session_id_paideia'
p5396
asbag55
(g76
g57
NtRp5397
(dp5398
g60
(dp5399
g87
g88
ssg69
g5388
sg62
(lp5400
S':'
asbag55
(g76
g57
NtRp5401
(dp5402
g60
(dp5403
sg69
g5388
sg62
(lp5404
g55
(g56
g57
NtRp5405
(dp5406
g60
(dp5407
g68
I4
ssg69
g5401
sg62
(lp5408
g55
(g64
g57
NtRp5409
(dp5410
g60
(dp5411
g68
I3
ssg69
Nsg62
(lp5412
g55
(g71
g57
NtRp5413
(dp5414
g60
(dp5415
sg69
g5409
sg62
(lp5416
g55
(g76
g57
NtRp5417
(dp5418
g60
(dp5419
g80
g81
ssg69
g5413
sg62
(lp5420
g269
asbag55
(g76
g57
NtRp5421
(dp5422
g60
(dp5423
g87
g88
ssg69
g5413
sg62
(lp5424
S':'
asbag55
(g76
g57
NtRp5425
(dp5426
g60
(dp5427
sg69
g5413
sg62
(lp5428
g55
(g56
g57
NtRp5429
(dp5430
g60
(dp5431
g68
I3
ssg69
g5425
sg62
(lp5432
S''
asbasbasbag55
(g71
g57
NtRp5433
(dp5434
g60
(dp5435
sg69
g5409
sg62
(lp5436
g55
(g76
g57
NtRp5437
(dp5438
g60
(dp5439
g80
g81
ssg69
g5433
sg62
(lp5440
g290
asbag55
(g76
g57
NtRp5441
(dp5442
g60
(dp5443
g87
g88
ssg69
g5433
sg62
(lp5444
S':'
asbag55
(g76
g57
NtRp5445
(dp5446
g60
(dp5447
sg69
g5433
sg62
(lp5448
g55
(g56
g57
NtRp5449
(dp5450
g60
(dp5451
g68
I3
ssg69
g5445
sg62
(lp5452
S''
asbasbasbag55
(g71
g57
NtRp5453
(dp5454
g60
(dp5455
sg69
g5409
sg62
(lp5456
g55
(g76
g57
NtRp5457
(dp5458
g60
(dp5459
g80
g81
ssg69
g5453
sg62
(lp5460
g311
asbag55
(g76
g57
NtRp5461
(dp5462
g60
(dp5463
g87
g88
ssg69
g5453
sg62
(lp5464
S':'
asbag55
(g76
g57
NtRp5465
(dp5466
g60
(dp5467
sg69
g5453
sg62
(lp5468
g55
(g56
g57
NtRp5469
(dp5470
g60
(dp5471
g68
I3
ssg69
g5465
sg62
(lp5472
S'2592000'
p5473
asbasbasbag55
(g71
g57
NtRp5474
(dp5475
g60
(dp5476
sg69
g5409
sg62
(lp5477
g55
(g76
g57
NtRp5478
(dp5479
g60
(dp5480
g80
g81
ssg69
g5474
sg62
(lp5481
g332
asbag55
(g76
g57
NtRp5482
(dp5483
g60
(dp5484
g87
g88
ssg69
g5474
sg62
(lp5485
S':'
asbag55
(g76
g57
NtRp5486
(dp5487
g60
(dp5488
sg69
g5474
sg62
(lp5489
g55
(g56
g57
NtRp5490
(dp5491
g60
(dp5492
g68
I3
ssg69
g5486
sg62
(lp5493
S''
asbasbasbag55
(g71
g57
NtRp5494
(dp5495
g60
(dp5496
sg69
g5409
sg62
(lp5497
g55
(g76
g57
NtRp5498
(dp5499
g60
(dp5500
g80
g81
ssg69
g5494
sg62
(lp5501
g353
asbag55
(g76
g57
NtRp5502
(dp5503
g60
(dp5504
g87
g88
ssg69
g5494
sg62
(lp5505
S':'
asbag55
(g76
g57
NtRp5506
(dp5507
g60
(dp5508
sg69
g5494
sg62
(lp5509
g55
(g56
g57
NtRp5510
(dp5511
g60
(dp5512
g68
I3
ssg69
g5506
sg62
(lp5513
S''
asbasbasbag55
(g71
g57
NtRp5514
(dp5515
g60
(dp5516
sg69
g5409
sg62
(lp5517
g55
(g76
g57
NtRp5518
(dp5519
g60
(dp5520
g80
g81
ssg69
g5514
sg62
(lp5521
g374
asbag55
(g76
g57
NtRp5522
(dp5523
g60
(dp5524
g87
g88
ssg69
g5514
sg62
(lp5525
S':'
asbag55
(g76
g57
NtRp5526
(dp5527
g60
(dp5528
sg69
g5514
sg62
(lp5529
g55
(g56
g57
NtRp5530
(dp5531
g60
(dp5532
g68
I3
ssg69
g5526
sg62
(lp5533
S'/'
asbasbasbag55
(g71
g57
NtRp5534
(dp5535
g60
(dp5536
sg69
g5409
sg62
(lp5537
g55
(g76
g57
NtRp5538
(dp5539
g60
(dp5540
g80
g81
ssg69
g5534
sg62
(lp5541
g395
asbag55
(g76
g57
NtRp5542
(dp5543
g60
(dp5544
g87
g88
ssg69
g5534
sg62
(lp5545
S':'
asbag55
(g76
g57
NtRp5546
(dp5547
g60
(dp5548
sg69
g5534
sg62
(lp5549
g55
(g56
g57
NtRp5550
(dp5551
g60
(dp5552
g68
I3
ssg69
g5546
sg62
(lp5553
S''
asbasbasbag55
(g71
g57
NtRp5554
(dp5555
g60
(dp5556
sg69
g5409
sg62
(lp5557
g55
(g76
g57
NtRp5558
(dp5559
g60
(dp5560
g80
g81
ssg69
g5554
sg62
(lp5561
g416
asbag55
(g76
g57
NtRp5562
(dp5563
g60
(dp5564
g87
g88
ssg69
g5554
sg62
(lp5565
S':'
asbag55
(g76
g57
NtRp5566
(dp5567
g60
(dp5568
sg69
g5554
sg62
(lp5569
g55
(g56
g57
NtRp5570
(dp5571
g60
(dp5572
g68
I3
ssg69
g5566
sg62
(lp5573
S''
asbasbasbasbasbasbasbasbasbasbasbag55
(g71
g57
NtRp5574
(dp5575
g60
(dp5576
sg69
g5339
sg62
(lp5577
g55
(g76
g57
NtRp5578
(dp5579
g60
(dp5580
g80
g81
ssg69
g5574
sg62
(lp5581
S'files'
p5582
asbag55
(g76
g57
NtRp5583
(dp5584
g60
(dp5585
g87
g88
ssg69
g5574
sg62
(lp5586
S':'
asbag55
(g76
g57
NtRp5587
(dp5588
g60
(dp5589
sg69
g5574
sg62
(lp5590
g55
(g56
g57
NtRp5591
(dp5592
g60
(dp5593
g68
I5
ssg69
g5587
sg62
(lp5594
g55
(g64
g57
NtRp5595
(dp5596
g60
(dp5597
g68
I4
ssg69
Nsg62
(lp5598
g55
(g71
g57
NtRp5599
(dp5600
g60
(dp5601
sg69
g5595
sg62
(lp5602
g55
(g76
g57
NtRp5603
(dp5604
g60
(dp5605
sg69
g5599
sg62
(lp5606
g55
(g56
g57
NtRp5607
(dp5608
g60
(dp5609
g68
I4
ssg69
g5603
sg62
(lp5610
S'/paideia/static/js/jquery.js'
p5611
asbasbasbag55
(g71
g57
NtRp5612
(dp5613
g60
(dp5614
sg69
g5595
sg62
(lp5615
g55
(g76
g57
NtRp5616
(dp5617
g60
(dp5618
sg69
g5612
sg62
(lp5619
g55
(g56
g57
NtRp5620
(dp5621
g60
(dp5622
g68
I4
ssg69
g5616
sg62
(lp5623
S'/paideia/static/css/calendar.css'
p5624
asbasbasbag55
(g71
g57
NtRp5625
(dp5626
g60
(dp5627
sg69
g5595
sg62
(lp5628
g55
(g76
g57
NtRp5629
(dp5630
g60
(dp5631
sg69
g5625
sg62
(lp5632
g55
(g56
g57
NtRp5633
(dp5634
g60
(dp5635
g68
I4
ssg69
g5629
sg62
(lp5636
S'/paideia/static/js/calendar.js'
p5637
asbasbasbag55
(g71
g57
NtRp5638
(dp5639
g60
(dp5640
sg69
g5595
sg62
(lp5641
g55
(g76
g57
NtRp5642
(dp5643
g60
(dp5644
sg69
g5638
sg62
(lp5645
g55
(g56
g57
NtRp5646
(dp5647
g60
(dp5648
g68
I4
ssg69
g5642
sg62
(lp5649
S'/paideia/static/plugin_ajaxselect/plugin_ajaxselect.js'
p5650
asbasbasbag55
(g71
g57
NtRp5651
(dp5652
g60
(dp5653
sg69
g5595
sg62
(lp5654
g55
(g76
g57
NtRp5655
(dp5656
g60
(dp5657
sg69
g5651
sg62
(lp5658
g55
(g56
g57
NtRp5659
(dp5660
g60
(dp5661
g68
I4
ssg69
g5655
sg62
(lp5662
S'/paideia/static/plugin_framework/normalize.css'
p5663
asbasbasbag55
(g71
g57
NtRp5664
(dp5665
g60
(dp5666
sg69
g5595
sg62
(lp5667
g55
(g76
g57
NtRp5668
(dp5669
g60
(dp5670
sg69
g5664
sg62
(lp5671
g55
(g56
g57
NtRp5672
(dp5673
g60
(dp5674
g68
I4
ssg69
g5668
sg62
(lp5675
S'/paideia/static/css/superfish.css'
p5676
asbasbasbag55
(g71
g57
NtRp5677
(dp5678
g60
(dp5679
sg69
g5595
sg62
(lp5680
g55
(g76
g57
NtRp5681
(dp5682
g60
(dp5683
sg69
g5677
sg62
(lp5684
g55
(g56
g57
NtRp5685
(dp5686
g60
(dp5687
g68
I4
ssg69
g5681
sg62
(lp5688
S'/paideia/static/js/superfish.js'
p5689
asbasbasbag55
(g71
g57
NtRp5690
(dp5691
g60
(dp5692
sg69
g5595
sg62
(lp5693
g55
(g76
g57
NtRp5694
(dp5695
g60
(dp5696
sg69
g5690
sg62
(lp5697
g55
(g56
g57
NtRp5698
(dp5699
g60
(dp5700
g68
I4
ssg69
g5694
sg62
(lp5701
S'/paideia/static/plugin_framework/jquery-ui/jquery-ui-1.8.16.custom.min.js'
p5702
asbasbasbag55
(g71
g57
NtRp5703
(dp5704
g60
(dp5705
sg69
g5595
sg62
(lp5706
g55
(g76
g57
NtRp5707
(dp5708
g60
(dp5709
sg69
g5703
sg62
(lp5710
g55
(g56
g57
NtRp5711
(dp5712
g60
(dp5713
g68
I4
ssg69
g5707
sg62
(lp5714
S'/paideia/static/plugin_framework/jquery-ui/theme/jquery-ui-1.8.16.custom.css'
p5715
asbasbasbag55
(g71
g57
NtRp5716
(dp5717
g60
(dp5718
sg69
g5595
sg62
(lp5719
g55
(g76
g57
NtRp5720
(dp5721
g60
(dp5722
sg69
g5716
sg62
(lp5723
g55
(g56
g57
NtRp5724
(dp5725
g60
(dp5726
g68
I4
ssg69
g5720
sg62
(lp5727
S'/paideia/static/plugin_framework/protoFluid3.02.js'
p5728
asbasbasbag55
(g71
g57
NtRp5729
(dp5730
g60
(dp5731
sg69
g5595
sg62
(lp5732
g55
(g76
g57
NtRp5733
(dp5734
g60
(dp5735
sg69
g5729
sg62
(lp5736
g55
(g56
g57
NtRp5737
(dp5738
g60
(dp5739
g68
I4
ssg69
g5733
sg62
(lp5740
S'/paideia/static/plugin_framework/less-1.1.5.min.js'
p5741
asbasbasbasbasbasbasbag55
(g71
g57
NtRp5742
(dp5743
g60
(dp5744
sg69
g5339
sg62
(lp5745
g55
(g76
g57
NtRp5746
(dp5747
g60
(dp5748
g80
g81
ssg69
g5742
sg62
(lp5749
S'flash'
p5750
asbag55
(g76
g57
NtRp5751
(dp5752
g60
(dp5753
g87
g88
ssg69
g5742
sg62
(lp5754
S':'
asbag55
(g76
g57
NtRp5755
(dp5756
g60
(dp5757
sg69
g5742
sg62
(lp5758
g55
(g56
g57
NtRp5759
(dp5760
g60
(dp5761
g68
I5
ssg69
g5755
sg62
(lp5762
S''
asbasbasbag55
(g71
g57
NtRp5763
(dp5764
g60
(dp5765
sg69
g5339
sg62
(lp5766
g55
(g76
g57
NtRp5767
(dp5768
g60
(dp5769
g80
g81
ssg69
g5763
sg62
(lp5770
S'generic_patterns'
p5771
asbag55
(g76
g57
NtRp5772
(dp5773
g60
(dp5774
g87
g88
ssg69
g5763
sg62
(lp5775
S':'
asbag55
(g76
g57
NtRp5776
(dp5777
g60
(dp5778
sg69
g5763
sg62
(lp5779
g55
(g56
g57
NtRp5780
(dp5781
g60
(dp5782
g68
I5
ssg69
g5776
sg62
(lp5783
g55
(g64
g57
NtRp5784
(dp5785
g60
(dp5786
g68
I4
ssg69
Nsg62
(lp5787
g55
(g71
g57
NtRp5788
(dp5789
g60
(dp5790
sg69
g5784
sg62
(lp5791
g55
(g76
g57
NtRp5792
(dp5793
g60
(dp5794
sg69
g5788
sg62
(lp5795
g55
(g56
g57
NtRp5796
(dp5797
g60
(dp5798
g68
I4
ssg69
g5792
sg62
(lp5799
S'*'
asbasbasbasbasbasbasbag55
(g71
g57
NtRp5800
(dp5801
g60
(dp5802
sg69
g5339
sg62
(lp5803
g55
(g76
g57
NtRp5804
(dp5805
g60
(dp5806
g80
g81
ssg69
g5800
sg62
(lp5807
S'headers'
p5808
asbag55
(g76
g57
NtRp5809
(dp5810
g60
(dp5811
g87
g88
ssg69
g5800
sg62
(lp5812
S':'
asbag55
(g76
g57
NtRp5813
(dp5814
g60
(dp5815
sg69
g5800
sg62
(lp5816
g55
(g56
g57
NtRp5817
(dp5818
g60
(dp5819
g68
I5
ssg69
g5813
sg62
(lp5820
g55
(g64
g57
NtRp5821
(dp5822
g60
(dp5823
g68
I4
ssg69
Nsg62
(lp5824
g55
(g71
g57
NtRp5825
(dp5826
g60
(dp5827
sg69
g5821
sg62
(lp5828
g55
(g76
g57
NtRp5829
(dp5830
g60
(dp5831
g80
g81
ssg69
g5825
sg62
(lp5832
S'Cache-Control'
p5833
asbag55
(g76
g57
NtRp5834
(dp5835
g60
(dp5836
g87
g88
ssg69
g5825
sg62
(lp5837
S':'
asbag55
(g76
g57
NtRp5838
(dp5839
g60
(dp5840
sg69
g5825
sg62
(lp5841
g55
(g56
g57
NtRp5842
(dp5843
g60
(dp5844
g68
I4
ssg69
g5838
sg62
(lp5845
S'no-store, no-cache, must-revalidate, post-check=0, pre-check=0'
p5846
asbasbasbag55
(g71
g57
NtRp5847
(dp5848
g60
(dp5849
sg69
g5821
sg62
(lp5850
g55
(g76
g57
NtRp5851
(dp5852
g60
(dp5853
g80
g81
ssg69
g5847
sg62
(lp5854
S'Content-Type'
p5855
asbag55
(g76
g57
NtRp5856
(dp5857
g60
(dp5858
g87
g88
ssg69
g5847
sg62
(lp5859
S':'
asbag55
(g76
g57
NtRp5860
(dp5861
g60
(dp5862
sg69
g5847
sg62
(lp5863
g55
(g56
g57
NtRp5864
(dp5865
g60
(dp5866
g68
I4
ssg69
g5860
sg62
(lp5867
S'text/html; charset=utf-8'
p5868
asbasbasbag55
(g71
g57
NtRp5869
(dp5870
g60
(dp5871
sg69
g5821
sg62
(lp5872
g55
(g76
g57
NtRp5873
(dp5874
g60
(dp5875
g80
g81
ssg69
g5869
sg62
(lp5876
S'Expires'
p5877
asbag55
(g76
g57
NtRp5878
(dp5879
g60
(dp5880
g87
g88
ssg69
g5869
sg62
(lp5881
S':'
asbag55
(g76
g57
NtRp5882
(dp5883
g60
(dp5884
sg69
g5869
sg62
(lp5885
g55
(g56
g57
NtRp5886
(dp5887
g60
(dp5888
g68
I4
ssg69
g5882
sg62
(lp5889
S'Wed, 14 Mar 2012 15:43:04 GMT'
p5890
asbasbasbag55
(g71
g57
NtRp5891
(dp5892
g60
(dp5893
sg69
g5821
sg62
(lp5894
g55
(g76
g57
NtRp5895
(dp5896
g60
(dp5897
g80
g81
ssg69
g5891
sg62
(lp5898
S'Pragma'
p5899
asbag55
(g76
g57
NtRp5900
(dp5901
g60
(dp5902
g87
g88
ssg69
g5891
sg62
(lp5903
S':'
asbag55
(g76
g57
NtRp5904
(dp5905
g60
(dp5906
sg69
g5891
sg62
(lp5907
g55
(g56
g57
NtRp5908
(dp5909
g60
(dp5910
g68
I4
ssg69
g5904
sg62
(lp5911
S'no-cache'
p5912
asbasbasbag55
(g71
g57
NtRp5913
(dp5914
g60
(dp5915
sg69
g5821
sg62
(lp5916
g55
(g76
g57
NtRp5917
(dp5918
g60
(dp5919
g80
g81
ssg69
g5913
sg62
(lp5920
S'X-Powered-By'
p5921
asbag55
(g76
g57
NtRp5922
(dp5923
g60
(dp5924
g87
g88
ssg69
g5913
sg62
(lp5925
S':'
asbag55
(g76
g57
NtRp5926
(dp5927
g60
(dp5928
sg69
g5913
sg62
(lp5929
g55
(g56
g57
NtRp5930
(dp5931
g60
(dp5932
g68
I4
ssg69
g5926
sg62
(lp5933
S'web2py'
p5934
asbasbasbasbasbasbasbag55
(g71
g57
NtRp5935
(dp5936
g60
(dp5937
sg69
g5339
sg62
(lp5938
g55
(g76
g57
NtRp5939
(dp5940
g60
(dp5941
g80
g81
ssg69
g5935
sg62
(lp5942
S'menu'
p5943
asbag55
(g76
g57
NtRp5944
(dp5945
g60
(dp5946
g87
g88
ssg69
g5935
sg62
(lp5947
S':'
asbag55
(g76
g57
NtRp5948
(dp5949
g60
(dp5950
sg69
g5935
sg62
(lp5951
g55
(g56
g57
NtRp5952
(dp5953
g60
(dp5954
g68
I5
ssg69
g5948
sg62
(lp5955
g55
(g64
g57
NtRp5956
(dp5957
g60
(dp5958
g68
I4
ssg69
Nsg62
(lp5959
g55
(g71
g57
NtRp5960
(dp5961
g60
(dp5962
sg69
g5956
sg62
(lp5963
g55
(g76
g57
NtRp5964
(dp5965
g60
(dp5966
sg69
g5960
sg62
(lp5967
g55
(g56
g57
NtRp5968
(dp5969
g60
(dp5970
g68
I4
ssg69
g5964
sg62
(lp5971
g55
(g64
g57
NtRp5972
(dp5973
g60
(dp5974
g68
I3
ssg69
Nsg62
(lp5975
g55
(g71
g57
NtRp5976
(dp5977
g60
(dp5978
sg69
g5972
sg62
(lp5979
g55
(g76
g57
NtRp5980
(dp5981
g60
(dp5982
sg69
g5976
sg62
(lp5983
g55
(g56
g57
NtRp5984
(dp5985
g60
(dp5986
g68
I3
ssg69
g5980
sg62
(lp5987
cgluon.languages
lazyT_unpickle
p5988
(S't\x04\x00\x00\x00Home'
tRp5989
asbasbasbag55
(g71
g57
NtRp5990
(dp5991
g60
(dp5992
sg69
g5972
sg62
(lp5993
g55
(g76
g57
NtRp5994
(dp5995
g60
(dp5996
sg69
g5990
sg62
(lp5997
g55
(g56
g57
NtRp5998
(dp5999
g60
(dp6000
g68
I3
ssg69
g5994
sg62
(lp6001
g98
asbasbasbag55
(g71
g57
NtRp6002
(dp6003
g60
(dp6004
sg69
g5972
sg62
(lp6005
g55
(g76
g57
NtRp6006
(dp6007
g60
(dp6008
sg69
g6002
sg62
(lp6009
g55
(g56
g57
NtRp6010
(dp6011
g60
(dp6012
g68
I3
ssg69
g6006
sg62
(lp6013
S'/paideia/default/index'
p6014
asbasbasbag55
(g71
g57
NtRp6015
(dp6016
g60
(dp6017
sg69
g5972
sg62
(lp6018
g55
(g76
g57
NtRp6019
(dp6020
g60
(dp6021
sg69
g6015
sg62
(lp6022
g55
(g56
g57
NtRp6023
(dp6024
g60
(dp6025
g68
I3
ssg69
g6019
sg62
(lp6026
g55
(g64
g57
NtRp6027
(dp6028
g60
(dp6029
g68
I2
ssg69
Nsg62
(lp6030
sbasbasbasbasbasbasbasbag55
(g71
g57
NtRp6031
(dp6032
g60
(dp6033
sg69
g5956
sg62
(lp6034
g55
(g76
g57
NtRp6035
(dp6036
g60
(dp6037
sg69
g6031
sg62
(lp6038
g55
(g56
g57
NtRp6039
(dp6040
g60
(dp6041
g68
I4
ssg69
g6035
sg62
(lp6042
g55
(g64
g57
NtRp6043
(dp6044
g60
(dp6045
g68
I3
ssg69
Nsg62
(lp6046
g55
(g71
g57
NtRp6047
(dp6048
g60
(dp6049
sg69
g6043
sg62
(lp6050
g55
(g76
g57
NtRp6051
(dp6052
g60
(dp6053
sg69
g6047
sg62
(lp6054
g55
(g56
g57
NtRp6055
(dp6056
g60
(dp6057
g68
I3
ssg69
g6051
sg62
(lp6058
g5988
(S't\x05\x00\x00\x00Admin'
tRp6059
asbasbasbag55
(g71
g57
NtRp6060
(dp6061
g60
(dp6062
sg69
g6043
sg62
(lp6063
g55
(g76
g57
NtRp6064
(dp6065
g60
(dp6066
sg69
g6060
sg62
(lp6067
g55
(g56
g57
NtRp6068
(dp6069
g60
(dp6070
g68
I3
ssg69
g6064
sg62
(lp6071
g98
asbasbasbag55
(g71
g57
NtRp6072
(dp6073
g60
(dp6074
sg69
g6043
sg62
(lp6075
g55
(g76
g57
NtRp6076
(dp6077
g60
(dp6078
sg69
g6072
sg62
(lp6079
g55
(g56
g57
NtRp6080
(dp6081
g60
(dp6082
g68
I3
ssg69
g6076
sg62
(lp6083
S'None'
p6084
asbasbasbag55
(g71
g57
NtRp6085
(dp6086
g60
(dp6087
sg69
g6043
sg62
(lp6088
g55
(g76
g57
NtRp6089
(dp6090
g60
(dp6091
sg69
g6085
sg62
(lp6092
g55
(g56
g57
NtRp6093
(dp6094
g60
(dp6095
g68
I3
ssg69
g6089
sg62
(lp6096
g55
(g64
g57
NtRp6097
(dp6098
g60
(dp6099
g68
I2
ssg69
Nsg62
(lp6100
g55
(g71
g57
NtRp6101
(dp6102
g60
(dp6103
sg69
g6097
sg62
(lp6104
g55
(g76
g57
NtRp6105
(dp6106
g60
(dp6107
sg69
g6101
sg62
(lp6108
g55
(g56
g57
NtRp6109
(dp6110
g60
(dp6111
g68
I2
ssg69
g6105
sg62
(lp6112
g55
(g64
g57
NtRp6113
(dp6114
g60
(dp6115
g68
I1
ssg69
Nsg62
(lp6116
g55
(g71
g57
NtRp6117
(dp6118
g60
(dp6119
sg69
g6113
sg62
(lp6120
g55
(g76
g57
NtRp6121
(dp6122
g60
(dp6123
sg69
g6117
sg62
(lp6124
g55
(g56
g57
NtRp6125
(dp6126
g60
(dp6127
g68
I1
ssg69
g6121
sg62
(lp6128
g5988
(S's\x07\x00\x00\x00Web IDE'
tRp6129
asbasbasbag55
(g71
g57
NtRp6130
(dp6131
g60
(dp6132
sg69
g6113
sg62
(lp6133
g55
(g76
g57
NtRp6134
(dp6135
g60
(dp6136
sg69
g6130
sg62
(lp6137
g55
(g56
g57
NtRp6138
(dp6139
g60
(dp6140
g68
I1
ssg69
g6134
sg62
(lp6141
I00
asbasbasbag55
(g71
g57
NtRp6142
(dp6143
g60
(dp6144
sg69
g6113
sg62
(lp6145
g55
(g76
g57
NtRp6146
(dp6147
g60
(dp6148
sg69
g6142
sg62
(lp6149
g55
(g56
g57
NtRp6150
(dp6151
g60
(dp6152
g68
I1
ssg69
g6146
sg62
(lp6153
S'/admin/default/index'
p6154
asbasbasbasbasbasbasbag55
(g71
g57
NtRp6155
(dp6156
g60
(dp6157
sg69
g6097
sg62
(lp6158
g55
(g76
g57
NtRp6159
(dp6160
g60
(dp6161
sg69
g6155
sg62
(lp6162
g55
(g56
g57
NtRp6163
(dp6164
g60
(dp6165
g68
I2
ssg69
g6159
sg62
(lp6166
g55
(g64
g57
NtRp6167
(dp6168
g60
(dp6169
g68
I1
ssg69
Nsg62
(lp6170
g55
(g71
g57
NtRp6171
(dp6172
g60
(dp6173
sg69
g6167
sg62
(lp6174
g55
(g76
g57
NtRp6175
(dp6176
g60
(dp6177
sg69
g6171
sg62
(lp6178
g55
(g56
g57
NtRp6179
(dp6180
g60
(dp6181
g68
I1
ssg69
g6175
sg62
(lp6182
g5988
(S't\x08\x00\x00\x00Database'
tRp6183
asbasbasbag55
(g71
g57
NtRp6184
(dp6185
g60
(dp6186
sg69
g6167
sg62
(lp6187
g55
(g76
g57
NtRp6188
(dp6189
g60
(dp6190
sg69
g6184
sg62
(lp6191
g55
(g56
g57
NtRp6192
(dp6193
g60
(dp6194
g68
I1
ssg69
g6188
sg62
(lp6195
I00
asbasbasbag55
(g71
g57
NtRp6196
(dp6197
g60
(dp6198
sg69
g6167
sg62
(lp6199
g55
(g76
g57
NtRp6200
(dp6201
g60
(dp6202
sg69
g6196
sg62
(lp6203
g55
(g56
g57
NtRp6204
(dp6205
g60
(dp6206
g68
I1
ssg69
g6200
sg62
(lp6207
S'/paideia/appadmin/index'
p6208
asbasbasbasbasbasbasbag55
(g71
g57
NtRp6209
(dp6210
g60
(dp6211
sg69
g6097
sg62
(lp6212
g55
(g76
g57
NtRp6213
(dp6214
g60
(dp6215
sg69
g6209
sg62
(lp6216
g55
(g56
g57
NtRp6217
(dp6218
g60
(dp6219
g68
I2
ssg69
g6213
sg62
(lp6220
g55
(g64
g57
NtRp6221
(dp6222
g60
(dp6223
g68
I1
ssg69
Nsg62
(lp6224
g55
(g71
g57
NtRp6225
(dp6226
g60
(dp6227
sg69
g6221
sg62
(lp6228
g55
(g76
g57
NtRp6229
(dp6230
g60
(dp6231
sg69
g6225
sg62
(lp6232
g55
(g56
g57
NtRp6233
(dp6234
g60
(dp6235
g68
I1
ssg69
g6229
sg62
(lp6236
g5988
(S't\x05\x00\x00\x00Users'
tRp6237
asbasbasbag55
(g71
g57
NtRp6238
(dp6239
g60
(dp6240
sg69
g6221
sg62
(lp6241
g55
(g76
g57
NtRp6242
(dp6243
g60
(dp6244
sg69
g6238
sg62
(lp6245
g55
(g56
g57
NtRp6246
(dp6247
g60
(dp6248
g68
I1
ssg69
g6242
sg62
(lp6249
I00
asbasbasbag55
(g71
g57
NtRp6250
(dp6251
g60
(dp6252
sg69
g6221
sg62
(lp6253
g55
(g76
g57
NtRp6254
(dp6255
g60
(dp6256
sg69
g6250
sg62
(lp6257
g55
(g56
g57
NtRp6258
(dp6259
g60
(dp6260
g68
I1
ssg69
g6254
sg62
(lp6261
S'/paideia/listing/user'
p6262
asbasbasbasbasbasbasbag55
(g71
g57
NtRp6263
(dp6264
g60
(dp6265
sg69
g6097
sg62
(lp6266
g55
(g76
g57
NtRp6267
(dp6268
g60
(dp6269
sg69
g6263
sg62
(lp6270
g55
(g56
g57
NtRp6271
(dp6272
g60
(dp6273
g68
I2
ssg69
g6267
sg62
(lp6274
g55
(g64
g57
NtRp6275
(dp6276
g60
(dp6277
g68
I1
ssg69
Nsg62
(lp6278
g55
(g71
g57
NtRp6279
(dp6280
g60
(dp6281
sg69
g6275
sg62
(lp6282
g55
(g76
g57
NtRp6283
(dp6284
g60
(dp6285
sg69
g6279
sg62
(lp6286
g55
(g56
g57
NtRp6287
(dp6288
g60
(dp6289
g68
I1
ssg69
g6283
sg62
(lp6290
g5988
(S't\x05\x00\x00\x00Paths'
tRp6291
asbasbasbag55
(g71
g57
NtRp6292
(dp6293
g60
(dp6294
sg69
g6275
sg62
(lp6295
g55
(g76
g57
NtRp6296
(dp6297
g60
(dp6298
sg69
g6292
sg62
(lp6299
g55
(g56
g57
NtRp6300
(dp6301
g60
(dp6302
g68
I1
ssg69
g6296
sg62
(lp6303
I00
asbasbasbag55
(g71
g57
NtRp6304
(dp6305
g60
(dp6306
sg69
g6275
sg62
(lp6307
g55
(g76
g57
NtRp6308
(dp6309
g60
(dp6310
sg69
g6304
sg62
(lp6311
g55
(g56
g57
NtRp6312
(dp6313
g60
(dp6314
g68
I1
ssg69
g6308
sg62
(lp6315
S'/paideia/plugin_listandedit/listing.html/paths'
p6316
asbasbasbasbasbasbasbag55
(g71
g57
NtRp6317
(dp6318
g60
(dp6319
sg69
g6097
sg62
(lp6320
g55
(g76
g57
NtRp6321
(dp6322
g60
(dp6323
sg69
g6317
sg62
(lp6324
g55
(g56
g57
NtRp6325
(dp6326
g60
(dp6327
g68
I2
ssg69
g6321
sg62
(lp6328
g55
(g64
g57
NtRp6329
(dp6330
g60
(dp6331
g68
I1
ssg69
Nsg62
(lp6332
g55
(g71
g57
NtRp6333
(dp6334
g60
(dp6335
sg69
g6329
sg62
(lp6336
g55
(g76
g57
NtRp6337
(dp6338
g60
(dp6339
sg69
g6333
sg62
(lp6340
g55
(g56
g57
NtRp6341
(dp6342
g60
(dp6343
g68
I1
ssg69
g6337
sg62
(lp6344
g5988
(S't\x05\x00\x00\x00Steps'
tRp6345
asbasbasbag55
(g71
g57
NtRp6346
(dp6347
g60
(dp6348
sg69
g6329
sg62
(lp6349
g55
(g76
g57
NtRp6350
(dp6351
g60
(dp6352
sg69
g6346
sg62
(lp6353
g55
(g56
g57
NtRp6354
(dp6355
g60
(dp6356
g68
I1
ssg69
g6350
sg62
(lp6357
I00
asbasbasbag55
(g71
g57
NtRp6358
(dp6359
g60
(dp6360
sg69
g6329
sg62
(lp6361
g55
(g76
g57
NtRp6362
(dp6363
g60
(dp6364
sg69
g6358
sg62
(lp6365
g55
(g56
g57
NtRp6366
(dp6367
g60
(dp6368
g68
I1
ssg69
g6362
sg62
(lp6369
S'/paideia/plugin_listandedit/listing.html/steps'
p6370
asbasbasbasbasbasbasbag55
(g71
g57
NtRp6371
(dp6372
g60
(dp6373
sg69
g6097
sg62
(lp6374
g55
(g76
g57
NtRp6375
(dp6376
g60
(dp6377
sg69
g6371
sg62
(lp6378
g55
(g56
g57
NtRp6379
(dp6380
g60
(dp6381
g68
I2
ssg69
g6375
sg62
(lp6382
g55
(g64
g57
NtRp6383
(dp6384
g60
(dp6385
g68
I1
ssg69
Nsg62
(lp6386
g55
(g71
g57
NtRp6387
(dp6388
g60
(dp6389
sg69
g6383
sg62
(lp6390
g55
(g76
g57
NtRp6391
(dp6392
g60
(dp6393
sg69
g6387
sg62
(lp6394
g55
(g56
g57
NtRp6395
(dp6396
g60
(dp6397
g68
I1
ssg69
g6391
sg62
(lp6398
g5988
(S't\t\x00\x00\x00Questions'
tRp6399
asbasbasbag55
(g71
g57
NtRp6400
(dp6401
g60
(dp6402
sg69
g6383
sg62
(lp6403
g55
(g76
g57
NtRp6404
(dp6405
g60
(dp6406
sg69
g6400
sg62
(lp6407
g55
(g56
g57
NtRp6408
(dp6409
g60
(dp6410
g68
I1
ssg69
g6404
sg62
(lp6411
I00
asbasbasbag55
(g71
g57
NtRp6412
(dp6413
g60
(dp6414
sg69
g6383
sg62
(lp6415
g55
(g76
g57
NtRp6416
(dp6417
g60
(dp6418
sg69
g6412
sg62
(lp6419
g55
(g56
g57
NtRp6420
(dp6421
g60
(dp6422
g68
I1
ssg69
g6416
sg62
(lp6423
S'/paideia/plugin_listandedit/listing.html/questions'
p6424
asbasbasbasbasbasbasbag55
(g71
g57
NtRp6425
(dp6426
g60
(dp6427
sg69
g6097
sg62
(lp6428
g55
(g76
g57
NtRp6429
(dp6430
g60
(dp6431
sg69
g6425
sg62
(lp6432
g55
(g56
g57
NtRp6433
(dp6434
g60
(dp6435
g68
I2
ssg69
g6429
sg62
(lp6436
g55
(g64
g57
NtRp6437
(dp6438
g60
(dp6439
g68
I1
ssg69
Nsg62
(lp6440
g55
(g71
g57
NtRp6441
(dp6442
g60
(dp6443
sg69
g6437
sg62
(lp6444
g55
(g76
g57
NtRp6445
(dp6446
g60
(dp6447
sg69
g6441
sg62
(lp6448
g55
(g56
g57
NtRp6449
(dp6450
g60
(dp6451
g68
I1
ssg69
g6445
sg62
(lp6452
g5988
(S't\x07\x00\x00\x00Quizzes'
tRp6453
asbasbasbag55
(g71
g57
NtRp6454
(dp6455
g60
(dp6456
sg69
g6437
sg62
(lp6457
g55
(g76
g57
NtRp6458
(dp6459
g60
(dp6460
sg69
g6454
sg62
(lp6461
g55
(g56
g57
NtRp6462
(dp6463
g60
(dp6464
g68
I1
ssg69
g6458
sg62
(lp6465
I00
asbasbasbag55
(g71
g57
NtRp6466
(dp6467
g60
(dp6468
sg69
g6437
sg62
(lp6469
g55
(g76
g57
NtRp6470
(dp6471
g60
(dp6472
sg69
g6466
sg62
(lp6473
g55
(g56
g57
NtRp6474
(dp6475
g60
(dp6476
g68
I1
ssg69
g6470
sg62
(lp6477
S'/paideia/plugin_listandedit/listing.html/quizzes'
p6478
asbasbasbasbasbasbasbag55
(g71
g57
NtRp6479
(dp6480
g60
(dp6481
sg69
g6097
sg62
(lp6482
g55
(g76
g57
NtRp6483
(dp6484
g60
(dp6485
sg69
g6479
sg62
(lp6486
g55
(g56
g57
NtRp6487
(dp6488
g60
(dp6489
g68
I2
ssg69
g6483
sg62
(lp6490
g55
(g64
g57
NtRp6491
(dp6492
g60
(dp6493
g68
I1
ssg69
Nsg62
(lp6494
g55
(g71
g57
NtRp6495
(dp6496
g60
(dp6497
sg69
g6491
sg62
(lp6498
g55
(g76
g57
NtRp6499
(dp6500
g60
(dp6501
sg69
g6495
sg62
(lp6502
g55
(g56
g57
NtRp6503
(dp6504
g60
(dp6505
g68
I1
ssg69
g6499
sg62
(lp6506
g5988
(S't\x04\x00\x00\x00Tags'
tRp6507
asbasbasbag55
(g71
g57
NtRp6508
(dp6509
g60
(dp6510
sg69
g6491
sg62
(lp6511
g55
(g76
g57
NtRp6512
(dp6513
g60
(dp6514
sg69
g6508
sg62
(lp6515
g55
(g56
g57
NtRp6516
(dp6517
g60
(dp6518
g68
I1
ssg69
g6512
sg62
(lp6519
I00
asbasbasbag55
(g71
g57
NtRp6520
(dp6521
g60
(dp6522
sg69
g6491
sg62
(lp6523
g55
(g76
g57
NtRp6524
(dp6525
g60
(dp6526
sg69
g6520
sg62
(lp6527
g55
(g56
g57
NtRp6528
(dp6529
g60
(dp6530
g68
I1
ssg69
g6524
sg62
(lp6531
S'/paideia/plugin_listandedit/listing.html/tags'
p6532
asbasbasbasbasbasbasbag55
(g71
g57
NtRp6533
(dp6534
g60
(dp6535
sg69
g6097
sg62
(lp6536
g55
(g76
g57
NtRp6537
(dp6538
g60
(dp6539
sg69
g6533
sg62
(lp6540
g55
(g56
g57
NtRp6541
(dp6542
g60
(dp6543
g68
I2
ssg69
g6537
sg62
(lp6544
g55
(g64
g57
NtRp6545
(dp6546
g60
(dp6547
g68
I1
ssg69
Nsg62
(lp6548
g55
(g71
g57
NtRp6549
(dp6550
g60
(dp6551
sg69
g6545
sg62
(lp6552
g55
(g76
g57
NtRp6553
(dp6554
g60
(dp6555
sg69
g6549
sg62
(lp6556
g55
(g56
g57
NtRp6557
(dp6558
g60
(dp6559
g68
I1
ssg69
g6553
sg62
(lp6560
g5988
(S't\x04\x00\x00\x00NPCs'
tRp6561
asbasbasbag55
(g71
g57
NtRp6562
(dp6563
g60
(dp6564
sg69
g6545
sg62
(lp6565
g55
(g76
g57
NtRp6566
(dp6567
g60
(dp6568
sg69
g6562
sg62
(lp6569
g55
(g56
g57
NtRp6570
(dp6571
g60
(dp6572
g68
I1
ssg69
g6566
sg62
(lp6573
I00
asbasbasbag55
(g71
g57
NtRp6574
(dp6575
g60
(dp6576
sg69
g6545
sg62
(lp6577
g55
(g76
g57
NtRp6578
(dp6579
g60
(dp6580
sg69
g6574
sg62
(lp6581
g55
(g56
g57
NtRp6582
(dp6583
g60
(dp6584
g68
I1
ssg69
g6578
sg62
(lp6585
S'/paideia/plugin_listandedit/listing.html/npcs'
p6586
asbasbasbasbasbasbasbag55
(g71
g57
NtRp6587
(dp6588
g60
(dp6589
sg69
g6097
sg62
(lp6590
g55
(g76
g57
NtRp6591
(dp6592
g60
(dp6593
sg69
g6587
sg62
(lp6594
g55
(g56
g57
NtRp6595
(dp6596
g60
(dp6597
g68
I2
ssg69
g6591
sg62
(lp6598
g55
(g64
g57
NtRp6599
(dp6600
g60
(dp6601
g68
I1
ssg69
Nsg62
(lp6602
g55
(g71
g57
NtRp6603
(dp6604
g60
(dp6605
sg69
g6599
sg62
(lp6606
g55
(g76
g57
NtRp6607
(dp6608
g60
(dp6609
sg69
g6603
sg62
(lp6610
g55
(g56
g57
NtRp6611
(dp6612
g60
(dp6613
g68
I1
ssg69
g6607
sg62
(lp6614
g5988
(S't\t\x00\x00\x00locations'
tRp6615
asbasbasbag55
(g71
g57
NtRp6616
(dp6617
g60
(dp6618
sg69
g6599
sg62
(lp6619
g55
(g76
g57
NtRp6620
(dp6621
g60
(dp6622
sg69
g6616
sg62
(lp6623
g55
(g56
g57
NtRp6624
(dp6625
g60
(dp6626
g68
I1
ssg69
g6620
sg62
(lp6627
I00
asbasbasbag55
(g71
g57
NtRp6628
(dp6629
g60
(dp6630
sg69
g6599
sg62
(lp6631
g55
(g76
g57
NtRp6632
(dp6633
g60
(dp6634
sg69
g6628
sg62
(lp6635
g55
(g56
g57
NtRp6636
(dp6637
g60
(dp6638
g68
I1
ssg69
g6632
sg62
(lp6639
S'/paideia/plugin_listandedit/listing.html/locations'
p6640
asbasbasbasbasbasbasbasbasbasbasbasbasbasbasbasbasbasbasbag55
(g71
g57
NtRp6641
(dp6642
g60
(dp6643
sg69
g5339
sg62
(lp6644
g55
(g76
g57
NtRp6645
(dp6646
g60
(dp6647
g80
g81
ssg69
g6641
sg62
(lp6648
S'meta'
p6649
asbag55
(g76
g57
NtRp6650
(dp6651
g60
(dp6652
g87
g88
ssg69
g6641
sg62
(lp6653
S':'
asbag55
(g76
g57
NtRp6654
(dp6655
g60
(dp6656
sg69
g6641
sg62
(lp6657
g55
(g56
g57
NtRp6658
(dp6659
g60
(dp6660
g68
I5
ssg69
g6654
sg62
(lp6661
g55
(g64
g57
NtRp6662
(dp6663
g60
(dp6664
g68
I4
ssg69
Nsg62
(lp6665
g55
(g71
g57
NtRp6666
(dp6667
g60
(dp6668
sg69
g6662
sg62
(lp6669
g55
(g76
g57
NtRp6670
(dp6671
g60
(dp6672
g80
g81
ssg69
g6666
sg62
(lp6673
S'author'
p6674
asbag55
(g76
g57
NtRp6675
(dp6676
g60
(dp6677
g87
g88
ssg69
g6666
sg62
(lp6678
S':'
asbag55
(g76
g57
NtRp6679
(dp6680
g60
(dp6681
sg69
g6666
sg62
(lp6682
g55
(g56
g57
NtRp6683
(dp6684
g60
(dp6685
g68
I4
ssg69
g6679
sg62
(lp6686
S'Ian W. Scott'
p6687
asbasbasbag55
(g71
g57
NtRp6688
(dp6689
g60
(dp6690
sg69
g6662
sg62
(lp6691
g55
(g76
g57
NtRp6692
(dp6693
g60
(dp6694
g80
g81
ssg69
g6688
sg62
(lp6695
S'copyright'
p6696
asbag55
(g76
g57
NtRp6697
(dp6698
g60
(dp6699
g87
g88
ssg69
g6688
sg62
(lp6700
S':'
asbag55
(g76
g57
NtRp6701
(dp6702
g60
(dp6703
sg69
g6688
sg62
(lp6704
g55
(g56
g57
NtRp6705
(dp6706
g60
(dp6707
g68
I4
ssg69
g6701
sg62
(lp6708
S'Copyright 2011'
p6709
asbasbasbag55
(g71
g57
NtRp6710
(dp6711
g60
(dp6712
sg69
g6662
sg62
(lp6713
g55
(g76
g57
NtRp6714
(dp6715
g60
(dp6716
g80
g81
ssg69
g6710
sg62
(lp6717
S'description'
p6718
asbag55
(g76
g57
NtRp6719
(dp6720
g60
(dp6721
g87
g88
ssg69
g6710
sg62
(lp6722
S':'
asbag55
(g76
g57
NtRp6723
(dp6724
g60
(dp6725
sg69
g6710
sg62
(lp6726
g55
(g56
g57
NtRp6727
(dp6728
g60
(dp6729
g68
I4
ssg69
g6723
sg62
(lp6730
S'An online space for learning New Testament Greek'
p6731
asbasbasbag55
(g71
g57
NtRp6732
(dp6733
g60
(dp6734
sg69
g6662
sg62
(lp6735
g55
(g76
g57
NtRp6736
(dp6737
g60
(dp6738
g80
g81
ssg69
g6732
sg62
(lp6739
S'generator'
p6740
asbag55
(g76
g57
NtRp6741
(dp6742
g60
(dp6743
g87
g88
ssg69
g6732
sg62
(lp6744
S':'
asbag55
(g76
g57
NtRp6745
(dp6746
g60
(dp6747
sg69
g6732
sg62
(lp6748
g55
(g56
g57
NtRp6749
(dp6750
g60
(dp6751
g68
I4
ssg69
g6745
sg62
(lp6752
S'Web2py Enterprise Framework'
p6753
asbasbasbag55
(g71
g57
NtRp6754
(dp6755
g60
(dp6756
sg69
g6662
sg62
(lp6757
g55
(g76
g57
NtRp6758
(dp6759
g60
(dp6760
g80
g81
ssg69
g6754
sg62
(lp6761
S'keywords'
p6762
asbag55
(g76
g57
NtRp6763
(dp6764
g60
(dp6765
g87
g88
ssg69
g6754
sg62
(lp6766
S':'
asbag55
(g76
g57
NtRp6767
(dp6768
g60
(dp6769
sg69
g6754
sg62
(lp6770
g55
(g56
g57
NtRp6771
(dp6772
g60
(dp6773
g68
I4
ssg69
g6767
sg62
(lp6774
S'Greek, koine, New Testament, language, education, learning'
p6775
asbasbasbasbasbasbasbag55
(g71
g57
NtRp6776
(dp6777
g60
(dp6778
sg69
g5339
sg62
(lp6779
g55
(g76
g57
NtRp6780
(dp6781
g60
(dp6782
g80
g81
ssg69
g6776
sg62
(lp6783
S'mobiletitle'
p6784
asbag55
(g76
g57
NtRp6785
(dp6786
g60
(dp6787
g87
g88
ssg69
g6776
sg62
(lp6788
S':'
asbag55
(g76
g57
NtRp6789
(dp6790
g60
(dp6791
sg69
g6776
sg62
(lp6792
g55
(g56
g57
NtRp6793
(dp6794
g60
(dp6795
g68
I5
ssg69
g6789
sg62
(lp6796
g120
asbasbasbag55
(g71
g57
NtRp6797
(dp6798
g60
(dp6799
sg69
g5339
sg62
(lp6800
g55
(g76
g57
NtRp6801
(dp6802
g60
(dp6803
g80
g81
ssg69
g6797
sg62
(lp6804
S'postprocessing'
p6805
asbag55
(g76
g57
NtRp6806
(dp6807
g60
(dp6808
g87
g88
ssg69
g6797
sg62
(lp6809
S':'
asbag55
(g76
g57
NtRp6810
(dp6811
g60
(dp6812
sg69
g6797
sg62
(lp6813
g55
(g56
g57
NtRp6814
(dp6815
g60
(dp6816
g68
I5
ssg69
g6810
sg62
(lp6817
g55
(g64
g57
NtRp6818
(dp6819
g60
(dp6820
g68
I4
ssg69
Nsg62
(lp6821
sbasbasbasbag55
(g71
g57
NtRp6822
(dp6823
g60
(dp6824
sg69
g5339
sg62
(lp6825
g55
(g76
g57
NtRp6826
(dp6827
g60
(dp6828
g80
g81
ssg69
g6822
sg62
(lp6829
S'session_file'
p6830
asbag55
(g76
g57
NtRp6831
(dp6832
g60
(dp6833
g87
g88
ssg69
g6822
sg62
(lp6834
S':'
asbag55
(g76
g57
NtRp6835
(dp6836
g60
(dp6837
sg69
g6822
sg62
(lp6838
g55
(g56
g57
NtRp6839
(dp6840
g60
(dp6841
g68
I5
ssg69
g6835
sg62
(lp6842
S"<open file '/home/ian/web/web2py/applications/paideia/sessions/127.0.0.1-d2b16629-afad-4e3f-840d-43f7f7183774', mode 'rb+' at 0x7f89c01e5270>"
p6843
asbasbasbag55
(g71
g57
NtRp6844
(dp6845
g60
(dp6846
sg69
g5339
sg62
(lp6847
g55
(g76
g57
NtRp6848
(dp6849
g60
(dp6850
g80
g81
ssg69
g6844
sg62
(lp6851
S'session_filename'
p6852
asbag55
(g76
g57
NtRp6853
(dp6854
g60
(dp6855
g87
g88
ssg69
g6844
sg62
(lp6856
S':'
asbag55
(g76
g57
NtRp6857
(dp6858
g60
(dp6859
sg69
g6844
sg62
(lp6860
g55
(g56
g57
NtRp6861
(dp6862
g60
(dp6863
g68
I5
ssg69
g6857
sg62
(lp6864
S'/home/ian/web/web2py/applications/paideia/sessions/127.0.0.1-d2b16629-afad-4e3f-840d-43f7f7183774'
p6865
asbasbasbag55
(g71
g57
NtRp6866
(dp6867
g60
(dp6868
sg69
g5339
sg62
(lp6869
g55
(g76
g57
NtRp6870
(dp6871
g60
(dp6872
g80
g81
ssg69
g6866
sg62
(lp6873
S'session_id'
p6874
asbag55
(g76
g57
NtRp6875
(dp6876
g60
(dp6877
g87
g88
ssg69
g6866
sg62
(lp6878
S':'
asbag55
(g76
g57
NtRp6879
(dp6880
g60
(dp6881
sg69
g6866
sg62
(lp6882
g55
(g56
g57
NtRp6883
(dp6884
g60
(dp6885
g68
I5
ssg69
g6879
sg62
(lp6886
S'127.0.0.1-d2b16629-afad-4e3f-840d-43f7f7183774'
p6887
asbasbasbag55
(g71
g57
NtRp6888
(dp6889
g60
(dp6890
sg69
g5339
sg62
(lp6891
g55
(g76
g57
NtRp6892
(dp6893
g60
(dp6894
g80
g81
ssg69
g6888
sg62
(lp6895
S'session_id_name'
p6896
asbag55
(g76
g57
NtRp6897
(dp6898
g60
(dp6899
g87
g88
ssg69
g6888
sg62
(lp6900
S':'
asbag55
(g76
g57
NtRp6901
(dp6902
g60
(dp6903
sg69
g6888
sg62
(lp6904
g55
(g56
g57
NtRp6905
(dp6906
g60
(dp6907
g68
I5
ssg69
g6901
sg62
(lp6908
g5396
asbasbasbag55
(g71
g57
NtRp6909
(dp6910
g60
(dp6911
sg69
g5339
sg62
(lp6912
g55
(g76
g57
NtRp6913
(dp6914
g60
(dp6915
g80
g81
ssg69
g6909
sg62
(lp6916
S'session_locked'
p6917
asbag55
(g76
g57
NtRp6918
(dp6919
g60
(dp6920
g87
g88
ssg69
g6909
sg62
(lp6921
S':'
asbag55
(g76
g57
NtRp6922
(dp6923
g60
(dp6924
sg69
g6909
sg62
(lp6925
g55
(g56
g57
NtRp6926
(dp6927
g60
(dp6928
g68
I5
ssg69
g6922
sg62
(lp6929
g1861
asbasbasbag55
(g71
g57
NtRp6930
(dp6931
g60
(dp6932
sg69
g5339
sg62
(lp6933
g55
(g76
g57
NtRp6934
(dp6935
g60
(dp6936
g80
g81
ssg69
g6930
sg62
(lp6937
S'session_new'
p6938
asbag55
(g76
g57
NtRp6939
(dp6940
g60
(dp6941
g87
g88
ssg69
g6930
sg62
(lp6942
S':'
asbag55
(g76
g57
NtRp6943
(dp6944
g60
(dp6945
sg69
g6930
sg62
(lp6946
g55
(g56
g57
NtRp6947
(dp6948
g60
(dp6949
g68
I5
ssg69
g6943
sg62
(lp6950
g98
asbasbasbag55
(g71
g57
NtRp6951
(dp6952
g60
(dp6953
sg69
g5339
sg62
(lp6954
g55
(g76
g57
NtRp6955
(dp6956
g60
(dp6957
g80
g81
ssg69
g6951
sg62
(lp6958
S'status'
p6959
asbag55
(g76
g57
NtRp6960
(dp6961
g60
(dp6962
g87
g88
ssg69
g6951
sg62
(lp6963
S':'
asbag55
(g76
g57
NtRp6964
(dp6965
g60
(dp6966
sg69
g6951
sg62
(lp6967
g55
(g56
g57
NtRp6968
(dp6969
g60
(dp6970
g68
I5
ssg69
g6964
sg62
(lp6971
S'200'
p6972
asbasbasbag55
(g71
g57
NtRp6973
(dp6974
g60
(dp6975
sg69
g5339
sg62
(lp6976
g55
(g76
g57
NtRp6977
(dp6978
g60
(dp6979
g80
g81
ssg69
g6973
sg62
(lp6980
S'subtitle'
p6981
asbag55
(g76
g57
NtRp6982
(dp6983
g60
(dp6984
g87
g88
ssg69
g6973
sg62
(lp6985
S':'
asbag55
(g76
g57
NtRp6986
(dp6987
g60
(dp6988
sg69
g6973
sg62
(lp6989
g55
(g56
g57
NtRp6990
(dp6991
g60
(dp6992
g68
I5
ssg69
g6986
sg62
(lp6993
g5988
(S's0\x00\x00\x00An online space for learning New Testament Greek'
tRp6994
asbasbasbag55
(g71
g57
NtRp6995
(dp6996
g60
(dp6997
sg69
g5339
sg62
(lp6998
g55
(g76
g57
NtRp6999
(dp7000
g60
(dp7001
g80
g81
ssg69
g6995
sg62
(lp7002
S'title'
p7003
asbag55
(g76
g57
NtRp7004
(dp7005
g60
(dp7006
g87
g88
ssg69
g6995
sg62
(lp7007
S':'
asbag55
(g76
g57
NtRp7008
(dp7009
g60
(dp7010
sg69
g6995
sg62
(lp7011
g55
(g56
g57
NtRp7012
(dp7013
g60
(dp7014
g68
I5
ssg69
g7008
sg62
(lp7015
g120
asbasbasbag55
(g71
g57
NtRp7016
(dp7017
g60
(dp7018
sg69
g5339
sg62
(lp7019
g55
(g76
g57
NtRp7020
(dp7021
g60
(dp7022
g80
g81
ssg69
g7016
sg62
(lp7023
g2525
asbag55
(g76
g57
NtRp7024
(dp7025
g60
(dp7026
g87
g88
ssg69
g7016
sg62
(lp7027
S':'
asbag55
(g76
g57
NtRp7028
(dp7029
g60
(dp7030
sg69
g7016
sg62
(lp7031
g55
(g56
g57
NtRp7032
(dp7033
g60
(dp7034
g68
I5
ssg69
g7028
sg62
(lp7035
g2538
asbasbasbag55
(g71
g57
NtRp7036
(dp7037
g60
(dp7038
sg69
g5339
sg62
(lp7039
g55
(g76
g57
NtRp7040
(dp7041
g60
(dp7042
g80
g81
ssg69
g7036
sg62
(lp7043
S'view'
p7044
asbag55
(g76
g57
NtRp7045
(dp7046
g60
(dp7047
g87
g88
ssg69
g7036
sg62
(lp7048
S':'
asbag55
(g76
g57
NtRp7049
(dp7050
g60
(dp7051
sg69
g7036
sg62
(lp7052
g55
(g56
g57
NtRp7053
(dp7054
g60
(dp7055
g68
I5
ssg69
g7049
sg62
(lp7056
S'exploring/index.html'
p7057
asbasbasbasbasbsS'locals'
p7058
(dp7059
S'self'
p7060
S'<bound method paideia_path.find_unfinished of <a...modules.paideia_exploring.paideia_path instance>>'
p7061
sS'base'
p7062
S"<type 'instancemethod'>"
p7063
sS'proto'
p7064
S'0'
sssS'traceback'
p7065
S'Traceback (most recent call last):\n  File "/home/ian/web/web2py/gluon/main.py", line 523, in wsgibase\n    session._try_store_on_disk(request, response)\n  File "/home/ian/web/web2py/gluon/globals.py", line 591, in _try_store_on_disk\n    cPickle.dump(dict(self), response.session_file)\n  File "/usr/lib/python2.7/copy_reg.py", line 70, in _reduce_ex\n    raise TypeError, "can\'t pickle %s objects" % base.__name__\nTypeError: can\'t pickle instancemethod objects\n'
p7066
s.