(dp1
S'output'
p2
S"<type 'exceptions.AttributeError'> 'NoneType' object has no attribute 'split'"
p3
sS'layer'
p4
S'/home/ian/web2py/applications/paideia/controllers/plugin_ajaxselect.py'
p5
sS'code'
p6
S'if 0:\n    from gluon import current, SELECT, OPTION, SQLFORM, URL, DAL\n    db = DAL()\n    request, response = current.request, current.response\n\nfrom gluon.sqlhtml import OptionsWidget, MultipleOptionsWidget\n\ndef set_widget():\n    """\n    creates a replacement instance of the OptionsWidget class defined in \n    gluon.sqlhtml and returns the result to re-populate the ajax LOAD field\n    """\n\n    #get variables to build widget for the proper field, with proper current value\n    table = request.args[0]\n    field = request.args[1]\n    linktable = request.args[2]\n    #args[3] is the wrappername, but is not used in this function\n\n    valstring = request.vars[\'fieldval\']\n    #restore value to list since it was converted to string for url\n    value = valstring.split(\'-\')\n\n    #use multiple select widget if \'multi\' variable is set\n    if \'multi\' in request.vars:\n        if request.vars[\'multi\'] == \'basic\':\n            widg = MultipleOptionsWidget()\n            mval = True;\n            sval = \'5\'\n    else:\n        widg = OptionsWidget()\n        mval = False;\n        sval = \'1\'\n\n    the_table = db[table]\n    the_field = the_table[field]\n    the_linktable = db[linktable]\n\n    #testing for the extra argument added by javascript in plugin_ajaxselect.js when refresh is triggered by change in another select value\n    if len(request.args) > 5:\n        #get the value from the restricting select box to use in filtering this one\n        filter_val = request.args[5]\n        #find the table behind the constraining widget\n        filter_t = request.args[6]\n        #find the corresponding field in this select\'s linked table\n        ref = \'reference %s\' % filter_t\n        cf = [f for f in the_linktable.fields if the_linktable[f].type == ref][0]\n        #filter the rows from the linked table accordingly\n        rows = db(the_linktable[cf] == filter_val).select()\n        #get the field name to represent values in the new select widget\n        rep = the_linktable.fields[1]\n        #build the name for the refreshed select widget\n        n = table + \'_\' + field\n        #create the widget with filtered options\n        w = SELECT(_id = n, _class = \'generic-widget\', _name = field, _multiple = mval, size = sval, *[OPTION(e[rep], _value = e.id) for e in rows])\n    else:\n        #refresh using ordinary widget if no filter constraints\n        w = widg.widget(the_field, value)\n\n    return dict(widget = w, linktable = linktable)\n\ndef set_form_wrapper():\n    """\n    Creates the LOAD helper to hold the modal form for creating a new item in the linked table\n    """\n    tablename = request.args[0]\n    fieldname = request.args[1]\n    linktable = request.args[2]\n    wrappername = request.args[3]\n\n    formwrapper = LOAD(\'plugin_ajaxselect\', \'linked_create_form.load\', \n                       args = [tablename, fieldname, linktable, wrappername], \n                       vars = request.vars, \n                       ajax = True)\n\n    return dict(formwrapper = formwrapper)\n\n\ndef linked_create_form():\n    """\n    creates a form to insert a new entry into the linked table which populates the ajaxSelect widget\n    """\n\n    tablename = request.args[0]\n    fieldname = request.args[1]\n    linktable = request.args[2]\n    wrappername = request.args[3]\n    \n    value = request.vars[\'fieldval\']\n    \n    if \'multi\' in request.vars:\n        uvars = dict(multi = request.vars[\'multi\'])\n    else:\n        uvars = {}\n\n    form = SQLFORM(db[linktable])\n\n    comp_url = URL(\'plugin_ajaxselect\', \'set_widget.load\', \n                   args = [tablename, fieldname, value, linktable, wrappername], vars = uvars)\n\n    if form.process().accepted:\n        response.flash = \'form accepted\'\n        response.js = "web2py_component(\'%s\', \'%s\');" % (comp_url, wrappername)\n    else:\n        response.error = \'form was not processed\'\n\n    return dict(form = form)\n\nresponse._vars=response._caller(set_widget)\n'
p7
sS'snapshot'
p8
(dp9
S'exception'
p10
(dp11
S'__hash__'
p12
S"<method-wrapper '__hash__' of exceptions.AttributeError object>"
p13
sS'__setattr__'
p14
S"<method-wrapper '__setattr__' of exceptions.AttributeError object>"
p15
sS'__reduce_ex__'
p16
S'<built-in method __reduce_ex__ of exceptions.AttributeError object>'
p17
sS'__getslice__'
p18
S"<method-wrapper '__getslice__' of exceptions.AttributeError object>"
p19
sS'__getitem__'
p20
S"<method-wrapper '__getitem__' of exceptions.AttributeError object>"
p21
sS'__setstate__'
p22
S'<built-in method __setstate__ of exceptions.AttributeError object>'
p23
sS'args'
p24
S'("\'NoneType\' object has no attribute \'split\'",)'
p25
sS'__reduce__'
p26
S'<built-in method __reduce__ of exceptions.AttributeError object>'
p27
sS'__str__'
p28
S"<method-wrapper '__str__' of exceptions.AttributeError object>"
p29
sS'__format__'
p30
S'<built-in method __format__ of exceptions.AttributeError object>'
p31
sS'__getattribute__'
p32
S"<method-wrapper '__getattribute__' of exceptions.AttributeError object>"
p33
sS'__class__'
p34
S"<type 'exceptions.AttributeError'>"
p35
sS'__unicode__'
p36
S'<built-in method __unicode__ of exceptions.AttributeError object>'
p37
sS'__delattr__'
p38
S"<method-wrapper '__delattr__' of exceptions.AttributeError object>"
p39
sS'__subclasshook__'
p40
S'<built-in method __subclasshook__ of type object>'
p41
sS'__repr__'
p42
S"<method-wrapper '__repr__' of exceptions.AttributeError object>"
p43
sS'__dict__'
p44
S'{}'
p45
sS'__sizeof__'
p46
S'<built-in method __sizeof__ of exceptions.AttributeError object>'
p47
sS'__doc__'
p48
S"'Attribute not found.'"
p49
sS'__init__'
p50
S"<method-wrapper '__init__' of exceptions.AttributeError object>"
p51
sS'__new__'
p52
S'<built-in method __new__ of type object>'
p53
ssS'evalue'
p54
S"'NoneType' object has no attribute 'split'"
p55
sS'request'
p56
ccopy_reg
_reconstructor
p57
(cgluon.html
BEAUTIFY
p58
c__builtin__
object
p59
NtRp60
(dp61
S'attributes'
p62
(dp63
sS'components'
p64
(lp65
g57
(cgluon.html
TABLE
p66
g59
NtRp67
(dp68
g62
(dp69
S'level'
p70
I5
ssS'parent'
p71
Nsg64
(lp72
g57
(cgluon.html
TR
p73
g59
NtRp74
(dp75
g62
(dp76
sg71
g67
sg64
(lp77
g57
(cgluon.html
TD
p78
g59
NtRp79
(dp80
g62
(dp81
S'_style'
p82
S'font-weight:bold;vertical-align:top'
p83
ssg71
g74
sg64
(lp84
S'ajax'
p85
asbag57
(g78
g59
NtRp86
(dp87
g62
(dp88
S'_valign'
p89
S'top'
p90
ssg71
g74
sg64
(lp91
S':'
asbag57
(g78
g59
NtRp92
(dp93
g62
(dp94
sg71
g74
sg64
(lp95
g57
(g58
g59
NtRp96
(dp97
g62
(dp98
g70
I5
ssg71
g92
sg64
(lp99
S'True'
p100
asbasbasbag57
(g73
g59
NtRp101
(dp102
g62
(dp103
sg71
g67
sg64
(lp104
g57
(g78
g59
NtRp105
(dp106
g62
(dp107
g82
g83
ssg71
g101
sg64
(lp108
S'application'
p109
asbag57
(g78
g59
NtRp110
(dp111
g62
(dp112
g89
g90
ssg71
g101
sg64
(lp113
S':'
asbag57
(g78
g59
NtRp114
(dp115
g62
(dp116
sg71
g101
sg64
(lp117
g57
(g58
g59
NtRp118
(dp119
g62
(dp120
g70
I5
ssg71
g114
sg64
(lp121
S'paideia'
p122
asbasbasbag57
(g73
g59
NtRp123
(dp124
g62
(dp125
sg71
g67
sg64
(lp126
g57
(g78
g59
NtRp127
(dp128
g62
(dp129
g82
g83
ssg71
g123
sg64
(lp130
g24
asbag57
(g78
g59
NtRp131
(dp132
g62
(dp133
g89
g90
ssg71
g123
sg64
(lp134
S':'
asbag57
(g78
g59
NtRp135
(dp136
g62
(dp137
sg71
g123
sg64
(lp138
g57
(g58
g59
NtRp139
(dp140
g62
(dp141
g70
I5
ssg71
g135
sg64
(lp142
g57
(g66
g59
NtRp143
(dp144
g62
(dp145
g70
I4
ssg71
Nsg64
(lp146
g57
(g73
g59
NtRp147
(dp148
g62
(dp149
sg71
g143
sg64
(lp150
g57
(g78
g59
NtRp151
(dp152
g62
(dp153
sg71
g147
sg64
(lp154
g57
(g58
g59
NtRp155
(dp156
g62
(dp157
g70
I4
ssg71
g151
sg64
(lp158
S'questions'
p159
asbasbasbag57
(g73
g59
NtRp160
(dp161
g62
(dp162
sg71
g143
sg64
(lp163
g57
(g78
g59
NtRp164
(dp165
g62
(dp166
sg71
g160
sg64
(lp167
g57
(g58
g59
NtRp168
(dp169
g62
(dp170
g70
I4
ssg71
g164
sg64
(lp171
S'npcs'
p172
asbasbasbag57
(g73
g59
NtRp173
(dp174
g62
(dp175
sg71
g143
sg64
(lp176
g57
(g78
g59
NtRp177
(dp178
g62
(dp179
sg71
g173
sg64
(lp180
g57
(g58
g59
NtRp181
(dp182
g62
(dp183
g70
I4
ssg71
g177
sg64
(lp184
S'None'
p185
asbasbasbag57
(g73
g59
NtRp186
(dp187
g62
(dp188
sg71
g143
sg64
(lp189
g57
(g78
g59
NtRp190
(dp191
g62
(dp192
sg71
g186
sg64
(lp193
g57
(g58
g59
NtRp194
(dp195
g62
(dp196
g70
I4
ssg71
g190
sg64
(lp197
S'npcs'
p198
asbasbasbag57
(g73
g59
NtRp199
(dp200
g62
(dp201
sg71
g143
sg64
(lp202
g57
(g78
g59
NtRp203
(dp204
g62
(dp205
sg71
g199
sg64
(lp206
g57
(g58
g59
NtRp207
(dp208
g62
(dp209
g70
I4
ssg71
g203
sg64
(lp210
S'questions_npcs_loader'
p211
asbasbasbasbasbasbasbag57
(g73
g59
NtRp212
(dp213
g62
(dp214
sg71
g67
sg64
(lp215
g57
(g78
g59
NtRp216
(dp217
g62
(dp218
g82
g83
ssg71
g212
sg64
(lp219
S'body'
p220
asbag57
(g78
g59
NtRp221
(dp222
g62
(dp223
g89
g90
ssg71
g212
sg64
(lp224
S':'
asbag57
(g78
g59
NtRp225
(dp226
g62
(dp227
sg71
g212
sg64
(lp228
g57
(g58
g59
NtRp229
(dp230
g62
(dp231
g70
I5
ssg71
g225
sg64
(lp232
S'<cStringIO.StringO object at 0x363b998>'
p233
asbasbasbag57
(g73
g59
NtRp234
(dp235
g62
(dp236
sg71
g67
sg64
(lp237
g57
(g78
g59
NtRp238
(dp239
g62
(dp240
g82
g83
ssg71
g234
sg64
(lp241
S'cid'
p242
asbag57
(g78
g59
NtRp243
(dp244
g62
(dp245
g89
g90
ssg71
g234
sg64
(lp246
S':'
asbag57
(g78
g59
NtRp247
(dp248
g62
(dp249
sg71
g234
sg64
(lp250
g57
(g58
g59
NtRp251
(dp252
g62
(dp253
g70
I5
ssg71
g247
sg64
(lp254
S'questions_npcs_loader'
p255
asbasbasbag57
(g73
g59
NtRp256
(dp257
g62
(dp258
sg71
g67
sg64
(lp259
g57
(g78
g59
NtRp260
(dp261
g62
(dp262
g82
g83
ssg71
g256
sg64
(lp263
S'client'
p264
asbag57
(g78
g59
NtRp265
(dp266
g62
(dp267
g89
g90
ssg71
g256
sg64
(lp268
S':'
asbag57
(g78
g59
NtRp269
(dp270
g62
(dp271
sg71
g256
sg64
(lp272
g57
(g58
g59
NtRp273
(dp274
g62
(dp275
g70
I5
ssg71
g269
sg64
(lp276
S'127.0.0.1'
p277
asbasbasbag57
(g73
g59
NtRp278
(dp279
g62
(dp280
sg71
g67
sg64
(lp281
g57
(g78
g59
NtRp282
(dp283
g62
(dp284
g82
g83
ssg71
g278
sg64
(lp285
S'controller'
p286
asbag57
(g78
g59
NtRp287
(dp288
g62
(dp289
g89
g90
ssg71
g278
sg64
(lp290
S':'
asbag57
(g78
g59
NtRp291
(dp292
g62
(dp293
sg71
g278
sg64
(lp294
g57
(g58
g59
NtRp295
(dp296
g62
(dp297
g70
I5
ssg71
g291
sg64
(lp298
S'plugin_ajaxselect'
p299
asbasbasbag57
(g73
g59
NtRp300
(dp301
g62
(dp302
sg71
g67
sg64
(lp303
g57
(g78
g59
NtRp304
(dp305
g62
(dp306
g82
g83
ssg71
g300
sg64
(lp307
S'cookies'
p308
asbag57
(g78
g59
NtRp309
(dp310
g62
(dp311
g89
g90
ssg71
g300
sg64
(lp312
S':'
asbag57
(g78
g59
NtRp313
(dp314
g62
(dp315
sg71
g300
sg64
(lp316
g57
(g58
g59
NtRp317
(dp318
g62
(dp319
g70
I5
ssg71
g313
sg64
(lp320
g57
(g66
g59
NtRp321
(dp322
g62
(dp323
g70
I4
ssg71
Nsg64
(lp324
g57
(g73
g59
NtRp325
(dp326
g62
(dp327
sg71
g321
sg64
(lp328
g57
(g78
g59
NtRp329
(dp330
g62
(dp331
g82
g83
ssg71
g325
sg64
(lp332
S'session_id_admin'
p333
asbag57
(g78
g59
NtRp334
(dp335
g62
(dp336
g89
g90
ssg71
g325
sg64
(lp337
S':'
asbag57
(g78
g59
NtRp338
(dp339
g62
(dp340
sg71
g325
sg64
(lp341
g57
(g58
g59
NtRp342
(dp343
g62
(dp344
g70
I4
ssg71
g338
sg64
(lp345
g57
(g66
g59
NtRp346
(dp347
g62
(dp348
g70
I3
ssg71
Nsg64
(lp349
g57
(g73
g59
NtRp350
(dp351
g62
(dp352
sg71
g346
sg64
(lp353
g57
(g78
g59
NtRp354
(dp355
g62
(dp356
g82
g83
ssg71
g350
sg64
(lp357
S'comment'
p358
asbag57
(g78
g59
NtRp359
(dp360
g62
(dp361
g89
g90
ssg71
g350
sg64
(lp362
S':'
asbag57
(g78
g59
NtRp363
(dp364
g62
(dp365
sg71
g350
sg64
(lp366
g57
(g58
g59
NtRp367
(dp368
g62
(dp369
g70
I3
ssg71
g363
sg64
(lp370
S''
asbasbasbag57
(g73
g59
NtRp371
(dp372
g62
(dp373
sg71
g346
sg64
(lp374
g57
(g78
g59
NtRp375
(dp376
g62
(dp377
g82
g83
ssg71
g371
sg64
(lp378
S'domain'
p379
asbag57
(g78
g59
NtRp380
(dp381
g62
(dp382
g89
g90
ssg71
g371
sg64
(lp383
S':'
asbag57
(g78
g59
NtRp384
(dp385
g62
(dp386
sg71
g371
sg64
(lp387
g57
(g58
g59
NtRp388
(dp389
g62
(dp390
g70
I3
ssg71
g384
sg64
(lp391
S''
asbasbasbag57
(g73
g59
NtRp392
(dp393
g62
(dp394
sg71
g346
sg64
(lp395
g57
(g78
g59
NtRp396
(dp397
g62
(dp398
g82
g83
ssg71
g392
sg64
(lp399
S'expires'
p400
asbag57
(g78
g59
NtRp401
(dp402
g62
(dp403
g89
g90
ssg71
g392
sg64
(lp404
S':'
asbag57
(g78
g59
NtRp405
(dp406
g62
(dp407
sg71
g392
sg64
(lp408
g57
(g58
g59
NtRp409
(dp410
g62
(dp411
g70
I3
ssg71
g405
sg64
(lp412
S''
asbasbasbag57
(g73
g59
NtRp413
(dp414
g62
(dp415
sg71
g346
sg64
(lp416
g57
(g78
g59
NtRp417
(dp418
g62
(dp419
g82
g83
ssg71
g413
sg64
(lp420
S'httponly'
p421
asbag57
(g78
g59
NtRp422
(dp423
g62
(dp424
g89
g90
ssg71
g413
sg64
(lp425
S':'
asbag57
(g78
g59
NtRp426
(dp427
g62
(dp428
sg71
g413
sg64
(lp429
g57
(g58
g59
NtRp430
(dp431
g62
(dp432
g70
I3
ssg71
g426
sg64
(lp433
S''
asbasbasbag57
(g73
g59
NtRp434
(dp435
g62
(dp436
sg71
g346
sg64
(lp437
g57
(g78
g59
NtRp438
(dp439
g62
(dp440
g82
g83
ssg71
g434
sg64
(lp441
S'max-age'
p442
asbag57
(g78
g59
NtRp443
(dp444
g62
(dp445
g89
g90
ssg71
g434
sg64
(lp446
S':'
asbag57
(g78
g59
NtRp447
(dp448
g62
(dp449
sg71
g434
sg64
(lp450
g57
(g58
g59
NtRp451
(dp452
g62
(dp453
g70
I3
ssg71
g447
sg64
(lp454
S''
asbasbasbag57
(g73
g59
NtRp455
(dp456
g62
(dp457
sg71
g346
sg64
(lp458
g57
(g78
g59
NtRp459
(dp460
g62
(dp461
g82
g83
ssg71
g455
sg64
(lp462
S'path'
p463
asbag57
(g78
g59
NtRp464
(dp465
g62
(dp466
g89
g90
ssg71
g455
sg64
(lp467
S':'
asbag57
(g78
g59
NtRp468
(dp469
g62
(dp470
sg71
g455
sg64
(lp471
g57
(g58
g59
NtRp472
(dp473
g62
(dp474
g70
I3
ssg71
g468
sg64
(lp475
S''
asbasbasbag57
(g73
g59
NtRp476
(dp477
g62
(dp478
sg71
g346
sg64
(lp479
g57
(g78
g59
NtRp480
(dp481
g62
(dp482
g82
g83
ssg71
g476
sg64
(lp483
S'secure'
p484
asbag57
(g78
g59
NtRp485
(dp486
g62
(dp487
g89
g90
ssg71
g476
sg64
(lp488
S':'
asbag57
(g78
g59
NtRp489
(dp490
g62
(dp491
sg71
g476
sg64
(lp492
g57
(g58
g59
NtRp493
(dp494
g62
(dp495
g70
I3
ssg71
g489
sg64
(lp496
S''
asbasbasbag57
(g73
g59
NtRp497
(dp498
g62
(dp499
sg71
g346
sg64
(lp500
g57
(g78
g59
NtRp501
(dp502
g62
(dp503
g82
g83
ssg71
g497
sg64
(lp504
S'version'
p505
asbag57
(g78
g59
NtRp506
(dp507
g62
(dp508
g89
g90
ssg71
g497
sg64
(lp509
S':'
asbag57
(g78
g59
NtRp510
(dp511
g62
(dp512
sg71
g497
sg64
(lp513
g57
(g58
g59
NtRp514
(dp515
g62
(dp516
g70
I3
ssg71
g510
sg64
(lp517
S''
asbasbasbasbasbasbasbag57
(g73
g59
NtRp518
(dp519
g62
(dp520
sg71
g321
sg64
(lp521
g57
(g78
g59
NtRp522
(dp523
g62
(dp524
g82
g83
ssg71
g518
sg64
(lp525
S'session_id_paideia'
p526
asbag57
(g78
g59
NtRp527
(dp528
g62
(dp529
g89
g90
ssg71
g518
sg64
(lp530
S':'
asbag57
(g78
g59
NtRp531
(dp532
g62
(dp533
sg71
g518
sg64
(lp534
g57
(g58
g59
NtRp535
(dp536
g62
(dp537
g70
I4
ssg71
g531
sg64
(lp538
g57
(g66
g59
NtRp539
(dp540
g62
(dp541
g70
I3
ssg71
Nsg64
(lp542
g57
(g73
g59
NtRp543
(dp544
g62
(dp545
sg71
g539
sg64
(lp546
g57
(g78
g59
NtRp547
(dp548
g62
(dp549
g82
g83
ssg71
g543
sg64
(lp550
g358
asbag57
(g78
g59
NtRp551
(dp552
g62
(dp553
g89
g90
ssg71
g543
sg64
(lp554
S':'
asbag57
(g78
g59
NtRp555
(dp556
g62
(dp557
sg71
g543
sg64
(lp558
g57
(g58
g59
NtRp559
(dp560
g62
(dp561
g70
I3
ssg71
g555
sg64
(lp562
S''
asbasbasbag57
(g73
g59
NtRp563
(dp564
g62
(dp565
sg71
g539
sg64
(lp566
g57
(g78
g59
NtRp567
(dp568
g62
(dp569
g82
g83
ssg71
g563
sg64
(lp570
g379
asbag57
(g78
g59
NtRp571
(dp572
g62
(dp573
g89
g90
ssg71
g563
sg64
(lp574
S':'
asbag57
(g78
g59
NtRp575
(dp576
g62
(dp577
sg71
g563
sg64
(lp578
g57
(g58
g59
NtRp579
(dp580
g62
(dp581
g70
I3
ssg71
g575
sg64
(lp582
S''
asbasbasbag57
(g73
g59
NtRp583
(dp584
g62
(dp585
sg71
g539
sg64
(lp586
g57
(g78
g59
NtRp587
(dp588
g62
(dp589
g82
g83
ssg71
g583
sg64
(lp590
g400
asbag57
(g78
g59
NtRp591
(dp592
g62
(dp593
g89
g90
ssg71
g583
sg64
(lp594
S':'
asbag57
(g78
g59
NtRp595
(dp596
g62
(dp597
sg71
g583
sg64
(lp598
g57
(g58
g59
NtRp599
(dp600
g62
(dp601
g70
I3
ssg71
g595
sg64
(lp602
S''
asbasbasbag57
(g73
g59
NtRp603
(dp604
g62
(dp605
sg71
g539
sg64
(lp606
g57
(g78
g59
NtRp607
(dp608
g62
(dp609
g82
g83
ssg71
g603
sg64
(lp610
g421
asbag57
(g78
g59
NtRp611
(dp612
g62
(dp613
g89
g90
ssg71
g603
sg64
(lp614
S':'
asbag57
(g78
g59
NtRp615
(dp616
g62
(dp617
sg71
g603
sg64
(lp618
g57
(g58
g59
NtRp619
(dp620
g62
(dp621
g70
I3
ssg71
g615
sg64
(lp622
S''
asbasbasbag57
(g73
g59
NtRp623
(dp624
g62
(dp625
sg71
g539
sg64
(lp626
g57
(g78
g59
NtRp627
(dp628
g62
(dp629
g82
g83
ssg71
g623
sg64
(lp630
g442
asbag57
(g78
g59
NtRp631
(dp632
g62
(dp633
g89
g90
ssg71
g623
sg64
(lp634
S':'
asbag57
(g78
g59
NtRp635
(dp636
g62
(dp637
sg71
g623
sg64
(lp638
g57
(g58
g59
NtRp639
(dp640
g62
(dp641
g70
I3
ssg71
g635
sg64
(lp642
S''
asbasbasbag57
(g73
g59
NtRp643
(dp644
g62
(dp645
sg71
g539
sg64
(lp646
g57
(g78
g59
NtRp647
(dp648
g62
(dp649
g82
g83
ssg71
g643
sg64
(lp650
g463
asbag57
(g78
g59
NtRp651
(dp652
g62
(dp653
g89
g90
ssg71
g643
sg64
(lp654
S':'
asbag57
(g78
g59
NtRp655
(dp656
g62
(dp657
sg71
g643
sg64
(lp658
g57
(g58
g59
NtRp659
(dp660
g62
(dp661
g70
I3
ssg71
g655
sg64
(lp662
S''
asbasbasbag57
(g73
g59
NtRp663
(dp664
g62
(dp665
sg71
g539
sg64
(lp666
g57
(g78
g59
NtRp667
(dp668
g62
(dp669
g82
g83
ssg71
g663
sg64
(lp670
g484
asbag57
(g78
g59
NtRp671
(dp672
g62
(dp673
g89
g90
ssg71
g663
sg64
(lp674
S':'
asbag57
(g78
g59
NtRp675
(dp676
g62
(dp677
sg71
g663
sg64
(lp678
g57
(g58
g59
NtRp679
(dp680
g62
(dp681
g70
I3
ssg71
g675
sg64
(lp682
S''
asbasbasbag57
(g73
g59
NtRp683
(dp684
g62
(dp685
sg71
g539
sg64
(lp686
g57
(g78
g59
NtRp687
(dp688
g62
(dp689
g82
g83
ssg71
g683
sg64
(lp690
g505
asbag57
(g78
g59
NtRp691
(dp692
g62
(dp693
g89
g90
ssg71
g683
sg64
(lp694
S':'
asbag57
(g78
g59
NtRp695
(dp696
g62
(dp697
sg71
g683
sg64
(lp698
g57
(g58
g59
NtRp699
(dp700
g62
(dp701
g70
I3
ssg71
g695
sg64
(lp702
S''
asbasbasbasbasbasbasbag57
(g73
g59
NtRp703
(dp704
g62
(dp705
sg71
g321
sg64
(lp706
g57
(g78
g59
NtRp707
(dp708
g62
(dp709
g82
g83
ssg71
g703
sg64
(lp710
S'session_id_topoi'
p711
asbag57
(g78
g59
NtRp712
(dp713
g62
(dp714
g89
g90
ssg71
g703
sg64
(lp715
S':'
asbag57
(g78
g59
NtRp716
(dp717
g62
(dp718
sg71
g703
sg64
(lp719
g57
(g58
g59
NtRp720
(dp721
g62
(dp722
g70
I4
ssg71
g716
sg64
(lp723
g57
(g66
g59
NtRp724
(dp725
g62
(dp726
g70
I3
ssg71
Nsg64
(lp727
g57
(g73
g59
NtRp728
(dp729
g62
(dp730
sg71
g724
sg64
(lp731
g57
(g78
g59
NtRp732
(dp733
g62
(dp734
g82
g83
ssg71
g728
sg64
(lp735
g358
asbag57
(g78
g59
NtRp736
(dp737
g62
(dp738
g89
g90
ssg71
g728
sg64
(lp739
S':'
asbag57
(g78
g59
NtRp740
(dp741
g62
(dp742
sg71
g728
sg64
(lp743
g57
(g58
g59
NtRp744
(dp745
g62
(dp746
g70
I3
ssg71
g740
sg64
(lp747
S''
asbasbasbag57
(g73
g59
NtRp748
(dp749
g62
(dp750
sg71
g724
sg64
(lp751
g57
(g78
g59
NtRp752
(dp753
g62
(dp754
g82
g83
ssg71
g748
sg64
(lp755
g379
asbag57
(g78
g59
NtRp756
(dp757
g62
(dp758
g89
g90
ssg71
g748
sg64
(lp759
S':'
asbag57
(g78
g59
NtRp760
(dp761
g62
(dp762
sg71
g748
sg64
(lp763
g57
(g58
g59
NtRp764
(dp765
g62
(dp766
g70
I3
ssg71
g760
sg64
(lp767
S''
asbasbasbag57
(g73
g59
NtRp768
(dp769
g62
(dp770
sg71
g724
sg64
(lp771
g57
(g78
g59
NtRp772
(dp773
g62
(dp774
g82
g83
ssg71
g768
sg64
(lp775
g400
asbag57
(g78
g59
NtRp776
(dp777
g62
(dp778
g89
g90
ssg71
g768
sg64
(lp779
S':'
asbag57
(g78
g59
NtRp780
(dp781
g62
(dp782
sg71
g768
sg64
(lp783
g57
(g58
g59
NtRp784
(dp785
g62
(dp786
g70
I3
ssg71
g780
sg64
(lp787
S''
asbasbasbag57
(g73
g59
NtRp788
(dp789
g62
(dp790
sg71
g724
sg64
(lp791
g57
(g78
g59
NtRp792
(dp793
g62
(dp794
g82
g83
ssg71
g788
sg64
(lp795
g421
asbag57
(g78
g59
NtRp796
(dp797
g62
(dp798
g89
g90
ssg71
g788
sg64
(lp799
S':'
asbag57
(g78
g59
NtRp800
(dp801
g62
(dp802
sg71
g788
sg64
(lp803
g57
(g58
g59
NtRp804
(dp805
g62
(dp806
g70
I3
ssg71
g800
sg64
(lp807
S''
asbasbasbag57
(g73
g59
NtRp808
(dp809
g62
(dp810
sg71
g724
sg64
(lp811
g57
(g78
g59
NtRp812
(dp813
g62
(dp814
g82
g83
ssg71
g808
sg64
(lp815
g442
asbag57
(g78
g59
NtRp816
(dp817
g62
(dp818
g89
g90
ssg71
g808
sg64
(lp819
S':'
asbag57
(g78
g59
NtRp820
(dp821
g62
(dp822
sg71
g808
sg64
(lp823
g57
(g58
g59
NtRp824
(dp825
g62
(dp826
g70
I3
ssg71
g820
sg64
(lp827
S''
asbasbasbag57
(g73
g59
NtRp828
(dp829
g62
(dp830
sg71
g724
sg64
(lp831
g57
(g78
g59
NtRp832
(dp833
g62
(dp834
g82
g83
ssg71
g828
sg64
(lp835
g463
asbag57
(g78
g59
NtRp836
(dp837
g62
(dp838
g89
g90
ssg71
g828
sg64
(lp839
S':'
asbag57
(g78
g59
NtRp840
(dp841
g62
(dp842
sg71
g828
sg64
(lp843
g57
(g58
g59
NtRp844
(dp845
g62
(dp846
g70
I3
ssg71
g840
sg64
(lp847
S''
asbasbasbag57
(g73
g59
NtRp848
(dp849
g62
(dp850
sg71
g724
sg64
(lp851
g57
(g78
g59
NtRp852
(dp853
g62
(dp854
g82
g83
ssg71
g848
sg64
(lp855
g484
asbag57
(g78
g59
NtRp856
(dp857
g62
(dp858
g89
g90
ssg71
g848
sg64
(lp859
S':'
asbag57
(g78
g59
NtRp860
(dp861
g62
(dp862
sg71
g848
sg64
(lp863
g57
(g58
g59
NtRp864
(dp865
g62
(dp866
g70
I3
ssg71
g860
sg64
(lp867
S''
asbasbasbag57
(g73
g59
NtRp868
(dp869
g62
(dp870
sg71
g724
sg64
(lp871
g57
(g78
g59
NtRp872
(dp873
g62
(dp874
g82
g83
ssg71
g868
sg64
(lp875
g505
asbag57
(g78
g59
NtRp876
(dp877
g62
(dp878
g89
g90
ssg71
g868
sg64
(lp879
S':'
asbag57
(g78
g59
NtRp880
(dp881
g62
(dp882
sg71
g868
sg64
(lp883
g57
(g58
g59
NtRp884
(dp885
g62
(dp886
g70
I3
ssg71
g880
sg64
(lp887
S''
asbasbasbasbasbasbasbag57
(g73
g59
NtRp888
(dp889
g62
(dp890
sg71
g321
sg64
(lp891
g57
(g78
g59
NtRp892
(dp893
g62
(dp894
g82
g83
ssg71
g888
sg64
(lp895
S'session_id_welcome'
p896
asbag57
(g78
g59
NtRp897
(dp898
g62
(dp899
g89
g90
ssg71
g888
sg64
(lp900
S':'
asbag57
(g78
g59
NtRp901
(dp902
g62
(dp903
sg71
g888
sg64
(lp904
g57
(g58
g59
NtRp905
(dp906
g62
(dp907
g70
I4
ssg71
g901
sg64
(lp908
g57
(g66
g59
NtRp909
(dp910
g62
(dp911
g70
I3
ssg71
Nsg64
(lp912
g57
(g73
g59
NtRp913
(dp914
g62
(dp915
sg71
g909
sg64
(lp916
g57
(g78
g59
NtRp917
(dp918
g62
(dp919
g82
g83
ssg71
g913
sg64
(lp920
g358
asbag57
(g78
g59
NtRp921
(dp922
g62
(dp923
g89
g90
ssg71
g913
sg64
(lp924
S':'
asbag57
(g78
g59
NtRp925
(dp926
g62
(dp927
sg71
g913
sg64
(lp928
g57
(g58
g59
NtRp929
(dp930
g62
(dp931
g70
I3
ssg71
g925
sg64
(lp932
S''
asbasbasbag57
(g73
g59
NtRp933
(dp934
g62
(dp935
sg71
g909
sg64
(lp936
g57
(g78
g59
NtRp937
(dp938
g62
(dp939
g82
g83
ssg71
g933
sg64
(lp940
g379
asbag57
(g78
g59
NtRp941
(dp942
g62
(dp943
g89
g90
ssg71
g933
sg64
(lp944
S':'
asbag57
(g78
g59
NtRp945
(dp946
g62
(dp947
sg71
g933
sg64
(lp948
g57
(g58
g59
NtRp949
(dp950
g62
(dp951
g70
I3
ssg71
g945
sg64
(lp952
S''
asbasbasbag57
(g73
g59
NtRp953
(dp954
g62
(dp955
sg71
g909
sg64
(lp956
g57
(g78
g59
NtRp957
(dp958
g62
(dp959
g82
g83
ssg71
g953
sg64
(lp960
g400
asbag57
(g78
g59
NtRp961
(dp962
g62
(dp963
g89
g90
ssg71
g953
sg64
(lp964
S':'
asbag57
(g78
g59
NtRp965
(dp966
g62
(dp967
sg71
g953
sg64
(lp968
g57
(g58
g59
NtRp969
(dp970
g62
(dp971
g70
I3
ssg71
g965
sg64
(lp972
S''
asbasbasbag57
(g73
g59
NtRp973
(dp974
g62
(dp975
sg71
g909
sg64
(lp976
g57
(g78
g59
NtRp977
(dp978
g62
(dp979
g82
g83
ssg71
g973
sg64
(lp980
g421
asbag57
(g78
g59
NtRp981
(dp982
g62
(dp983
g89
g90
ssg71
g973
sg64
(lp984
S':'
asbag57
(g78
g59
NtRp985
(dp986
g62
(dp987
sg71
g973
sg64
(lp988
g57
(g58
g59
NtRp989
(dp990
g62
(dp991
g70
I3
ssg71
g985
sg64
(lp992
S''
asbasbasbag57
(g73
g59
NtRp993
(dp994
g62
(dp995
sg71
g909
sg64
(lp996
g57
(g78
g59
NtRp997
(dp998
g62
(dp999
g82
g83
ssg71
g993
sg64
(lp1000
g442
asbag57
(g78
g59
NtRp1001
(dp1002
g62
(dp1003
g89
g90
ssg71
g993
sg64
(lp1004
S':'
asbag57
(g78
g59
NtRp1005
(dp1006
g62
(dp1007
sg71
g993
sg64
(lp1008
g57
(g58
g59
NtRp1009
(dp1010
g62
(dp1011
g70
I3
ssg71
g1005
sg64
(lp1012
S''
asbasbasbag57
(g73
g59
NtRp1013
(dp1014
g62
(dp1015
sg71
g909
sg64
(lp1016
g57
(g78
g59
NtRp1017
(dp1018
g62
(dp1019
g82
g83
ssg71
g1013
sg64
(lp1020
g463
asbag57
(g78
g59
NtRp1021
(dp1022
g62
(dp1023
g89
g90
ssg71
g1013
sg64
(lp1024
S':'
asbag57
(g78
g59
NtRp1025
(dp1026
g62
(dp1027
sg71
g1013
sg64
(lp1028
g57
(g58
g59
NtRp1029
(dp1030
g62
(dp1031
g70
I3
ssg71
g1025
sg64
(lp1032
S''
asbasbasbag57
(g73
g59
NtRp1033
(dp1034
g62
(dp1035
sg71
g909
sg64
(lp1036
g57
(g78
g59
NtRp1037
(dp1038
g62
(dp1039
g82
g83
ssg71
g1033
sg64
(lp1040
g484
asbag57
(g78
g59
NtRp1041
(dp1042
g62
(dp1043
g89
g90
ssg71
g1033
sg64
(lp1044
S':'
asbag57
(g78
g59
NtRp1045
(dp1046
g62
(dp1047
sg71
g1033
sg64
(lp1048
g57
(g58
g59
NtRp1049
(dp1050
g62
(dp1051
g70
I3
ssg71
g1045
sg64
(lp1052
S''
asbasbasbag57
(g73
g59
NtRp1053
(dp1054
g62
(dp1055
sg71
g909
sg64
(lp1056
g57
(g78
g59
NtRp1057
(dp1058
g62
(dp1059
g82
g83
ssg71
g1053
sg64
(lp1060
g505
asbag57
(g78
g59
NtRp1061
(dp1062
g62
(dp1063
g89
g90
ssg71
g1053
sg64
(lp1064
S':'
asbag57
(g78
g59
NtRp1065
(dp1066
g62
(dp1067
sg71
g1053
sg64
(lp1068
g57
(g58
g59
NtRp1069
(dp1070
g62
(dp1071
g70
I3
ssg71
g1065
sg64
(lp1072
S''
asbasbasbasbasbasbasbasbasbasbasbag57
(g73
g59
NtRp1073
(dp1074
g62
(dp1075
sg71
g67
sg64
(lp1076
g57
(g78
g59
NtRp1077
(dp1078
g62
(dp1079
g82
g83
ssg71
g1073
sg64
(lp1080
S'env'
p1081
asbag57
(g78
g59
NtRp1082
(dp1083
g62
(dp1084
g89
g90
ssg71
g1073
sg64
(lp1085
S':'
asbag57
(g78
g59
NtRp1086
(dp1087
g62
(dp1088
sg71
g1073
sg64
(lp1089
g57
(g58
g59
NtRp1090
(dp1091
g62
(dp1092
g70
I5
ssg71
g1086
sg64
(lp1093
g57
(g66
g59
NtRp1094
(dp1095
g62
(dp1096
g70
I4
ssg71
Nsg64
(lp1097
g57
(g73
g59
NtRp1098
(dp1099
g62
(dp1100
sg71
g1094
sg64
(lp1101
g57
(g78
g59
NtRp1102
(dp1103
g62
(dp1104
g82
g83
ssg71
g1098
sg64
(lp1105
S'app_folders'
p1106
asbag57
(g78
g59
NtRp1107
(dp1108
g62
(dp1109
g89
g90
ssg71
g1098
sg64
(lp1110
S':'
asbag57
(g78
g59
NtRp1111
(dp1112
g62
(dp1113
sg71
g1098
sg64
(lp1114
g57
(g58
g59
NtRp1115
(dp1116
g62
(dp1117
g70
I4
ssg71
g1111
sg64
(lp1118
S"set(['/home/ian/web2py/applications/welcome/', '/home/ian/web2py/applications/paideia/', '/home/ian/web2py/applications/admin/'])"
p1119
asbasbasbag57
(g73
g59
NtRp1120
(dp1121
g62
(dp1122
sg71
g1094
sg64
(lp1123
g57
(g78
g59
NtRp1124
(dp1125
g62
(dp1126
g82
g83
ssg71
g1120
sg64
(lp1127
S'applications_parent'
p1128
asbag57
(g78
g59
NtRp1129
(dp1130
g62
(dp1131
g89
g90
ssg71
g1120
sg64
(lp1132
S':'
asbag57
(g78
g59
NtRp1133
(dp1134
g62
(dp1135
sg71
g1120
sg64
(lp1136
g57
(g58
g59
NtRp1137
(dp1138
g62
(dp1139
g70
I4
ssg71
g1133
sg64
(lp1140
S'/home/ian/web2py'
p1141
asbasbasbag57
(g73
g59
NtRp1142
(dp1143
g62
(dp1144
sg71
g1094
sg64
(lp1145
g57
(g78
g59
NtRp1146
(dp1147
g62
(dp1148
g82
g83
ssg71
g1142
sg64
(lp1149
S'cmd_args'
p1150
asbag57
(g78
g59
NtRp1151
(dp1152
g62
(dp1153
g89
g90
ssg71
g1142
sg64
(lp1154
S':'
asbag57
(g78
g59
NtRp1155
(dp1156
g62
(dp1157
sg71
g1142
sg64
(lp1158
g57
(g58
g59
NtRp1159
(dp1160
g62
(dp1161
g70
I4
ssg71
g1155
sg64
(lp1162
g57
(g66
g59
NtRp1163
(dp1164
g62
(dp1165
g70
I3
ssg71
Nsg64
(lp1166
sbasbasbasbag57
(g73
g59
NtRp1167
(dp1168
g62
(dp1169
sg71
g1094
sg64
(lp1170
g57
(g78
g59
NtRp1171
(dp1172
g62
(dp1173
g82
g83
ssg71
g1167
sg64
(lp1174
S'cmd_options'
p1175
asbag57
(g78
g59
NtRp1176
(dp1177
g62
(dp1178
g89
g90
ssg71
g1167
sg64
(lp1179
S':'
asbag57
(g78
g59
NtRp1180
(dp1181
g62
(dp1182
sg71
g1167
sg64
(lp1183
g57
(g58
g59
NtRp1184
(dp1185
g62
(dp1186
g70
I4
ssg71
g1180
sg64
(lp1187
S"<Values at 0x22f8b00: {'verbose': False, 'ip': '127.0.0.1', 'shutdown_timeout': 5, 'taskbar': False, 'nocron': False, 'pid_filename': 'httpserver.pid', 'maxthreads': None, 'softcron': False, 'server_name': 'Ariel-ubuntu', 'bpython': False, 'nogui': False, 'port': 8000, 'extcron': False, 'debuglevel': 30, 'test': None, 'folder': '/home/ian/web2py', 'config': '', 'import_models': False, 'winservice': '', 'shell': None, 'run': '', 'log_filename': 'httpserver.log', 'args': [''], 'socket_timeout': 1, 'ssl_ca_certificate': None, 'scheduler': None, 'profiler_filename': None, 'ssl_private_key': '', 'password': '<ask>', 'request_queue_size': 5, 'ssl_certificate': '', 'cronjob': False, 'numthreads': None, 'quiet': False, 'interfaces': None, 'minthreads': None, 'timeout': 10, 'plain': False, 'nobanner': False}>"
p1188
asbasbasbag57
(g73
g59
NtRp1189
(dp1190
g62
(dp1191
sg71
g1094
sg64
(lp1192
g57
(g78
g59
NtRp1193
(dp1194
g62
(dp1195
g82
g83
ssg71
g1189
sg64
(lp1196
S'db_sessions'
p1197
asbag57
(g78
g59
NtRp1198
(dp1199
g62
(dp1200
g89
g90
ssg71
g1189
sg64
(lp1201
S':'
asbag57
(g78
g59
NtRp1202
(dp1203
g62
(dp1204
sg71
g1189
sg64
(lp1205
g57
(g58
g59
NtRp1206
(dp1207
g62
(dp1208
g70
I4
ssg71
g1202
sg64
(lp1209
S'set([])'
p1210
asbasbasbag57
(g73
g59
NtRp1211
(dp1212
g62
(dp1213
sg71
g1094
sg64
(lp1214
g57
(g78
g59
NtRp1215
(dp1216
g62
(dp1217
g82
g83
ssg71
g1211
sg64
(lp1218
S'debugging'
p1219
asbag57
(g78
g59
NtRp1220
(dp1221
g62
(dp1222
g89
g90
ssg71
g1211
sg64
(lp1223
S':'
asbag57
(g78
g59
NtRp1224
(dp1225
g62
(dp1226
sg71
g1211
sg64
(lp1227
g57
(g58
g59
NtRp1228
(dp1229
g62
(dp1230
g70
I4
ssg71
g1224
sg64
(lp1231
S'False'
p1232
asbasbasbag57
(g73
g59
NtRp1233
(dp1234
g62
(dp1235
sg71
g1094
sg64
(lp1236
g57
(g78
g59
NtRp1237
(dp1238
g62
(dp1239
g82
g83
ssg71
g1233
sg64
(lp1240
S'gluon_parent'
p1241
asbag57
(g78
g59
NtRp1242
(dp1243
g62
(dp1244
g89
g90
ssg71
g1233
sg64
(lp1245
S':'
asbag57
(g78
g59
NtRp1246
(dp1247
g62
(dp1248
sg71
g1233
sg64
(lp1249
g57
(g58
g59
NtRp1250
(dp1251
g62
(dp1252
g70
I4
ssg71
g1246
sg64
(lp1253
S'/home/ian/web2py'
p1254
asbasbasbag57
(g73
g59
NtRp1255
(dp1256
g62
(dp1257
sg71
g1094
sg64
(lp1258
g57
(g78
g59
NtRp1259
(dp1260
g62
(dp1261
g82
g83
ssg71
g1255
sg64
(lp1262
S'http_accept'
p1263
asbag57
(g78
g59
NtRp1264
(dp1265
g62
(dp1266
g89
g90
ssg71
g1255
sg64
(lp1267
S':'
asbag57
(g78
g59
NtRp1268
(dp1269
g62
(dp1270
sg71
g1255
sg64
(lp1271
g57
(g58
g59
NtRp1272
(dp1273
g62
(dp1274
g70
I4
ssg71
g1268
sg64
(lp1275
S'*/*'
p1276
asbasbasbag57
(g73
g59
NtRp1277
(dp1278
g62
(dp1279
sg71
g1094
sg64
(lp1280
g57
(g78
g59
NtRp1281
(dp1282
g62
(dp1283
g82
g83
ssg71
g1277
sg64
(lp1284
S'http_accept_encoding'
p1285
asbag57
(g78
g59
NtRp1286
(dp1287
g62
(dp1288
g89
g90
ssg71
g1277
sg64
(lp1289
S':'
asbag57
(g78
g59
NtRp1290
(dp1291
g62
(dp1292
sg71
g1277
sg64
(lp1293
g57
(g58
g59
NtRp1294
(dp1295
g62
(dp1296
g70
I4
ssg71
g1290
sg64
(lp1297
S'gzip, deflate'
p1298
asbasbasbag57
(g73
g59
NtRp1299
(dp1300
g62
(dp1301
sg71
g1094
sg64
(lp1302
g57
(g78
g59
NtRp1303
(dp1304
g62
(dp1305
g82
g83
ssg71
g1299
sg64
(lp1306
S'http_accept_language'
p1307
asbag57
(g78
g59
NtRp1308
(dp1309
g62
(dp1310
g89
g90
ssg71
g1299
sg64
(lp1311
S':'
asbag57
(g78
g59
NtRp1312
(dp1313
g62
(dp1314
sg71
g1299
sg64
(lp1315
g57
(g58
g59
NtRp1316
(dp1317
g62
(dp1318
g70
I4
ssg71
g1312
sg64
(lp1319
S'en-us,en;q=0.5'
p1320
asbasbasbag57
(g73
g59
NtRp1321
(dp1322
g62
(dp1323
sg71
g1094
sg64
(lp1324
g57
(g78
g59
NtRp1325
(dp1326
g62
(dp1327
g82
g83
ssg71
g1321
sg64
(lp1328
S'http_connection'
p1329
asbag57
(g78
g59
NtRp1330
(dp1331
g62
(dp1332
g89
g90
ssg71
g1321
sg64
(lp1333
S':'
asbag57
(g78
g59
NtRp1334
(dp1335
g62
(dp1336
sg71
g1321
sg64
(lp1337
g57
(g58
g59
NtRp1338
(dp1339
g62
(dp1340
g70
I4
ssg71
g1334
sg64
(lp1341
S'keep-alive'
p1342
asbasbasbag57
(g73
g59
NtRp1343
(dp1344
g62
(dp1345
sg71
g1094
sg64
(lp1346
g57
(g78
g59
NtRp1347
(dp1348
g62
(dp1349
g82
g83
ssg71
g1343
sg64
(lp1350
S'http_cookie'
p1351
asbag57
(g78
g59
NtRp1352
(dp1353
g62
(dp1354
g89
g90
ssg71
g1343
sg64
(lp1355
S':'
asbag57
(g78
g59
NtRp1356
(dp1357
g62
(dp1358
sg71
g1343
sg64
(lp1359
g57
(g58
g59
NtRp1360
(dp1361
g62
(dp1362
g70
I4
ssg71
g1356
sg64
(lp1363
S'__utma_a2a=9789918665.1351576430.1320019504.1320019504.1320019504.1; session_id_topoi=127.0.0.1-36a47132-9f63-403c-93e8-4b961484278b; session_id_welcome=127.0.0.1-c398cbe0-b32f-462d-9d6d-2d3c46ac65e3; session_id_admin=127.0.0.1-05534a01-9c19-4fbd-8f35-eb69f909ac6a; session_id_paideia=127.0.0.1-e39bb56e-30eb-4da5-9f4e-559a6c22ef0d'
p1364
asbasbasbag57
(g73
g59
NtRp1365
(dp1366
g62
(dp1367
sg71
g1094
sg64
(lp1368
g57
(g78
g59
NtRp1369
(dp1370
g62
(dp1371
g82
g83
ssg71
g1365
sg64
(lp1372
S'http_host'
p1373
asbag57
(g78
g59
NtRp1374
(dp1375
g62
(dp1376
g89
g90
ssg71
g1365
sg64
(lp1377
S':'
asbag57
(g78
g59
NtRp1378
(dp1379
g62
(dp1380
sg71
g1365
sg64
(lp1381
g57
(g58
g59
NtRp1382
(dp1383
g62
(dp1384
g70
I4
ssg71
g1378
sg64
(lp1385
S'127.0.0.1:8000'
p1386
asbasbasbag57
(g73
g59
NtRp1387
(dp1388
g62
(dp1389
sg71
g1094
sg64
(lp1390
g57
(g78
g59
NtRp1391
(dp1392
g62
(dp1393
g82
g83
ssg71
g1387
sg64
(lp1394
S'http_referer'
p1395
asbag57
(g78
g59
NtRp1396
(dp1397
g62
(dp1398
g89
g90
ssg71
g1387
sg64
(lp1399
S':'
asbag57
(g78
g59
NtRp1400
(dp1401
g62
(dp1402
sg71
g1387
sg64
(lp1403
g57
(g58
g59
NtRp1404
(dp1405
g62
(dp1406
g70
I4
ssg71
g1400
sg64
(lp1407
S'http://127.0.0.1:8000/paideia/plugin_listandedit/list.html/questions'
p1408
asbasbasbag57
(g73
g59
NtRp1409
(dp1410
g62
(dp1411
sg71
g1094
sg64
(lp1412
g57
(g78
g59
NtRp1413
(dp1414
g62
(dp1415
g82
g83
ssg71
g1409
sg64
(lp1416
S'http_user_agent'
p1417
asbag57
(g78
g59
NtRp1418
(dp1419
g62
(dp1420
g89
g90
ssg71
g1409
sg64
(lp1421
S':'
asbag57
(g78
g59
NtRp1422
(dp1423
g62
(dp1424
sg71
g1409
sg64
(lp1425
g57
(g58
g59
NtRp1426
(dp1427
g62
(dp1428
g70
I4
ssg71
g1422
sg64
(lp1429
S'Mozilla/5.0 (X11; Ubuntu; Linux x86_64; rv:10.0) Gecko/20100101 Firefox/10.0'
p1430
asbasbasbag57
(g73
g59
NtRp1431
(dp1432
g62
(dp1433
sg71
g1094
sg64
(lp1434
g57
(g78
g59
NtRp1435
(dp1436
g62
(dp1437
g82
g83
ssg71
g1431
sg64
(lp1438
S'http_web2py_component_element'
p1439
asbag57
(g78
g59
NtRp1440
(dp1441
g62
(dp1442
g89
g90
ssg71
g1431
sg64
(lp1443
S':'
asbag57
(g78
g59
NtRp1444
(dp1445
g62
(dp1446
sg71
g1431
sg64
(lp1447
g57
(g58
g59
NtRp1448
(dp1449
g62
(dp1450
g70
I4
ssg71
g1444
sg64
(lp1451
g255
asbasbasbag57
(g73
g59
NtRp1452
(dp1453
g62
(dp1454
sg71
g1094
sg64
(lp1455
g57
(g78
g59
NtRp1456
(dp1457
g62
(dp1458
g82
g83
ssg71
g1452
sg64
(lp1459
S'http_web2py_component_location'
p1460
asbag57
(g78
g59
NtRp1461
(dp1462
g62
(dp1463
g89
g90
ssg71
g1452
sg64
(lp1464
S':'
asbag57
(g78
g59
NtRp1465
(dp1466
g62
(dp1467
sg71
g1452
sg64
(lp1468
g57
(g58
g59
NtRp1469
(dp1470
g62
(dp1471
g70
I4
ssg71
g1465
sg64
(lp1472
S'http://127.0.0.1:8000/paideia/plugin_listandedit/list.html/questions'
p1473
asbasbasbag57
(g73
g59
NtRp1474
(dp1475
g62
(dp1476
sg71
g1094
sg64
(lp1477
g57
(g78
g59
NtRp1478
(dp1479
g62
(dp1480
g82
g83
ssg71
g1474
sg64
(lp1481
S'http_x_requested_with'
p1482
asbag57
(g78
g59
NtRp1483
(dp1484
g62
(dp1485
g89
g90
ssg71
g1474
sg64
(lp1486
S':'
asbag57
(g78
g59
NtRp1487
(dp1488
g62
(dp1489
sg71
g1474
sg64
(lp1490
g57
(g58
g59
NtRp1491
(dp1492
g62
(dp1493
g70
I4
ssg71
g1487
sg64
(lp1494
S'XMLHttpRequest'
p1495
asbasbasbag57
(g73
g59
NtRp1496
(dp1497
g62
(dp1498
sg71
g1094
sg64
(lp1499
g57
(g78
g59
NtRp1500
(dp1501
g62
(dp1502
g82
g83
ssg71
g1496
sg64
(lp1503
S'is_jython'
p1504
asbag57
(g78
g59
NtRp1505
(dp1506
g62
(dp1507
g89
g90
ssg71
g1496
sg64
(lp1508
S':'
asbag57
(g78
g59
NtRp1509
(dp1510
g62
(dp1511
sg71
g1496
sg64
(lp1512
g57
(g58
g59
NtRp1513
(dp1514
g62
(dp1515
g70
I4
ssg71
g1509
sg64
(lp1516
g1232
asbasbasbag57
(g73
g59
NtRp1517
(dp1518
g62
(dp1519
sg71
g1094
sg64
(lp1520
g57
(g78
g59
NtRp1521
(dp1522
g62
(dp1523
g82
g83
ssg71
g1517
sg64
(lp1524
S'is_pypy'
p1525
asbag57
(g78
g59
NtRp1526
(dp1527
g62
(dp1528
g89
g90
ssg71
g1517
sg64
(lp1529
S':'
asbag57
(g78
g59
NtRp1530
(dp1531
g62
(dp1532
sg71
g1517
sg64
(lp1533
g57
(g58
g59
NtRp1534
(dp1535
g62
(dp1536
g70
I4
ssg71
g1530
sg64
(lp1537
g1232
asbasbasbag57
(g73
g59
NtRp1538
(dp1539
g62
(dp1540
sg71
g1094
sg64
(lp1541
g57
(g78
g59
NtRp1542
(dp1543
g62
(dp1544
g82
g83
ssg71
g1538
sg64
(lp1545
S'path_info'
p1546
asbag57
(g78
g59
NtRp1547
(dp1548
g62
(dp1549
g89
g90
ssg71
g1538
sg64
(lp1550
S':'
asbag57
(g78
g59
NtRp1551
(dp1552
g62
(dp1553
sg71
g1538
sg64
(lp1554
g57
(g58
g59
NtRp1555
(dp1556
g62
(dp1557
g70
I4
ssg71
g1551
sg64
(lp1558
S'/paideia/plugin_ajaxselect/set_widget.load/questions/npcs/None/npcs/questions_npcs_loader'
p1559
asbasbasbag57
(g73
g59
NtRp1560
(dp1561
g62
(dp1562
sg71
g1094
sg64
(lp1563
g57
(g78
g59
NtRp1564
(dp1565
g62
(dp1566
g82
g83
ssg71
g1560
sg64
(lp1567
S'query_string'
p1568
asbag57
(g78
g59
NtRp1569
(dp1570
g62
(dp1571
g89
g90
ssg71
g1560
sg64
(lp1572
S':'
asbag57
(g78
g59
NtRp1573
(dp1574
g62
(dp1575
sg71
g1560
sg64
(lp1576
g57
(g58
g59
NtRp1577
(dp1578
g62
(dp1579
g70
I4
ssg71
g1573
sg64
(lp1580
S'multi=basic'
p1581
asbasbasbag57
(g73
g59
NtRp1582
(dp1583
g62
(dp1584
sg71
g1094
sg64
(lp1585
g57
(g78
g59
NtRp1586
(dp1587
g62
(dp1588
g82
g83
ssg71
g1582
sg64
(lp1589
S'remote_addr'
p1590
asbag57
(g78
g59
NtRp1591
(dp1592
g62
(dp1593
g89
g90
ssg71
g1582
sg64
(lp1594
S':'
asbag57
(g78
g59
NtRp1595
(dp1596
g62
(dp1597
sg71
g1582
sg64
(lp1598
g57
(g58
g59
NtRp1599
(dp1600
g62
(dp1601
g70
I4
ssg71
g1595
sg64
(lp1602
g277
asbasbasbag57
(g73
g59
NtRp1603
(dp1604
g62
(dp1605
sg71
g1094
sg64
(lp1606
g57
(g78
g59
NtRp1607
(dp1608
g62
(dp1609
g82
g83
ssg71
g1603
sg64
(lp1610
S'remote_port'
p1611
asbag57
(g78
g59
NtRp1612
(dp1613
g62
(dp1614
g89
g90
ssg71
g1603
sg64
(lp1615
S':'
asbag57
(g78
g59
NtRp1616
(dp1617
g62
(dp1618
sg71
g1603
sg64
(lp1619
g57
(g58
g59
NtRp1620
(dp1621
g62
(dp1622
g70
I4
ssg71
g1616
sg64
(lp1623
S'56929'
p1624
asbasbasbag57
(g73
g59
NtRp1625
(dp1626
g62
(dp1627
sg71
g1094
sg64
(lp1628
g57
(g78
g59
NtRp1629
(dp1630
g62
(dp1631
g82
g83
ssg71
g1625
sg64
(lp1632
S'request_method'
p1633
asbag57
(g78
g59
NtRp1634
(dp1635
g62
(dp1636
g89
g90
ssg71
g1625
sg64
(lp1637
S':'
asbag57
(g78
g59
NtRp1638
(dp1639
g62
(dp1640
sg71
g1625
sg64
(lp1641
g57
(g58
g59
NtRp1642
(dp1643
g62
(dp1644
g70
I4
ssg71
g1638
sg64
(lp1645
S'GET'
p1646
asbasbasbag57
(g73
g59
NtRp1647
(dp1648
g62
(dp1649
sg71
g1094
sg64
(lp1650
g57
(g78
g59
NtRp1651
(dp1652
g62
(dp1653
g82
g83
ssg71
g1647
sg64
(lp1654
S'script_name'
p1655
asbag57
(g78
g59
NtRp1656
(dp1657
g62
(dp1658
g89
g90
ssg71
g1647
sg64
(lp1659
S':'
asbag57
(g78
g59
NtRp1660
(dp1661
g62
(dp1662
sg71
g1647
sg64
(lp1663
g57
(g58
g59
NtRp1664
(dp1665
g62
(dp1666
g70
I4
ssg71
g1660
sg64
(lp1667
S''
asbasbasbag57
(g73
g59
NtRp1668
(dp1669
g62
(dp1670
sg71
g1094
sg64
(lp1671
g57
(g78
g59
NtRp1672
(dp1673
g62
(dp1674
g82
g83
ssg71
g1668
sg64
(lp1675
S'server_name'
p1676
asbag57
(g78
g59
NtRp1677
(dp1678
g62
(dp1679
g89
g90
ssg71
g1668
sg64
(lp1680
S':'
asbag57
(g78
g59
NtRp1681
(dp1682
g62
(dp1683
sg71
g1668
sg64
(lp1684
g57
(g58
g59
NtRp1685
(dp1686
g62
(dp1687
g70
I4
ssg71
g1681
sg64
(lp1688
S'Ariel-ubuntu'
p1689
asbasbasbag57
(g73
g59
NtRp1690
(dp1691
g62
(dp1692
sg71
g1094
sg64
(lp1693
g57
(g78
g59
NtRp1694
(dp1695
g62
(dp1696
g82
g83
ssg71
g1690
sg64
(lp1697
S'server_port'
p1698
asbag57
(g78
g59
NtRp1699
(dp1700
g62
(dp1701
g89
g90
ssg71
g1690
sg64
(lp1702
S':'
asbag57
(g78
g59
NtRp1703
(dp1704
g62
(dp1705
sg71
g1690
sg64
(lp1706
g57
(g58
g59
NtRp1707
(dp1708
g62
(dp1709
g70
I4
ssg71
g1703
sg64
(lp1710
S'8000'
p1711
asbasbasbag57
(g73
g59
NtRp1712
(dp1713
g62
(dp1714
sg71
g1094
sg64
(lp1715
g57
(g78
g59
NtRp1716
(dp1717
g62
(dp1718
g82
g83
ssg71
g1712
sg64
(lp1719
S'server_protocol'
p1720
asbag57
(g78
g59
NtRp1721
(dp1722
g62
(dp1723
g89
g90
ssg71
g1712
sg64
(lp1724
S':'
asbag57
(g78
g59
NtRp1725
(dp1726
g62
(dp1727
sg71
g1712
sg64
(lp1728
g57
(g58
g59
NtRp1729
(dp1730
g62
(dp1731
g70
I4
ssg71
g1725
sg64
(lp1732
S'HTTP/1.1'
p1733
asbasbasbag57
(g73
g59
NtRp1734
(dp1735
g62
(dp1736
sg71
g1094
sg64
(lp1737
g57
(g78
g59
NtRp1738
(dp1739
g62
(dp1740
g82
g83
ssg71
g1734
sg64
(lp1741
S'server_software'
p1742
asbag57
(g78
g59
NtRp1743
(dp1744
g62
(dp1745
g89
g90
ssg71
g1734
sg64
(lp1746
S':'
asbag57
(g78
g59
NtRp1747
(dp1748
g62
(dp1749
sg71
g1734
sg64
(lp1750
g57
(g58
g59
NtRp1751
(dp1752
g62
(dp1753
g70
I4
ssg71
g1747
sg64
(lp1754
S'Rocket 1.2.4'
p1755
asbasbasbag57
(g73
g59
NtRp1756
(dp1757
g62
(dp1758
sg71
g1094
sg64
(lp1759
g57
(g78
g59
NtRp1760
(dp1761
g62
(dp1762
g82
g83
ssg71
g1756
sg64
(lp1763
S'web2py_crontype'
p1764
asbag57
(g78
g59
NtRp1765
(dp1766
g62
(dp1767
g89
g90
ssg71
g1756
sg64
(lp1768
S':'
asbag57
(g78
g59
NtRp1769
(dp1770
g62
(dp1771
sg71
g1756
sg64
(lp1772
g57
(g58
g59
NtRp1773
(dp1774
g62
(dp1775
g70
I4
ssg71
g1769
sg64
(lp1776
S'hard'
p1777
asbasbasbag57
(g73
g59
NtRp1778
(dp1779
g62
(dp1780
sg71
g1094
sg64
(lp1781
g57
(g78
g59
NtRp1782
(dp1783
g62
(dp1784
g82
g83
ssg71
g1778
sg64
(lp1785
S'web2py_path'
p1786
asbag57
(g78
g59
NtRp1787
(dp1788
g62
(dp1789
g89
g90
ssg71
g1778
sg64
(lp1790
S':'
asbag57
(g78
g59
NtRp1791
(dp1792
g62
(dp1793
sg71
g1778
sg64
(lp1794
g57
(g58
g59
NtRp1795
(dp1796
g62
(dp1797
g70
I4
ssg71
g1791
sg64
(lp1798
g1141
asbasbasbag57
(g73
g59
NtRp1799
(dp1800
g62
(dp1801
sg71
g1094
sg64
(lp1802
g57
(g78
g59
NtRp1803
(dp1804
g62
(dp1805
g82
g83
ssg71
g1799
sg64
(lp1806
S'web2py_version'
p1807
asbag57
(g78
g59
NtRp1808
(dp1809
g62
(dp1810
g89
g90
ssg71
g1799
sg64
(lp1811
S':'
asbag57
(g78
g59
NtRp1812
(dp1813
g62
(dp1814
sg71
g1799
sg64
(lp1815
g57
(g58
g59
NtRp1816
(dp1817
g62
(dp1818
g70
I4
ssg71
g1812
sg64
(lp1819
g57
(g66
g59
NtRp1820
(dp1821
g62
(dp1822
g70
I3
ssg71
Nsg64
(lp1823
g57
(g73
g59
NtRp1824
(dp1825
g62
(dp1826
sg71
g1820
sg64
(lp1827
g57
(g78
g59
NtRp1828
(dp1829
g62
(dp1830
sg71
g1824
sg64
(lp1831
g57
(g58
g59
NtRp1832
(dp1833
g62
(dp1834
g70
I3
ssg71
g1828
sg64
(lp1835
S'1'
asbasbasbag57
(g73
g59
NtRp1836
(dp1837
g62
(dp1838
sg71
g1820
sg64
(lp1839
g57
(g78
g59
NtRp1840
(dp1841
g62
(dp1842
sg71
g1836
sg64
(lp1843
g57
(g58
g59
NtRp1844
(dp1845
g62
(dp1846
g70
I3
ssg71
g1840
sg64
(lp1847
S'99'
p1848
asbasbasbag57
(g73
g59
NtRp1849
(dp1850
g62
(dp1851
sg71
g1820
sg64
(lp1852
g57
(g78
g59
NtRp1853
(dp1854
g62
(dp1855
sg71
g1849
sg64
(lp1856
g57
(g58
g59
NtRp1857
(dp1858
g62
(dp1859
g70
I3
ssg71
g1853
sg64
(lp1860
S'4'
asbasbasbag57
(g73
g59
NtRp1861
(dp1862
g62
(dp1863
sg71
g1820
sg64
(lp1864
g57
(g78
g59
NtRp1865
(dp1866
g62
(dp1867
sg71
g1861
sg64
(lp1868
g57
(g58
g59
NtRp1869
(dp1870
g62
(dp1871
g70
I3
ssg71
g1865
sg64
(lp1872
S'datetime.datetime(2011, 12, 14, 14, 46, 14)'
p1873
asbasbasbag57
(g73
g59
NtRp1874
(dp1875
g62
(dp1876
sg71
g1820
sg64
(lp1877
g57
(g78
g59
NtRp1878
(dp1879
g62
(dp1880
sg71
g1874
sg64
(lp1881
g57
(g58
g59
NtRp1882
(dp1883
g62
(dp1884
g70
I3
ssg71
g1878
sg64
(lp1885
S'stable'
p1886
asbasbasbasbasbasbasbag57
(g73
g59
NtRp1887
(dp1888
g62
(dp1889
sg71
g1094
sg64
(lp1890
g57
(g78
g59
NtRp1891
(dp1892
g62
(dp1893
g82
g83
ssg71
g1887
sg64
(lp1894
S'wsgi_errors'
p1895
asbag57
(g78
g59
NtRp1896
(dp1897
g62
(dp1898
g89
g90
ssg71
g1887
sg64
(lp1899
S':'
asbag57
(g78
g59
NtRp1900
(dp1901
g62
(dp1902
sg71
g1887
sg64
(lp1903
g57
(g58
g59
NtRp1904
(dp1905
g62
(dp1906
g70
I4
ssg71
g1900
sg64
(lp1907
S"<open file '<stderr>', mode 'w' at 0x7f733e063270>"
p1908
asbasbasbag57
(g73
g59
NtRp1909
(dp1910
g62
(dp1911
sg71
g1094
sg64
(lp1912
g57
(g78
g59
NtRp1913
(dp1914
g62
(dp1915
g82
g83
ssg71
g1909
sg64
(lp1916
S'wsgi_file_wrapper'
p1917
asbag57
(g78
g59
NtRp1918
(dp1919
g62
(dp1920
g89
g90
ssg71
g1909
sg64
(lp1921
S':'
asbag57
(g78
g59
NtRp1922
(dp1923
g62
(dp1924
sg71
g1909
sg64
(lp1925
g57
(g58
g59
NtRp1926
(dp1927
g62
(dp1928
g70
I4
ssg71
g1922
sg64
(lp1929
S'<class wsgiref.util.FileWrapper at 0x21b5c18>'
p1930
asbasbasbag57
(g73
g59
NtRp1931
(dp1932
g62
(dp1933
sg71
g1094
sg64
(lp1934
g57
(g78
g59
NtRp1935
(dp1936
g62
(dp1937
g82
g83
ssg71
g1931
sg64
(lp1938
S'wsgi_input'
p1939
asbag57
(g78
g59
NtRp1940
(dp1941
g62
(dp1942
g89
g90
ssg71
g1931
sg64
(lp1943
S':'
asbag57
(g78
g59
NtRp1944
(dp1945
g62
(dp1946
sg71
g1931
sg64
(lp1947
g57
(g58
g59
NtRp1948
(dp1949
g62
(dp1950
g70
I4
ssg71
g1944
sg64
(lp1951
S'<socket._fileobject object at 0x41901d0>'
p1952
asbasbasbag57
(g73
g59
NtRp1953
(dp1954
g62
(dp1955
sg71
g1094
sg64
(lp1956
g57
(g78
g59
NtRp1957
(dp1958
g62
(dp1959
g82
g83
ssg71
g1953
sg64
(lp1960
S'wsgi_multiprocess'
p1961
asbag57
(g78
g59
NtRp1962
(dp1963
g62
(dp1964
g89
g90
ssg71
g1953
sg64
(lp1965
S':'
asbag57
(g78
g59
NtRp1966
(dp1967
g62
(dp1968
sg71
g1953
sg64
(lp1969
g57
(g58
g59
NtRp1970
(dp1971
g62
(dp1972
g70
I4
ssg71
g1966
sg64
(lp1973
g1232
asbasbasbag57
(g73
g59
NtRp1974
(dp1975
g62
(dp1976
sg71
g1094
sg64
(lp1977
g57
(g78
g59
NtRp1978
(dp1979
g62
(dp1980
g82
g83
ssg71
g1974
sg64
(lp1981
S'wsgi_multithread'
p1982
asbag57
(g78
g59
NtRp1983
(dp1984
g62
(dp1985
g89
g90
ssg71
g1974
sg64
(lp1986
S':'
asbag57
(g78
g59
NtRp1987
(dp1988
g62
(dp1989
sg71
g1974
sg64
(lp1990
g57
(g58
g59
NtRp1991
(dp1992
g62
(dp1993
g70
I4
ssg71
g1987
sg64
(lp1994
g100
asbasbasbag57
(g73
g59
NtRp1995
(dp1996
g62
(dp1997
sg71
g1094
sg64
(lp1998
g57
(g78
g59
NtRp1999
(dp2000
g62
(dp2001
g82
g83
ssg71
g1995
sg64
(lp2002
S'wsgi_run_once'
p2003
asbag57
(g78
g59
NtRp2004
(dp2005
g62
(dp2006
g89
g90
ssg71
g1995
sg64
(lp2007
S':'
asbag57
(g78
g59
NtRp2008
(dp2009
g62
(dp2010
sg71
g1995
sg64
(lp2011
g57
(g58
g59
NtRp2012
(dp2013
g62
(dp2014
g70
I4
ssg71
g2008
sg64
(lp2015
g1232
asbasbasbag57
(g73
g59
NtRp2016
(dp2017
g62
(dp2018
sg71
g1094
sg64
(lp2019
g57
(g78
g59
NtRp2020
(dp2021
g62
(dp2022
g82
g83
ssg71
g2016
sg64
(lp2023
S'wsgi_url_scheme'
p2024
asbag57
(g78
g59
NtRp2025
(dp2026
g62
(dp2027
g89
g90
ssg71
g2016
sg64
(lp2028
S':'
asbag57
(g78
g59
NtRp2029
(dp2030
g62
(dp2031
sg71
g2016
sg64
(lp2032
g57
(g58
g59
NtRp2033
(dp2034
g62
(dp2035
g70
I4
ssg71
g2029
sg64
(lp2036
S'http'
p2037
asbasbasbag57
(g73
g59
NtRp2038
(dp2039
g62
(dp2040
sg71
g1094
sg64
(lp2041
g57
(g78
g59
NtRp2042
(dp2043
g62
(dp2044
g82
g83
ssg71
g2038
sg64
(lp2045
S'wsgi_version'
p2046
asbag57
(g78
g59
NtRp2047
(dp2048
g62
(dp2049
g89
g90
ssg71
g2038
sg64
(lp2050
S':'
asbag57
(g78
g59
NtRp2051
(dp2052
g62
(dp2053
sg71
g2038
sg64
(lp2054
g57
(g58
g59
NtRp2055
(dp2056
g62
(dp2057
g70
I4
ssg71
g2051
sg64
(lp2058
g57
(g66
g59
NtRp2059
(dp2060
g62
(dp2061
g70
I3
ssg71
Nsg64
(lp2062
g57
(g73
g59
NtRp2063
(dp2064
g62
(dp2065
sg71
g2059
sg64
(lp2066
g57
(g78
g59
NtRp2067
(dp2068
g62
(dp2069
sg71
g2063
sg64
(lp2070
g57
(g58
g59
NtRp2071
(dp2072
g62
(dp2073
g70
I3
ssg71
g2067
sg64
(lp2074
S'1'
asbasbasbag57
(g73
g59
NtRp2075
(dp2076
g62
(dp2077
sg71
g2059
sg64
(lp2078
g57
(g78
g59
NtRp2079
(dp2080
g62
(dp2081
sg71
g2075
sg64
(lp2082
g57
(g58
g59
NtRp2083
(dp2084
g62
(dp2085
g70
I3
ssg71
g2079
sg64
(lp2086
S'0'
asbasbasbasbasbasbasbasbasbasbasbag57
(g73
g59
NtRp2087
(dp2088
g62
(dp2089
sg71
g67
sg64
(lp2090
g57
(g78
g59
NtRp2091
(dp2092
g62
(dp2093
g82
g83
ssg71
g2087
sg64
(lp2094
S'extension'
p2095
asbag57
(g78
g59
NtRp2096
(dp2097
g62
(dp2098
g89
g90
ssg71
g2087
sg64
(lp2099
S':'
asbag57
(g78
g59
NtRp2100
(dp2101
g62
(dp2102
sg71
g2087
sg64
(lp2103
g57
(g58
g59
NtRp2104
(dp2105
g62
(dp2106
g70
I5
ssg71
g2100
sg64
(lp2107
S'load'
p2108
asbasbasbag57
(g73
g59
NtRp2109
(dp2110
g62
(dp2111
sg71
g67
sg64
(lp2112
g57
(g78
g59
NtRp2113
(dp2114
g62
(dp2115
g82
g83
ssg71
g2109
sg64
(lp2116
S'folder'
p2117
asbag57
(g78
g59
NtRp2118
(dp2119
g62
(dp2120
g89
g90
ssg71
g2109
sg64
(lp2121
S':'
asbag57
(g78
g59
NtRp2122
(dp2123
g62
(dp2124
sg71
g2109
sg64
(lp2125
g57
(g58
g59
NtRp2126
(dp2127
g62
(dp2128
g70
I5
ssg71
g2122
sg64
(lp2129
S'/home/ian/web2py/applications/paideia/'
p2130
asbasbasbag57
(g73
g59
NtRp2131
(dp2132
g62
(dp2133
sg71
g67
sg64
(lp2134
g57
(g78
g59
NtRp2135
(dp2136
g62
(dp2137
g82
g83
ssg71
g2131
sg64
(lp2138
S'function'
p2139
asbag57
(g78
g59
NtRp2140
(dp2141
g62
(dp2142
g89
g90
ssg71
g2131
sg64
(lp2143
S':'
asbag57
(g78
g59
NtRp2144
(dp2145
g62
(dp2146
sg71
g2131
sg64
(lp2147
g57
(g58
g59
NtRp2148
(dp2149
g62
(dp2150
g70
I5
ssg71
g2144
sg64
(lp2151
S'set_widget'
p2152
asbasbasbag57
(g73
g59
NtRp2153
(dp2154
g62
(dp2155
sg71
g67
sg64
(lp2156
g57
(g78
g59
NtRp2157
(dp2158
g62
(dp2159
g82
g83
ssg71
g2153
sg64
(lp2160
S'get_vars'
p2161
asbag57
(g78
g59
NtRp2162
(dp2163
g62
(dp2164
g89
g90
ssg71
g2153
sg64
(lp2165
S':'
asbag57
(g78
g59
NtRp2166
(dp2167
g62
(dp2168
sg71
g2153
sg64
(lp2169
g57
(g58
g59
NtRp2170
(dp2171
g62
(dp2172
g70
I5
ssg71
g2166
sg64
(lp2173
g57
(g66
g59
NtRp2174
(dp2175
g62
(dp2176
g70
I4
ssg71
Nsg64
(lp2177
g57
(g73
g59
NtRp2178
(dp2179
g62
(dp2180
sg71
g2174
sg64
(lp2181
g57
(g78
g59
NtRp2182
(dp2183
g62
(dp2184
g82
g83
ssg71
g2178
sg64
(lp2185
S'multi'
p2186
asbag57
(g78
g59
NtRp2187
(dp2188
g62
(dp2189
g89
g90
ssg71
g2178
sg64
(lp2190
S':'
asbag57
(g78
g59
NtRp2191
(dp2192
g62
(dp2193
sg71
g2178
sg64
(lp2194
g57
(g58
g59
NtRp2195
(dp2196
g62
(dp2197
g70
I4
ssg71
g2191
sg64
(lp2198
S'basic'
p2199
asbasbasbasbasbasbasbag57
(g73
g59
NtRp2200
(dp2201
g62
(dp2202
sg71
g67
sg64
(lp2203
g57
(g78
g59
NtRp2204
(dp2205
g62
(dp2206
g82
g83
ssg71
g2200
sg64
(lp2207
S'global_settings'
p2208
asbag57
(g78
g59
NtRp2209
(dp2210
g62
(dp2211
g89
g90
ssg71
g2200
sg64
(lp2212
S':'
asbag57
(g78
g59
NtRp2213
(dp2214
g62
(dp2215
sg71
g2200
sg64
(lp2216
g57
(g58
g59
NtRp2217
(dp2218
g62
(dp2219
g70
I5
ssg71
g2213
sg64
(lp2220
g57
(g66
g59
NtRp2221
(dp2222
g62
(dp2223
g70
I4
ssg71
Nsg64
(lp2224
g57
(g73
g59
NtRp2225
(dp2226
g62
(dp2227
sg71
g2221
sg64
(lp2228
g57
(g78
g59
NtRp2229
(dp2230
g62
(dp2231
g82
g83
ssg71
g2225
sg64
(lp2232
g1106
asbag57
(g78
g59
NtRp2233
(dp2234
g62
(dp2235
g89
g90
ssg71
g2225
sg64
(lp2236
S':'
asbag57
(g78
g59
NtRp2237
(dp2238
g62
(dp2239
sg71
g2225
sg64
(lp2240
g57
(g58
g59
NtRp2241
(dp2242
g62
(dp2243
g70
I4
ssg71
g2237
sg64
(lp2244
S"set(['/home/ian/web2py/applications/welcome/', '/home/ian/web2py/applications/paideia/', '/home/ian/web2py/applications/admin/'])"
p2245
asbasbasbag57
(g73
g59
NtRp2246
(dp2247
g62
(dp2248
sg71
g2221
sg64
(lp2249
g57
(g78
g59
NtRp2250
(dp2251
g62
(dp2252
g82
g83
ssg71
g2246
sg64
(lp2253
g1128
asbag57
(g78
g59
NtRp2254
(dp2255
g62
(dp2256
g89
g90
ssg71
g2246
sg64
(lp2257
S':'
asbag57
(g78
g59
NtRp2258
(dp2259
g62
(dp2260
sg71
g2246
sg64
(lp2261
g57
(g58
g59
NtRp2262
(dp2263
g62
(dp2264
g70
I4
ssg71
g2258
sg64
(lp2265
g1141
asbasbasbag57
(g73
g59
NtRp2266
(dp2267
g62
(dp2268
sg71
g2221
sg64
(lp2269
g57
(g78
g59
NtRp2270
(dp2271
g62
(dp2272
g82
g83
ssg71
g2266
sg64
(lp2273
g1150
asbag57
(g78
g59
NtRp2274
(dp2275
g62
(dp2276
g89
g90
ssg71
g2266
sg64
(lp2277
S':'
asbag57
(g78
g59
NtRp2278
(dp2279
g62
(dp2280
sg71
g2266
sg64
(lp2281
g57
(g58
g59
NtRp2282
(dp2283
g62
(dp2284
g70
I4
ssg71
g2278
sg64
(lp2285
g57
(g66
g59
NtRp2286
(dp2287
g62
(dp2288
g70
I3
ssg71
Nsg64
(lp2289
sbasbasbasbag57
(g73
g59
NtRp2290
(dp2291
g62
(dp2292
sg71
g2221
sg64
(lp2293
g57
(g78
g59
NtRp2294
(dp2295
g62
(dp2296
g82
g83
ssg71
g2290
sg64
(lp2297
g1175
asbag57
(g78
g59
NtRp2298
(dp2299
g62
(dp2300
g89
g90
ssg71
g2290
sg64
(lp2301
S':'
asbag57
(g78
g59
NtRp2302
(dp2303
g62
(dp2304
sg71
g2290
sg64
(lp2305
g57
(g58
g59
NtRp2306
(dp2307
g62
(dp2308
g70
I4
ssg71
g2302
sg64
(lp2309
S"<Values at 0x22f8b00: {'verbose': False, 'ip': '127.0.0.1', 'shutdown_timeout': 5, 'taskbar': False, 'nocron': False, 'pid_filename': 'httpserver.pid', 'maxthreads': None, 'softcron': False, 'server_name': 'Ariel-ubuntu', 'bpython': False, 'nogui': False, 'port': 8000, 'extcron': False, 'debuglevel': 30, 'test': None, 'folder': '/home/ian/web2py', 'config': '', 'import_models': False, 'winservice': '', 'shell': None, 'run': '', 'log_filename': 'httpserver.log', 'args': [''], 'socket_timeout': 1, 'ssl_ca_certificate': None, 'scheduler': None, 'profiler_filename': None, 'ssl_private_key': '', 'password': '<ask>', 'request_queue_size': 5, 'ssl_certificate': '', 'cronjob': False, 'numthreads': None, 'quiet': False, 'interfaces': None, 'minthreads': None, 'timeout': 10, 'plain': False, 'nobanner': False}>"
p2310
asbasbasbag57
(g73
g59
NtRp2311
(dp2312
g62
(dp2313
sg71
g2221
sg64
(lp2314
g57
(g78
g59
NtRp2315
(dp2316
g62
(dp2317
g82
g83
ssg71
g2311
sg64
(lp2318
g1197
asbag57
(g78
g59
NtRp2319
(dp2320
g62
(dp2321
g89
g90
ssg71
g2311
sg64
(lp2322
S':'
asbag57
(g78
g59
NtRp2323
(dp2324
g62
(dp2325
sg71
g2311
sg64
(lp2326
g57
(g58
g59
NtRp2327
(dp2328
g62
(dp2329
g70
I4
ssg71
g2323
sg64
(lp2330
S'set([])'
p2331
asbasbasbag57
(g73
g59
NtRp2332
(dp2333
g62
(dp2334
sg71
g2221
sg64
(lp2335
g57
(g78
g59
NtRp2336
(dp2337
g62
(dp2338
g82
g83
ssg71
g2332
sg64
(lp2339
g1219
asbag57
(g78
g59
NtRp2340
(dp2341
g62
(dp2342
g89
g90
ssg71
g2332
sg64
(lp2343
S':'
asbag57
(g78
g59
NtRp2344
(dp2345
g62
(dp2346
sg71
g2332
sg64
(lp2347
g57
(g58
g59
NtRp2348
(dp2349
g62
(dp2350
g70
I4
ssg71
g2344
sg64
(lp2351
g1232
asbasbasbag57
(g73
g59
NtRp2352
(dp2353
g62
(dp2354
sg71
g2221
sg64
(lp2355
g57
(g78
g59
NtRp2356
(dp2357
g62
(dp2358
g82
g83
ssg71
g2352
sg64
(lp2359
g1241
asbag57
(g78
g59
NtRp2360
(dp2361
g62
(dp2362
g89
g90
ssg71
g2352
sg64
(lp2363
S':'
asbag57
(g78
g59
NtRp2364
(dp2365
g62
(dp2366
sg71
g2352
sg64
(lp2367
g57
(g58
g59
NtRp2368
(dp2369
g62
(dp2370
g70
I4
ssg71
g2364
sg64
(lp2371
g1254
asbasbasbag57
(g73
g59
NtRp2372
(dp2373
g62
(dp2374
sg71
g2221
sg64
(lp2375
g57
(g78
g59
NtRp2376
(dp2377
g62
(dp2378
g82
g83
ssg71
g2372
sg64
(lp2379
g1504
asbag57
(g78
g59
NtRp2380
(dp2381
g62
(dp2382
g89
g90
ssg71
g2372
sg64
(lp2383
S':'
asbag57
(g78
g59
NtRp2384
(dp2385
g62
(dp2386
sg71
g2372
sg64
(lp2387
g57
(g58
g59
NtRp2388
(dp2389
g62
(dp2390
g70
I4
ssg71
g2384
sg64
(lp2391
g1232
asbasbasbag57
(g73
g59
NtRp2392
(dp2393
g62
(dp2394
sg71
g2221
sg64
(lp2395
g57
(g78
g59
NtRp2396
(dp2397
g62
(dp2398
g82
g83
ssg71
g2392
sg64
(lp2399
g1525
asbag57
(g78
g59
NtRp2400
(dp2401
g62
(dp2402
g89
g90
ssg71
g2392
sg64
(lp2403
S':'
asbag57
(g78
g59
NtRp2404
(dp2405
g62
(dp2406
sg71
g2392
sg64
(lp2407
g57
(g58
g59
NtRp2408
(dp2409
g62
(dp2410
g70
I4
ssg71
g2404
sg64
(lp2411
g1232
asbasbasbag57
(g73
g59
NtRp2412
(dp2413
g62
(dp2414
sg71
g2221
sg64
(lp2415
g57
(g78
g59
NtRp2416
(dp2417
g62
(dp2418
g82
g83
ssg71
g2412
sg64
(lp2419
g1764
asbag57
(g78
g59
NtRp2420
(dp2421
g62
(dp2422
g89
g90
ssg71
g2412
sg64
(lp2423
S':'
asbag57
(g78
g59
NtRp2424
(dp2425
g62
(dp2426
sg71
g2412
sg64
(lp2427
g57
(g58
g59
NtRp2428
(dp2429
g62
(dp2430
g70
I4
ssg71
g2424
sg64
(lp2431
g1777
asbasbasbag57
(g73
g59
NtRp2432
(dp2433
g62
(dp2434
sg71
g2221
sg64
(lp2435
g57
(g78
g59
NtRp2436
(dp2437
g62
(dp2438
g82
g83
ssg71
g2432
sg64
(lp2439
g1807
asbag57
(g78
g59
NtRp2440
(dp2441
g62
(dp2442
g89
g90
ssg71
g2432
sg64
(lp2443
S':'
asbag57
(g78
g59
NtRp2444
(dp2445
g62
(dp2446
sg71
g2432
sg64
(lp2447
g57
(g58
g59
NtRp2448
(dp2449
g62
(dp2450
g70
I4
ssg71
g2444
sg64
(lp2451
g57
(g66
g59
NtRp2452
(dp2453
g62
(dp2454
g70
I3
ssg71
Nsg64
(lp2455
g57
(g73
g59
NtRp2456
(dp2457
g62
(dp2458
sg71
g2452
sg64
(lp2459
g57
(g78
g59
NtRp2460
(dp2461
g62
(dp2462
sg71
g2456
sg64
(lp2463
g57
(g58
g59
NtRp2464
(dp2465
g62
(dp2466
g70
I3
ssg71
g2460
sg64
(lp2467
S'1'
asbasbasbag57
(g73
g59
NtRp2468
(dp2469
g62
(dp2470
sg71
g2452
sg64
(lp2471
g57
(g78
g59
NtRp2472
(dp2473
g62
(dp2474
sg71
g2468
sg64
(lp2475
g57
(g58
g59
NtRp2476
(dp2477
g62
(dp2478
g70
I3
ssg71
g2472
sg64
(lp2479
S'99'
p2480
asbasbasbag57
(g73
g59
NtRp2481
(dp2482
g62
(dp2483
sg71
g2452
sg64
(lp2484
g57
(g78
g59
NtRp2485
(dp2486
g62
(dp2487
sg71
g2481
sg64
(lp2488
g57
(g58
g59
NtRp2489
(dp2490
g62
(dp2491
g70
I3
ssg71
g2485
sg64
(lp2492
S'4'
asbasbasbag57
(g73
g59
NtRp2493
(dp2494
g62
(dp2495
sg71
g2452
sg64
(lp2496
g57
(g78
g59
NtRp2497
(dp2498
g62
(dp2499
sg71
g2493
sg64
(lp2500
g57
(g58
g59
NtRp2501
(dp2502
g62
(dp2503
g70
I3
ssg71
g2497
sg64
(lp2504
S'datetime.datetime(2011, 12, 14, 14, 46, 14)'
p2505
asbasbasbag57
(g73
g59
NtRp2506
(dp2507
g62
(dp2508
sg71
g2452
sg64
(lp2509
g57
(g78
g59
NtRp2510
(dp2511
g62
(dp2512
sg71
g2506
sg64
(lp2513
g57
(g58
g59
NtRp2514
(dp2515
g62
(dp2516
g70
I3
ssg71
g2510
sg64
(lp2517
g1886
asbasbasbasbasbasbasbasbasbasbasbag57
(g73
g59
NtRp2518
(dp2519
g62
(dp2520
sg71
g67
sg64
(lp2521
g57
(g78
g59
NtRp2522
(dp2523
g62
(dp2524
g82
g83
ssg71
g2518
sg64
(lp2525
S'is_https'
p2526
asbag57
(g78
g59
NtRp2527
(dp2528
g62
(dp2529
g89
g90
ssg71
g2518
sg64
(lp2530
S':'
asbag57
(g78
g59
NtRp2531
(dp2532
g62
(dp2533
sg71
g2518
sg64
(lp2534
g57
(g58
g59
NtRp2535
(dp2536
g62
(dp2537
g70
I5
ssg71
g2531
sg64
(lp2538
g1232
asbasbasbag57
(g73
g59
NtRp2539
(dp2540
g62
(dp2541
sg71
g67
sg64
(lp2542
g57
(g78
g59
NtRp2543
(dp2544
g62
(dp2545
g82
g83
ssg71
g2539
sg64
(lp2546
S'is_local'
p2547
asbag57
(g78
g59
NtRp2548
(dp2549
g62
(dp2550
g89
g90
ssg71
g2539
sg64
(lp2551
S':'
asbag57
(g78
g59
NtRp2552
(dp2553
g62
(dp2554
sg71
g2539
sg64
(lp2555
g57
(g58
g59
NtRp2556
(dp2557
g62
(dp2558
g70
I5
ssg71
g2552
sg64
(lp2559
g100
asbasbasbag57
(g73
g59
NtRp2560
(dp2561
g62
(dp2562
sg71
g67
sg64
(lp2563
g57
(g78
g59
NtRp2564
(dp2565
g62
(dp2566
g82
g83
ssg71
g2560
sg64
(lp2567
S'is_restful'
p2568
asbag57
(g78
g59
NtRp2569
(dp2570
g62
(dp2571
g89
g90
ssg71
g2560
sg64
(lp2572
S':'
asbag57
(g78
g59
NtRp2573
(dp2574
g62
(dp2575
sg71
g2560
sg64
(lp2576
g57
(g58
g59
NtRp2577
(dp2578
g62
(dp2579
g70
I5
ssg71
g2573
sg64
(lp2580
g1232
asbasbasbag57
(g73
g59
NtRp2581
(dp2582
g62
(dp2583
sg71
g67
sg64
(lp2584
g57
(g78
g59
NtRp2585
(dp2586
g62
(dp2587
g82
g83
ssg71
g2581
sg64
(lp2588
S'now'
p2589
asbag57
(g78
g59
NtRp2590
(dp2591
g62
(dp2592
g89
g90
ssg71
g2581
sg64
(lp2593
S':'
asbag57
(g78
g59
NtRp2594
(dp2595
g62
(dp2596
sg71
g2581
sg64
(lp2597
g57
(g58
g59
NtRp2598
(dp2599
g62
(dp2600
g70
I5
ssg71
g2594
sg64
(lp2601
S'datetime.datetime(2012, 2, 8, 10, 3, 23, 273097)'
p2602
asbasbasbag57
(g73
g59
NtRp2603
(dp2604
g62
(dp2605
sg71
g67
sg64
(lp2606
g57
(g78
g59
NtRp2607
(dp2608
g62
(dp2609
g82
g83
ssg71
g2603
sg64
(lp2610
S'post_vars'
p2611
asbag57
(g78
g59
NtRp2612
(dp2613
g62
(dp2614
g89
g90
ssg71
g2603
sg64
(lp2615
S':'
asbag57
(g78
g59
NtRp2616
(dp2617
g62
(dp2618
sg71
g2603
sg64
(lp2619
g57
(g58
g59
NtRp2620
(dp2621
g62
(dp2622
g70
I5
ssg71
g2616
sg64
(lp2623
g57
(g66
g59
NtRp2624
(dp2625
g62
(dp2626
g70
I4
ssg71
Nsg64
(lp2627
sbasbasbasbag57
(g73
g59
NtRp2628
(dp2629
g62
(dp2630
sg71
g67
sg64
(lp2631
g57
(g78
g59
NtRp2632
(dp2633
g62
(dp2634
g82
g83
ssg71
g2628
sg64
(lp2635
S'raw_args'
p2636
asbag57
(g78
g59
NtRp2637
(dp2638
g62
(dp2639
g89
g90
ssg71
g2628
sg64
(lp2640
S':'
asbag57
(g78
g59
NtRp2641
(dp2642
g62
(dp2643
sg71
g2628
sg64
(lp2644
g57
(g58
g59
NtRp2645
(dp2646
g62
(dp2647
g70
I5
ssg71
g2641
sg64
(lp2648
S'questions/npcs/None/npcs/questions_npcs_loader'
p2649
asbasbasbag57
(g73
g59
NtRp2650
(dp2651
g62
(dp2652
sg71
g67
sg64
(lp2653
g57
(g78
g59
NtRp2654
(dp2655
g62
(dp2656
g82
g83
ssg71
g2650
sg64
(lp2657
S'raw_extension'
p2658
asbag57
(g78
g59
NtRp2659
(dp2660
g62
(dp2661
g89
g90
ssg71
g2650
sg64
(lp2662
S':'
asbag57
(g78
g59
NtRp2663
(dp2664
g62
(dp2665
sg71
g2650
sg64
(lp2666
g57
(g58
g59
NtRp2667
(dp2668
g62
(dp2669
g70
I5
ssg71
g2663
sg64
(lp2670
g2108
asbasbasbag57
(g73
g59
NtRp2671
(dp2672
g62
(dp2673
sg71
g67
sg64
(lp2674
g57
(g78
g59
NtRp2675
(dp2676
g62
(dp2677
g82
g83
ssg71
g2671
sg64
(lp2678
S'url'
p2679
asbag57
(g78
g59
NtRp2680
(dp2681
g62
(dp2682
g89
g90
ssg71
g2671
sg64
(lp2683
S':'
asbag57
(g78
g59
NtRp2684
(dp2685
g62
(dp2686
sg71
g2671
sg64
(lp2687
g57
(g58
g59
NtRp2688
(dp2689
g62
(dp2690
g70
I5
ssg71
g2684
sg64
(lp2691
S'/paideia/plugin_ajaxselect/set_widget.load/questions/npcs/None/npcs/questions_npcs_loader'
p2692
asbasbasbag57
(g73
g59
NtRp2693
(dp2694
g62
(dp2695
sg71
g67
sg64
(lp2696
g57
(g78
g59
NtRp2697
(dp2698
g62
(dp2699
g82
g83
ssg71
g2693
sg64
(lp2700
S'utcnow'
p2701
asbag57
(g78
g59
NtRp2702
(dp2703
g62
(dp2704
g89
g90
ssg71
g2693
sg64
(lp2705
S':'
asbag57
(g78
g59
NtRp2706
(dp2707
g62
(dp2708
sg71
g2693
sg64
(lp2709
g57
(g58
g59
NtRp2710
(dp2711
g62
(dp2712
g70
I5
ssg71
g2706
sg64
(lp2713
S'datetime.datetime(2012, 2, 8, 15, 3, 23, 273139)'
p2714
asbasbasbag57
(g73
g59
NtRp2715
(dp2716
g62
(dp2717
sg71
g67
sg64
(lp2718
g57
(g78
g59
NtRp2719
(dp2720
g62
(dp2721
g82
g83
ssg71
g2715
sg64
(lp2722
S'uuid'
p2723
asbag57
(g78
g59
NtRp2724
(dp2725
g62
(dp2726
g89
g90
ssg71
g2715
sg64
(lp2727
S':'
asbag57
(g78
g59
NtRp2728
(dp2729
g62
(dp2730
sg71
g2715
sg64
(lp2731
g57
(g58
g59
NtRp2732
(dp2733
g62
(dp2734
g70
I5
ssg71
g2728
sg64
(lp2735
S'paideia/127.0.0.1.2012-02-08.10-03-23.1fdd5ff1-a1da-47d7-bf63-1c77fb11eae6'
p2736
asbasbasbag57
(g73
g59
NtRp2737
(dp2738
g62
(dp2739
sg71
g67
sg64
(lp2740
g57
(g78
g59
NtRp2741
(dp2742
g62
(dp2743
g82
g83
ssg71
g2737
sg64
(lp2744
S'vars'
p2745
asbag57
(g78
g59
NtRp2746
(dp2747
g62
(dp2748
g89
g90
ssg71
g2737
sg64
(lp2749
S':'
asbag57
(g78
g59
NtRp2750
(dp2751
g62
(dp2752
sg71
g2737
sg64
(lp2753
g57
(g58
g59
NtRp2754
(dp2755
g62
(dp2756
g70
I5
ssg71
g2750
sg64
(lp2757
g57
(g66
g59
NtRp2758
(dp2759
g62
(dp2760
g70
I4
ssg71
Nsg64
(lp2761
g57
(g73
g59
NtRp2762
(dp2763
g62
(dp2764
sg71
g2758
sg64
(lp2765
g57
(g78
g59
NtRp2766
(dp2767
g62
(dp2768
g82
g83
ssg71
g2762
sg64
(lp2769
g2186
asbag57
(g78
g59
NtRp2770
(dp2771
g62
(dp2772
g89
g90
ssg71
g2762
sg64
(lp2773
S':'
asbag57
(g78
g59
NtRp2774
(dp2775
g62
(dp2776
sg71
g2762
sg64
(lp2777
g57
(g58
g59
NtRp2778
(dp2779
g62
(dp2780
g70
I4
ssg71
g2774
sg64
(lp2781
g2199
asbasbasbasbasbasbasbag57
(g73
g59
NtRp2782
(dp2783
g62
(dp2784
sg71
g67
sg64
(lp2785
g57
(g78
g59
NtRp2786
(dp2787
g62
(dp2788
g82
g83
ssg71
g2782
sg64
(lp2789
S'wsgi'
p2790
asbag57
(g78
g59
NtRp2791
(dp2792
g62
(dp2793
g89
g90
ssg71
g2782
sg64
(lp2794
S':'
asbag57
(g78
g59
NtRp2795
(dp2796
g62
(dp2797
sg71
g2782
sg64
(lp2798
g57
(g58
g59
NtRp2799
(dp2800
g62
(dp2801
g70
I5
ssg71
g2795
sg64
(lp2802
g57
(g66
g59
NtRp2803
(dp2804
g62
(dp2805
g70
I4
ssg71
Nsg64
(lp2806
g57
(g73
g59
NtRp2807
(dp2808
g62
(dp2809
sg71
g2803
sg64
(lp2810
g57
(g78
g59
NtRp2811
(dp2812
g62
(dp2813
g82
g83
ssg71
g2807
sg64
(lp2814
S'environ'
p2815
asbag57
(g78
g59
NtRp2816
(dp2817
g62
(dp2818
g89
g90
ssg71
g2807
sg64
(lp2819
S':'
asbag57
(g78
g59
NtRp2820
(dp2821
g62
(dp2822
sg71
g2807
sg64
(lp2823
g57
(g58
g59
NtRp2824
(dp2825
g62
(dp2826
g70
I4
ssg71
g2820
sg64
(lp2827
g57
(g66
g59
NtRp2828
(dp2829
g62
(dp2830
g70
I3
ssg71
Nsg64
(lp2831
g57
(g73
g59
NtRp2832
(dp2833
g62
(dp2834
sg71
g2828
sg64
(lp2835
g57
(g78
g59
NtRp2836
(dp2837
g62
(dp2838
g82
g83
ssg71
g2832
sg64
(lp2839
S'HTTP_ACCEPT'
p2840
asbag57
(g78
g59
NtRp2841
(dp2842
g62
(dp2843
g89
g90
ssg71
g2832
sg64
(lp2844
S':'
asbag57
(g78
g59
NtRp2845
(dp2846
g62
(dp2847
sg71
g2832
sg64
(lp2848
g57
(g58
g59
NtRp2849
(dp2850
g62
(dp2851
g70
I3
ssg71
g2845
sg64
(lp2852
g1276
asbasbasbag57
(g73
g59
NtRp2853
(dp2854
g62
(dp2855
sg71
g2828
sg64
(lp2856
g57
(g78
g59
NtRp2857
(dp2858
g62
(dp2859
g82
g83
ssg71
g2853
sg64
(lp2860
S'HTTP_ACCEPT_ENCODING'
p2861
asbag57
(g78
g59
NtRp2862
(dp2863
g62
(dp2864
g89
g90
ssg71
g2853
sg64
(lp2865
S':'
asbag57
(g78
g59
NtRp2866
(dp2867
g62
(dp2868
sg71
g2853
sg64
(lp2869
g57
(g58
g59
NtRp2870
(dp2871
g62
(dp2872
g70
I3
ssg71
g2866
sg64
(lp2873
g1298
asbasbasbag57
(g73
g59
NtRp2874
(dp2875
g62
(dp2876
sg71
g2828
sg64
(lp2877
g57
(g78
g59
NtRp2878
(dp2879
g62
(dp2880
g82
g83
ssg71
g2874
sg64
(lp2881
S'HTTP_ACCEPT_LANGUAGE'
p2882
asbag57
(g78
g59
NtRp2883
(dp2884
g62
(dp2885
g89
g90
ssg71
g2874
sg64
(lp2886
S':'
asbag57
(g78
g59
NtRp2887
(dp2888
g62
(dp2889
sg71
g2874
sg64
(lp2890
g57
(g58
g59
NtRp2891
(dp2892
g62
(dp2893
g70
I3
ssg71
g2887
sg64
(lp2894
g1320
asbasbasbag57
(g73
g59
NtRp2895
(dp2896
g62
(dp2897
sg71
g2828
sg64
(lp2898
g57
(g78
g59
NtRp2899
(dp2900
g62
(dp2901
g82
g83
ssg71
g2895
sg64
(lp2902
S'HTTP_CONNECTION'
p2903
asbag57
(g78
g59
NtRp2904
(dp2905
g62
(dp2906
g89
g90
ssg71
g2895
sg64
(lp2907
S':'
asbag57
(g78
g59
NtRp2908
(dp2909
g62
(dp2910
sg71
g2895
sg64
(lp2911
g57
(g58
g59
NtRp2912
(dp2913
g62
(dp2914
g70
I3
ssg71
g2908
sg64
(lp2915
g1342
asbasbasbag57
(g73
g59
NtRp2916
(dp2917
g62
(dp2918
sg71
g2828
sg64
(lp2919
g57
(g78
g59
NtRp2920
(dp2921
g62
(dp2922
g82
g83
ssg71
g2916
sg64
(lp2923
S'HTTP_COOKIE'
p2924
asbag57
(g78
g59
NtRp2925
(dp2926
g62
(dp2927
g89
g90
ssg71
g2916
sg64
(lp2928
S':'
asbag57
(g78
g59
NtRp2929
(dp2930
g62
(dp2931
sg71
g2916
sg64
(lp2932
g57
(g58
g59
NtRp2933
(dp2934
g62
(dp2935
g70
I3
ssg71
g2929
sg64
(lp2936
g1364
asbasbasbag57
(g73
g59
NtRp2937
(dp2938
g62
(dp2939
sg71
g2828
sg64
(lp2940
g57
(g78
g59
NtRp2941
(dp2942
g62
(dp2943
g82
g83
ssg71
g2937
sg64
(lp2944
S'HTTP_HOST'
p2945
asbag57
(g78
g59
NtRp2946
(dp2947
g62
(dp2948
g89
g90
ssg71
g2937
sg64
(lp2949
S':'
asbag57
(g78
g59
NtRp2950
(dp2951
g62
(dp2952
sg71
g2937
sg64
(lp2953
g57
(g58
g59
NtRp2954
(dp2955
g62
(dp2956
g70
I3
ssg71
g2950
sg64
(lp2957
g1386
asbasbasbag57
(g73
g59
NtRp2958
(dp2959
g62
(dp2960
sg71
g2828
sg64
(lp2961
g57
(g78
g59
NtRp2962
(dp2963
g62
(dp2964
g82
g83
ssg71
g2958
sg64
(lp2965
S'HTTP_REFERER'
p2966
asbag57
(g78
g59
NtRp2967
(dp2968
g62
(dp2969
g89
g90
ssg71
g2958
sg64
(lp2970
S':'
asbag57
(g78
g59
NtRp2971
(dp2972
g62
(dp2973
sg71
g2958
sg64
(lp2974
g57
(g58
g59
NtRp2975
(dp2976
g62
(dp2977
g70
I3
ssg71
g2971
sg64
(lp2978
g1408
asbasbasbag57
(g73
g59
NtRp2979
(dp2980
g62
(dp2981
sg71
g2828
sg64
(lp2982
g57
(g78
g59
NtRp2983
(dp2984
g62
(dp2985
g82
g83
ssg71
g2979
sg64
(lp2986
S'HTTP_USER_AGENT'
p2987
asbag57
(g78
g59
NtRp2988
(dp2989
g62
(dp2990
g89
g90
ssg71
g2979
sg64
(lp2991
S':'
asbag57
(g78
g59
NtRp2992
(dp2993
g62
(dp2994
sg71
g2979
sg64
(lp2995
g57
(g58
g59
NtRp2996
(dp2997
g62
(dp2998
g70
I3
ssg71
g2992
sg64
(lp2999
g1430
asbasbasbag57
(g73
g59
NtRp3000
(dp3001
g62
(dp3002
sg71
g2828
sg64
(lp3003
g57
(g78
g59
NtRp3004
(dp3005
g62
(dp3006
g82
g83
ssg71
g3000
sg64
(lp3007
S'HTTP_WEB2PY_COMPONENT_ELEMENT'
p3008
asbag57
(g78
g59
NtRp3009
(dp3010
g62
(dp3011
g89
g90
ssg71
g3000
sg64
(lp3012
S':'
asbag57
(g78
g59
NtRp3013
(dp3014
g62
(dp3015
sg71
g3000
sg64
(lp3016
g57
(g58
g59
NtRp3017
(dp3018
g62
(dp3019
g70
I3
ssg71
g3013
sg64
(lp3020
g255
asbasbasbag57
(g73
g59
NtRp3021
(dp3022
g62
(dp3023
sg71
g2828
sg64
(lp3024
g57
(g78
g59
NtRp3025
(dp3026
g62
(dp3027
g82
g83
ssg71
g3021
sg64
(lp3028
S'HTTP_WEB2PY_COMPONENT_LOCATION'
p3029
asbag57
(g78
g59
NtRp3030
(dp3031
g62
(dp3032
g89
g90
ssg71
g3021
sg64
(lp3033
S':'
asbag57
(g78
g59
NtRp3034
(dp3035
g62
(dp3036
sg71
g3021
sg64
(lp3037
g57
(g58
g59
NtRp3038
(dp3039
g62
(dp3040
g70
I3
ssg71
g3034
sg64
(lp3041
g1473
asbasbasbag57
(g73
g59
NtRp3042
(dp3043
g62
(dp3044
sg71
g2828
sg64
(lp3045
g57
(g78
g59
NtRp3046
(dp3047
g62
(dp3048
g82
g83
ssg71
g3042
sg64
(lp3049
S'HTTP_X_REQUESTED_WITH'
p3050
asbag57
(g78
g59
NtRp3051
(dp3052
g62
(dp3053
g89
g90
ssg71
g3042
sg64
(lp3054
S':'
asbag57
(g78
g59
NtRp3055
(dp3056
g62
(dp3057
sg71
g3042
sg64
(lp3058
g57
(g58
g59
NtRp3059
(dp3060
g62
(dp3061
g70
I3
ssg71
g3055
sg64
(lp3062
g1495
asbasbasbag57
(g73
g59
NtRp3063
(dp3064
g62
(dp3065
sg71
g2828
sg64
(lp3066
g57
(g78
g59
NtRp3067
(dp3068
g62
(dp3069
g82
g83
ssg71
g3063
sg64
(lp3070
S'PATH_INFO'
p3071
asbag57
(g78
g59
NtRp3072
(dp3073
g62
(dp3074
g89
g90
ssg71
g3063
sg64
(lp3075
S':'
asbag57
(g78
g59
NtRp3076
(dp3077
g62
(dp3078
sg71
g3063
sg64
(lp3079
g57
(g58
g59
NtRp3080
(dp3081
g62
(dp3082
g70
I3
ssg71
g3076
sg64
(lp3083
g1559
asbasbasbag57
(g73
g59
NtRp3084
(dp3085
g62
(dp3086
sg71
g2828
sg64
(lp3087
g57
(g78
g59
NtRp3088
(dp3089
g62
(dp3090
g82
g83
ssg71
g3084
sg64
(lp3091
S'QUERY_STRING'
p3092
asbag57
(g78
g59
NtRp3093
(dp3094
g62
(dp3095
g89
g90
ssg71
g3084
sg64
(lp3096
S':'
asbag57
(g78
g59
NtRp3097
(dp3098
g62
(dp3099
sg71
g3084
sg64
(lp3100
g57
(g58
g59
NtRp3101
(dp3102
g62
(dp3103
g70
I3
ssg71
g3097
sg64
(lp3104
g1581
asbasbasbag57
(g73
g59
NtRp3105
(dp3106
g62
(dp3107
sg71
g2828
sg64
(lp3108
g57
(g78
g59
NtRp3109
(dp3110
g62
(dp3111
g82
g83
ssg71
g3105
sg64
(lp3112
S'REMOTE_ADDR'
p3113
asbag57
(g78
g59
NtRp3114
(dp3115
g62
(dp3116
g89
g90
ssg71
g3105
sg64
(lp3117
S':'
asbag57
(g78
g59
NtRp3118
(dp3119
g62
(dp3120
sg71
g3105
sg64
(lp3121
g57
(g58
g59
NtRp3122
(dp3123
g62
(dp3124
g70
I3
ssg71
g3118
sg64
(lp3125
g277
asbasbasbag57
(g73
g59
NtRp3126
(dp3127
g62
(dp3128
sg71
g2828
sg64
(lp3129
g57
(g78
g59
NtRp3130
(dp3131
g62
(dp3132
g82
g83
ssg71
g3126
sg64
(lp3133
S'REMOTE_PORT'
p3134
asbag57
(g78
g59
NtRp3135
(dp3136
g62
(dp3137
g89
g90
ssg71
g3126
sg64
(lp3138
S':'
asbag57
(g78
g59
NtRp3139
(dp3140
g62
(dp3141
sg71
g3126
sg64
(lp3142
g57
(g58
g59
NtRp3143
(dp3144
g62
(dp3145
g70
I3
ssg71
g3139
sg64
(lp3146
g1624
asbasbasbag57
(g73
g59
NtRp3147
(dp3148
g62
(dp3149
sg71
g2828
sg64
(lp3150
g57
(g78
g59
NtRp3151
(dp3152
g62
(dp3153
g82
g83
ssg71
g3147
sg64
(lp3154
S'REQUEST_METHOD'
p3155
asbag57
(g78
g59
NtRp3156
(dp3157
g62
(dp3158
g89
g90
ssg71
g3147
sg64
(lp3159
S':'
asbag57
(g78
g59
NtRp3160
(dp3161
g62
(dp3162
sg71
g3147
sg64
(lp3163
g57
(g58
g59
NtRp3164
(dp3165
g62
(dp3166
g70
I3
ssg71
g3160
sg64
(lp3167
g1646
asbasbasbag57
(g73
g59
NtRp3168
(dp3169
g62
(dp3170
sg71
g2828
sg64
(lp3171
g57
(g78
g59
NtRp3172
(dp3173
g62
(dp3174
g82
g83
ssg71
g3168
sg64
(lp3175
S'SCRIPT_NAME'
p3176
asbag57
(g78
g59
NtRp3177
(dp3178
g62
(dp3179
g89
g90
ssg71
g3168
sg64
(lp3180
S':'
asbag57
(g78
g59
NtRp3181
(dp3182
g62
(dp3183
sg71
g3168
sg64
(lp3184
g57
(g58
g59
NtRp3185
(dp3186
g62
(dp3187
g70
I3
ssg71
g3181
sg64
(lp3188
S''
asbasbasbag57
(g73
g59
NtRp3189
(dp3190
g62
(dp3191
sg71
g2828
sg64
(lp3192
g57
(g78
g59
NtRp3193
(dp3194
g62
(dp3195
g82
g83
ssg71
g3189
sg64
(lp3196
S'SERVER_NAME'
p3197
asbag57
(g78
g59
NtRp3198
(dp3199
g62
(dp3200
g89
g90
ssg71
g3189
sg64
(lp3201
S':'
asbag57
(g78
g59
NtRp3202
(dp3203
g62
(dp3204
sg71
g3189
sg64
(lp3205
g57
(g58
g59
NtRp3206
(dp3207
g62
(dp3208
g70
I3
ssg71
g3202
sg64
(lp3209
g1689
asbasbasbag57
(g73
g59
NtRp3210
(dp3211
g62
(dp3212
sg71
g2828
sg64
(lp3213
g57
(g78
g59
NtRp3214
(dp3215
g62
(dp3216
g82
g83
ssg71
g3210
sg64
(lp3217
S'SERVER_PORT'
p3218
asbag57
(g78
g59
NtRp3219
(dp3220
g62
(dp3221
g89
g90
ssg71
g3210
sg64
(lp3222
S':'
asbag57
(g78
g59
NtRp3223
(dp3224
g62
(dp3225
sg71
g3210
sg64
(lp3226
g57
(g58
g59
NtRp3227
(dp3228
g62
(dp3229
g70
I3
ssg71
g3223
sg64
(lp3230
g1711
asbasbasbag57
(g73
g59
NtRp3231
(dp3232
g62
(dp3233
sg71
g2828
sg64
(lp3234
g57
(g78
g59
NtRp3235
(dp3236
g62
(dp3237
g82
g83
ssg71
g3231
sg64
(lp3238
S'SERVER_PROTOCOL'
p3239
asbag57
(g78
g59
NtRp3240
(dp3241
g62
(dp3242
g89
g90
ssg71
g3231
sg64
(lp3243
S':'
asbag57
(g78
g59
NtRp3244
(dp3245
g62
(dp3246
sg71
g3231
sg64
(lp3247
g57
(g58
g59
NtRp3248
(dp3249
g62
(dp3250
g70
I3
ssg71
g3244
sg64
(lp3251
g1733
asbasbasbag57
(g73
g59
NtRp3252
(dp3253
g62
(dp3254
sg71
g2828
sg64
(lp3255
g57
(g78
g59
NtRp3256
(dp3257
g62
(dp3258
g82
g83
ssg71
g3252
sg64
(lp3259
S'SERVER_SOFTWARE'
p3260
asbag57
(g78
g59
NtRp3261
(dp3262
g62
(dp3263
g89
g90
ssg71
g3252
sg64
(lp3264
S':'
asbag57
(g78
g59
NtRp3265
(dp3266
g62
(dp3267
sg71
g3252
sg64
(lp3268
g57
(g58
g59
NtRp3269
(dp3270
g62
(dp3271
g70
I3
ssg71
g3265
sg64
(lp3272
g1755
asbasbasbag57
(g73
g59
NtRp3273
(dp3274
g62
(dp3275
sg71
g2828
sg64
(lp3276
g57
(g78
g59
NtRp3277
(dp3278
g62
(dp3279
g82
g83
ssg71
g3273
sg64
(lp3280
S'wsgi.errors'
p3281
asbag57
(g78
g59
NtRp3282
(dp3283
g62
(dp3284
g89
g90
ssg71
g3273
sg64
(lp3285
S':'
asbag57
(g78
g59
NtRp3286
(dp3287
g62
(dp3288
sg71
g3273
sg64
(lp3289
g57
(g58
g59
NtRp3290
(dp3291
g62
(dp3292
g70
I3
ssg71
g3286
sg64
(lp3293
S"<open file '<stderr>', mode 'w' at 0x7f733e063270>"
p3294
asbasbasbag57
(g73
g59
NtRp3295
(dp3296
g62
(dp3297
sg71
g2828
sg64
(lp3298
g57
(g78
g59
NtRp3299
(dp3300
g62
(dp3301
g82
g83
ssg71
g3295
sg64
(lp3302
S'wsgi.file_wrapper'
p3303
asbag57
(g78
g59
NtRp3304
(dp3305
g62
(dp3306
g89
g90
ssg71
g3295
sg64
(lp3307
S':'
asbag57
(g78
g59
NtRp3308
(dp3309
g62
(dp3310
sg71
g3295
sg64
(lp3311
g57
(g58
g59
NtRp3312
(dp3313
g62
(dp3314
g70
I3
ssg71
g3308
sg64
(lp3315
S'<class wsgiref.util.FileWrapper at 0x21b5c18>'
p3316
asbasbasbag57
(g73
g59
NtRp3317
(dp3318
g62
(dp3319
sg71
g2828
sg64
(lp3320
g57
(g78
g59
NtRp3321
(dp3322
g62
(dp3323
g82
g83
ssg71
g3317
sg64
(lp3324
S'wsgi.input'
p3325
asbag57
(g78
g59
NtRp3326
(dp3327
g62
(dp3328
g89
g90
ssg71
g3317
sg64
(lp3329
S':'
asbag57
(g78
g59
NtRp3330
(dp3331
g62
(dp3332
sg71
g3317
sg64
(lp3333
g57
(g58
g59
NtRp3334
(dp3335
g62
(dp3336
g70
I3
ssg71
g3330
sg64
(lp3337
S'<cStringIO.StringO object at 0x363b998>'
p3338
asbasbasbag57
(g73
g59
NtRp3339
(dp3340
g62
(dp3341
sg71
g2828
sg64
(lp3342
g57
(g78
g59
NtRp3343
(dp3344
g62
(dp3345
g82
g83
ssg71
g3339
sg64
(lp3346
S'wsgi.multiprocess'
p3347
asbag57
(g78
g59
NtRp3348
(dp3349
g62
(dp3350
g89
g90
ssg71
g3339
sg64
(lp3351
S':'
asbag57
(g78
g59
NtRp3352
(dp3353
g62
(dp3354
sg71
g3339
sg64
(lp3355
g57
(g58
g59
NtRp3356
(dp3357
g62
(dp3358
g70
I3
ssg71
g3352
sg64
(lp3359
g1232
asbasbasbag57
(g73
g59
NtRp3360
(dp3361
g62
(dp3362
sg71
g2828
sg64
(lp3363
g57
(g78
g59
NtRp3364
(dp3365
g62
(dp3366
g82
g83
ssg71
g3360
sg64
(lp3367
S'wsgi.multithread'
p3368
asbag57
(g78
g59
NtRp3369
(dp3370
g62
(dp3371
g89
g90
ssg71
g3360
sg64
(lp3372
S':'
asbag57
(g78
g59
NtRp3373
(dp3374
g62
(dp3375
sg71
g3360
sg64
(lp3376
g57
(g58
g59
NtRp3377
(dp3378
g62
(dp3379
g70
I3
ssg71
g3373
sg64
(lp3380
g100
asbasbasbag57
(g73
g59
NtRp3381
(dp3382
g62
(dp3383
sg71
g2828
sg64
(lp3384
g57
(g78
g59
NtRp3385
(dp3386
g62
(dp3387
g82
g83
ssg71
g3381
sg64
(lp3388
S'wsgi.run_once'
p3389
asbag57
(g78
g59
NtRp3390
(dp3391
g62
(dp3392
g89
g90
ssg71
g3381
sg64
(lp3393
S':'
asbag57
(g78
g59
NtRp3394
(dp3395
g62
(dp3396
sg71
g3381
sg64
(lp3397
g57
(g58
g59
NtRp3398
(dp3399
g62
(dp3400
g70
I3
ssg71
g3394
sg64
(lp3401
g1232
asbasbasbag57
(g73
g59
NtRp3402
(dp3403
g62
(dp3404
sg71
g2828
sg64
(lp3405
g57
(g78
g59
NtRp3406
(dp3407
g62
(dp3408
g82
g83
ssg71
g3402
sg64
(lp3409
S'wsgi.url_scheme'
p3410
asbag57
(g78
g59
NtRp3411
(dp3412
g62
(dp3413
g89
g90
ssg71
g3402
sg64
(lp3414
S':'
asbag57
(g78
g59
NtRp3415
(dp3416
g62
(dp3417
sg71
g3402
sg64
(lp3418
g57
(g58
g59
NtRp3419
(dp3420
g62
(dp3421
g70
I3
ssg71
g3415
sg64
(lp3422
g2037
asbasbasbag57
(g73
g59
NtRp3423
(dp3424
g62
(dp3425
sg71
g2828
sg64
(lp3426
g57
(g78
g59
NtRp3427
(dp3428
g62
(dp3429
g82
g83
ssg71
g3423
sg64
(lp3430
S'wsgi.version'
p3431
asbag57
(g78
g59
NtRp3432
(dp3433
g62
(dp3434
g89
g90
ssg71
g3423
sg64
(lp3435
S':'
asbag57
(g78
g59
NtRp3436
(dp3437
g62
(dp3438
sg71
g3423
sg64
(lp3439
g57
(g58
g59
NtRp3440
(dp3441
g62
(dp3442
g70
I3
ssg71
g3436
sg64
(lp3443
S'1'
asbasbasbasbasbasbasbasbasbasbasbasbasbsS'frames'
p3444
(lp3445
(dp3446
S'file'
p3447
S'/home/ian/web2py/gluon/restricted.py'
p3448
sS'dump'
p3449
(dp3450
S'environment'
p3451
S"{'A': <class 'gluon.html.A'>, 'AjaxSelect': <class applications.paideia.modules.plugin_ajaxselect.AjaxSelect>, 'Auth': <class 'gluon.tools.Auth'>, 'B': <class 'gluon.html.B'>, 'BEAUTIFY': <class 'gluon.html.BEAUTIFY'>, 'BODY': <class 'gluon.html.BODY'>, 'BR': <class 'gluon.html.BR'>, 'BUTTON': <class 'gluon.html.BUTTON'>, 'CAT': <class 'gluon.html.CAT'>, 'CENTER': <class 'gluon.html.CENTER'>, ...}"
p3452
sS'ccode'
p3453
S'<code object <module> at 0x374beb0, file "/home/...aideia/controllers/plugin_ajaxselect.py", line 1>'
p3454
ssS'lnum'
p3455
I204
sS'lines'
p3456
(dp3457
I199
S'    try:'
p3458
sI200
S'        if type(code) == types.CodeType:'
p3459
sI201
S'            ccode = code'
p3460
sI202
S'        else:'
p3461
sI203
S'            ccode = compile2(code,layer)'
p3462
sI204
S'        exec ccode in environment'
p3463
sI205
S'    except HTTP:'
p3464
sI206
S'        raise'
p3465
sI207
S'    except RestrictedError:'
p3466
sI208
S'        # do not encapsulate (obfuscate) the original RestrictedError'
p3467
ssS'call'
p3468
S"(code='if 0:\\n    from gluon import current, SELECT, OPT...rm)\\n\\nresponse._vars=response._caller(set_widget)\\n', environment={'A': <class 'gluon.html.A'>, 'AjaxSelect': <class applications.paideia.modules.plugin_ajaxselect.AjaxSelect>, 'Auth': <class 'gluon.tools.Auth'>, 'B': <class 'gluon.html.B'>, 'BEAUTIFY': <class 'gluon.html.BEAUTIFY'>, 'BODY': <class 'gluon.html.BODY'>, 'BR': <class 'gluon.html.BR'>, 'BUTTON': <class 'gluon.html.BUTTON'>, 'CAT': <class 'gluon.html.CAT'>, 'CENTER': <class 'gluon.html.CENTER'>, ...}, layer='/home/ian/web2py/applications/paideia/controllers/plugin_ajaxselect.py')"
p3469
sS'func'
p3470
S'restricted'
p3471
sa(dp3472
g3447
S'/home/ian/web2py/applications/paideia/controllers/plugin_ajaxselect.py'
p3473
sg3449
(dp3474
sg3455
I109
sg3456
(dp3475
I98
S"    comp_url = URL('plugin_ajaxselect', 'set_widget.load',"
p3476
sI99
S'                   args = [tablename, fieldname, value, linktable, wrappername], vars = uvars)'
p3477
sI100
S''
sI101
S'    if form.process().accepted:'
p3478
sI102
S"        response.flash = 'form accepted'"
p3479
sI103
S'        response.js = "web2py_component(\'%s\', \'%s\');" % (comp_url, wrappername)'
p3480
sI104
S'    else:'
p3481
sI105
S"        response.error = 'form was not processed'"
p3482
sI106
S''
sI107
S'    return dict(form = form)'
p3483
ssg3468
S'()'
p3484
sg3470
S'<module>'
p3485
sa(dp3486
g3447
S'/home/ian/web2py/gluon/globals.py'
p3487
sg3449
(dp3488
S'self'
p3489
S'undefined'
p3490
sS'f'
S'<function set_widget>'
p3491
ssg3455
I172
sg3456
(dp3492
I167
S'        self.meta = Storage()      # used by web2py_ajax.html'
p3493
sI168
S'        self.menu = []             # used by the default view layout'
p3494
sI169
S'        self.files = []            # used by web2py_ajax.html'
p3495
sI170
S'        self.generic_patterns = [] # patterns to allow generic views'
p3496
sI171
S'        self._vars = None'
p3497
sI172
S'        self._caller = lambda f: f()'
p3498
sI173
S'        self._view_environment = None'
p3499
sI174
S'        self._custom_commit = None'
p3500
sI175
S'        self._custom_rollback = None'
p3501
sI176
S''
ssg3468
S'(f=<function set_widget>)'
p3502
sg3470
S'<lambda>'
p3503
sa(dp3504
g3447
S'/home/ian/web2py/applications/paideia/controllers/plugin_ajaxselect.py'
p3505
sg3449
(dp3506
S'valstring.split'
p3507
g3490
sS'value'
p3508
g3490
sS'valstring'
p3509
S'None'
p3510
ssg3455
I22
sg3456
(dp3511
I17
S'    linktable = request.args[2]'
p3512
sI18
S'    #args[3] is the wrappername, but is not used in this function'
p3513
sI19
S''
sI20
S"    valstring = request.vars['fieldval']"
p3514
sI21
S'    #restore value to list since it was converted to string for url'
p3515
sI22
S"    value = valstring.split('-')"
p3516
sI23
S''
sI24
S"    #use multiple select widget if 'multi' variable is set"
p3517
sI25
S"    if 'multi' in request.vars:"
p3518
sI26
S"        if request.vars['multi'] == 'basic':"
p3519
ssg3468
S'()'
p3520
sg3470
S'set_widget'
p3521
sasS'pyver'
p3522
S'Python 2.7.2+: /usr/bin/python2.7'
p3523
sS'session'
p3524
g57
(g58
g59
NtRp3525
(dp3526
g62
(dp3527
sg64
(lp3528
g57
(g66
g59
NtRp3529
(dp3530
g62
(dp3531
g70
I5
ssg71
Nsg64
(lp3532
g57
(g73
g59
NtRp3533
(dp3534
g62
(dp3535
sg71
g3529
sg64
(lp3536
g57
(g78
g59
NtRp3537
(dp3538
g62
(dp3539
g82
g83
ssg71
g3533
sg64
(lp3540
S'answer'
p3541
asbag57
(g78
g59
NtRp3542
(dp3543
g62
(dp3544
g89
g90
ssg71
g3533
sg64
(lp3545
S':'
asbag57
(g78
g59
NtRp3546
(dp3547
g62
(dp3548
sg71
g3533
sg64
(lp3549
g57
(g58
g59
NtRp3550
(dp3551
g62
(dp3552
g70
I5
ssg71
g3546
sg64
(lp3553
S'^((like this)|((in )?this (way|manner))|thus)(.)?$'
p3554
asbasbasbag57
(g73
g59
NtRp3555
(dp3556
g62
(dp3557
sg71
g3529
sg64
(lp3558
g57
(g78
g59
NtRp3559
(dp3560
g62
(dp3561
g82
g83
ssg71
g3555
sg64
(lp3562
S'answer2'
p3563
asbag57
(g78
g59
NtRp3564
(dp3565
g62
(dp3566
g89
g90
ssg71
g3555
sg64
(lp3567
S':'
asbag57
(g78
g59
NtRp3568
(dp3569
g62
(dp3570
sg71
g3555
sg64
(lp3571
g57
(g58
g59
NtRp3572
(dp3573
g62
(dp3574
g70
I5
ssg71
g3568
sg64
(lp3575
S'this|way|manner|like|as'
p3576
asbasbasbag57
(g73
g59
NtRp3577
(dp3578
g62
(dp3579
sg71
g3529
sg64
(lp3580
g57
(g78
g59
NtRp3581
(dp3582
g62
(dp3583
g82
g83
ssg71
g3577
sg64
(lp3584
S'answer3'
p3585
asbag57
(g78
g59
NtRp3586
(dp3587
g62
(dp3588
g89
g90
ssg71
g3577
sg64
(lp3589
S':'
asbag57
(g78
g59
NtRp3590
(dp3591
g62
(dp3592
sg71
g3577
sg64
(lp3593
g57
(g58
g59
NtRp3594
(dp3595
g62
(dp3596
g70
I5
ssg71
g3590
sg64
(lp3597
S'null'
p3598
asbasbasbag57
(g73
g59
NtRp3599
(dp3600
g62
(dp3601
sg71
g3529
sg64
(lp3602
g57
(g78
g59
NtRp3603
(dp3604
g62
(dp3605
g82
g83
ssg71
g3599
sg64
(lp3606
S'auth'
p3607
asbag57
(g78
g59
NtRp3608
(dp3609
g62
(dp3610
g89
g90
ssg71
g3599
sg64
(lp3611
S':'
asbag57
(g78
g59
NtRp3612
(dp3613
g62
(dp3614
sg71
g3599
sg64
(lp3615
g57
(g58
g59
NtRp3616
(dp3617
g62
(dp3618
g70
I5
ssg71
g3612
sg64
(lp3619
g57
(g66
g59
NtRp3620
(dp3621
g62
(dp3622
g70
I4
ssg71
Nsg64
(lp3623
g57
(g73
g59
NtRp3624
(dp3625
g62
(dp3626
sg71
g3620
sg64
(lp3627
g57
(g78
g59
NtRp3628
(dp3629
g62
(dp3630
g82
g83
ssg71
g3624
sg64
(lp3631
S'expiration'
p3632
asbag57
(g78
g59
NtRp3633
(dp3634
g62
(dp3635
g89
g90
ssg71
g3624
sg64
(lp3636
S':'
asbag57
(g78
g59
NtRp3637
(dp3638
g62
(dp3639
sg71
g3624
sg64
(lp3640
g57
(g58
g59
NtRp3641
(dp3642
g62
(dp3643
g70
I4
ssg71
g3637
sg64
(lp3644
S'2592000'
p3645
asbasbasbag57
(g73
g59
NtRp3646
(dp3647
g62
(dp3648
sg71
g3620
sg64
(lp3649
g57
(g78
g59
NtRp3650
(dp3651
g62
(dp3652
g82
g83
ssg71
g3646
sg64
(lp3653
S'hmac_key'
p3654
asbag57
(g78
g59
NtRp3655
(dp3656
g62
(dp3657
g89
g90
ssg71
g3646
sg64
(lp3658
S':'
asbag57
(g78
g59
NtRp3659
(dp3660
g62
(dp3661
sg71
g3646
sg64
(lp3662
g57
(g58
g59
NtRp3663
(dp3664
g62
(dp3665
g70
I4
ssg71
g3659
sg64
(lp3666
S'9c41d896-b657-4970-92b7-bdd577059778'
p3667
asbasbasbag57
(g73
g59
NtRp3668
(dp3669
g62
(dp3670
sg71
g3620
sg64
(lp3671
g57
(g78
g59
NtRp3672
(dp3673
g62
(dp3674
g82
g83
ssg71
g3668
sg64
(lp3675
S'last_visit'
p3676
asbag57
(g78
g59
NtRp3677
(dp3678
g62
(dp3679
g89
g90
ssg71
g3668
sg64
(lp3680
S':'
asbag57
(g78
g59
NtRp3681
(dp3682
g62
(dp3683
sg71
g3668
sg64
(lp3684
g57
(g58
g59
NtRp3685
(dp3686
g62
(dp3687
g70
I4
ssg71
g3681
sg64
(lp3688
S'datetime.datetime(2012, 1, 20, 13, 36, 28, 206752)'
p3689
asbasbasbag57
(g73
g59
NtRp3690
(dp3691
g62
(dp3692
sg71
g3620
sg64
(lp3693
g57
(g78
g59
NtRp3694
(dp3695
g62
(dp3696
g82
g83
ssg71
g3690
sg64
(lp3697
S'remember'
p3698
asbag57
(g78
g59
NtRp3699
(dp3700
g62
(dp3701
g89
g90
ssg71
g3690
sg64
(lp3702
S':'
asbag57
(g78
g59
NtRp3703
(dp3704
g62
(dp3705
sg71
g3690
sg64
(lp3706
g57
(g58
g59
NtRp3707
(dp3708
g62
(dp3709
g70
I4
ssg71
g3703
sg64
(lp3710
g100
asbasbasbag57
(g73
g59
NtRp3711
(dp3712
g62
(dp3713
sg71
g3620
sg64
(lp3714
g57
(g78
g59
NtRp3715
(dp3716
g62
(dp3717
g82
g83
ssg71
g3711
sg64
(lp3718
S'user'
p3719
asbag57
(g78
g59
NtRp3720
(dp3721
g62
(dp3722
g89
g90
ssg71
g3711
sg64
(lp3723
S':'
asbag57
(g78
g59
NtRp3724
(dp3725
g62
(dp3726
sg71
g3711
sg64
(lp3727
g57
(g58
g59
NtRp3728
(dp3729
g62
(dp3730
g70
I4
ssg71
g3724
sg64
(lp3731
g57
(g66
g59
NtRp3732
(dp3733
g62
(dp3734
g70
I3
ssg71
Nsg64
(lp3735
g57
(g73
g59
NtRp3736
(dp3737
g62
(dp3738
sg71
g3732
sg64
(lp3739
g57
(g78
g59
NtRp3740
(dp3741
g62
(dp3742
g82
g83
ssg71
g3736
sg64
(lp3743
S'email'
p3744
asbag57
(g78
g59
NtRp3745
(dp3746
g62
(dp3747
g89
g90
ssg71
g3736
sg64
(lp3748
S':'
asbag57
(g78
g59
NtRp3749
(dp3750
g62
(dp3751
sg71
g3736
sg64
(lp3752
g57
(g58
g59
NtRp3753
(dp3754
g62
(dp3755
g70
I3
ssg71
g3749
sg64
(lp3756
S'scottianw@gmail.com'
p3757
asbasbasbag57
(g73
g59
NtRp3758
(dp3759
g62
(dp3760
sg71
g3732
sg64
(lp3761
g57
(g78
g59
NtRp3762
(dp3763
g62
(dp3764
g82
g83
ssg71
g3758
sg64
(lp3765
S'first_name'
p3766
asbag57
(g78
g59
NtRp3767
(dp3768
g62
(dp3769
g89
g90
ssg71
g3758
sg64
(lp3770
S':'
asbag57
(g78
g59
NtRp3771
(dp3772
g62
(dp3773
sg71
g3758
sg64
(lp3774
g57
(g58
g59
NtRp3775
(dp3776
g62
(dp3777
g70
I3
ssg71
g3771
sg64
(lp3778
S'Ian'
p3779
asbasbasbag57
(g73
g59
NtRp3780
(dp3781
g62
(dp3782
sg71
g3732
sg64
(lp3783
g57
(g78
g59
NtRp3784
(dp3785
g62
(dp3786
g82
g83
ssg71
g3780
sg64
(lp3787
S'id'
p3788
asbag57
(g78
g59
NtRp3789
(dp3790
g62
(dp3791
g89
g90
ssg71
g3780
sg64
(lp3792
S':'
asbag57
(g78
g59
NtRp3793
(dp3794
g62
(dp3795
sg71
g3780
sg64
(lp3796
g57
(g58
g59
NtRp3797
(dp3798
g62
(dp3799
g70
I3
ssg71
g3793
sg64
(lp3800
S'2'
asbasbasbag57
(g73
g59
NtRp3801
(dp3802
g62
(dp3803
sg71
g3732
sg64
(lp3804
g57
(g78
g59
NtRp3805
(dp3806
g62
(dp3807
g82
g83
ssg71
g3801
sg64
(lp3808
S'last_name'
p3809
asbag57
(g78
g59
NtRp3810
(dp3811
g62
(dp3812
g89
g90
ssg71
g3801
sg64
(lp3813
S':'
asbag57
(g78
g59
NtRp3814
(dp3815
g62
(dp3816
sg71
g3801
sg64
(lp3817
g57
(g58
g59
NtRp3818
(dp3819
g62
(dp3820
g70
I3
ssg71
g3814
sg64
(lp3821
S'Scott'
p3822
asbasbasbag57
(g73
g59
NtRp3823
(dp3824
g62
(dp3825
sg71
g3732
sg64
(lp3826
g57
(g78
g59
NtRp3827
(dp3828
g62
(dp3829
g82
g83
ssg71
g3823
sg64
(lp3830
S'password'
p3831
asbag57
(g78
g59
NtRp3832
(dp3833
g62
(dp3834
g89
g90
ssg71
g3823
sg64
(lp3835
S':'
asbag57
(g78
g59
NtRp3836
(dp3837
g62
(dp3838
sg71
g3823
sg64
(lp3839
g57
(g58
g59
NtRp3840
(dp3841
g62
(dp3842
g70
I3
ssg71
g3836
sg64
(lp3843
S'19738f1e9a2c8eaac81936a86bf608a1a6995e02f527fa31723cb88a2e513a1efae33471354a02805bf25ea2ea17a59c025a5fc8eca6b3bb2137bda74e538737'
p3844
asbasbasbag57
(g73
g59
NtRp3845
(dp3846
g62
(dp3847
sg71
g3732
sg64
(lp3848
g57
(g78
g59
NtRp3849
(dp3850
g62
(dp3851
g82
g83
ssg71
g3845
sg64
(lp3852
S'registration_id'
p3853
asbag57
(g78
g59
NtRp3854
(dp3855
g62
(dp3856
g89
g90
ssg71
g3845
sg64
(lp3857
S':'
asbag57
(g78
g59
NtRp3858
(dp3859
g62
(dp3860
sg71
g3845
sg64
(lp3861
g57
(g58
g59
NtRp3862
(dp3863
g62
(dp3864
g70
I3
ssg71
g3858
sg64
(lp3865
S'None'
p3866
asbasbasbag57
(g73
g59
NtRp3867
(dp3868
g62
(dp3869
sg71
g3732
sg64
(lp3870
g57
(g78
g59
NtRp3871
(dp3872
g62
(dp3873
g82
g83
ssg71
g3867
sg64
(lp3874
S'registration_key'
p3875
asbag57
(g78
g59
NtRp3876
(dp3877
g62
(dp3878
g89
g90
ssg71
g3867
sg64
(lp3879
S':'
asbag57
(g78
g59
NtRp3880
(dp3881
g62
(dp3882
sg71
g3867
sg64
(lp3883
g57
(g58
g59
NtRp3884
(dp3885
g62
(dp3886
g70
I3
ssg71
g3880
sg64
(lp3887
S''
asbasbasbag57
(g73
g59
NtRp3888
(dp3889
g62
(dp3890
sg71
g3732
sg64
(lp3891
g57
(g78
g59
NtRp3892
(dp3893
g62
(dp3894
g82
g83
ssg71
g3888
sg64
(lp3895
S'reset_password_key'
p3896
asbag57
(g78
g59
NtRp3897
(dp3898
g62
(dp3899
g89
g90
ssg71
g3888
sg64
(lp3900
S':'
asbag57
(g78
g59
NtRp3901
(dp3902
g62
(dp3903
sg71
g3888
sg64
(lp3904
g57
(g58
g59
NtRp3905
(dp3906
g62
(dp3907
g70
I3
ssg71
g3901
sg64
(lp3908
S'1327083713-2cc5b0bb-81c6-473e-adeb-2160a9624c63'
p3909
asbasbasbasbasbasbasbasbasbasbasbag57
(g73
g59
NtRp3910
(dp3911
g62
(dp3912
sg71
g3529
sg64
(lp3913
g57
(g78
g59
NtRp3914
(dp3915
g62
(dp3916
g82
g83
ssg71
g3910
sg64
(lp3917
S'debug'
p3918
asbag57
(g78
g59
NtRp3919
(dp3920
g62
(dp3921
g89
g90
ssg71
g3910
sg64
(lp3922
S':'
asbag57
(g78
g59
NtRp3923
(dp3924
g62
(dp3925
sg71
g3910
sg64
(lp3926
g57
(g58
g59
NtRp3927
(dp3928
g62
(dp3929
g70
I5
ssg71
g3923
sg64
(lp3930
g57
(g66
g59
NtRp3931
(dp3932
g62
(dp3933
g70
I4
ssg71
Nsg64
(lp3934
g57
(g73
g59
NtRp3935
(dp3936
g62
(dp3937
sg71
g3931
sg64
(lp3938
g57
(g78
g59
NtRp3939
(dp3940
g62
(dp3941
g82
g83
ssg71
g3935
sg64
(lp3942
S'2011-10-24'
p3943
asbag57
(g78
g59
NtRp3944
(dp3945
g62
(dp3946
g89
g90
ssg71
g3935
sg64
(lp3947
S':'
asbag57
(g78
g59
NtRp3948
(dp3949
g62
(dp3950
sg71
g3935
sg64
(lp3951
g57
(g58
g59
NtRp3952
(dp3953
g62
(dp3954
g70
I4
ssg71
g3948
sg64
(lp3955
S'8'
asbasbasbag57
(g73
g59
NtRp3956
(dp3957
g62
(dp3958
sg71
g3931
sg64
(lp3959
g57
(g78
g59
NtRp3960
(dp3961
g62
(dp3962
g82
g83
ssg71
g3956
sg64
(lp3963
S'2011-10-25'
p3964
asbag57
(g78
g59
NtRp3965
(dp3966
g62
(dp3967
g89
g90
ssg71
g3956
sg64
(lp3968
S':'
asbag57
(g78
g59
NtRp3969
(dp3970
g62
(dp3971
sg71
g3956
sg64
(lp3972
g57
(g58
g59
NtRp3973
(dp3974
g62
(dp3975
g70
I4
ssg71
g3969
sg64
(lp3976
S'2'
asbasbasbag57
(g73
g59
NtRp3977
(dp3978
g62
(dp3979
sg71
g3931
sg64
(lp3980
g57
(g78
g59
NtRp3981
(dp3982
g62
(dp3983
g82
g83
ssg71
g3977
sg64
(lp3984
S'2011-10-26'
p3985
asbag57
(g78
g59
NtRp3986
(dp3987
g62
(dp3988
g89
g90
ssg71
g3977
sg64
(lp3989
S':'
asbag57
(g78
g59
NtRp3990
(dp3991
g62
(dp3992
sg71
g3977
sg64
(lp3993
g57
(g58
g59
NtRp3994
(dp3995
g62
(dp3996
g70
I4
ssg71
g3990
sg64
(lp3997
S'11'
p3998
asbasbasbag57
(g73
g59
NtRp3999
(dp4000
g62
(dp4001
sg71
g3931
sg64
(lp4002
g57
(g78
g59
NtRp4003
(dp4004
g62
(dp4005
g82
g83
ssg71
g3999
sg64
(lp4006
S'2011-10-31'
p4007
asbag57
(g78
g59
NtRp4008
(dp4009
g62
(dp4010
g89
g90
ssg71
g3999
sg64
(lp4011
S':'
asbag57
(g78
g59
NtRp4012
(dp4013
g62
(dp4014
sg71
g3999
sg64
(lp4015
g57
(g58
g59
NtRp4016
(dp4017
g62
(dp4018
g70
I4
ssg71
g4012
sg64
(lp4019
S'29'
p4020
asbasbasbag57
(g73
g59
NtRp4021
(dp4022
g62
(dp4023
sg71
g3931
sg64
(lp4024
g57
(g78
g59
NtRp4025
(dp4026
g62
(dp4027
g82
g83
ssg71
g4021
sg64
(lp4028
S'2011-11-01'
p4029
asbag57
(g78
g59
NtRp4030
(dp4031
g62
(dp4032
g89
g90
ssg71
g4021
sg64
(lp4033
S':'
asbag57
(g78
g59
NtRp4034
(dp4035
g62
(dp4036
sg71
g4021
sg64
(lp4037
g57
(g58
g59
NtRp4038
(dp4039
g62
(dp4040
g70
I4
ssg71
g4034
sg64
(lp4041
S'11'
p4042
asbasbasbag57
(g73
g59
NtRp4043
(dp4044
g62
(dp4045
sg71
g3931
sg64
(lp4046
g57
(g78
g59
NtRp4047
(dp4048
g62
(dp4049
g82
g83
ssg71
g4043
sg64
(lp4050
S'2011-11-09'
p4051
asbag57
(g78
g59
NtRp4052
(dp4053
g62
(dp4054
g89
g90
ssg71
g4043
sg64
(lp4055
S':'
asbag57
(g78
g59
NtRp4056
(dp4057
g62
(dp4058
sg71
g4043
sg64
(lp4059
g57
(g58
g59
NtRp4060
(dp4061
g62
(dp4062
g70
I4
ssg71
g4056
sg64
(lp4063
S'2'
asbasbasbag57
(g73
g59
NtRp4064
(dp4065
g62
(dp4066
sg71
g3931
sg64
(lp4067
g57
(g78
g59
NtRp4068
(dp4069
g62
(dp4070
g82
g83
ssg71
g4064
sg64
(lp4071
S'2011-11-10'
p4072
asbag57
(g78
g59
NtRp4073
(dp4074
g62
(dp4075
g89
g90
ssg71
g4064
sg64
(lp4076
S':'
asbag57
(g78
g59
NtRp4077
(dp4078
g62
(dp4079
sg71
g4064
sg64
(lp4080
g57
(g58
g59
NtRp4081
(dp4082
g62
(dp4083
g70
I4
ssg71
g4077
sg64
(lp4084
S'14'
p4085
asbasbasbag57
(g73
g59
NtRp4086
(dp4087
g62
(dp4088
sg71
g3931
sg64
(lp4089
g57
(g78
g59
NtRp4090
(dp4091
g62
(dp4092
g82
g83
ssg71
g4086
sg64
(lp4093
S'2011-11-11'
p4094
asbag57
(g78
g59
NtRp4095
(dp4096
g62
(dp4097
g89
g90
ssg71
g4086
sg64
(lp4098
S':'
asbag57
(g78
g59
NtRp4099
(dp4100
g62
(dp4101
sg71
g4086
sg64
(lp4102
g57
(g58
g59
NtRp4103
(dp4104
g62
(dp4105
g70
I4
ssg71
g4099
sg64
(lp4106
S'56'
p4107
asbasbasbag57
(g73
g59
NtRp4108
(dp4109
g62
(dp4110
sg71
g3931
sg64
(lp4111
g57
(g78
g59
NtRp4112
(dp4113
g62
(dp4114
g82
g83
ssg71
g4108
sg64
(lp4115
S'2011-11-12'
p4116
asbag57
(g78
g59
NtRp4117
(dp4118
g62
(dp4119
g89
g90
ssg71
g4108
sg64
(lp4120
S':'
asbag57
(g78
g59
NtRp4121
(dp4122
g62
(dp4123
sg71
g4108
sg64
(lp4124
g57
(g58
g59
NtRp4125
(dp4126
g62
(dp4127
g70
I4
ssg71
g4121
sg64
(lp4128
S'23'
p4129
asbasbasbag57
(g73
g59
NtRp4130
(dp4131
g62
(dp4132
sg71
g3931
sg64
(lp4133
g57
(g78
g59
NtRp4134
(dp4135
g62
(dp4136
g82
g83
ssg71
g4130
sg64
(lp4137
S'2011-11-15'
p4138
asbag57
(g78
g59
NtRp4139
(dp4140
g62
(dp4141
g89
g90
ssg71
g4130
sg64
(lp4142
S':'
asbag57
(g78
g59
NtRp4143
(dp4144
g62
(dp4145
sg71
g4130
sg64
(lp4146
g57
(g58
g59
NtRp4147
(dp4148
g62
(dp4149
g70
I4
ssg71
g4143
sg64
(lp4150
S'10'
p4151
asbasbasbag57
(g73
g59
NtRp4152
(dp4153
g62
(dp4154
sg71
g3931
sg64
(lp4155
g57
(g78
g59
NtRp4156
(dp4157
g62
(dp4158
g82
g83
ssg71
g4152
sg64
(lp4159
S'2011-11-16'
p4160
asbag57
(g78
g59
NtRp4161
(dp4162
g62
(dp4163
g89
g90
ssg71
g4152
sg64
(lp4164
S':'
asbag57
(g78
g59
NtRp4165
(dp4166
g62
(dp4167
sg71
g4152
sg64
(lp4168
g57
(g58
g59
NtRp4169
(dp4170
g62
(dp4171
g70
I4
ssg71
g4165
sg64
(lp4172
S'21'
p4173
asbasbasbag57
(g73
g59
NtRp4174
(dp4175
g62
(dp4176
sg71
g3931
sg64
(lp4177
g57
(g78
g59
NtRp4178
(dp4179
g62
(dp4180
g82
g83
ssg71
g4174
sg64
(lp4181
S'2011-11-25'
p4182
asbag57
(g78
g59
NtRp4183
(dp4184
g62
(dp4185
g89
g90
ssg71
g4174
sg64
(lp4186
S':'
asbag57
(g78
g59
NtRp4187
(dp4188
g62
(dp4189
sg71
g4174
sg64
(lp4190
g57
(g58
g59
NtRp4191
(dp4192
g62
(dp4193
g70
I4
ssg71
g4187
sg64
(lp4194
S'5'
asbasbasbag57
(g73
g59
NtRp4195
(dp4196
g62
(dp4197
sg71
g3931
sg64
(lp4198
g57
(g78
g59
NtRp4199
(dp4200
g62
(dp4201
g82
g83
ssg71
g4195
sg64
(lp4202
S'2012-01-16'
p4203
asbag57
(g78
g59
NtRp4204
(dp4205
g62
(dp4206
g89
g90
ssg71
g4195
sg64
(lp4207
S':'
asbag57
(g78
g59
NtRp4208
(dp4209
g62
(dp4210
sg71
g4195
sg64
(lp4211
g57
(g58
g59
NtRp4212
(dp4213
g62
(dp4214
g70
I4
ssg71
g4208
sg64
(lp4215
S'1'
asbasbasbag57
(g73
g59
NtRp4216
(dp4217
g62
(dp4218
sg71
g3931
sg64
(lp4219
g57
(g78
g59
NtRp4220
(dp4221
g62
(dp4222
g82
g83
ssg71
g4216
sg64
(lp4223
S'2012-01-18'
p4224
asbag57
(g78
g59
NtRp4225
(dp4226
g62
(dp4227
g89
g90
ssg71
g4216
sg64
(lp4228
S':'
asbag57
(g78
g59
NtRp4229
(dp4230
g62
(dp4231
sg71
g4216
sg64
(lp4232
g57
(g58
g59
NtRp4233
(dp4234
g62
(dp4235
g70
I4
ssg71
g4229
sg64
(lp4236
S'2'
asbasbasbag57
(g73
g59
NtRp4237
(dp4238
g62
(dp4239
sg71
g3931
sg64
(lp4240
g57
(g78
g59
NtRp4241
(dp4242
g62
(dp4243
g82
g83
ssg71
g4237
sg64
(lp4244
S'2012-01-20'
p4245
asbag57
(g78
g59
NtRp4246
(dp4247
g62
(dp4248
g89
g90
ssg71
g4237
sg64
(lp4249
S':'
asbag57
(g78
g59
NtRp4250
(dp4251
g62
(dp4252
sg71
g4237
sg64
(lp4253
g57
(g58
g59
NtRp4254
(dp4255
g62
(dp4256
g70
I4
ssg71
g4250
sg64
(lp4257
S'20'
p4258
asbasbasbag57
(g73
g59
NtRp4259
(dp4260
g62
(dp4261
sg71
g3931
sg64
(lp4262
g57
(g78
g59
NtRp4263
(dp4264
g62
(dp4265
g82
g83
ssg71
g4259
sg64
(lp4266
S'2012-01-25'
p4267
asbag57
(g78
g59
NtRp4268
(dp4269
g62
(dp4270
g89
g90
ssg71
g4259
sg64
(lp4271
S':'
asbag57
(g78
g59
NtRp4272
(dp4273
g62
(dp4274
sg71
g4259
sg64
(lp4275
g57
(g58
g59
NtRp4276
(dp4277
g62
(dp4278
g70
I4
ssg71
g4272
sg64
(lp4279
S'7'
asbasbasbag57
(g73
g59
NtRp4280
(dp4281
g62
(dp4282
sg71
g3931
sg64
(lp4283
g57
(g78
g59
NtRp4284
(dp4285
g62
(dp4286
g82
g83
ssg71
g4280
sg64
(lp4287
S'2012-01-27'
p4288
asbag57
(g78
g59
NtRp4289
(dp4290
g62
(dp4291
g89
g90
ssg71
g4280
sg64
(lp4292
S':'
asbag57
(g78
g59
NtRp4293
(dp4294
g62
(dp4295
sg71
g4280
sg64
(lp4296
g57
(g58
g59
NtRp4297
(dp4298
g62
(dp4299
g70
I4
ssg71
g4293
sg64
(lp4300
S'24'
p4301
asbasbasbag57
(g73
g59
NtRp4302
(dp4303
g62
(dp4304
sg71
g3931
sg64
(lp4305
g57
(g78
g59
NtRp4306
(dp4307
g62
(dp4308
g82
g83
ssg71
g4302
sg64
(lp4309
S'2012-02-02'
p4310
asbag57
(g78
g59
NtRp4311
(dp4312
g62
(dp4313
g89
g90
ssg71
g4302
sg64
(lp4314
S':'
asbag57
(g78
g59
NtRp4315
(dp4316
g62
(dp4317
sg71
g4302
sg64
(lp4318
g57
(g58
g59
NtRp4319
(dp4320
g62
(dp4321
g70
I4
ssg71
g4315
sg64
(lp4322
S'22'
p4323
asbasbasbasbasbasbasbag57
(g73
g59
NtRp4324
(dp4325
g62
(dp4326
sg71
g3529
sg64
(lp4327
g57
(g78
g59
NtRp4328
(dp4329
g62
(dp4330
g82
g83
ssg71
g4324
sg64
(lp4331
S'eval'
p4332
asbag57
(g78
g59
NtRp4333
(dp4334
g62
(dp4335
g89
g90
ssg71
g4324
sg64
(lp4336
S':'
asbag57
(g78
g59
NtRp4337
(dp4338
g62
(dp4339
sg71
g4324
sg64
(lp4340
g57
(g58
g59
NtRp4341
(dp4342
g62
(dp4343
g70
I5
ssg71
g4337
sg64
(lp4344
S'correct'
p4345
asbasbasbag57
(g73
g59
NtRp4346
(dp4347
g62
(dp4348
sg71
g3529
sg64
(lp4349
g57
(g78
g59
NtRp4350
(dp4351
g62
(dp4352
g82
g83
ssg71
g4346
sg64
(lp4353
S'last_query'
p4354
asbag57
(g78
g59
NtRp4355
(dp4356
g62
(dp4357
g89
g90
ssg71
g4346
sg64
(lp4358
S':'
asbag57
(g78
g59
NtRp4359
(dp4360
g62
(dp4361
sg71
g4346
sg64
(lp4362
g57
(g58
g59
NtRp4363
(dp4364
g62
(dp4365
g70
I5
ssg71
g4359
sg64
(lp4366
S'db.question_records.question == 65'
p4367
asbasbasbag57
(g73
g59
NtRp4368
(dp4369
g62
(dp4370
sg71
g3529
sg64
(lp4371
g57
(g78
g59
NtRp4372
(dp4373
g62
(dp4374
g82
g83
ssg71
g4368
sg64
(lp4375
S'path_freq'
p4376
asbag57
(g78
g59
NtRp4377
(dp4378
g62
(dp4379
g89
g90
ssg71
g4368
sg64
(lp4380
S':'
asbag57
(g78
g59
NtRp4381
(dp4382
g62
(dp4383
sg71
g4368
sg64
(lp4384
g57
(g58
g59
NtRp4385
(dp4386
g62
(dp4387
g70
I5
ssg71
g4381
sg64
(lp4388
S'70'
p4389
asbasbasbag57
(g73
g59
NtRp4390
(dp4391
g62
(dp4392
sg71
g3529
sg64
(lp4393
g57
(g78
g59
NtRp4394
(dp4395
g62
(dp4396
g82
g83
ssg71
g4390
sg64
(lp4397
S'path_id'
p4398
asbag57
(g78
g59
NtRp4399
(dp4400
g62
(dp4401
g89
g90
ssg71
g4390
sg64
(lp4402
S':'
asbag57
(g78
g59
NtRp4403
(dp4404
g62
(dp4405
sg71
g4390
sg64
(lp4406
g57
(g58
g59
NtRp4407
(dp4408
g62
(dp4409
g70
I5
ssg71
g4403
sg64
(lp4410
S'1'
asbasbasbag57
(g73
g59
NtRp4411
(dp4412
g62
(dp4413
sg71
g3529
sg64
(lp4414
g57
(g78
g59
NtRp4415
(dp4416
g62
(dp4417
g82
g83
ssg71
g4411
sg64
(lp4418
S'path_length'
p4419
asbag57
(g78
g59
NtRp4420
(dp4421
g62
(dp4422
g89
g90
ssg71
g4411
sg64
(lp4423
S':'
asbag57
(g78
g59
NtRp4424
(dp4425
g62
(dp4426
sg71
g4411
sg64
(lp4427
g57
(g58
g59
NtRp4428
(dp4429
g62
(dp4430
g70
I5
ssg71
g4424
sg64
(lp4431
S'20'
p4432
asbasbasbag57
(g73
g59
NtRp4433
(dp4434
g62
(dp4435
sg71
g3529
sg64
(lp4436
g57
(g78
g59
NtRp4437
(dp4438
g62
(dp4439
g82
g83
ssg71
g4433
sg64
(lp4440
S'path_name'
p4441
asbag57
(g78
g59
NtRp4442
(dp4443
g62
(dp4444
g89
g90
ssg71
g4433
sg64
(lp4445
S':'
asbag57
(g78
g59
NtRp4446
(dp4447
g62
(dp4448
sg71
g4433
sg64
(lp4449
g57
(g58
g59
NtRp4450
(dp4451
g62
(dp4452
g70
I5
ssg71
g4446
sg64
(lp4453
S'Tyndale - Greek Exegesis I - Week 1'
p4454
asbasbasbag57
(g73
g59
NtRp4455
(dp4456
g62
(dp4457
sg71
g3529
sg64
(lp4458
g57
(g78
g59
NtRp4459
(dp4460
g62
(dp4461
g82
g83
ssg71
g4455
sg64
(lp4462
S'path_tags'
p4463
asbag57
(g78
g59
NtRp4464
(dp4465
g62
(dp4466
g89
g90
ssg71
g4455
sg64
(lp4467
S':'
asbag57
(g78
g59
NtRp4468
(dp4469
g62
(dp4470
sg71
g4455
sg64
(lp4471
g57
(g58
g59
NtRp4472
(dp4473
g62
(dp4474
g70
I5
ssg71
g4468
sg64
(lp4475
g57
(g66
g59
NtRp4476
(dp4477
g62
(dp4478
g70
I4
ssg71
Nsg64
(lp4479
g57
(g73
g59
NtRp4480
(dp4481
g62
(dp4482
sg71
g4476
sg64
(lp4483
g57
(g78
g59
NtRp4484
(dp4485
g62
(dp4486
sg71
g4480
sg64
(lp4487
g57
(g58
g59
NtRp4488
(dp4489
g62
(dp4490
g70
I4
ssg71
g4484
sg64
(lp4491
S'6'
asbasbasbag57
(g73
g59
NtRp4492
(dp4493
g62
(dp4494
sg71
g4476
sg64
(lp4495
g57
(g78
g59
NtRp4496
(dp4497
g62
(dp4498
sg71
g4492
sg64
(lp4499
g57
(g58
g59
NtRp4500
(dp4501
g62
(dp4502
g70
I4
ssg71
g4496
sg64
(lp4503
S'1'
asbasbasbag57
(g73
g59
NtRp4504
(dp4505
g62
(dp4506
sg71
g4476
sg64
(lp4507
g57
(g78
g59
NtRp4508
(dp4509
g62
(dp4510
sg71
g4504
sg64
(lp4511
g57
(g58
g59
NtRp4512
(dp4513
g62
(dp4514
g70
I4
ssg71
g4508
sg64
(lp4515
S'7'
asbasbasbag57
(g73
g59
NtRp4516
(dp4517
g62
(dp4518
sg71
g4476
sg64
(lp4519
g57
(g78
g59
NtRp4520
(dp4521
g62
(dp4522
sg71
g4516
sg64
(lp4523
g57
(g58
g59
NtRp4524
(dp4525
g62
(dp4526
g70
I4
ssg71
g4520
sg64
(lp4527
S'8'
asbasbasbag57
(g73
g59
NtRp4528
(dp4529
g62
(dp4530
sg71
g4476
sg64
(lp4531
g57
(g78
g59
NtRp4532
(dp4533
g62
(dp4534
sg71
g4528
sg64
(lp4535
g57
(g58
g59
NtRp4536
(dp4537
g62
(dp4538
g70
I4
ssg71
g4532
sg64
(lp4539
S'9'
asbasbasbasbasbasbasbag57
(g73
g59
NtRp4540
(dp4541
g62
(dp4542
sg71
g3529
sg64
(lp4543
g57
(g78
g59
NtRp4544
(dp4545
g62
(dp4546
g82
g83
ssg71
g4540
sg64
(lp4547
S'qID'
p4548
asbag57
(g78
g59
NtRp4549
(dp4550
g62
(dp4551
g89
g90
ssg71
g4540
sg64
(lp4552
S':'
asbag57
(g78
g59
NtRp4553
(dp4554
g62
(dp4555
sg71
g4540
sg64
(lp4556
g57
(g58
g59
NtRp4557
(dp4558
g62
(dp4559
g70
I5
ssg71
g4553
sg64
(lp4560
S'107'
p4561
asbasbasbag57
(g73
g59
NtRp4562
(dp4563
g62
(dp4564
sg71
g3529
sg64
(lp4565
g57
(g78
g59
NtRp4566
(dp4567
g62
(dp4568
g82
g83
ssg71
g4562
sg64
(lp4569
S'q_counter'
p4570
asbag57
(g78
g59
NtRp4571
(dp4572
g62
(dp4573
g89
g90
ssg71
g4562
sg64
(lp4574
S':'
asbag57
(g78
g59
NtRp4575
(dp4576
g62
(dp4577
sg71
g4562
sg64
(lp4578
g57
(g58
g59
NtRp4579
(dp4580
g62
(dp4581
g70
I5
ssg71
g4575
sg64
(lp4582
S'2'
asbasbasbag57
(g73
g59
NtRp4583
(dp4584
g62
(dp4585
sg71
g3529
sg64
(lp4586
g57
(g78
g59
NtRp4587
(dp4588
g62
(dp4589
g82
g83
ssg71
g4583
sg64
(lp4590
S'question_text'
p4591
asbag57
(g78
g59
NtRp4592
(dp4593
g62
(dp4594
g89
g90
ssg71
g4583
sg64
(lp4595
S':'
asbag57
(g78
g59
NtRp4596
(dp4597
g62
(dp4598
sg71
g4583
sg64
(lp4599
g57
(g58
g59
NtRp4600
(dp4601
g62
(dp4602
g70
I5
ssg71
g4596
sg64
(lp4603
S'I want you to cook the soup \xce\xbf\xe1\xbd\x95\xcf\x84\xcf\x89\xcf\x82. How do I want you to cook it?'
p4604
asbasbasbag57
(g73
g59
NtRp4605
(dp4606
g62
(dp4607
sg71
g3529
sg64
(lp4608
g57
(g78
g59
NtRp4609
(dp4610
g62
(dp4611
g82
g83
ssg71
g4605
sg64
(lp4612
S'quiz_type'
p4613
asbag57
(g78
g59
NtRp4614
(dp4615
g62
(dp4616
g89
g90
ssg71
g4605
sg64
(lp4617
S':'
asbag57
(g78
g59
NtRp4618
(dp4619
g62
(dp4620
sg71
g4605
sg64
(lp4621
g57
(g58
g59
NtRp4622
(dp4623
g62
(dp4624
g70
I5
ssg71
g4618
sg64
(lp4625
S'category 1'
p4626
asbasbasbag57
(g73
g59
NtRp4627
(dp4628
g62
(dp4629
sg71
g3529
sg64
(lp4630
g57
(g78
g59
NtRp4631
(dp4632
g62
(dp4633
g82
g83
ssg71
g4627
sg64
(lp4634
S'readable_answer'
p4635
asbag57
(g78
g59
NtRp4636
(dp4637
g62
(dp4638
g89
g90
ssg71
g4627
sg64
(lp4639
S':'
asbag57
(g78
g59
NtRp4640
(dp4641
g62
(dp4642
sg71
g4627
sg64
(lp4643
g57
(g58
g59
NtRp4644
(dp4645
g62
(dp4646
g70
I5
ssg71
g4640
sg64
(lp4647
S'like this; in this way'
p4648
asbasbasbag57
(g73
g59
NtRp4649
(dp4650
g62
(dp4651
sg71
g3529
sg64
(lp4652
g57
(g78
g59
NtRp4653
(dp4654
g62
(dp4655
g82
g83
ssg71
g4649
sg64
(lp4656
S'response'
p4657
asbag57
(g78
g59
NtRp4658
(dp4659
g62
(dp4660
g89
g90
ssg71
g4649
sg64
(lp4661
S':'
asbag57
(g78
g59
NtRp4662
(dp4663
g62
(dp4664
sg71
g4649
sg64
(lp4665
g57
(g58
g59
NtRp4666
(dp4667
g62
(dp4668
g70
I5
ssg71
g4662
sg64
(lp4669
S'like this'
p4670
asbasbasbasbasbsS'etype'
p4671
S"<type 'exceptions.AttributeError'>"
p4672
sS'date'
p4673
S'Wed Feb  8 10:03:23 2012'
p4674
sS'response'
p4675
g57
(g58
g59
NtRp4676
(dp4677
g62
(dp4678
sg64
(lp4679
g57
(g66
g59
NtRp4680
(dp4681
g62
(dp4682
g70
I5
ssg71
Nsg64
(lp4683
g57
(g73
g59
NtRp4684
(dp4685
g62
(dp4686
sg71
g4680
sg64
(lp4687
g57
(g78
g59
NtRp4688
(dp4689
g62
(dp4690
g82
g83
ssg71
g4684
sg64
(lp4691
g220
asbag57
(g78
g59
NtRp4692
(dp4693
g62
(dp4694
g89
g90
ssg71
g4684
sg64
(lp4695
S':'
asbag57
(g78
g59
NtRp4696
(dp4697
g62
(dp4698
sg71
g4684
sg64
(lp4699
g57
(g58
g59
NtRp4700
(dp4701
g62
(dp4702
g70
I5
ssg71
g4696
sg64
(lp4703
S'<cStringIO.StringO object at 0x363b420>'
p4704
asbasbasbag57
(g73
g59
NtRp4705
(dp4706
g62
(dp4707
sg71
g4680
sg64
(lp4708
g57
(g78
g59
NtRp4709
(dp4710
g62
(dp4711
g82
g83
ssg71
g4705
sg64
(lp4712
g308
asbag57
(g78
g59
NtRp4713
(dp4714
g62
(dp4715
g89
g90
ssg71
g4705
sg64
(lp4716
S':'
asbag57
(g78
g59
NtRp4717
(dp4718
g62
(dp4719
sg71
g4705
sg64
(lp4720
g57
(g58
g59
NtRp4721
(dp4722
g62
(dp4723
g70
I5
ssg71
g4717
sg64
(lp4724
g57
(g66
g59
NtRp4725
(dp4726
g62
(dp4727
g70
I4
ssg71
Nsg64
(lp4728
g57
(g73
g59
NtRp4729
(dp4730
g62
(dp4731
sg71
g4725
sg64
(lp4732
g57
(g78
g59
NtRp4733
(dp4734
g62
(dp4735
g82
g83
ssg71
g4729
sg64
(lp4736
S'session_id_paideia'
p4737
asbag57
(g78
g59
NtRp4738
(dp4739
g62
(dp4740
g89
g90
ssg71
g4729
sg64
(lp4741
S':'
asbag57
(g78
g59
NtRp4742
(dp4743
g62
(dp4744
sg71
g4729
sg64
(lp4745
g57
(g58
g59
NtRp4746
(dp4747
g62
(dp4748
g70
I4
ssg71
g4742
sg64
(lp4749
g57
(g66
g59
NtRp4750
(dp4751
g62
(dp4752
g70
I3
ssg71
Nsg64
(lp4753
g57
(g73
g59
NtRp4754
(dp4755
g62
(dp4756
sg71
g4750
sg64
(lp4757
g57
(g78
g59
NtRp4758
(dp4759
g62
(dp4760
g82
g83
ssg71
g4754
sg64
(lp4761
g358
asbag57
(g78
g59
NtRp4762
(dp4763
g62
(dp4764
g89
g90
ssg71
g4754
sg64
(lp4765
S':'
asbag57
(g78
g59
NtRp4766
(dp4767
g62
(dp4768
sg71
g4754
sg64
(lp4769
g57
(g58
g59
NtRp4770
(dp4771
g62
(dp4772
g70
I3
ssg71
g4766
sg64
(lp4773
S''
asbasbasbag57
(g73
g59
NtRp4774
(dp4775
g62
(dp4776
sg71
g4750
sg64
(lp4777
g57
(g78
g59
NtRp4778
(dp4779
g62
(dp4780
g82
g83
ssg71
g4774
sg64
(lp4781
g379
asbag57
(g78
g59
NtRp4782
(dp4783
g62
(dp4784
g89
g90
ssg71
g4774
sg64
(lp4785
S':'
asbag57
(g78
g59
NtRp4786
(dp4787
g62
(dp4788
sg71
g4774
sg64
(lp4789
g57
(g58
g59
NtRp4790
(dp4791
g62
(dp4792
g70
I3
ssg71
g4786
sg64
(lp4793
S''
asbasbasbag57
(g73
g59
NtRp4794
(dp4795
g62
(dp4796
sg71
g4750
sg64
(lp4797
g57
(g78
g59
NtRp4798
(dp4799
g62
(dp4800
g82
g83
ssg71
g4794
sg64
(lp4801
g400
asbag57
(g78
g59
NtRp4802
(dp4803
g62
(dp4804
g89
g90
ssg71
g4794
sg64
(lp4805
S':'
asbag57
(g78
g59
NtRp4806
(dp4807
g62
(dp4808
sg71
g4794
sg64
(lp4809
g57
(g58
g59
NtRp4810
(dp4811
g62
(dp4812
g70
I3
ssg71
g4806
sg64
(lp4813
S'2592000'
p4814
asbasbasbag57
(g73
g59
NtRp4815
(dp4816
g62
(dp4817
sg71
g4750
sg64
(lp4818
g57
(g78
g59
NtRp4819
(dp4820
g62
(dp4821
g82
g83
ssg71
g4815
sg64
(lp4822
g421
asbag57
(g78
g59
NtRp4823
(dp4824
g62
(dp4825
g89
g90
ssg71
g4815
sg64
(lp4826
S':'
asbag57
(g78
g59
NtRp4827
(dp4828
g62
(dp4829
sg71
g4815
sg64
(lp4830
g57
(g58
g59
NtRp4831
(dp4832
g62
(dp4833
g70
I3
ssg71
g4827
sg64
(lp4834
S''
asbasbasbag57
(g73
g59
NtRp4835
(dp4836
g62
(dp4837
sg71
g4750
sg64
(lp4838
g57
(g78
g59
NtRp4839
(dp4840
g62
(dp4841
g82
g83
ssg71
g4835
sg64
(lp4842
g442
asbag57
(g78
g59
NtRp4843
(dp4844
g62
(dp4845
g89
g90
ssg71
g4835
sg64
(lp4846
S':'
asbag57
(g78
g59
NtRp4847
(dp4848
g62
(dp4849
sg71
g4835
sg64
(lp4850
g57
(g58
g59
NtRp4851
(dp4852
g62
(dp4853
g70
I3
ssg71
g4847
sg64
(lp4854
S''
asbasbasbag57
(g73
g59
NtRp4855
(dp4856
g62
(dp4857
sg71
g4750
sg64
(lp4858
g57
(g78
g59
NtRp4859
(dp4860
g62
(dp4861
g82
g83
ssg71
g4855
sg64
(lp4862
g463
asbag57
(g78
g59
NtRp4863
(dp4864
g62
(dp4865
g89
g90
ssg71
g4855
sg64
(lp4866
S':'
asbag57
(g78
g59
NtRp4867
(dp4868
g62
(dp4869
sg71
g4855
sg64
(lp4870
g57
(g58
g59
NtRp4871
(dp4872
g62
(dp4873
g70
I3
ssg71
g4867
sg64
(lp4874
S'/'
asbasbasbag57
(g73
g59
NtRp4875
(dp4876
g62
(dp4877
sg71
g4750
sg64
(lp4878
g57
(g78
g59
NtRp4879
(dp4880
g62
(dp4881
g82
g83
ssg71
g4875
sg64
(lp4882
g484
asbag57
(g78
g59
NtRp4883
(dp4884
g62
(dp4885
g89
g90
ssg71
g4875
sg64
(lp4886
S':'
asbag57
(g78
g59
NtRp4887
(dp4888
g62
(dp4889
sg71
g4875
sg64
(lp4890
g57
(g58
g59
NtRp4891
(dp4892
g62
(dp4893
g70
I3
ssg71
g4887
sg64
(lp4894
S''
asbasbasbag57
(g73
g59
NtRp4895
(dp4896
g62
(dp4897
sg71
g4750
sg64
(lp4898
g57
(g78
g59
NtRp4899
(dp4900
g62
(dp4901
g82
g83
ssg71
g4895
sg64
(lp4902
g505
asbag57
(g78
g59
NtRp4903
(dp4904
g62
(dp4905
g89
g90
ssg71
g4895
sg64
(lp4906
S':'
asbag57
(g78
g59
NtRp4907
(dp4908
g62
(dp4909
sg71
g4895
sg64
(lp4910
g57
(g58
g59
NtRp4911
(dp4912
g62
(dp4913
g70
I3
ssg71
g4907
sg64
(lp4914
S''
asbasbasbasbasbasbasbasbasbasbasbag57
(g73
g59
NtRp4915
(dp4916
g62
(dp4917
sg71
g4680
sg64
(lp4918
g57
(g78
g59
NtRp4919
(dp4920
g62
(dp4921
g82
g83
ssg71
g4915
sg64
(lp4922
S'files'
p4923
asbag57
(g78
g59
NtRp4924
(dp4925
g62
(dp4926
g89
g90
ssg71
g4915
sg64
(lp4927
S':'
asbag57
(g78
g59
NtRp4928
(dp4929
g62
(dp4930
sg71
g4915
sg64
(lp4931
g57
(g58
g59
NtRp4932
(dp4933
g62
(dp4934
g70
I5
ssg71
g4928
sg64
(lp4935
g57
(g66
g59
NtRp4936
(dp4937
g62
(dp4938
g70
I4
ssg71
Nsg64
(lp4939
sbasbasbasbag57
(g73
g59
NtRp4940
(dp4941
g62
(dp4942
sg71
g4680
sg64
(lp4943
g57
(g78
g59
NtRp4944
(dp4945
g62
(dp4946
g82
g83
ssg71
g4940
sg64
(lp4947
S'flash'
p4948
asbag57
(g78
g59
NtRp4949
(dp4950
g62
(dp4951
g89
g90
ssg71
g4940
sg64
(lp4952
S':'
asbag57
(g78
g59
NtRp4953
(dp4954
g62
(dp4955
sg71
g4940
sg64
(lp4956
g57
(g58
g59
NtRp4957
(dp4958
g62
(dp4959
g70
I5
ssg71
g4953
sg64
(lp4960
S''
asbasbasbag57
(g73
g59
NtRp4961
(dp4962
g62
(dp4963
sg71
g4680
sg64
(lp4964
g57
(g78
g59
NtRp4965
(dp4966
g62
(dp4967
g82
g83
ssg71
g4961
sg64
(lp4968
S'generic_patterns'
p4969
asbag57
(g78
g59
NtRp4970
(dp4971
g62
(dp4972
g89
g90
ssg71
g4961
sg64
(lp4973
S':'
asbag57
(g78
g59
NtRp4974
(dp4975
g62
(dp4976
sg71
g4961
sg64
(lp4977
g57
(g58
g59
NtRp4978
(dp4979
g62
(dp4980
g70
I5
ssg71
g4974
sg64
(lp4981
g57
(g66
g59
NtRp4982
(dp4983
g62
(dp4984
g70
I4
ssg71
Nsg64
(lp4985
g57
(g73
g59
NtRp4986
(dp4987
g62
(dp4988
sg71
g4982
sg64
(lp4989
g57
(g78
g59
NtRp4990
(dp4991
g62
(dp4992
sg71
g4986
sg64
(lp4993
g57
(g58
g59
NtRp4994
(dp4995
g62
(dp4996
g70
I4
ssg71
g4990
sg64
(lp4997
S'*'
asbasbasbasbasbasbasbag57
(g73
g59
NtRp4998
(dp4999
g62
(dp5000
sg71
g4680
sg64
(lp5001
g57
(g78
g59
NtRp5002
(dp5003
g62
(dp5004
g82
g83
ssg71
g4998
sg64
(lp5005
S'headers'
p5006
asbag57
(g78
g59
NtRp5007
(dp5008
g62
(dp5009
g89
g90
ssg71
g4998
sg64
(lp5010
S':'
asbag57
(g78
g59
NtRp5011
(dp5012
g62
(dp5013
sg71
g4998
sg64
(lp5014
g57
(g58
g59
NtRp5015
(dp5016
g62
(dp5017
g70
I5
ssg71
g5011
sg64
(lp5018
g57
(g66
g59
NtRp5019
(dp5020
g62
(dp5021
g70
I4
ssg71
Nsg64
(lp5022
g57
(g73
g59
NtRp5023
(dp5024
g62
(dp5025
sg71
g5019
sg64
(lp5026
g57
(g78
g59
NtRp5027
(dp5028
g62
(dp5029
g82
g83
ssg71
g5023
sg64
(lp5030
S'Cache-Control'
p5031
asbag57
(g78
g59
NtRp5032
(dp5033
g62
(dp5034
g89
g90
ssg71
g5023
sg64
(lp5035
S':'
asbag57
(g78
g59
NtRp5036
(dp5037
g62
(dp5038
sg71
g5023
sg64
(lp5039
g57
(g58
g59
NtRp5040
(dp5041
g62
(dp5042
g70
I4
ssg71
g5036
sg64
(lp5043
S'no-store, no-cache, must-revalidate, post-check=0, pre-check=0'
p5044
asbasbasbag57
(g73
g59
NtRp5045
(dp5046
g62
(dp5047
sg71
g5019
sg64
(lp5048
g57
(g78
g59
NtRp5049
(dp5050
g62
(dp5051
g82
g83
ssg71
g5045
sg64
(lp5052
S'Content-Type'
p5053
asbag57
(g78
g59
NtRp5054
(dp5055
g62
(dp5056
g89
g90
ssg71
g5045
sg64
(lp5057
S':'
asbag57
(g78
g59
NtRp5058
(dp5059
g62
(dp5060
sg71
g5045
sg64
(lp5061
g57
(g58
g59
NtRp5062
(dp5063
g62
(dp5064
g70
I4
ssg71
g5058
sg64
(lp5065
S'text/html; charset=utf-8'
p5066
asbasbasbag57
(g73
g59
NtRp5067
(dp5068
g62
(dp5069
sg71
g5019
sg64
(lp5070
g57
(g78
g59
NtRp5071
(dp5072
g62
(dp5073
g82
g83
ssg71
g5067
sg64
(lp5074
S'Expires'
p5075
asbag57
(g78
g59
NtRp5076
(dp5077
g62
(dp5078
g89
g90
ssg71
g5067
sg64
(lp5079
S':'
asbag57
(g78
g59
NtRp5080
(dp5081
g62
(dp5082
sg71
g5067
sg64
(lp5083
g57
(g58
g59
NtRp5084
(dp5085
g62
(dp5086
g70
I4
ssg71
g5080
sg64
(lp5087
S'Wed, 08 Feb 2012 15:03:23 GMT'
p5088
asbasbasbag57
(g73
g59
NtRp5089
(dp5090
g62
(dp5091
sg71
g5019
sg64
(lp5092
g57
(g78
g59
NtRp5093
(dp5094
g62
(dp5095
g82
g83
ssg71
g5089
sg64
(lp5096
S'Pragma'
p5097
asbag57
(g78
g59
NtRp5098
(dp5099
g62
(dp5100
g89
g90
ssg71
g5089
sg64
(lp5101
S':'
asbag57
(g78
g59
NtRp5102
(dp5103
g62
(dp5104
sg71
g5089
sg64
(lp5105
g57
(g58
g59
NtRp5106
(dp5107
g62
(dp5108
g70
I4
ssg71
g5102
sg64
(lp5109
S'no-cache'
p5110
asbasbasbag57
(g73
g59
NtRp5111
(dp5112
g62
(dp5113
sg71
g5019
sg64
(lp5114
g57
(g78
g59
NtRp5115
(dp5116
g62
(dp5117
g82
g83
ssg71
g5111
sg64
(lp5118
S'X-Powered-By'
p5119
asbag57
(g78
g59
NtRp5120
(dp5121
g62
(dp5122
g89
g90
ssg71
g5111
sg64
(lp5123
S':'
asbag57
(g78
g59
NtRp5124
(dp5125
g62
(dp5126
sg71
g5111
sg64
(lp5127
g57
(g58
g59
NtRp5128
(dp5129
g62
(dp5130
g70
I4
ssg71
g5124
sg64
(lp5131
S'web2py'
p5132
asbasbasbasbasbasbasbag57
(g73
g59
NtRp5133
(dp5134
g62
(dp5135
sg71
g4680
sg64
(lp5136
g57
(g78
g59
NtRp5137
(dp5138
g62
(dp5139
g82
g83
ssg71
g5133
sg64
(lp5140
S'menu'
p5141
asbag57
(g78
g59
NtRp5142
(dp5143
g62
(dp5144
g89
g90
ssg71
g5133
sg64
(lp5145
S':'
asbag57
(g78
g59
NtRp5146
(dp5147
g62
(dp5148
sg71
g5133
sg64
(lp5149
g57
(g58
g59
NtRp5150
(dp5151
g62
(dp5152
g70
I5
ssg71
g5146
sg64
(lp5153
g57
(g66
g59
NtRp5154
(dp5155
g62
(dp5156
g70
I4
ssg71
Nsg64
(lp5157
g57
(g73
g59
NtRp5158
(dp5159
g62
(dp5160
sg71
g5154
sg64
(lp5161
g57
(g78
g59
NtRp5162
(dp5163
g62
(dp5164
sg71
g5158
sg64
(lp5165
g57
(g58
g59
NtRp5166
(dp5167
g62
(dp5168
g70
I4
ssg71
g5162
sg64
(lp5169
g57
(g66
g59
NtRp5170
(dp5171
g62
(dp5172
g70
I3
ssg71
Nsg64
(lp5173
g57
(g73
g59
NtRp5174
(dp5175
g62
(dp5176
sg71
g5170
sg64
(lp5177
g57
(g78
g59
NtRp5178
(dp5179
g62
(dp5180
sg71
g5174
sg64
(lp5181
g57
(g58
g59
NtRp5182
(dp5183
g62
(dp5184
g70
I3
ssg71
g5178
sg64
(lp5185
cgluon.languages
lazyT_unpickle
p5186
(S't\x04\x00\x00\x00Home'
tRp5187
asbasbasbag57
(g73
g59
NtRp5188
(dp5189
g62
(dp5190
sg71
g5170
sg64
(lp5191
g57
(g78
g59
NtRp5192
(dp5193
g62
(dp5194
sg71
g5188
sg64
(lp5195
g57
(g58
g59
NtRp5196
(dp5197
g62
(dp5198
g70
I3
ssg71
g5192
sg64
(lp5199
g1232
asbasbasbag57
(g73
g59
NtRp5200
(dp5201
g62
(dp5202
sg71
g5170
sg64
(lp5203
g57
(g78
g59
NtRp5204
(dp5205
g62
(dp5206
sg71
g5200
sg64
(lp5207
g57
(g58
g59
NtRp5208
(dp5209
g62
(dp5210
g70
I3
ssg71
g5204
sg64
(lp5211
S'/paideia/default/index.load'
p5212
asbasbasbag57
(g73
g59
NtRp5213
(dp5214
g62
(dp5215
sg71
g5170
sg64
(lp5216
g57
(g78
g59
NtRp5217
(dp5218
g62
(dp5219
sg71
g5213
sg64
(lp5220
g57
(g58
g59
NtRp5221
(dp5222
g62
(dp5223
g70
I3
ssg71
g5217
sg64
(lp5224
g57
(g66
g59
NtRp5225
(dp5226
g62
(dp5227
g70
I2
ssg71
Nsg64
(lp5228
sbasbasbasbasbasbasbasbag57
(g73
g59
NtRp5229
(dp5230
g62
(dp5231
sg71
g5154
sg64
(lp5232
g57
(g78
g59
NtRp5233
(dp5234
g62
(dp5235
sg71
g5229
sg64
(lp5236
g57
(g58
g59
NtRp5237
(dp5238
g62
(dp5239
g70
I4
ssg71
g5233
sg64
(lp5240
g57
(g66
g59
NtRp5241
(dp5242
g62
(dp5243
g70
I3
ssg71
Nsg64
(lp5244
g57
(g73
g59
NtRp5245
(dp5246
g62
(dp5247
sg71
g5241
sg64
(lp5248
g57
(g78
g59
NtRp5249
(dp5250
g62
(dp5251
sg71
g5245
sg64
(lp5252
g57
(g58
g59
NtRp5253
(dp5254
g62
(dp5255
g70
I3
ssg71
g5249
sg64
(lp5256
g5186
(S't\x05\x00\x00\x00Admin'
tRp5257
asbasbasbag57
(g73
g59
NtRp5258
(dp5259
g62
(dp5260
sg71
g5241
sg64
(lp5261
g57
(g78
g59
NtRp5262
(dp5263
g62
(dp5264
sg71
g5258
sg64
(lp5265
g57
(g58
g59
NtRp5266
(dp5267
g62
(dp5268
g70
I3
ssg71
g5262
sg64
(lp5269
g1232
asbasbasbag57
(g73
g59
NtRp5270
(dp5271
g62
(dp5272
sg71
g5241
sg64
(lp5273
g57
(g78
g59
NtRp5274
(dp5275
g62
(dp5276
sg71
g5270
sg64
(lp5277
g57
(g58
g59
NtRp5278
(dp5279
g62
(dp5280
g70
I3
ssg71
g5274
sg64
(lp5281
S'None'
p5282
asbasbasbag57
(g73
g59
NtRp5283
(dp5284
g62
(dp5285
sg71
g5241
sg64
(lp5286
g57
(g78
g59
NtRp5287
(dp5288
g62
(dp5289
sg71
g5283
sg64
(lp5290
g57
(g58
g59
NtRp5291
(dp5292
g62
(dp5293
g70
I3
ssg71
g5287
sg64
(lp5294
g57
(g66
g59
NtRp5295
(dp5296
g62
(dp5297
g70
I2
ssg71
Nsg64
(lp5298
g57
(g73
g59
NtRp5299
(dp5300
g62
(dp5301
sg71
g5295
sg64
(lp5302
g57
(g78
g59
NtRp5303
(dp5304
g62
(dp5305
sg71
g5299
sg64
(lp5306
g57
(g58
g59
NtRp5307
(dp5308
g62
(dp5309
g70
I2
ssg71
g5303
sg64
(lp5310
g57
(g66
g59
NtRp5311
(dp5312
g62
(dp5313
g70
I1
ssg71
Nsg64
(lp5314
g57
(g73
g59
NtRp5315
(dp5316
g62
(dp5317
sg71
g5311
sg64
(lp5318
g57
(g78
g59
NtRp5319
(dp5320
g62
(dp5321
sg71
g5315
sg64
(lp5322
g57
(g58
g59
NtRp5323
(dp5324
g62
(dp5325
g70
I1
ssg71
g5319
sg64
(lp5326
g5186
(S't\x06\x00\x00\x00Design'
tRp5327
asbasbasbag57
(g73
g59
NtRp5328
(dp5329
g62
(dp5330
sg71
g5311
sg64
(lp5331
g57
(g78
g59
NtRp5332
(dp5333
g62
(dp5334
sg71
g5328
sg64
(lp5335
g57
(g58
g59
NtRp5336
(dp5337
g62
(dp5338
g70
I1
ssg71
g5332
sg64
(lp5339
I00
asbasbasbag57
(g73
g59
NtRp5340
(dp5341
g62
(dp5342
sg71
g5311
sg64
(lp5343
g57
(g78
g59
NtRp5344
(dp5345
g62
(dp5346
sg71
g5340
sg64
(lp5347
g57
(g58
g59
NtRp5348
(dp5349
g62
(dp5350
g70
I1
ssg71
g5344
sg64
(lp5351
S'/admin/default/index.load'
p5352
asbasbasbasbasbasbasbag57
(g73
g59
NtRp5353
(dp5354
g62
(dp5355
sg71
g5295
sg64
(lp5356
g57
(g78
g59
NtRp5357
(dp5358
g62
(dp5359
sg71
g5353
sg64
(lp5360
g57
(g58
g59
NtRp5361
(dp5362
g62
(dp5363
g70
I2
ssg71
g5357
sg64
(lp5364
g57
(g66
g59
NtRp5365
(dp5366
g62
(dp5367
g70
I1
ssg71
Nsg64
(lp5368
g57
(g73
g59
NtRp5369
(dp5370
g62
(dp5371
sg71
g5365
sg64
(lp5372
g57
(g78
g59
NtRp5373
(dp5374
g62
(dp5375
sg71
g5369
sg64
(lp5376
g57
(g58
g59
NtRp5377
(dp5378
g62
(dp5379
g70
I1
ssg71
g5373
sg64
(lp5380
g5186
(S't\x08\x00\x00\x00Database'
tRp5381
asbasbasbag57
(g73
g59
NtRp5382
(dp5383
g62
(dp5384
sg71
g5365
sg64
(lp5385
g57
(g78
g59
NtRp5386
(dp5387
g62
(dp5388
sg71
g5382
sg64
(lp5389
g57
(g58
g59
NtRp5390
(dp5391
g62
(dp5392
g70
I1
ssg71
g5386
sg64
(lp5393
I00
asbasbasbag57
(g73
g59
NtRp5394
(dp5395
g62
(dp5396
sg71
g5365
sg64
(lp5397
g57
(g78
g59
NtRp5398
(dp5399
g62
(dp5400
sg71
g5394
sg64
(lp5401
g57
(g58
g59
NtRp5402
(dp5403
g62
(dp5404
g70
I1
ssg71
g5398
sg64
(lp5405
S'/paideia/appadmin/index.load'
p5406
asbasbasbasbasbasbasbag57
(g73
g59
NtRp5407
(dp5408
g62
(dp5409
sg71
g5295
sg64
(lp5410
g57
(g78
g59
NtRp5411
(dp5412
g62
(dp5413
sg71
g5407
sg64
(lp5414
g57
(g58
g59
NtRp5415
(dp5416
g62
(dp5417
g70
I2
ssg71
g5411
sg64
(lp5418
g57
(g66
g59
NtRp5419
(dp5420
g62
(dp5421
g70
I1
ssg71
Nsg64
(lp5422
g57
(g73
g59
NtRp5423
(dp5424
g62
(dp5425
sg71
g5419
sg64
(lp5426
g57
(g78
g59
NtRp5427
(dp5428
g62
(dp5429
sg71
g5423
sg64
(lp5430
g57
(g58
g59
NtRp5431
(dp5432
g62
(dp5433
g70
I1
ssg71
g5427
sg64
(lp5434
g5186
(S't\x05\x00\x00\x00Users'
tRp5435
asbasbasbag57
(g73
g59
NtRp5436
(dp5437
g62
(dp5438
sg71
g5419
sg64
(lp5439
g57
(g78
g59
NtRp5440
(dp5441
g62
(dp5442
sg71
g5436
sg64
(lp5443
g57
(g58
g59
NtRp5444
(dp5445
g62
(dp5446
g70
I1
ssg71
g5440
sg64
(lp5447
I00
asbasbasbag57
(g73
g59
NtRp5448
(dp5449
g62
(dp5450
sg71
g5419
sg64
(lp5451
g57
(g78
g59
NtRp5452
(dp5453
g62
(dp5454
sg71
g5448
sg64
(lp5455
g57
(g58
g59
NtRp5456
(dp5457
g62
(dp5458
g70
I1
ssg71
g5452
sg64
(lp5459
S'/paideia/listing/user.load'
p5460
asbasbasbasbasbasbasbag57
(g73
g59
NtRp5461
(dp5462
g62
(dp5463
sg71
g5295
sg64
(lp5464
g57
(g78
g59
NtRp5465
(dp5466
g62
(dp5467
sg71
g5461
sg64
(lp5468
g57
(g58
g59
NtRp5469
(dp5470
g62
(dp5471
g70
I2
ssg71
g5465
sg64
(lp5472
g57
(g66
g59
NtRp5473
(dp5474
g62
(dp5475
g70
I1
ssg71
Nsg64
(lp5476
g57
(g73
g59
NtRp5477
(dp5478
g62
(dp5479
sg71
g5473
sg64
(lp5480
g57
(g78
g59
NtRp5481
(dp5482
g62
(dp5483
sg71
g5477
sg64
(lp5484
g57
(g58
g59
NtRp5485
(dp5486
g62
(dp5487
g70
I1
ssg71
g5481
sg64
(lp5488
g5186
(S't\t\x00\x00\x00Questions'
tRp5489
asbasbasbag57
(g73
g59
NtRp5490
(dp5491
g62
(dp5492
sg71
g5473
sg64
(lp5493
g57
(g78
g59
NtRp5494
(dp5495
g62
(dp5496
sg71
g5490
sg64
(lp5497
g57
(g58
g59
NtRp5498
(dp5499
g62
(dp5500
g70
I1
ssg71
g5494
sg64
(lp5501
I00
asbasbasbag57
(g73
g59
NtRp5502
(dp5503
g62
(dp5504
sg71
g5473
sg64
(lp5505
g57
(g78
g59
NtRp5506
(dp5507
g62
(dp5508
sg71
g5502
sg64
(lp5509
g57
(g58
g59
NtRp5510
(dp5511
g62
(dp5512
g70
I1
ssg71
g5506
sg64
(lp5513
S'/paideia/plugin_listandedit/list.html/questions'
p5514
asbasbasbasbasbasbasbag57
(g73
g59
NtRp5515
(dp5516
g62
(dp5517
sg71
g5295
sg64
(lp5518
g57
(g78
g59
NtRp5519
(dp5520
g62
(dp5521
sg71
g5515
sg64
(lp5522
g57
(g58
g59
NtRp5523
(dp5524
g62
(dp5525
g70
I2
ssg71
g5519
sg64
(lp5526
g57
(g66
g59
NtRp5527
(dp5528
g62
(dp5529
g70
I1
ssg71
Nsg64
(lp5530
g57
(g73
g59
NtRp5531
(dp5532
g62
(dp5533
sg71
g5527
sg64
(lp5534
g57
(g78
g59
NtRp5535
(dp5536
g62
(dp5537
sg71
g5531
sg64
(lp5538
g57
(g58
g59
NtRp5539
(dp5540
g62
(dp5541
g70
I1
ssg71
g5535
sg64
(lp5542
g5186
(S't\x07\x00\x00\x00Quizzes'
tRp5543
asbasbasbag57
(g73
g59
NtRp5544
(dp5545
g62
(dp5546
sg71
g5527
sg64
(lp5547
g57
(g78
g59
NtRp5548
(dp5549
g62
(dp5550
sg71
g5544
sg64
(lp5551
g57
(g58
g59
NtRp5552
(dp5553
g62
(dp5554
g70
I1
ssg71
g5548
sg64
(lp5555
I00
asbasbasbag57
(g73
g59
NtRp5556
(dp5557
g62
(dp5558
sg71
g5527
sg64
(lp5559
g57
(g78
g59
NtRp5560
(dp5561
g62
(dp5562
sg71
g5556
sg64
(lp5563
g57
(g58
g59
NtRp5564
(dp5565
g62
(dp5566
g70
I1
ssg71
g5560
sg64
(lp5567
S'/paideia/plugin_listandedit/list.html/quizzes'
p5568
asbasbasbasbasbasbasbag57
(g73
g59
NtRp5569
(dp5570
g62
(dp5571
sg71
g5295
sg64
(lp5572
g57
(g78
g59
NtRp5573
(dp5574
g62
(dp5575
sg71
g5569
sg64
(lp5576
g57
(g58
g59
NtRp5577
(dp5578
g62
(dp5579
g70
I2
ssg71
g5573
sg64
(lp5580
g57
(g66
g59
NtRp5581
(dp5582
g62
(dp5583
g70
I1
ssg71
Nsg64
(lp5584
g57
(g73
g59
NtRp5585
(dp5586
g62
(dp5587
sg71
g5581
sg64
(lp5588
g57
(g78
g59
NtRp5589
(dp5590
g62
(dp5591
sg71
g5585
sg64
(lp5592
g57
(g58
g59
NtRp5593
(dp5594
g62
(dp5595
g70
I1
ssg71
g5589
sg64
(lp5596
g5186
(S't\x04\x00\x00\x00Tags'
tRp5597
asbasbasbag57
(g73
g59
NtRp5598
(dp5599
g62
(dp5600
sg71
g5581
sg64
(lp5601
g57
(g78
g59
NtRp5602
(dp5603
g62
(dp5604
sg71
g5598
sg64
(lp5605
g57
(g58
g59
NtRp5606
(dp5607
g62
(dp5608
g70
I1
ssg71
g5602
sg64
(lp5609
I00
asbasbasbag57
(g73
g59
NtRp5610
(dp5611
g62
(dp5612
sg71
g5581
sg64
(lp5613
g57
(g78
g59
NtRp5614
(dp5615
g62
(dp5616
sg71
g5610
sg64
(lp5617
g57
(g58
g59
NtRp5618
(dp5619
g62
(dp5620
g70
I1
ssg71
g5614
sg64
(lp5621
S'/paideia/plugin_listandedit/list.html/tags'
p5622
asbasbasbasbasbasbasbasbasbasbasbasbasbasbasbasbasbasbasbag57
(g73
g59
NtRp5623
(dp5624
g62
(dp5625
sg71
g4680
sg64
(lp5626
g57
(g78
g59
NtRp5627
(dp5628
g62
(dp5629
g82
g83
ssg71
g5623
sg64
(lp5630
S'meta'
p5631
asbag57
(g78
g59
NtRp5632
(dp5633
g62
(dp5634
g89
g90
ssg71
g5623
sg64
(lp5635
S':'
asbag57
(g78
g59
NtRp5636
(dp5637
g62
(dp5638
sg71
g5623
sg64
(lp5639
g57
(g58
g59
NtRp5640
(dp5641
g62
(dp5642
g70
I5
ssg71
g5636
sg64
(lp5643
g57
(g66
g59
NtRp5644
(dp5645
g62
(dp5646
g70
I4
ssg71
Nsg64
(lp5647
g57
(g73
g59
NtRp5648
(dp5649
g62
(dp5650
sg71
g5644
sg64
(lp5651
g57
(g78
g59
NtRp5652
(dp5653
g62
(dp5654
g82
g83
ssg71
g5648
sg64
(lp5655
S'author'
p5656
asbag57
(g78
g59
NtRp5657
(dp5658
g62
(dp5659
g89
g90
ssg71
g5648
sg64
(lp5660
S':'
asbag57
(g78
g59
NtRp5661
(dp5662
g62
(dp5663
sg71
g5648
sg64
(lp5664
g57
(g58
g59
NtRp5665
(dp5666
g62
(dp5667
g70
I4
ssg71
g5661
sg64
(lp5668
S'Ian W. Scott'
p5669
asbasbasbag57
(g73
g59
NtRp5670
(dp5671
g62
(dp5672
sg71
g5644
sg64
(lp5673
g57
(g78
g59
NtRp5674
(dp5675
g62
(dp5676
g82
g83
ssg71
g5670
sg64
(lp5677
S'copyright'
p5678
asbag57
(g78
g59
NtRp5679
(dp5680
g62
(dp5681
g89
g90
ssg71
g5670
sg64
(lp5682
S':'
asbag57
(g78
g59
NtRp5683
(dp5684
g62
(dp5685
sg71
g5670
sg64
(lp5686
g57
(g58
g59
NtRp5687
(dp5688
g62
(dp5689
g70
I4
ssg71
g5683
sg64
(lp5690
S'Copyright 2011'
p5691
asbasbasbag57
(g73
g59
NtRp5692
(dp5693
g62
(dp5694
sg71
g5644
sg64
(lp5695
g57
(g78
g59
NtRp5696
(dp5697
g62
(dp5698
g82
g83
ssg71
g5692
sg64
(lp5699
S'description'
p5700
asbag57
(g78
g59
NtRp5701
(dp5702
g62
(dp5703
g89
g90
ssg71
g5692
sg64
(lp5704
S':'
asbag57
(g78
g59
NtRp5705
(dp5706
g62
(dp5707
sg71
g5692
sg64
(lp5708
g57
(g58
g59
NtRp5709
(dp5710
g62
(dp5711
g70
I4
ssg71
g5705
sg64
(lp5712
S'An online space for learning New Testament Greek'
p5713
asbasbasbag57
(g73
g59
NtRp5714
(dp5715
g62
(dp5716
sg71
g5644
sg64
(lp5717
g57
(g78
g59
NtRp5718
(dp5719
g62
(dp5720
g82
g83
ssg71
g5714
sg64
(lp5721
S'generator'
p5722
asbag57
(g78
g59
NtRp5723
(dp5724
g62
(dp5725
g89
g90
ssg71
g5714
sg64
(lp5726
S':'
asbag57
(g78
g59
NtRp5727
(dp5728
g62
(dp5729
sg71
g5714
sg64
(lp5730
g57
(g58
g59
NtRp5731
(dp5732
g62
(dp5733
g70
I4
ssg71
g5727
sg64
(lp5734
S'Web2py Enterprise Framework'
p5735
asbasbasbag57
(g73
g59
NtRp5736
(dp5737
g62
(dp5738
sg71
g5644
sg64
(lp5739
g57
(g78
g59
NtRp5740
(dp5741
g62
(dp5742
g82
g83
ssg71
g5736
sg64
(lp5743
S'keywords'
p5744
asbag57
(g78
g59
NtRp5745
(dp5746
g62
(dp5747
g89
g90
ssg71
g5736
sg64
(lp5748
S':'
asbag57
(g78
g59
NtRp5749
(dp5750
g62
(dp5751
sg71
g5736
sg64
(lp5752
g57
(g58
g59
NtRp5753
(dp5754
g62
(dp5755
g70
I4
ssg71
g5749
sg64
(lp5756
S'Greek, koine, New Testament, language, education, learning'
p5757
asbasbasbasbasbasbasbag57
(g73
g59
NtRp5758
(dp5759
g62
(dp5760
sg71
g4680
sg64
(lp5761
g57
(g78
g59
NtRp5762
(dp5763
g62
(dp5764
g82
g83
ssg71
g5758
sg64
(lp5765
S'postprocessing'
p5766
asbag57
(g78
g59
NtRp5767
(dp5768
g62
(dp5769
g89
g90
ssg71
g5758
sg64
(lp5770
S':'
asbag57
(g78
g59
NtRp5771
(dp5772
g62
(dp5773
sg71
g5758
sg64
(lp5774
g57
(g58
g59
NtRp5775
(dp5776
g62
(dp5777
g70
I5
ssg71
g5771
sg64
(lp5778
g57
(g66
g59
NtRp5779
(dp5780
g62
(dp5781
g70
I4
ssg71
Nsg64
(lp5782
sbasbasbasbag57
(g73
g59
NtRp5783
(dp5784
g62
(dp5785
sg71
g4680
sg64
(lp5786
g57
(g78
g59
NtRp5787
(dp5788
g62
(dp5789
g82
g83
ssg71
g5783
sg64
(lp5790
S'session_file'
p5791
asbag57
(g78
g59
NtRp5792
(dp5793
g62
(dp5794
g89
g90
ssg71
g5783
sg64
(lp5795
S':'
asbag57
(g78
g59
NtRp5796
(dp5797
g62
(dp5798
sg71
g5783
sg64
(lp5799
g57
(g58
g59
NtRp5800
(dp5801
g62
(dp5802
g70
I5
ssg71
g5796
sg64
(lp5803
S"<open file '/home/ian/web2py/applications/paideia/sessions/127.0.0.1-e39bb56e-30eb-4da5-9f4e-559a6c22ef0d', mode 'rb+' at 0x3736420>"
p5804
asbasbasbag57
(g73
g59
NtRp5805
(dp5806
g62
(dp5807
sg71
g4680
sg64
(lp5808
g57
(g78
g59
NtRp5809
(dp5810
g62
(dp5811
g82
g83
ssg71
g5805
sg64
(lp5812
S'session_filename'
p5813
asbag57
(g78
g59
NtRp5814
(dp5815
g62
(dp5816
g89
g90
ssg71
g5805
sg64
(lp5817
S':'
asbag57
(g78
g59
NtRp5818
(dp5819
g62
(dp5820
sg71
g5805
sg64
(lp5821
g57
(g58
g59
NtRp5822
(dp5823
g62
(dp5824
g70
I5
ssg71
g5818
sg64
(lp5825
S'/home/ian/web2py/applications/paideia/sessions/127.0.0.1-e39bb56e-30eb-4da5-9f4e-559a6c22ef0d'
p5826
asbasbasbag57
(g73
g59
NtRp5827
(dp5828
g62
(dp5829
sg71
g4680
sg64
(lp5830
g57
(g78
g59
NtRp5831
(dp5832
g62
(dp5833
g82
g83
ssg71
g5827
sg64
(lp5834
S'session_id'
p5835
asbag57
(g78
g59
NtRp5836
(dp5837
g62
(dp5838
g89
g90
ssg71
g5827
sg64
(lp5839
S':'
asbag57
(g78
g59
NtRp5840
(dp5841
g62
(dp5842
sg71
g5827
sg64
(lp5843
g57
(g58
g59
NtRp5844
(dp5845
g62
(dp5846
g70
I5
ssg71
g5840
sg64
(lp5847
S'127.0.0.1-e39bb56e-30eb-4da5-9f4e-559a6c22ef0d'
p5848
asbasbasbag57
(g73
g59
NtRp5849
(dp5850
g62
(dp5851
sg71
g4680
sg64
(lp5852
g57
(g78
g59
NtRp5853
(dp5854
g62
(dp5855
g82
g83
ssg71
g5849
sg64
(lp5856
S'session_id_name'
p5857
asbag57
(g78
g59
NtRp5858
(dp5859
g62
(dp5860
g89
g90
ssg71
g5849
sg64
(lp5861
S':'
asbag57
(g78
g59
NtRp5862
(dp5863
g62
(dp5864
sg71
g5849
sg64
(lp5865
g57
(g58
g59
NtRp5866
(dp5867
g62
(dp5868
g70
I5
ssg71
g5862
sg64
(lp5869
g4737
asbasbasbag57
(g73
g59
NtRp5870
(dp5871
g62
(dp5872
sg71
g4680
sg64
(lp5873
g57
(g78
g59
NtRp5874
(dp5875
g62
(dp5876
g82
g83
ssg71
g5870
sg64
(lp5877
S'session_locked'
p5878
asbag57
(g78
g59
NtRp5879
(dp5880
g62
(dp5881
g89
g90
ssg71
g5870
sg64
(lp5882
S':'
asbag57
(g78
g59
NtRp5883
(dp5884
g62
(dp5885
sg71
g5870
sg64
(lp5886
g57
(g58
g59
NtRp5887
(dp5888
g62
(dp5889
g70
I5
ssg71
g5883
sg64
(lp5890
g100
asbasbasbag57
(g73
g59
NtRp5891
(dp5892
g62
(dp5893
sg71
g4680
sg64
(lp5894
g57
(g78
g59
NtRp5895
(dp5896
g62
(dp5897
g82
g83
ssg71
g5891
sg64
(lp5898
S'session_new'
p5899
asbag57
(g78
g59
NtRp5900
(dp5901
g62
(dp5902
g89
g90
ssg71
g5891
sg64
(lp5903
S':'
asbag57
(g78
g59
NtRp5904
(dp5905
g62
(dp5906
sg71
g5891
sg64
(lp5907
g57
(g58
g59
NtRp5908
(dp5909
g62
(dp5910
g70
I5
ssg71
g5904
sg64
(lp5911
g1232
asbasbasbag57
(g73
g59
NtRp5912
(dp5913
g62
(dp5914
sg71
g4680
sg64
(lp5915
g57
(g78
g59
NtRp5916
(dp5917
g62
(dp5918
g82
g83
ssg71
g5912
sg64
(lp5919
S'status'
p5920
asbag57
(g78
g59
NtRp5921
(dp5922
g62
(dp5923
g89
g90
ssg71
g5912
sg64
(lp5924
S':'
asbag57
(g78
g59
NtRp5925
(dp5926
g62
(dp5927
sg71
g5912
sg64
(lp5928
g57
(g58
g59
NtRp5929
(dp5930
g62
(dp5931
g70
I5
ssg71
g5925
sg64
(lp5932
S'200'
p5933
asbasbasbag57
(g73
g59
NtRp5934
(dp5935
g62
(dp5936
sg71
g4680
sg64
(lp5937
g57
(g78
g59
NtRp5938
(dp5939
g62
(dp5940
g82
g83
ssg71
g5934
sg64
(lp5941
S'subtitle'
p5942
asbag57
(g78
g59
NtRp5943
(dp5944
g62
(dp5945
g89
g90
ssg71
g5934
sg64
(lp5946
S':'
asbag57
(g78
g59
NtRp5947
(dp5948
g62
(dp5949
sg71
g5934
sg64
(lp5950
g57
(g58
g59
NtRp5951
(dp5952
g62
(dp5953
g70
I5
ssg71
g5947
sg64
(lp5954
g5186
(S's0\x00\x00\x00An online space for learning New Testament Greek'
tRp5955
asbasbasbag57
(g73
g59
NtRp5956
(dp5957
g62
(dp5958
sg71
g4680
sg64
(lp5959
g57
(g78
g59
NtRp5960
(dp5961
g62
(dp5962
g82
g83
ssg71
g5956
sg64
(lp5963
S'title'
p5964
asbag57
(g78
g59
NtRp5965
(dp5966
g62
(dp5967
g89
g90
ssg71
g5956
sg64
(lp5968
S':'
asbag57
(g78
g59
NtRp5969
(dp5970
g62
(dp5971
sg71
g5956
sg64
(lp5972
g57
(g58
g59
NtRp5973
(dp5974
g62
(dp5975
g70
I5
ssg71
g5969
sg64
(lp5976
g122
asbasbasbag57
(g73
g59
NtRp5977
(dp5978
g62
(dp5979
sg71
g4680
sg64
(lp5980
g57
(g78
g59
NtRp5981
(dp5982
g62
(dp5983
g82
g83
ssg71
g5977
sg64
(lp5984
g2723
asbag57
(g78
g59
NtRp5985
(dp5986
g62
(dp5987
g89
g90
ssg71
g5977
sg64
(lp5988
S':'
asbag57
(g78
g59
NtRp5989
(dp5990
g62
(dp5991
sg71
g5977
sg64
(lp5992
g57
(g58
g59
NtRp5993
(dp5994
g62
(dp5995
g70
I5
ssg71
g5989
sg64
(lp5996
g2736
asbasbasbag57
(g73
g59
NtRp5997
(dp5998
g62
(dp5999
sg71
g4680
sg64
(lp6000
g57
(g78
g59
NtRp6001
(dp6002
g62
(dp6003
g82
g83
ssg71
g5997
sg64
(lp6004
S'view'
p6005
asbag57
(g78
g59
NtRp6006
(dp6007
g62
(dp6008
g89
g90
ssg71
g5997
sg64
(lp6009
S':'
asbag57
(g78
g59
NtRp6010
(dp6011
g62
(dp6012
sg71
g5997
sg64
(lp6013
g57
(g58
g59
NtRp6014
(dp6015
g62
(dp6016
g70
I5
ssg71
g6010
sg64
(lp6017
S'plugin_ajaxselect/set_widget.load'
p6018
asbasbasbasbasbsS'locals'
p6019
(dp6020
S'field'
p6021
S"'npcs'"
p6022
sS'valstring'
p6023
S'None'
p6024
sS'linktable'
p6025
S"'None'"
p6026
sS'table'
p6027
S"'questions'"
p6028
sssS'traceback'
p6029
S'Traceback (most recent call last):\n  File "/home/ian/web2py/gluon/restricted.py", line 204, in restricted\n    exec ccode in environment\n  File "/home/ian/web2py/applications/paideia/controllers/plugin_ajaxselect.py", line 109, in <module>\n  File "/home/ian/web2py/gluon/globals.py", line 172, in <lambda>\n    self._caller = lambda f: f()\n  File "/home/ian/web2py/applications/paideia/controllers/plugin_ajaxselect.py", line 22, in set_widget\n    value = valstring.split(\'-\')\nAttributeError: \'NoneType\' object has no attribute \'split\'\n'
p6030
s.