(dp1
S'output'
p2
S"<type 'exceptions.SyntaxError'> invalid syntax (paideia_exploring.py, line 300)"
p3
sS'layer'
p4
S'/home/ian/web/web2py/applications/paideia/controllers/exploring.py'
p5
sS'code'
p6
S'# coding: utf8\nfrom paideia_exploring import paideia_path, paideia_tag, counter, map\nfrom paideia_questions import question\nimport pprint\n\ndef session_init():\n    print \'calling session_init\'\n\n    #categorize paths for today\n    tags = paideia_tag()\n    session.tagset = tags.categorize_tags()\n    print \'returned categorized tags\'\n\n    #add paths that weren\'t finished during last session\n    path = paideia_path()\n    session.active_paths = path.find_unfinished()\n    print \'returned unfinished paths\'\n\ndef step_init():\n    path = paideia_path()\n    path_result = path.pick()\n    print \'returned to controller step_init():\'\n    print \'path \', path_result[\'path\']\n    print \'step \', path_result[\'step\']\n    return dict(path = path_result[\'path\'], step = path_result[\'step\'])\n\ndef stepask():\n    \n    #if not, initiate new path\n    if not request.vars.response:\n        set_counter = counter()\n        the_question = question()\n        the_question.selectq()\n\n    form = SQLFORM.factory(\n        Field(\'response\', \'string\', requires=IS_NOT_EMPTY())\n    )\n    if form.accepts(request.vars,  session):\n        session.response = request.vars.response\n        redirect(URL(\'index\', args=[\'reply\']))\n\n    return dict(question=session.question_text, form=form)\n\n\ndef stepreply():\n    #see whether answer matches any of the three answer fields\n    q = question()\n    the_eval = q.evalq()\n\n    #build response to user\n    if session.eval == \'correct\':\n        the_reply = "Right. \xce\x9a\xce\xac\xce\xbb\xce\xb7."\n    elif session.eval == \'partial\':\n        the_reply = "\xce\x9f\xe1\xbd\x90 \xce\xba\xce\xac\xce\xba\xce\xbf\xcf\x82. You\'re close."\n    else:\n        the_reply = "Incorrect. Try again!"\n\n    #add a record for this attempt in db.attempt_log\n    db.attempt_log.insert(question=session.q_ID, score=q.score, quiz=session.path_id)\n\n    return dict(reply=the_reply, answer=session.readable_answer, raw_answer=session.answer, score=session.score)\n\n\ndef patherror():\n    if request.args(1) == \'unknown\':\n        db.q_bugs.insert(question=session.qID, a_submitted=request.vars.answer)\n        #TODO: fix problem with changing column name for status\n        #db(db.questions.id==session.qID).update(qqq_status=1);\n    if request.args(1) == \'regex\':\n        db.q_bugs.insert(question=session.qID, a_submitted=request.vars.answer)\n        #db(db.questions.id==session.qID).update(qqq_status=1);\n    message = "Oops! Something about that question confused me, and I\'m not sure whether your answer was right. Let\'s try another one."\n    button = A(\'continue\', _href=URL(\'index\', args=[\'ask\']), _class=\'button-green-grad next_q\', cid=request.cid)\n    #don\'t include this question in counting the number attempted\n    session.q_counter -= 1\n\n    return dict(message=message, button=button)\n\n\n@auth.requires_login()\ndef index():\n    #check to see whether this user session has been initialized\n    if not session.tagset:\n        session_init()\n\n    #when user begins exploring (also default) present map\n    if (request.args(0) == \'start\') or (not request.args):\n        the_map = map()\n        for i in [\'blocks\', \'active_paths\', \'completed_paths\']:\n            if not session[i]:\n                print i\n                session[i] = None\n\n        return dict(locs=the_map.locs, map_image=the_map.image)\n\n    #after user selects quiz (or \'next question\')\n    elif request.args(0) == \'ask\':\n        return step_init()\n\n    #after submitting answer\n    elif request.args(0) == \'reply\':\n        return stepreply()\n\n    elif request.args(0) == \'error\':\n        return patherror()\n\nresponse._vars=response._caller(index)\n'
p7
sS'snapshot'
p8
(dp9
S'exception'
p10
(dp11
S'__getslice__'
p12
S"<method-wrapper '__getslice__' of exceptions.SyntaxError object>"
p13
sS'text'
p14
S'"                print \'raw catXpaths = \' catXpaths\\n"'
p15
sS'__str__'
p16
S"<method-wrapper '__str__' of exceptions.SyntaxError object>"
p17
sS'__reduce__'
p18
S'<built-in method __reduce__ of exceptions.SyntaxError object>'
p19
sS'__dict__'
p20
S'{}'
p21
sS'__sizeof__'
p22
S'<built-in method __sizeof__ of exceptions.SyntaxError object>'
p23
sS'__init__'
p24
S"<method-wrapper '__init__' of exceptions.SyntaxError object>"
p25
sS'__setattr__'
p26
S"<method-wrapper '__setattr__' of exceptions.SyntaxError object>"
p27
sS'__reduce_ex__'
p28
S'<built-in method __reduce_ex__ of exceptions.SyntaxError object>'
p29
sS'__new__'
p30
S'<built-in method __new__ of type object>'
p31
sS'__format__'
p32
S'<built-in method __format__ of exceptions.SyntaxError object>'
p33
sS'__class__'
p34
S"<type 'exceptions.SyntaxError'>"
p35
sS'filename'
p36
S"'applications/paideia/modules/paideia_exploring.py'"
p37
sS'lineno'
p38
S'300'
p39
sS'msg'
p40
S"'invalid syntax'"
p41
sS'__doc__'
p42
S"'Invalid syntax.'"
p43
sS'__getitem__'
p44
S"<method-wrapper '__getitem__' of exceptions.SyntaxError object>"
p45
sS'__setstate__'
p46
S'<built-in method __setstate__ of exceptions.SyntaxError object>'
p47
sS'__getattribute__'
p48
S"<method-wrapper '__getattribute__' of exceptions.SyntaxError object>"
p49
sS'print_file_and_line'
p50
S'None'
p51
sS'args'
p52
S'(\'invalid syntax\', (\'applications/paideia/modules/paideia_exploring.py\', 300, 50, "                print \'raw catXpaths = \' catXpaths\\n"))'
p53
sS'__subclasshook__'
p54
S'<built-in method __subclasshook__ of type object>'
p55
sS'offset'
p56
S'50'
p57
sS'__unicode__'
p58
S'<built-in method __unicode__ of exceptions.SyntaxError object>'
p59
sS'__delattr__'
p60
S"<method-wrapper '__delattr__' of exceptions.SyntaxError object>"
p61
sS'__repr__'
p62
S"<method-wrapper '__repr__' of exceptions.SyntaxError object>"
p63
sS'__hash__'
p64
S"<method-wrapper '__hash__' of exceptions.SyntaxError object>"
p65
ssS'evalue'
p66
S'invalid syntax (paideia_exploring.py, line 300)'
p67
sS'request'
p68
ccopy_reg
_reconstructor
p69
(cgluon.html
BEAUTIFY
p70
c__builtin__
object
p71
NtRp72
(dp73
S'attributes'
p74
(dp75
sS'components'
p76
(lp77
g69
(cgluon.html
TABLE
p78
g71
NtRp79
(dp80
g74
(dp81
S'level'
p82
I5
ssS'parent'
p83
Nsg76
(lp84
g69
(cgluon.html
TR
p85
g71
NtRp86
(dp87
g74
(dp88
sg83
g79
sg76
(lp89
g69
(cgluon.html
TD
p90
g71
NtRp91
(dp92
g74
(dp93
S'_style'
p94
S'font-weight:bold;vertical-align:top'
p95
ssg83
g86
sg76
(lp96
S'ajax'
p97
asbag69
(g90
g71
NtRp98
(dp99
g74
(dp100
S'_valign'
p101
S'top'
p102
ssg83
g86
sg76
(lp103
S':'
asbag69
(g90
g71
NtRp104
(dp105
g74
(dp106
sg83
g86
sg76
(lp107
g69
(g70
g71
NtRp108
(dp109
g74
(dp110
g82
I5
ssg83
g104
sg76
(lp111
S'False'
p112
asbasbasbag69
(g85
g71
NtRp113
(dp114
g74
(dp115
sg83
g79
sg76
(lp116
g69
(g90
g71
NtRp117
(dp118
g74
(dp119
g94
g95
ssg83
g113
sg76
(lp120
S'application'
p121
asbag69
(g90
g71
NtRp122
(dp123
g74
(dp124
g101
g102
ssg83
g113
sg76
(lp125
S':'
asbag69
(g90
g71
NtRp126
(dp127
g74
(dp128
sg83
g113
sg76
(lp129
g69
(g70
g71
NtRp130
(dp131
g74
(dp132
g82
I5
ssg83
g126
sg76
(lp133
S'paideia'
p134
asbasbasbag69
(g85
g71
NtRp135
(dp136
g74
(dp137
sg83
g79
sg76
(lp138
g69
(g90
g71
NtRp139
(dp140
g74
(dp141
g94
g95
ssg83
g135
sg76
(lp142
g52
asbag69
(g90
g71
NtRp143
(dp144
g74
(dp145
g101
g102
ssg83
g135
sg76
(lp146
S':'
asbag69
(g90
g71
NtRp147
(dp148
g74
(dp149
sg83
g135
sg76
(lp150
g69
(g70
g71
NtRp151
(dp152
g74
(dp153
g82
I5
ssg83
g147
sg76
(lp154
g69
(g78
g71
NtRp155
(dp156
g74
(dp157
g82
I4
ssg83
Nsg76
(lp158
sbasbasbasbag69
(g85
g71
NtRp159
(dp160
g74
(dp161
sg83
g79
sg76
(lp162
g69
(g90
g71
NtRp163
(dp164
g74
(dp165
g94
g95
ssg83
g159
sg76
(lp166
S'body'
p167
asbag69
(g90
g71
NtRp168
(dp169
g74
(dp170
g101
g102
ssg83
g159
sg76
(lp171
S':'
asbag69
(g90
g71
NtRp172
(dp173
g74
(dp174
sg83
g159
sg76
(lp175
g69
(g70
g71
NtRp176
(dp177
g74
(dp178
g82
I5
ssg83
g172
sg76
(lp179
S'<cStringIO.StringO object at 0x7feb600f40d8>'
p180
asbasbasbag69
(g85
g71
NtRp181
(dp182
g74
(dp183
sg83
g79
sg76
(lp184
g69
(g90
g71
NtRp185
(dp186
g74
(dp187
g94
g95
ssg83
g181
sg76
(lp188
S'client'
p189
asbag69
(g90
g71
NtRp190
(dp191
g74
(dp192
g101
g102
ssg83
g181
sg76
(lp193
S':'
asbag69
(g90
g71
NtRp194
(dp195
g74
(dp196
sg83
g181
sg76
(lp197
g69
(g70
g71
NtRp198
(dp199
g74
(dp200
g82
I5
ssg83
g194
sg76
(lp201
S'127.0.0.1'
p202
asbasbasbag69
(g85
g71
NtRp203
(dp204
g74
(dp205
sg83
g79
sg76
(lp206
g69
(g90
g71
NtRp207
(dp208
g74
(dp209
g94
g95
ssg83
g203
sg76
(lp210
S'controller'
p211
asbag69
(g90
g71
NtRp212
(dp213
g74
(dp214
g101
g102
ssg83
g203
sg76
(lp215
S':'
asbag69
(g90
g71
NtRp216
(dp217
g74
(dp218
sg83
g203
sg76
(lp219
g69
(g70
g71
NtRp220
(dp221
g74
(dp222
g82
I5
ssg83
g216
sg76
(lp223
S'exploring'
p224
asbasbasbag69
(g85
g71
NtRp225
(dp226
g74
(dp227
sg83
g79
sg76
(lp228
g69
(g90
g71
NtRp229
(dp230
g74
(dp231
g94
g95
ssg83
g225
sg76
(lp232
S'cookies'
p233
asbag69
(g90
g71
NtRp234
(dp235
g74
(dp236
g101
g102
ssg83
g225
sg76
(lp237
S':'
asbag69
(g90
g71
NtRp238
(dp239
g74
(dp240
sg83
g225
sg76
(lp241
g69
(g70
g71
NtRp242
(dp243
g74
(dp244
g82
I5
ssg83
g238
sg76
(lp245
g69
(g78
g71
NtRp246
(dp247
g74
(dp248
g82
I4
ssg83
Nsg76
(lp249
g69
(g85
g71
NtRp250
(dp251
g74
(dp252
sg83
g246
sg76
(lp253
g69
(g90
g71
NtRp254
(dp255
g74
(dp256
g94
g95
ssg83
g250
sg76
(lp257
S'session_id_admin'
p258
asbag69
(g90
g71
NtRp259
(dp260
g74
(dp261
g101
g102
ssg83
g250
sg76
(lp262
S':'
asbag69
(g90
g71
NtRp263
(dp264
g74
(dp265
sg83
g250
sg76
(lp266
g69
(g70
g71
NtRp267
(dp268
g74
(dp269
g82
I4
ssg83
g263
sg76
(lp270
g69
(g78
g71
NtRp271
(dp272
g74
(dp273
g82
I3
ssg83
Nsg76
(lp274
g69
(g85
g71
NtRp275
(dp276
g74
(dp277
sg83
g271
sg76
(lp278
g69
(g90
g71
NtRp279
(dp280
g74
(dp281
g94
g95
ssg83
g275
sg76
(lp282
S'comment'
p283
asbag69
(g90
g71
NtRp284
(dp285
g74
(dp286
g101
g102
ssg83
g275
sg76
(lp287
S':'
asbag69
(g90
g71
NtRp288
(dp289
g74
(dp290
sg83
g275
sg76
(lp291
g69
(g70
g71
NtRp292
(dp293
g74
(dp294
g82
I3
ssg83
g288
sg76
(lp295
S''
asbasbasbag69
(g85
g71
NtRp296
(dp297
g74
(dp298
sg83
g271
sg76
(lp299
g69
(g90
g71
NtRp300
(dp301
g74
(dp302
g94
g95
ssg83
g296
sg76
(lp303
S'domain'
p304
asbag69
(g90
g71
NtRp305
(dp306
g74
(dp307
g101
g102
ssg83
g296
sg76
(lp308
S':'
asbag69
(g90
g71
NtRp309
(dp310
g74
(dp311
sg83
g296
sg76
(lp312
g69
(g70
g71
NtRp313
(dp314
g74
(dp315
g82
I3
ssg83
g309
sg76
(lp316
S''
asbasbasbag69
(g85
g71
NtRp317
(dp318
g74
(dp319
sg83
g271
sg76
(lp320
g69
(g90
g71
NtRp321
(dp322
g74
(dp323
g94
g95
ssg83
g317
sg76
(lp324
S'expires'
p325
asbag69
(g90
g71
NtRp326
(dp327
g74
(dp328
g101
g102
ssg83
g317
sg76
(lp329
S':'
asbag69
(g90
g71
NtRp330
(dp331
g74
(dp332
sg83
g317
sg76
(lp333
g69
(g70
g71
NtRp334
(dp335
g74
(dp336
g82
I3
ssg83
g330
sg76
(lp337
S''
asbasbasbag69
(g85
g71
NtRp338
(dp339
g74
(dp340
sg83
g271
sg76
(lp341
g69
(g90
g71
NtRp342
(dp343
g74
(dp344
g94
g95
ssg83
g338
sg76
(lp345
S'httponly'
p346
asbag69
(g90
g71
NtRp347
(dp348
g74
(dp349
g101
g102
ssg83
g338
sg76
(lp350
S':'
asbag69
(g90
g71
NtRp351
(dp352
g74
(dp353
sg83
g338
sg76
(lp354
g69
(g70
g71
NtRp355
(dp356
g74
(dp357
g82
I3
ssg83
g351
sg76
(lp358
S''
asbasbasbag69
(g85
g71
NtRp359
(dp360
g74
(dp361
sg83
g271
sg76
(lp362
g69
(g90
g71
NtRp363
(dp364
g74
(dp365
g94
g95
ssg83
g359
sg76
(lp366
S'max-age'
p367
asbag69
(g90
g71
NtRp368
(dp369
g74
(dp370
g101
g102
ssg83
g359
sg76
(lp371
S':'
asbag69
(g90
g71
NtRp372
(dp373
g74
(dp374
sg83
g359
sg76
(lp375
g69
(g70
g71
NtRp376
(dp377
g74
(dp378
g82
I3
ssg83
g372
sg76
(lp379
S''
asbasbasbag69
(g85
g71
NtRp380
(dp381
g74
(dp382
sg83
g271
sg76
(lp383
g69
(g90
g71
NtRp384
(dp385
g74
(dp386
g94
g95
ssg83
g380
sg76
(lp387
S'path'
p388
asbag69
(g90
g71
NtRp389
(dp390
g74
(dp391
g101
g102
ssg83
g380
sg76
(lp392
S':'
asbag69
(g90
g71
NtRp393
(dp394
g74
(dp395
sg83
g380
sg76
(lp396
g69
(g70
g71
NtRp397
(dp398
g74
(dp399
g82
I3
ssg83
g393
sg76
(lp400
S''
asbasbasbag69
(g85
g71
NtRp401
(dp402
g74
(dp403
sg83
g271
sg76
(lp404
g69
(g90
g71
NtRp405
(dp406
g74
(dp407
g94
g95
ssg83
g401
sg76
(lp408
S'secure'
p409
asbag69
(g90
g71
NtRp410
(dp411
g74
(dp412
g101
g102
ssg83
g401
sg76
(lp413
S':'
asbag69
(g90
g71
NtRp414
(dp415
g74
(dp416
sg83
g401
sg76
(lp417
g69
(g70
g71
NtRp418
(dp419
g74
(dp420
g82
I3
ssg83
g414
sg76
(lp421
S''
asbasbasbag69
(g85
g71
NtRp422
(dp423
g74
(dp424
sg83
g271
sg76
(lp425
g69
(g90
g71
NtRp426
(dp427
g74
(dp428
g94
g95
ssg83
g422
sg76
(lp429
S'version'
p430
asbag69
(g90
g71
NtRp431
(dp432
g74
(dp433
g101
g102
ssg83
g422
sg76
(lp434
S':'
asbag69
(g90
g71
NtRp435
(dp436
g74
(dp437
sg83
g422
sg76
(lp438
g69
(g70
g71
NtRp439
(dp440
g74
(dp441
g82
I3
ssg83
g435
sg76
(lp442
S''
asbasbasbasbasbasbasbag69
(g85
g71
NtRp443
(dp444
g74
(dp445
sg83
g246
sg76
(lp446
g69
(g90
g71
NtRp447
(dp448
g74
(dp449
g94
g95
ssg83
g443
sg76
(lp450
S'session_id_paideia'
p451
asbag69
(g90
g71
NtRp452
(dp453
g74
(dp454
g101
g102
ssg83
g443
sg76
(lp455
S':'
asbag69
(g90
g71
NtRp456
(dp457
g74
(dp458
sg83
g443
sg76
(lp459
g69
(g70
g71
NtRp460
(dp461
g74
(dp462
g82
I4
ssg83
g456
sg76
(lp463
g69
(g78
g71
NtRp464
(dp465
g74
(dp466
g82
I3
ssg83
Nsg76
(lp467
g69
(g85
g71
NtRp468
(dp469
g74
(dp470
sg83
g464
sg76
(lp471
g69
(g90
g71
NtRp472
(dp473
g74
(dp474
g94
g95
ssg83
g468
sg76
(lp475
g283
asbag69
(g90
g71
NtRp476
(dp477
g74
(dp478
g101
g102
ssg83
g468
sg76
(lp479
S':'
asbag69
(g90
g71
NtRp480
(dp481
g74
(dp482
sg83
g468
sg76
(lp483
g69
(g70
g71
NtRp484
(dp485
g74
(dp486
g82
I3
ssg83
g480
sg76
(lp487
S''
asbasbasbag69
(g85
g71
NtRp488
(dp489
g74
(dp490
sg83
g464
sg76
(lp491
g69
(g90
g71
NtRp492
(dp493
g74
(dp494
g94
g95
ssg83
g488
sg76
(lp495
g304
asbag69
(g90
g71
NtRp496
(dp497
g74
(dp498
g101
g102
ssg83
g488
sg76
(lp499
S':'
asbag69
(g90
g71
NtRp500
(dp501
g74
(dp502
sg83
g488
sg76
(lp503
g69
(g70
g71
NtRp504
(dp505
g74
(dp506
g82
I3
ssg83
g500
sg76
(lp507
S''
asbasbasbag69
(g85
g71
NtRp508
(dp509
g74
(dp510
sg83
g464
sg76
(lp511
g69
(g90
g71
NtRp512
(dp513
g74
(dp514
g94
g95
ssg83
g508
sg76
(lp515
g325
asbag69
(g90
g71
NtRp516
(dp517
g74
(dp518
g101
g102
ssg83
g508
sg76
(lp519
S':'
asbag69
(g90
g71
NtRp520
(dp521
g74
(dp522
sg83
g508
sg76
(lp523
g69
(g70
g71
NtRp524
(dp525
g74
(dp526
g82
I3
ssg83
g520
sg76
(lp527
S''
asbasbasbag69
(g85
g71
NtRp528
(dp529
g74
(dp530
sg83
g464
sg76
(lp531
g69
(g90
g71
NtRp532
(dp533
g74
(dp534
g94
g95
ssg83
g528
sg76
(lp535
g346
asbag69
(g90
g71
NtRp536
(dp537
g74
(dp538
g101
g102
ssg83
g528
sg76
(lp539
S':'
asbag69
(g90
g71
NtRp540
(dp541
g74
(dp542
sg83
g528
sg76
(lp543
g69
(g70
g71
NtRp544
(dp545
g74
(dp546
g82
I3
ssg83
g540
sg76
(lp547
S''
asbasbasbag69
(g85
g71
NtRp548
(dp549
g74
(dp550
sg83
g464
sg76
(lp551
g69
(g90
g71
NtRp552
(dp553
g74
(dp554
g94
g95
ssg83
g548
sg76
(lp555
g367
asbag69
(g90
g71
NtRp556
(dp557
g74
(dp558
g101
g102
ssg83
g548
sg76
(lp559
S':'
asbag69
(g90
g71
NtRp560
(dp561
g74
(dp562
sg83
g548
sg76
(lp563
g69
(g70
g71
NtRp564
(dp565
g74
(dp566
g82
I3
ssg83
g560
sg76
(lp567
S''
asbasbasbag69
(g85
g71
NtRp568
(dp569
g74
(dp570
sg83
g464
sg76
(lp571
g69
(g90
g71
NtRp572
(dp573
g74
(dp574
g94
g95
ssg83
g568
sg76
(lp575
g388
asbag69
(g90
g71
NtRp576
(dp577
g74
(dp578
g101
g102
ssg83
g568
sg76
(lp579
S':'
asbag69
(g90
g71
NtRp580
(dp581
g74
(dp582
sg83
g568
sg76
(lp583
g69
(g70
g71
NtRp584
(dp585
g74
(dp586
g82
I3
ssg83
g580
sg76
(lp587
S''
asbasbasbag69
(g85
g71
NtRp588
(dp589
g74
(dp590
sg83
g464
sg76
(lp591
g69
(g90
g71
NtRp592
(dp593
g74
(dp594
g94
g95
ssg83
g588
sg76
(lp595
g409
asbag69
(g90
g71
NtRp596
(dp597
g74
(dp598
g101
g102
ssg83
g588
sg76
(lp599
S':'
asbag69
(g90
g71
NtRp600
(dp601
g74
(dp602
sg83
g588
sg76
(lp603
g69
(g70
g71
NtRp604
(dp605
g74
(dp606
g82
I3
ssg83
g600
sg76
(lp607
S''
asbasbasbag69
(g85
g71
NtRp608
(dp609
g74
(dp610
sg83
g464
sg76
(lp611
g69
(g90
g71
NtRp612
(dp613
g74
(dp614
g94
g95
ssg83
g608
sg76
(lp615
g430
asbag69
(g90
g71
NtRp616
(dp617
g74
(dp618
g101
g102
ssg83
g608
sg76
(lp619
S':'
asbag69
(g90
g71
NtRp620
(dp621
g74
(dp622
sg83
g608
sg76
(lp623
g69
(g70
g71
NtRp624
(dp625
g74
(dp626
g82
I3
ssg83
g620
sg76
(lp627
S''
asbasbasbasbasbasbasbag69
(g85
g71
NtRp628
(dp629
g74
(dp630
sg83
g246
sg76
(lp631
g69
(g90
g71
NtRp632
(dp633
g74
(dp634
g94
g95
ssg83
g628
sg76
(lp635
S'session_id_welcome'
p636
asbag69
(g90
g71
NtRp637
(dp638
g74
(dp639
g101
g102
ssg83
g628
sg76
(lp640
S':'
asbag69
(g90
g71
NtRp641
(dp642
g74
(dp643
sg83
g628
sg76
(lp644
g69
(g70
g71
NtRp645
(dp646
g74
(dp647
g82
I4
ssg83
g641
sg76
(lp648
g69
(g78
g71
NtRp649
(dp650
g74
(dp651
g82
I3
ssg83
Nsg76
(lp652
g69
(g85
g71
NtRp653
(dp654
g74
(dp655
sg83
g649
sg76
(lp656
g69
(g90
g71
NtRp657
(dp658
g74
(dp659
g94
g95
ssg83
g653
sg76
(lp660
g283
asbag69
(g90
g71
NtRp661
(dp662
g74
(dp663
g101
g102
ssg83
g653
sg76
(lp664
S':'
asbag69
(g90
g71
NtRp665
(dp666
g74
(dp667
sg83
g653
sg76
(lp668
g69
(g70
g71
NtRp669
(dp670
g74
(dp671
g82
I3
ssg83
g665
sg76
(lp672
S''
asbasbasbag69
(g85
g71
NtRp673
(dp674
g74
(dp675
sg83
g649
sg76
(lp676
g69
(g90
g71
NtRp677
(dp678
g74
(dp679
g94
g95
ssg83
g673
sg76
(lp680
g304
asbag69
(g90
g71
NtRp681
(dp682
g74
(dp683
g101
g102
ssg83
g673
sg76
(lp684
S':'
asbag69
(g90
g71
NtRp685
(dp686
g74
(dp687
sg83
g673
sg76
(lp688
g69
(g70
g71
NtRp689
(dp690
g74
(dp691
g82
I3
ssg83
g685
sg76
(lp692
S''
asbasbasbag69
(g85
g71
NtRp693
(dp694
g74
(dp695
sg83
g649
sg76
(lp696
g69
(g90
g71
NtRp697
(dp698
g74
(dp699
g94
g95
ssg83
g693
sg76
(lp700
g325
asbag69
(g90
g71
NtRp701
(dp702
g74
(dp703
g101
g102
ssg83
g693
sg76
(lp704
S':'
asbag69
(g90
g71
NtRp705
(dp706
g74
(dp707
sg83
g693
sg76
(lp708
g69
(g70
g71
NtRp709
(dp710
g74
(dp711
g82
I3
ssg83
g705
sg76
(lp712
S''
asbasbasbag69
(g85
g71
NtRp713
(dp714
g74
(dp715
sg83
g649
sg76
(lp716
g69
(g90
g71
NtRp717
(dp718
g74
(dp719
g94
g95
ssg83
g713
sg76
(lp720
g346
asbag69
(g90
g71
NtRp721
(dp722
g74
(dp723
g101
g102
ssg83
g713
sg76
(lp724
S':'
asbag69
(g90
g71
NtRp725
(dp726
g74
(dp727
sg83
g713
sg76
(lp728
g69
(g70
g71
NtRp729
(dp730
g74
(dp731
g82
I3
ssg83
g725
sg76
(lp732
S''
asbasbasbag69
(g85
g71
NtRp733
(dp734
g74
(dp735
sg83
g649
sg76
(lp736
g69
(g90
g71
NtRp737
(dp738
g74
(dp739
g94
g95
ssg83
g733
sg76
(lp740
g367
asbag69
(g90
g71
NtRp741
(dp742
g74
(dp743
g101
g102
ssg83
g733
sg76
(lp744
S':'
asbag69
(g90
g71
NtRp745
(dp746
g74
(dp747
sg83
g733
sg76
(lp748
g69
(g70
g71
NtRp749
(dp750
g74
(dp751
g82
I3
ssg83
g745
sg76
(lp752
S''
asbasbasbag69
(g85
g71
NtRp753
(dp754
g74
(dp755
sg83
g649
sg76
(lp756
g69
(g90
g71
NtRp757
(dp758
g74
(dp759
g94
g95
ssg83
g753
sg76
(lp760
g388
asbag69
(g90
g71
NtRp761
(dp762
g74
(dp763
g101
g102
ssg83
g753
sg76
(lp764
S':'
asbag69
(g90
g71
NtRp765
(dp766
g74
(dp767
sg83
g753
sg76
(lp768
g69
(g70
g71
NtRp769
(dp770
g74
(dp771
g82
I3
ssg83
g765
sg76
(lp772
S''
asbasbasbag69
(g85
g71
NtRp773
(dp774
g74
(dp775
sg83
g649
sg76
(lp776
g69
(g90
g71
NtRp777
(dp778
g74
(dp779
g94
g95
ssg83
g773
sg76
(lp780
g409
asbag69
(g90
g71
NtRp781
(dp782
g74
(dp783
g101
g102
ssg83
g773
sg76
(lp784
S':'
asbag69
(g90
g71
NtRp785
(dp786
g74
(dp787
sg83
g773
sg76
(lp788
g69
(g70
g71
NtRp789
(dp790
g74
(dp791
g82
I3
ssg83
g785
sg76
(lp792
S''
asbasbasbag69
(g85
g71
NtRp793
(dp794
g74
(dp795
sg83
g649
sg76
(lp796
g69
(g90
g71
NtRp797
(dp798
g74
(dp799
g94
g95
ssg83
g793
sg76
(lp800
g430
asbag69
(g90
g71
NtRp801
(dp802
g74
(dp803
g101
g102
ssg83
g793
sg76
(lp804
S':'
asbag69
(g90
g71
NtRp805
(dp806
g74
(dp807
sg83
g793
sg76
(lp808
g69
(g70
g71
NtRp809
(dp810
g74
(dp811
g82
I3
ssg83
g805
sg76
(lp812
S''
asbasbasbasbasbasbasbasbasbasbasbag69
(g85
g71
NtRp813
(dp814
g74
(dp815
sg83
g79
sg76
(lp816
g69
(g90
g71
NtRp817
(dp818
g74
(dp819
g94
g95
ssg83
g813
sg76
(lp820
S'env'
p821
asbag69
(g90
g71
NtRp822
(dp823
g74
(dp824
g101
g102
ssg83
g813
sg76
(lp825
S':'
asbag69
(g90
g71
NtRp826
(dp827
g74
(dp828
sg83
g813
sg76
(lp829
g69
(g70
g71
NtRp830
(dp831
g74
(dp832
g82
I5
ssg83
g826
sg76
(lp833
g69
(g78
g71
NtRp834
(dp835
g74
(dp836
g82
I4
ssg83
Nsg76
(lp837
g69
(g85
g71
NtRp838
(dp839
g74
(dp840
sg83
g834
sg76
(lp841
g69
(g90
g71
NtRp842
(dp843
g74
(dp844
g94
g95
ssg83
g838
sg76
(lp845
S'app_folders'
p846
asbag69
(g90
g71
NtRp847
(dp848
g74
(dp849
g101
g102
ssg83
g838
sg76
(lp850
S':'
asbag69
(g90
g71
NtRp851
(dp852
g74
(dp853
sg83
g838
sg76
(lp854
g69
(g70
g71
NtRp855
(dp856
g74
(dp857
g82
I4
ssg83
g851
sg76
(lp858
S"set(['/home/ian/web/web2py/applications/welcome/', '/home/ian/web/web2py/applications/paideia/', '/home/ian/web/web2py/applications/admin/'])"
p859
asbasbasbag69
(g85
g71
NtRp860
(dp861
g74
(dp862
sg83
g834
sg76
(lp863
g69
(g90
g71
NtRp864
(dp865
g74
(dp866
g94
g95
ssg83
g860
sg76
(lp867
S'applications_parent'
p868
asbag69
(g90
g71
NtRp869
(dp870
g74
(dp871
g101
g102
ssg83
g860
sg76
(lp872
S':'
asbag69
(g90
g71
NtRp873
(dp874
g74
(dp875
sg83
g860
sg76
(lp876
g69
(g70
g71
NtRp877
(dp878
g74
(dp879
g82
I4
ssg83
g873
sg76
(lp880
S'/home/ian/web/web2py'
p881
asbasbasbag69
(g85
g71
NtRp882
(dp883
g74
(dp884
sg83
g834
sg76
(lp885
g69
(g90
g71
NtRp886
(dp887
g74
(dp888
g94
g95
ssg83
g882
sg76
(lp889
S'cmd_args'
p890
asbag69
(g90
g71
NtRp891
(dp892
g74
(dp893
g101
g102
ssg83
g882
sg76
(lp894
S':'
asbag69
(g90
g71
NtRp895
(dp896
g74
(dp897
sg83
g882
sg76
(lp898
g69
(g70
g71
NtRp899
(dp900
g74
(dp901
g82
I4
ssg83
g895
sg76
(lp902
g69
(g78
g71
NtRp903
(dp904
g74
(dp905
g82
I3
ssg83
Nsg76
(lp906
sbasbasbasbag69
(g85
g71
NtRp907
(dp908
g74
(dp909
sg83
g834
sg76
(lp910
g69
(g90
g71
NtRp911
(dp912
g74
(dp913
g94
g95
ssg83
g907
sg76
(lp914
S'cmd_options'
p915
asbag69
(g90
g71
NtRp916
(dp917
g74
(dp918
g101
g102
ssg83
g907
sg76
(lp919
S':'
asbag69
(g90
g71
NtRp920
(dp921
g74
(dp922
sg83
g907
sg76
(lp923
g69
(g70
g71
NtRp924
(dp925
g74
(dp926
g82
I4
ssg83
g920
sg76
(lp927
S"<Values at 0x153a758: {'verbose': False, 'ip': '127.0.0.1', 'shutdown_timeout': 5, 'taskbar': False, 'nocron': False, 'pid_filename': 'httpserver.pid', 'maxthreads': None, 'softcron': False, 'server_name': 'uriel', 'bpython': False, 'nogui': False, 'port': 8000, 'extcron': False, 'debuglevel': 30, 'test': None, 'folder': '/home/ian/web/web2py', 'config': '', 'import_models': False, 'winservice': '', 'shell': None, 'run': '', 'log_filename': 'httpserver.log', 'args': [''], 'socket_timeout': 1, 'ssl_ca_certificate': None, 'scheduler': None, 'profiler_filename': None, 'ssl_private_key': '', 'password': '<ask>', 'request_queue_size': 5, 'ssl_certificate': '', 'cronjob': False, 'numthreads': None, 'quiet': False, 'interfaces': None, 'minthreads': None, 'timeout': 10, 'plain': False, 'nobanner': False}>"
p928
asbasbasbag69
(g85
g71
NtRp929
(dp930
g74
(dp931
sg83
g834
sg76
(lp932
g69
(g90
g71
NtRp933
(dp934
g74
(dp935
g94
g95
ssg83
g929
sg76
(lp936
S'db_sessions'
p937
asbag69
(g90
g71
NtRp938
(dp939
g74
(dp940
g101
g102
ssg83
g929
sg76
(lp941
S':'
asbag69
(g90
g71
NtRp942
(dp943
g74
(dp944
sg83
g929
sg76
(lp945
g69
(g70
g71
NtRp946
(dp947
g74
(dp948
g82
I4
ssg83
g942
sg76
(lp949
S'set([])'
p950
asbasbasbag69
(g85
g71
NtRp951
(dp952
g74
(dp953
sg83
g834
sg76
(lp954
g69
(g90
g71
NtRp955
(dp956
g74
(dp957
g94
g95
ssg83
g951
sg76
(lp958
S'debugging'
p959
asbag69
(g90
g71
NtRp960
(dp961
g74
(dp962
g101
g102
ssg83
g951
sg76
(lp963
S':'
asbag69
(g90
g71
NtRp964
(dp965
g74
(dp966
sg83
g951
sg76
(lp967
g69
(g70
g71
NtRp968
(dp969
g74
(dp970
g82
I4
ssg83
g964
sg76
(lp971
g112
asbasbasbag69
(g85
g71
NtRp972
(dp973
g74
(dp974
sg83
g834
sg76
(lp975
g69
(g90
g71
NtRp976
(dp977
g74
(dp978
g94
g95
ssg83
g972
sg76
(lp979
S'gluon_parent'
p980
asbag69
(g90
g71
NtRp981
(dp982
g74
(dp983
g101
g102
ssg83
g972
sg76
(lp984
S':'
asbag69
(g90
g71
NtRp985
(dp986
g74
(dp987
sg83
g972
sg76
(lp988
g69
(g70
g71
NtRp989
(dp990
g74
(dp991
g82
I4
ssg83
g985
sg76
(lp992
S'/home/ian/web/web2py'
p993
asbasbasbag69
(g85
g71
NtRp994
(dp995
g74
(dp996
sg83
g834
sg76
(lp997
g69
(g90
g71
NtRp998
(dp999
g74
(dp1000
g94
g95
ssg83
g994
sg76
(lp1001
S'http_accept'
p1002
asbag69
(g90
g71
NtRp1003
(dp1004
g74
(dp1005
g101
g102
ssg83
g994
sg76
(lp1006
S':'
asbag69
(g90
g71
NtRp1007
(dp1008
g74
(dp1009
sg83
g994
sg76
(lp1010
g69
(g70
g71
NtRp1011
(dp1012
g74
(dp1013
g82
I4
ssg83
g1007
sg76
(lp1014
S'text/html,application/xhtml+xml,application/xml;q=0.9,*/*;q=0.8'
p1015
asbasbasbag69
(g85
g71
NtRp1016
(dp1017
g74
(dp1018
sg83
g834
sg76
(lp1019
g69
(g90
g71
NtRp1020
(dp1021
g74
(dp1022
g94
g95
ssg83
g1016
sg76
(lp1023
S'http_accept_encoding'
p1024
asbag69
(g90
g71
NtRp1025
(dp1026
g74
(dp1027
g101
g102
ssg83
g1016
sg76
(lp1028
S':'
asbag69
(g90
g71
NtRp1029
(dp1030
g74
(dp1031
sg83
g1016
sg76
(lp1032
g69
(g70
g71
NtRp1033
(dp1034
g74
(dp1035
g82
I4
ssg83
g1029
sg76
(lp1036
S'gzip, deflate'
p1037
asbasbasbag69
(g85
g71
NtRp1038
(dp1039
g74
(dp1040
sg83
g834
sg76
(lp1041
g69
(g90
g71
NtRp1042
(dp1043
g74
(dp1044
g94
g95
ssg83
g1038
sg76
(lp1045
S'http_accept_language'
p1046
asbag69
(g90
g71
NtRp1047
(dp1048
g74
(dp1049
g101
g102
ssg83
g1038
sg76
(lp1050
S':'
asbag69
(g90
g71
NtRp1051
(dp1052
g74
(dp1053
sg83
g1038
sg76
(lp1054
g69
(g70
g71
NtRp1055
(dp1056
g74
(dp1057
g82
I4
ssg83
g1051
sg76
(lp1058
S'en-us,en;q=0.5'
p1059
asbasbasbag69
(g85
g71
NtRp1060
(dp1061
g74
(dp1062
sg83
g834
sg76
(lp1063
g69
(g90
g71
NtRp1064
(dp1065
g74
(dp1066
g94
g95
ssg83
g1060
sg76
(lp1067
S'http_cache_control'
p1068
asbag69
(g90
g71
NtRp1069
(dp1070
g74
(dp1071
g101
g102
ssg83
g1060
sg76
(lp1072
S':'
asbag69
(g90
g71
NtRp1073
(dp1074
g74
(dp1075
sg83
g1060
sg76
(lp1076
g69
(g70
g71
NtRp1077
(dp1078
g74
(dp1079
g82
I4
ssg83
g1073
sg76
(lp1080
S'max-age=0'
p1081
asbasbasbag69
(g85
g71
NtRp1082
(dp1083
g74
(dp1084
sg83
g834
sg76
(lp1085
g69
(g90
g71
NtRp1086
(dp1087
g74
(dp1088
g94
g95
ssg83
g1082
sg76
(lp1089
S'http_connection'
p1090
asbag69
(g90
g71
NtRp1091
(dp1092
g74
(dp1093
g101
g102
ssg83
g1082
sg76
(lp1094
S':'
asbag69
(g90
g71
NtRp1095
(dp1096
g74
(dp1097
sg83
g1082
sg76
(lp1098
g69
(g70
g71
NtRp1099
(dp1100
g74
(dp1101
g82
I4
ssg83
g1095
sg76
(lp1102
S'keep-alive'
p1103
asbasbasbag69
(g85
g71
NtRp1104
(dp1105
g74
(dp1106
sg83
g834
sg76
(lp1107
g69
(g90
g71
NtRp1108
(dp1109
g74
(dp1110
g94
g95
ssg83
g1104
sg76
(lp1111
S'http_cookie'
p1112
asbag69
(g90
g71
NtRp1113
(dp1114
g74
(dp1115
g101
g102
ssg83
g1104
sg76
(lp1116
S':'
asbag69
(g90
g71
NtRp1117
(dp1118
g74
(dp1119
sg83
g1104
sg76
(lp1120
g69
(g70
g71
NtRp1121
(dp1122
g74
(dp1123
g82
I4
ssg83
g1117
sg76
(lp1124
S'session_id_paideia=127.0.0.1-d6bcece8-2742-4dcd-9d50-e8b957d71ddc; session_id_welcome=127.0.0.1-9131d3f1-8a05-462c-a854-ee63f51d0c0b; session_id_admin=127.0.0.1-d7f27347-1683-493e-9ad2-f8b58271b151'
p1125
asbasbasbag69
(g85
g71
NtRp1126
(dp1127
g74
(dp1128
sg83
g834
sg76
(lp1129
g69
(g90
g71
NtRp1130
(dp1131
g74
(dp1132
g94
g95
ssg83
g1126
sg76
(lp1133
S'http_host'
p1134
asbag69
(g90
g71
NtRp1135
(dp1136
g74
(dp1137
g101
g102
ssg83
g1126
sg76
(lp1138
S':'
asbag69
(g90
g71
NtRp1139
(dp1140
g74
(dp1141
sg83
g1126
sg76
(lp1142
g69
(g70
g71
NtRp1143
(dp1144
g74
(dp1145
g82
I4
ssg83
g1139
sg76
(lp1146
S'127.0.0.1:8000'
p1147
asbasbasbag69
(g85
g71
NtRp1148
(dp1149
g74
(dp1150
sg83
g834
sg76
(lp1151
g69
(g90
g71
NtRp1152
(dp1153
g74
(dp1154
g94
g95
ssg83
g1148
sg76
(lp1155
S'http_referer'
p1156
asbag69
(g90
g71
NtRp1157
(dp1158
g74
(dp1159
g101
g102
ssg83
g1148
sg76
(lp1160
S':'
asbag69
(g90
g71
NtRp1161
(dp1162
g74
(dp1163
sg83
g1148
sg76
(lp1164
g69
(g70
g71
NtRp1165
(dp1166
g74
(dp1167
g82
I4
ssg83
g1161
sg76
(lp1168
S'http://127.0.0.1:8000/paideia'
p1169
asbasbasbag69
(g85
g71
NtRp1170
(dp1171
g74
(dp1172
sg83
g834
sg76
(lp1173
g69
(g90
g71
NtRp1174
(dp1175
g74
(dp1176
g94
g95
ssg83
g1170
sg76
(lp1177
S'http_user_agent'
p1178
asbag69
(g90
g71
NtRp1179
(dp1180
g74
(dp1181
g101
g102
ssg83
g1170
sg76
(lp1182
S':'
asbag69
(g90
g71
NtRp1183
(dp1184
g74
(dp1185
sg83
g1170
sg76
(lp1186
g69
(g70
g71
NtRp1187
(dp1188
g74
(dp1189
g82
I4
ssg83
g1183
sg76
(lp1190
S'Mozilla/5.0 (X11; Ubuntu; Linux x86_64; rv:11.0) Gecko/20100101 Firefox/11.0 openid'
p1191
asbasbasbag69
(g85
g71
NtRp1192
(dp1193
g74
(dp1194
sg83
g834
sg76
(lp1195
g69
(g90
g71
NtRp1196
(dp1197
g74
(dp1198
g94
g95
ssg83
g1192
sg76
(lp1199
S'is_jython'
p1200
asbag69
(g90
g71
NtRp1201
(dp1202
g74
(dp1203
g101
g102
ssg83
g1192
sg76
(lp1204
S':'
asbag69
(g90
g71
NtRp1205
(dp1206
g74
(dp1207
sg83
g1192
sg76
(lp1208
g69
(g70
g71
NtRp1209
(dp1210
g74
(dp1211
g82
I4
ssg83
g1205
sg76
(lp1212
g112
asbasbasbag69
(g85
g71
NtRp1213
(dp1214
g74
(dp1215
sg83
g834
sg76
(lp1216
g69
(g90
g71
NtRp1217
(dp1218
g74
(dp1219
g94
g95
ssg83
g1213
sg76
(lp1220
S'is_pypy'
p1221
asbag69
(g90
g71
NtRp1222
(dp1223
g74
(dp1224
g101
g102
ssg83
g1213
sg76
(lp1225
S':'
asbag69
(g90
g71
NtRp1226
(dp1227
g74
(dp1228
sg83
g1213
sg76
(lp1229
g69
(g70
g71
NtRp1230
(dp1231
g74
(dp1232
g82
I4
ssg83
g1226
sg76
(lp1233
g112
asbasbasbag69
(g85
g71
NtRp1234
(dp1235
g74
(dp1236
sg83
g834
sg76
(lp1237
g69
(g90
g71
NtRp1238
(dp1239
g74
(dp1240
g94
g95
ssg83
g1234
sg76
(lp1241
S'path_info'
p1242
asbag69
(g90
g71
NtRp1243
(dp1244
g74
(dp1245
g101
g102
ssg83
g1234
sg76
(lp1246
S':'
asbag69
(g90
g71
NtRp1247
(dp1248
g74
(dp1249
sg83
g1234
sg76
(lp1250
g69
(g70
g71
NtRp1251
(dp1252
g74
(dp1253
g82
I4
ssg83
g1247
sg76
(lp1254
S'/paideia/exploring/index'
p1255
asbasbasbag69
(g85
g71
NtRp1256
(dp1257
g74
(dp1258
sg83
g834
sg76
(lp1259
g69
(g90
g71
NtRp1260
(dp1261
g74
(dp1262
g94
g95
ssg83
g1256
sg76
(lp1263
S'query_string'
p1264
asbag69
(g90
g71
NtRp1265
(dp1266
g74
(dp1267
g101
g102
ssg83
g1256
sg76
(lp1268
S':'
asbag69
(g90
g71
NtRp1269
(dp1270
g74
(dp1271
sg83
g1256
sg76
(lp1272
g69
(g70
g71
NtRp1273
(dp1274
g74
(dp1275
g82
I4
ssg83
g1269
sg76
(lp1276
S''
asbasbasbag69
(g85
g71
NtRp1277
(dp1278
g74
(dp1279
sg83
g834
sg76
(lp1280
g69
(g90
g71
NtRp1281
(dp1282
g74
(dp1283
g94
g95
ssg83
g1277
sg76
(lp1284
S'remote_addr'
p1285
asbag69
(g90
g71
NtRp1286
(dp1287
g74
(dp1288
g101
g102
ssg83
g1277
sg76
(lp1289
S':'
asbag69
(g90
g71
NtRp1290
(dp1291
g74
(dp1292
sg83
g1277
sg76
(lp1293
g69
(g70
g71
NtRp1294
(dp1295
g74
(dp1296
g82
I4
ssg83
g1290
sg76
(lp1297
g202
asbasbasbag69
(g85
g71
NtRp1298
(dp1299
g74
(dp1300
sg83
g834
sg76
(lp1301
g69
(g90
g71
NtRp1302
(dp1303
g74
(dp1304
g94
g95
ssg83
g1298
sg76
(lp1305
S'remote_port'
p1306
asbag69
(g90
g71
NtRp1307
(dp1308
g74
(dp1309
g101
g102
ssg83
g1298
sg76
(lp1310
S':'
asbag69
(g90
g71
NtRp1311
(dp1312
g74
(dp1313
sg83
g1298
sg76
(lp1314
g69
(g70
g71
NtRp1315
(dp1316
g74
(dp1317
g82
I4
ssg83
g1311
sg76
(lp1318
S'55737'
p1319
asbasbasbag69
(g85
g71
NtRp1320
(dp1321
g74
(dp1322
sg83
g834
sg76
(lp1323
g69
(g90
g71
NtRp1324
(dp1325
g74
(dp1326
g94
g95
ssg83
g1320
sg76
(lp1327
S'request_method'
p1328
asbag69
(g90
g71
NtRp1329
(dp1330
g74
(dp1331
g101
g102
ssg83
g1320
sg76
(lp1332
S':'
asbag69
(g90
g71
NtRp1333
(dp1334
g74
(dp1335
sg83
g1320
sg76
(lp1336
g69
(g70
g71
NtRp1337
(dp1338
g74
(dp1339
g82
I4
ssg83
g1333
sg76
(lp1340
S'GET'
p1341
asbasbasbag69
(g85
g71
NtRp1342
(dp1343
g74
(dp1344
sg83
g834
sg76
(lp1345
g69
(g90
g71
NtRp1346
(dp1347
g74
(dp1348
g94
g95
ssg83
g1342
sg76
(lp1349
S'script_name'
p1350
asbag69
(g90
g71
NtRp1351
(dp1352
g74
(dp1353
g101
g102
ssg83
g1342
sg76
(lp1354
S':'
asbag69
(g90
g71
NtRp1355
(dp1356
g74
(dp1357
sg83
g1342
sg76
(lp1358
g69
(g70
g71
NtRp1359
(dp1360
g74
(dp1361
g82
I4
ssg83
g1355
sg76
(lp1362
S''
asbasbasbag69
(g85
g71
NtRp1363
(dp1364
g74
(dp1365
sg83
g834
sg76
(lp1366
g69
(g90
g71
NtRp1367
(dp1368
g74
(dp1369
g94
g95
ssg83
g1363
sg76
(lp1370
S'server_name'
p1371
asbag69
(g90
g71
NtRp1372
(dp1373
g74
(dp1374
g101
g102
ssg83
g1363
sg76
(lp1375
S':'
asbag69
(g90
g71
NtRp1376
(dp1377
g74
(dp1378
sg83
g1363
sg76
(lp1379
g69
(g70
g71
NtRp1380
(dp1381
g74
(dp1382
g82
I4
ssg83
g1376
sg76
(lp1383
S'uriel'
p1384
asbasbasbag69
(g85
g71
NtRp1385
(dp1386
g74
(dp1387
sg83
g834
sg76
(lp1388
g69
(g90
g71
NtRp1389
(dp1390
g74
(dp1391
g94
g95
ssg83
g1385
sg76
(lp1392
S'server_port'
p1393
asbag69
(g90
g71
NtRp1394
(dp1395
g74
(dp1396
g101
g102
ssg83
g1385
sg76
(lp1397
S':'
asbag69
(g90
g71
NtRp1398
(dp1399
g74
(dp1400
sg83
g1385
sg76
(lp1401
g69
(g70
g71
NtRp1402
(dp1403
g74
(dp1404
g82
I4
ssg83
g1398
sg76
(lp1405
S'8000'
p1406
asbasbasbag69
(g85
g71
NtRp1407
(dp1408
g74
(dp1409
sg83
g834
sg76
(lp1410
g69
(g90
g71
NtRp1411
(dp1412
g74
(dp1413
g94
g95
ssg83
g1407
sg76
(lp1414
S'server_protocol'
p1415
asbag69
(g90
g71
NtRp1416
(dp1417
g74
(dp1418
g101
g102
ssg83
g1407
sg76
(lp1419
S':'
asbag69
(g90
g71
NtRp1420
(dp1421
g74
(dp1422
sg83
g1407
sg76
(lp1423
g69
(g70
g71
NtRp1424
(dp1425
g74
(dp1426
g82
I4
ssg83
g1420
sg76
(lp1427
S'HTTP/1.1'
p1428
asbasbasbag69
(g85
g71
NtRp1429
(dp1430
g74
(dp1431
sg83
g834
sg76
(lp1432
g69
(g90
g71
NtRp1433
(dp1434
g74
(dp1435
g94
g95
ssg83
g1429
sg76
(lp1436
S'server_software'
p1437
asbag69
(g90
g71
NtRp1438
(dp1439
g74
(dp1440
g101
g102
ssg83
g1429
sg76
(lp1441
S':'
asbag69
(g90
g71
NtRp1442
(dp1443
g74
(dp1444
sg83
g1429
sg76
(lp1445
g69
(g70
g71
NtRp1446
(dp1447
g74
(dp1448
g82
I4
ssg83
g1442
sg76
(lp1449
S'Rocket 1.2.4'
p1450
asbasbasbag69
(g85
g71
NtRp1451
(dp1452
g74
(dp1453
sg83
g834
sg76
(lp1454
g69
(g90
g71
NtRp1455
(dp1456
g74
(dp1457
g94
g95
ssg83
g1451
sg76
(lp1458
S'web2py_crontype'
p1459
asbag69
(g90
g71
NtRp1460
(dp1461
g74
(dp1462
g101
g102
ssg83
g1451
sg76
(lp1463
S':'
asbag69
(g90
g71
NtRp1464
(dp1465
g74
(dp1466
sg83
g1451
sg76
(lp1467
g69
(g70
g71
NtRp1468
(dp1469
g74
(dp1470
g82
I4
ssg83
g1464
sg76
(lp1471
S'hard'
p1472
asbasbasbag69
(g85
g71
NtRp1473
(dp1474
g74
(dp1475
sg83
g834
sg76
(lp1476
g69
(g90
g71
NtRp1477
(dp1478
g74
(dp1479
g94
g95
ssg83
g1473
sg76
(lp1480
S'web2py_path'
p1481
asbag69
(g90
g71
NtRp1482
(dp1483
g74
(dp1484
g101
g102
ssg83
g1473
sg76
(lp1485
S':'
asbag69
(g90
g71
NtRp1486
(dp1487
g74
(dp1488
sg83
g1473
sg76
(lp1489
g69
(g70
g71
NtRp1490
(dp1491
g74
(dp1492
g82
I4
ssg83
g1486
sg76
(lp1493
g881
asbasbasbag69
(g85
g71
NtRp1494
(dp1495
g74
(dp1496
sg83
g834
sg76
(lp1497
g69
(g90
g71
NtRp1498
(dp1499
g74
(dp1500
g94
g95
ssg83
g1494
sg76
(lp1501
S'web2py_version'
p1502
asbag69
(g90
g71
NtRp1503
(dp1504
g74
(dp1505
g101
g102
ssg83
g1494
sg76
(lp1506
S':'
asbag69
(g90
g71
NtRp1507
(dp1508
g74
(dp1509
sg83
g1494
sg76
(lp1510
g69
(g70
g71
NtRp1511
(dp1512
g74
(dp1513
g82
I4
ssg83
g1507
sg76
(lp1514
g69
(g78
g71
NtRp1515
(dp1516
g74
(dp1517
g82
I3
ssg83
Nsg76
(lp1518
g69
(g85
g71
NtRp1519
(dp1520
g74
(dp1521
sg83
g1515
sg76
(lp1522
g69
(g90
g71
NtRp1523
(dp1524
g74
(dp1525
sg83
g1519
sg76
(lp1526
g69
(g70
g71
NtRp1527
(dp1528
g74
(dp1529
g82
I3
ssg83
g1523
sg76
(lp1530
S'1'
asbasbasbag69
(g85
g71
NtRp1531
(dp1532
g74
(dp1533
sg83
g1515
sg76
(lp1534
g69
(g90
g71
NtRp1535
(dp1536
g74
(dp1537
sg83
g1531
sg76
(lp1538
g69
(g70
g71
NtRp1539
(dp1540
g74
(dp1541
g82
I3
ssg83
g1535
sg76
(lp1542
S'99'
p1543
asbasbasbag69
(g85
g71
NtRp1544
(dp1545
g74
(dp1546
sg83
g1515
sg76
(lp1547
g69
(g90
g71
NtRp1548
(dp1549
g74
(dp1550
sg83
g1544
sg76
(lp1551
g69
(g70
g71
NtRp1552
(dp1553
g74
(dp1554
g82
I3
ssg83
g1548
sg76
(lp1555
S'4'
asbasbasbag69
(g85
g71
NtRp1556
(dp1557
g74
(dp1558
sg83
g1515
sg76
(lp1559
g69
(g90
g71
NtRp1560
(dp1561
g74
(dp1562
sg83
g1556
sg76
(lp1563
g69
(g70
g71
NtRp1564
(dp1565
g74
(dp1566
g82
I3
ssg83
g1560
sg76
(lp1567
S'datetime.datetime(2011, 12, 14, 14, 46, 14)'
p1568
asbasbasbag69
(g85
g71
NtRp1569
(dp1570
g74
(dp1571
sg83
g1515
sg76
(lp1572
g69
(g90
g71
NtRp1573
(dp1574
g74
(dp1575
sg83
g1569
sg76
(lp1576
g69
(g70
g71
NtRp1577
(dp1578
g74
(dp1579
g82
I3
ssg83
g1573
sg76
(lp1580
S'stable'
p1581
asbasbasbasbasbasbasbag69
(g85
g71
NtRp1582
(dp1583
g74
(dp1584
sg83
g834
sg76
(lp1585
g69
(g90
g71
NtRp1586
(dp1587
g74
(dp1588
g94
g95
ssg83
g1582
sg76
(lp1589
S'wsgi_errors'
p1590
asbag69
(g90
g71
NtRp1591
(dp1592
g74
(dp1593
g101
g102
ssg83
g1582
sg76
(lp1594
S':'
asbag69
(g90
g71
NtRp1595
(dp1596
g74
(dp1597
sg83
g1582
sg76
(lp1598
g69
(g70
g71
NtRp1599
(dp1600
g74
(dp1601
g82
I4
ssg83
g1595
sg76
(lp1602
S"<open file '<stderr>', mode 'w' at 0x7feb9a13b270>"
p1603
asbasbasbag69
(g85
g71
NtRp1604
(dp1605
g74
(dp1606
sg83
g834
sg76
(lp1607
g69
(g90
g71
NtRp1608
(dp1609
g74
(dp1610
g94
g95
ssg83
g1604
sg76
(lp1611
S'wsgi_file_wrapper'
p1612
asbag69
(g90
g71
NtRp1613
(dp1614
g74
(dp1615
g101
g102
ssg83
g1604
sg76
(lp1616
S':'
asbag69
(g90
g71
NtRp1617
(dp1618
g74
(dp1619
sg83
g1604
sg76
(lp1620
g69
(g70
g71
NtRp1621
(dp1622
g74
(dp1623
g82
I4
ssg83
g1617
sg76
(lp1624
S'<class wsgiref.util.FileWrapper at 0x1404d50>'
p1625
asbasbasbag69
(g85
g71
NtRp1626
(dp1627
g74
(dp1628
sg83
g834
sg76
(lp1629
g69
(g90
g71
NtRp1630
(dp1631
g74
(dp1632
g94
g95
ssg83
g1626
sg76
(lp1633
S'wsgi_input'
p1634
asbag69
(g90
g71
NtRp1635
(dp1636
g74
(dp1637
g101
g102
ssg83
g1626
sg76
(lp1638
S':'
asbag69
(g90
g71
NtRp1639
(dp1640
g74
(dp1641
sg83
g1626
sg76
(lp1642
g69
(g70
g71
NtRp1643
(dp1644
g74
(dp1645
g82
I4
ssg83
g1639
sg76
(lp1646
S'<socket._fileobject object at 0x7feb6023d750>'
p1647
asbasbasbag69
(g85
g71
NtRp1648
(dp1649
g74
(dp1650
sg83
g834
sg76
(lp1651
g69
(g90
g71
NtRp1652
(dp1653
g74
(dp1654
g94
g95
ssg83
g1648
sg76
(lp1655
S'wsgi_multiprocess'
p1656
asbag69
(g90
g71
NtRp1657
(dp1658
g74
(dp1659
g101
g102
ssg83
g1648
sg76
(lp1660
S':'
asbag69
(g90
g71
NtRp1661
(dp1662
g74
(dp1663
sg83
g1648
sg76
(lp1664
g69
(g70
g71
NtRp1665
(dp1666
g74
(dp1667
g82
I4
ssg83
g1661
sg76
(lp1668
g112
asbasbasbag69
(g85
g71
NtRp1669
(dp1670
g74
(dp1671
sg83
g834
sg76
(lp1672
g69
(g90
g71
NtRp1673
(dp1674
g74
(dp1675
g94
g95
ssg83
g1669
sg76
(lp1676
S'wsgi_multithread'
p1677
asbag69
(g90
g71
NtRp1678
(dp1679
g74
(dp1680
g101
g102
ssg83
g1669
sg76
(lp1681
S':'
asbag69
(g90
g71
NtRp1682
(dp1683
g74
(dp1684
sg83
g1669
sg76
(lp1685
g69
(g70
g71
NtRp1686
(dp1687
g74
(dp1688
g82
I4
ssg83
g1682
sg76
(lp1689
S'True'
p1690
asbasbasbag69
(g85
g71
NtRp1691
(dp1692
g74
(dp1693
sg83
g834
sg76
(lp1694
g69
(g90
g71
NtRp1695
(dp1696
g74
(dp1697
g94
g95
ssg83
g1691
sg76
(lp1698
S'wsgi_run_once'
p1699
asbag69
(g90
g71
NtRp1700
(dp1701
g74
(dp1702
g101
g102
ssg83
g1691
sg76
(lp1703
S':'
asbag69
(g90
g71
NtRp1704
(dp1705
g74
(dp1706
sg83
g1691
sg76
(lp1707
g69
(g70
g71
NtRp1708
(dp1709
g74
(dp1710
g82
I4
ssg83
g1704
sg76
(lp1711
g112
asbasbasbag69
(g85
g71
NtRp1712
(dp1713
g74
(dp1714
sg83
g834
sg76
(lp1715
g69
(g90
g71
NtRp1716
(dp1717
g74
(dp1718
g94
g95
ssg83
g1712
sg76
(lp1719
S'wsgi_url_scheme'
p1720
asbag69
(g90
g71
NtRp1721
(dp1722
g74
(dp1723
g101
g102
ssg83
g1712
sg76
(lp1724
S':'
asbag69
(g90
g71
NtRp1725
(dp1726
g74
(dp1727
sg83
g1712
sg76
(lp1728
g69
(g70
g71
NtRp1729
(dp1730
g74
(dp1731
g82
I4
ssg83
g1725
sg76
(lp1732
S'http'
p1733
asbasbasbag69
(g85
g71
NtRp1734
(dp1735
g74
(dp1736
sg83
g834
sg76
(lp1737
g69
(g90
g71
NtRp1738
(dp1739
g74
(dp1740
g94
g95
ssg83
g1734
sg76
(lp1741
S'wsgi_version'
p1742
asbag69
(g90
g71
NtRp1743
(dp1744
g74
(dp1745
g101
g102
ssg83
g1734
sg76
(lp1746
S':'
asbag69
(g90
g71
NtRp1747
(dp1748
g74
(dp1749
sg83
g1734
sg76
(lp1750
g69
(g70
g71
NtRp1751
(dp1752
g74
(dp1753
g82
I4
ssg83
g1747
sg76
(lp1754
g69
(g78
g71
NtRp1755
(dp1756
g74
(dp1757
g82
I3
ssg83
Nsg76
(lp1758
g69
(g85
g71
NtRp1759
(dp1760
g74
(dp1761
sg83
g1755
sg76
(lp1762
g69
(g90
g71
NtRp1763
(dp1764
g74
(dp1765
sg83
g1759
sg76
(lp1766
g69
(g70
g71
NtRp1767
(dp1768
g74
(dp1769
g82
I3
ssg83
g1763
sg76
(lp1770
S'1'
asbasbasbag69
(g85
g71
NtRp1771
(dp1772
g74
(dp1773
sg83
g1755
sg76
(lp1774
g69
(g90
g71
NtRp1775
(dp1776
g74
(dp1777
sg83
g1771
sg76
(lp1778
g69
(g70
g71
NtRp1779
(dp1780
g74
(dp1781
g82
I3
ssg83
g1775
sg76
(lp1782
S'0'
asbasbasbasbasbasbasbasbasbasbasbag69
(g85
g71
NtRp1783
(dp1784
g74
(dp1785
sg83
g79
sg76
(lp1786
g69
(g90
g71
NtRp1787
(dp1788
g74
(dp1789
g94
g95
ssg83
g1783
sg76
(lp1790
S'extension'
p1791
asbag69
(g90
g71
NtRp1792
(dp1793
g74
(dp1794
g101
g102
ssg83
g1783
sg76
(lp1795
S':'
asbag69
(g90
g71
NtRp1796
(dp1797
g74
(dp1798
sg83
g1783
sg76
(lp1799
g69
(g70
g71
NtRp1800
(dp1801
g74
(dp1802
g82
I5
ssg83
g1796
sg76
(lp1803
S'html'
p1804
asbasbasbag69
(g85
g71
NtRp1805
(dp1806
g74
(dp1807
sg83
g79
sg76
(lp1808
g69
(g90
g71
NtRp1809
(dp1810
g74
(dp1811
g94
g95
ssg83
g1805
sg76
(lp1812
S'folder'
p1813
asbag69
(g90
g71
NtRp1814
(dp1815
g74
(dp1816
g101
g102
ssg83
g1805
sg76
(lp1817
S':'
asbag69
(g90
g71
NtRp1818
(dp1819
g74
(dp1820
sg83
g1805
sg76
(lp1821
g69
(g70
g71
NtRp1822
(dp1823
g74
(dp1824
g82
I5
ssg83
g1818
sg76
(lp1825
S'/home/ian/web/web2py/applications/paideia/'
p1826
asbasbasbag69
(g85
g71
NtRp1827
(dp1828
g74
(dp1829
sg83
g79
sg76
(lp1830
g69
(g90
g71
NtRp1831
(dp1832
g74
(dp1833
g94
g95
ssg83
g1827
sg76
(lp1834
S'function'
p1835
asbag69
(g90
g71
NtRp1836
(dp1837
g74
(dp1838
g101
g102
ssg83
g1827
sg76
(lp1839
S':'
asbag69
(g90
g71
NtRp1840
(dp1841
g74
(dp1842
sg83
g1827
sg76
(lp1843
g69
(g70
g71
NtRp1844
(dp1845
g74
(dp1846
g82
I5
ssg83
g1840
sg76
(lp1847
S'index'
p1848
asbasbasbag69
(g85
g71
NtRp1849
(dp1850
g74
(dp1851
sg83
g79
sg76
(lp1852
g69
(g90
g71
NtRp1853
(dp1854
g74
(dp1855
g94
g95
ssg83
g1849
sg76
(lp1856
S'get_vars'
p1857
asbag69
(g90
g71
NtRp1858
(dp1859
g74
(dp1860
g101
g102
ssg83
g1849
sg76
(lp1861
S':'
asbag69
(g90
g71
NtRp1862
(dp1863
g74
(dp1864
sg83
g1849
sg76
(lp1865
g69
(g70
g71
NtRp1866
(dp1867
g74
(dp1868
g82
I5
ssg83
g1862
sg76
(lp1869
g69
(g78
g71
NtRp1870
(dp1871
g74
(dp1872
g82
I4
ssg83
Nsg76
(lp1873
sbasbasbasbag69
(g85
g71
NtRp1874
(dp1875
g74
(dp1876
sg83
g79
sg76
(lp1877
g69
(g90
g71
NtRp1878
(dp1879
g74
(dp1880
g94
g95
ssg83
g1874
sg76
(lp1881
S'global_settings'
p1882
asbag69
(g90
g71
NtRp1883
(dp1884
g74
(dp1885
g101
g102
ssg83
g1874
sg76
(lp1886
S':'
asbag69
(g90
g71
NtRp1887
(dp1888
g74
(dp1889
sg83
g1874
sg76
(lp1890
g69
(g70
g71
NtRp1891
(dp1892
g74
(dp1893
g82
I5
ssg83
g1887
sg76
(lp1894
g69
(g78
g71
NtRp1895
(dp1896
g74
(dp1897
g82
I4
ssg83
Nsg76
(lp1898
g69
(g85
g71
NtRp1899
(dp1900
g74
(dp1901
sg83
g1895
sg76
(lp1902
g69
(g90
g71
NtRp1903
(dp1904
g74
(dp1905
g94
g95
ssg83
g1899
sg76
(lp1906
g846
asbag69
(g90
g71
NtRp1907
(dp1908
g74
(dp1909
g101
g102
ssg83
g1899
sg76
(lp1910
S':'
asbag69
(g90
g71
NtRp1911
(dp1912
g74
(dp1913
sg83
g1899
sg76
(lp1914
g69
(g70
g71
NtRp1915
(dp1916
g74
(dp1917
g82
I4
ssg83
g1911
sg76
(lp1918
S"set(['/home/ian/web/web2py/applications/welcome/', '/home/ian/web/web2py/applications/paideia/', '/home/ian/web/web2py/applications/admin/'])"
p1919
asbasbasbag69
(g85
g71
NtRp1920
(dp1921
g74
(dp1922
sg83
g1895
sg76
(lp1923
g69
(g90
g71
NtRp1924
(dp1925
g74
(dp1926
g94
g95
ssg83
g1920
sg76
(lp1927
g868
asbag69
(g90
g71
NtRp1928
(dp1929
g74
(dp1930
g101
g102
ssg83
g1920
sg76
(lp1931
S':'
asbag69
(g90
g71
NtRp1932
(dp1933
g74
(dp1934
sg83
g1920
sg76
(lp1935
g69
(g70
g71
NtRp1936
(dp1937
g74
(dp1938
g82
I4
ssg83
g1932
sg76
(lp1939
g881
asbasbasbag69
(g85
g71
NtRp1940
(dp1941
g74
(dp1942
sg83
g1895
sg76
(lp1943
g69
(g90
g71
NtRp1944
(dp1945
g74
(dp1946
g94
g95
ssg83
g1940
sg76
(lp1947
g890
asbag69
(g90
g71
NtRp1948
(dp1949
g74
(dp1950
g101
g102
ssg83
g1940
sg76
(lp1951
S':'
asbag69
(g90
g71
NtRp1952
(dp1953
g74
(dp1954
sg83
g1940
sg76
(lp1955
g69
(g70
g71
NtRp1956
(dp1957
g74
(dp1958
g82
I4
ssg83
g1952
sg76
(lp1959
g69
(g78
g71
NtRp1960
(dp1961
g74
(dp1962
g82
I3
ssg83
Nsg76
(lp1963
sbasbasbasbag69
(g85
g71
NtRp1964
(dp1965
g74
(dp1966
sg83
g1895
sg76
(lp1967
g69
(g90
g71
NtRp1968
(dp1969
g74
(dp1970
g94
g95
ssg83
g1964
sg76
(lp1971
g915
asbag69
(g90
g71
NtRp1972
(dp1973
g74
(dp1974
g101
g102
ssg83
g1964
sg76
(lp1975
S':'
asbag69
(g90
g71
NtRp1976
(dp1977
g74
(dp1978
sg83
g1964
sg76
(lp1979
g69
(g70
g71
NtRp1980
(dp1981
g74
(dp1982
g82
I4
ssg83
g1976
sg76
(lp1983
S"<Values at 0x153a758: {'verbose': False, 'ip': '127.0.0.1', 'shutdown_timeout': 5, 'taskbar': False, 'nocron': False, 'pid_filename': 'httpserver.pid', 'maxthreads': None, 'softcron': False, 'server_name': 'uriel', 'bpython': False, 'nogui': False, 'port': 8000, 'extcron': False, 'debuglevel': 30, 'test': None, 'folder': '/home/ian/web/web2py', 'config': '', 'import_models': False, 'winservice': '', 'shell': None, 'run': '', 'log_filename': 'httpserver.log', 'args': [''], 'socket_timeout': 1, 'ssl_ca_certificate': None, 'scheduler': None, 'profiler_filename': None, 'ssl_private_key': '', 'password': '<ask>', 'request_queue_size': 5, 'ssl_certificate': '', 'cronjob': False, 'numthreads': None, 'quiet': False, 'interfaces': None, 'minthreads': None, 'timeout': 10, 'plain': False, 'nobanner': False}>"
p1984
asbasbasbag69
(g85
g71
NtRp1985
(dp1986
g74
(dp1987
sg83
g1895
sg76
(lp1988
g69
(g90
g71
NtRp1989
(dp1990
g74
(dp1991
g94
g95
ssg83
g1985
sg76
(lp1992
g937
asbag69
(g90
g71
NtRp1993
(dp1994
g74
(dp1995
g101
g102
ssg83
g1985
sg76
(lp1996
S':'
asbag69
(g90
g71
NtRp1997
(dp1998
g74
(dp1999
sg83
g1985
sg76
(lp2000
g69
(g70
g71
NtRp2001
(dp2002
g74
(dp2003
g82
I4
ssg83
g1997
sg76
(lp2004
S'set([])'
p2005
asbasbasbag69
(g85
g71
NtRp2006
(dp2007
g74
(dp2008
sg83
g1895
sg76
(lp2009
g69
(g90
g71
NtRp2010
(dp2011
g74
(dp2012
g94
g95
ssg83
g2006
sg76
(lp2013
g959
asbag69
(g90
g71
NtRp2014
(dp2015
g74
(dp2016
g101
g102
ssg83
g2006
sg76
(lp2017
S':'
asbag69
(g90
g71
NtRp2018
(dp2019
g74
(dp2020
sg83
g2006
sg76
(lp2021
g69
(g70
g71
NtRp2022
(dp2023
g74
(dp2024
g82
I4
ssg83
g2018
sg76
(lp2025
g112
asbasbasbag69
(g85
g71
NtRp2026
(dp2027
g74
(dp2028
sg83
g1895
sg76
(lp2029
g69
(g90
g71
NtRp2030
(dp2031
g74
(dp2032
g94
g95
ssg83
g2026
sg76
(lp2033
g980
asbag69
(g90
g71
NtRp2034
(dp2035
g74
(dp2036
g101
g102
ssg83
g2026
sg76
(lp2037
S':'
asbag69
(g90
g71
NtRp2038
(dp2039
g74
(dp2040
sg83
g2026
sg76
(lp2041
g69
(g70
g71
NtRp2042
(dp2043
g74
(dp2044
g82
I4
ssg83
g2038
sg76
(lp2045
g993
asbasbasbag69
(g85
g71
NtRp2046
(dp2047
g74
(dp2048
sg83
g1895
sg76
(lp2049
g69
(g90
g71
NtRp2050
(dp2051
g74
(dp2052
g94
g95
ssg83
g2046
sg76
(lp2053
g1200
asbag69
(g90
g71
NtRp2054
(dp2055
g74
(dp2056
g101
g102
ssg83
g2046
sg76
(lp2057
S':'
asbag69
(g90
g71
NtRp2058
(dp2059
g74
(dp2060
sg83
g2046
sg76
(lp2061
g69
(g70
g71
NtRp2062
(dp2063
g74
(dp2064
g82
I4
ssg83
g2058
sg76
(lp2065
g112
asbasbasbag69
(g85
g71
NtRp2066
(dp2067
g74
(dp2068
sg83
g1895
sg76
(lp2069
g69
(g90
g71
NtRp2070
(dp2071
g74
(dp2072
g94
g95
ssg83
g2066
sg76
(lp2073
g1221
asbag69
(g90
g71
NtRp2074
(dp2075
g74
(dp2076
g101
g102
ssg83
g2066
sg76
(lp2077
S':'
asbag69
(g90
g71
NtRp2078
(dp2079
g74
(dp2080
sg83
g2066
sg76
(lp2081
g69
(g70
g71
NtRp2082
(dp2083
g74
(dp2084
g82
I4
ssg83
g2078
sg76
(lp2085
g112
asbasbasbag69
(g85
g71
NtRp2086
(dp2087
g74
(dp2088
sg83
g1895
sg76
(lp2089
g69
(g90
g71
NtRp2090
(dp2091
g74
(dp2092
g94
g95
ssg83
g2086
sg76
(lp2093
g1459
asbag69
(g90
g71
NtRp2094
(dp2095
g74
(dp2096
g101
g102
ssg83
g2086
sg76
(lp2097
S':'
asbag69
(g90
g71
NtRp2098
(dp2099
g74
(dp2100
sg83
g2086
sg76
(lp2101
g69
(g70
g71
NtRp2102
(dp2103
g74
(dp2104
g82
I4
ssg83
g2098
sg76
(lp2105
g1472
asbasbasbag69
(g85
g71
NtRp2106
(dp2107
g74
(dp2108
sg83
g1895
sg76
(lp2109
g69
(g90
g71
NtRp2110
(dp2111
g74
(dp2112
g94
g95
ssg83
g2106
sg76
(lp2113
g1502
asbag69
(g90
g71
NtRp2114
(dp2115
g74
(dp2116
g101
g102
ssg83
g2106
sg76
(lp2117
S':'
asbag69
(g90
g71
NtRp2118
(dp2119
g74
(dp2120
sg83
g2106
sg76
(lp2121
g69
(g70
g71
NtRp2122
(dp2123
g74
(dp2124
g82
I4
ssg83
g2118
sg76
(lp2125
g69
(g78
g71
NtRp2126
(dp2127
g74
(dp2128
g82
I3
ssg83
Nsg76
(lp2129
g69
(g85
g71
NtRp2130
(dp2131
g74
(dp2132
sg83
g2126
sg76
(lp2133
g69
(g90
g71
NtRp2134
(dp2135
g74
(dp2136
sg83
g2130
sg76
(lp2137
g69
(g70
g71
NtRp2138
(dp2139
g74
(dp2140
g82
I3
ssg83
g2134
sg76
(lp2141
S'1'
asbasbasbag69
(g85
g71
NtRp2142
(dp2143
g74
(dp2144
sg83
g2126
sg76
(lp2145
g69
(g90
g71
NtRp2146
(dp2147
g74
(dp2148
sg83
g2142
sg76
(lp2149
g69
(g70
g71
NtRp2150
(dp2151
g74
(dp2152
g82
I3
ssg83
g2146
sg76
(lp2153
S'99'
p2154
asbasbasbag69
(g85
g71
NtRp2155
(dp2156
g74
(dp2157
sg83
g2126
sg76
(lp2158
g69
(g90
g71
NtRp2159
(dp2160
g74
(dp2161
sg83
g2155
sg76
(lp2162
g69
(g70
g71
NtRp2163
(dp2164
g74
(dp2165
g82
I3
ssg83
g2159
sg76
(lp2166
S'4'
asbasbasbag69
(g85
g71
NtRp2167
(dp2168
g74
(dp2169
sg83
g2126
sg76
(lp2170
g69
(g90
g71
NtRp2171
(dp2172
g74
(dp2173
sg83
g2167
sg76
(lp2174
g69
(g70
g71
NtRp2175
(dp2176
g74
(dp2177
g82
I3
ssg83
g2171
sg76
(lp2178
S'datetime.datetime(2011, 12, 14, 14, 46, 14)'
p2179
asbasbasbag69
(g85
g71
NtRp2180
(dp2181
g74
(dp2182
sg83
g2126
sg76
(lp2183
g69
(g90
g71
NtRp2184
(dp2185
g74
(dp2186
sg83
g2180
sg76
(lp2187
g69
(g70
g71
NtRp2188
(dp2189
g74
(dp2190
g82
I3
ssg83
g2184
sg76
(lp2191
g1581
asbasbasbasbasbasbasbasbasbasbasbag69
(g85
g71
NtRp2192
(dp2193
g74
(dp2194
sg83
g79
sg76
(lp2195
g69
(g90
g71
NtRp2196
(dp2197
g74
(dp2198
g94
g95
ssg83
g2192
sg76
(lp2199
S'is_https'
p2200
asbag69
(g90
g71
NtRp2201
(dp2202
g74
(dp2203
g101
g102
ssg83
g2192
sg76
(lp2204
S':'
asbag69
(g90
g71
NtRp2205
(dp2206
g74
(dp2207
sg83
g2192
sg76
(lp2208
g69
(g70
g71
NtRp2209
(dp2210
g74
(dp2211
g82
I5
ssg83
g2205
sg76
(lp2212
g112
asbasbasbag69
(g85
g71
NtRp2213
(dp2214
g74
(dp2215
sg83
g79
sg76
(lp2216
g69
(g90
g71
NtRp2217
(dp2218
g74
(dp2219
g94
g95
ssg83
g2213
sg76
(lp2220
S'is_local'
p2221
asbag69
(g90
g71
NtRp2222
(dp2223
g74
(dp2224
g101
g102
ssg83
g2213
sg76
(lp2225
S':'
asbag69
(g90
g71
NtRp2226
(dp2227
g74
(dp2228
sg83
g2213
sg76
(lp2229
g69
(g70
g71
NtRp2230
(dp2231
g74
(dp2232
g82
I5
ssg83
g2226
sg76
(lp2233
g1690
asbasbasbag69
(g85
g71
NtRp2234
(dp2235
g74
(dp2236
sg83
g79
sg76
(lp2237
g69
(g90
g71
NtRp2238
(dp2239
g74
(dp2240
g94
g95
ssg83
g2234
sg76
(lp2241
S'is_restful'
p2242
asbag69
(g90
g71
NtRp2243
(dp2244
g74
(dp2245
g101
g102
ssg83
g2234
sg76
(lp2246
S':'
asbag69
(g90
g71
NtRp2247
(dp2248
g74
(dp2249
sg83
g2234
sg76
(lp2250
g69
(g70
g71
NtRp2251
(dp2252
g74
(dp2253
g82
I5
ssg83
g2247
sg76
(lp2254
g112
asbasbasbag69
(g85
g71
NtRp2255
(dp2256
g74
(dp2257
sg83
g79
sg76
(lp2258
g69
(g90
g71
NtRp2259
(dp2260
g74
(dp2261
g94
g95
ssg83
g2255
sg76
(lp2262
S'now'
p2263
asbag69
(g90
g71
NtRp2264
(dp2265
g74
(dp2266
g101
g102
ssg83
g2255
sg76
(lp2267
S':'
asbag69
(g90
g71
NtRp2268
(dp2269
g74
(dp2270
sg83
g2255
sg76
(lp2271
g69
(g70
g71
NtRp2272
(dp2273
g74
(dp2274
g82
I5
ssg83
g2268
sg76
(lp2275
S'datetime.datetime(2012, 3, 16, 17, 21, 54, 604598)'
p2276
asbasbasbag69
(g85
g71
NtRp2277
(dp2278
g74
(dp2279
sg83
g79
sg76
(lp2280
g69
(g90
g71
NtRp2281
(dp2282
g74
(dp2283
g94
g95
ssg83
g2277
sg76
(lp2284
S'post_vars'
p2285
asbag69
(g90
g71
NtRp2286
(dp2287
g74
(dp2288
g101
g102
ssg83
g2277
sg76
(lp2289
S':'
asbag69
(g90
g71
NtRp2290
(dp2291
g74
(dp2292
sg83
g2277
sg76
(lp2293
g69
(g70
g71
NtRp2294
(dp2295
g74
(dp2296
g82
I5
ssg83
g2290
sg76
(lp2297
g69
(g78
g71
NtRp2298
(dp2299
g74
(dp2300
g82
I4
ssg83
Nsg76
(lp2301
sbasbasbasbag69
(g85
g71
NtRp2302
(dp2303
g74
(dp2304
sg83
g79
sg76
(lp2305
g69
(g90
g71
NtRp2306
(dp2307
g74
(dp2308
g94
g95
ssg83
g2302
sg76
(lp2309
S'url'
p2310
asbag69
(g90
g71
NtRp2311
(dp2312
g74
(dp2313
g101
g102
ssg83
g2302
sg76
(lp2314
S':'
asbag69
(g90
g71
NtRp2315
(dp2316
g74
(dp2317
sg83
g2302
sg76
(lp2318
g69
(g70
g71
NtRp2319
(dp2320
g74
(dp2321
g82
I5
ssg83
g2315
sg76
(lp2322
S'/paideia/exploring/index'
p2323
asbasbasbag69
(g85
g71
NtRp2324
(dp2325
g74
(dp2326
sg83
g79
sg76
(lp2327
g69
(g90
g71
NtRp2328
(dp2329
g74
(dp2330
g94
g95
ssg83
g2324
sg76
(lp2331
S'utcnow'
p2332
asbag69
(g90
g71
NtRp2333
(dp2334
g74
(dp2335
g101
g102
ssg83
g2324
sg76
(lp2336
S':'
asbag69
(g90
g71
NtRp2337
(dp2338
g74
(dp2339
sg83
g2324
sg76
(lp2340
g69
(g70
g71
NtRp2341
(dp2342
g74
(dp2343
g82
I5
ssg83
g2337
sg76
(lp2344
S'datetime.datetime(2012, 3, 16, 21, 21, 54, 604646)'
p2345
asbasbasbag69
(g85
g71
NtRp2346
(dp2347
g74
(dp2348
sg83
g79
sg76
(lp2349
g69
(g90
g71
NtRp2350
(dp2351
g74
(dp2352
g94
g95
ssg83
g2346
sg76
(lp2353
S'uuid'
p2354
asbag69
(g90
g71
NtRp2355
(dp2356
g74
(dp2357
g101
g102
ssg83
g2346
sg76
(lp2358
S':'
asbag69
(g90
g71
NtRp2359
(dp2360
g74
(dp2361
sg83
g2346
sg76
(lp2362
g69
(g70
g71
NtRp2363
(dp2364
g74
(dp2365
g82
I5
ssg83
g2359
sg76
(lp2366
S'paideia/127.0.0.1.2012-03-16.17-21-54.e5106dfe-9ad4-4fb4-83f8-b042e36b74d2'
p2367
asbasbasbag69
(g85
g71
NtRp2368
(dp2369
g74
(dp2370
sg83
g79
sg76
(lp2371
g69
(g90
g71
NtRp2372
(dp2373
g74
(dp2374
g94
g95
ssg83
g2368
sg76
(lp2375
S'vars'
p2376
asbag69
(g90
g71
NtRp2377
(dp2378
g74
(dp2379
g101
g102
ssg83
g2368
sg76
(lp2380
S':'
asbag69
(g90
g71
NtRp2381
(dp2382
g74
(dp2383
sg83
g2368
sg76
(lp2384
g69
(g70
g71
NtRp2385
(dp2386
g74
(dp2387
g82
I5
ssg83
g2381
sg76
(lp2388
g69
(g78
g71
NtRp2389
(dp2390
g74
(dp2391
g82
I4
ssg83
Nsg76
(lp2392
sbasbasbasbag69
(g85
g71
NtRp2393
(dp2394
g74
(dp2395
sg83
g79
sg76
(lp2396
g69
(g90
g71
NtRp2397
(dp2398
g74
(dp2399
g94
g95
ssg83
g2393
sg76
(lp2400
S'wsgi'
p2401
asbag69
(g90
g71
NtRp2402
(dp2403
g74
(dp2404
g101
g102
ssg83
g2393
sg76
(lp2405
S':'
asbag69
(g90
g71
NtRp2406
(dp2407
g74
(dp2408
sg83
g2393
sg76
(lp2409
g69
(g70
g71
NtRp2410
(dp2411
g74
(dp2412
g82
I5
ssg83
g2406
sg76
(lp2413
g69
(g78
g71
NtRp2414
(dp2415
g74
(dp2416
g82
I4
ssg83
Nsg76
(lp2417
g69
(g85
g71
NtRp2418
(dp2419
g74
(dp2420
sg83
g2414
sg76
(lp2421
g69
(g90
g71
NtRp2422
(dp2423
g74
(dp2424
g94
g95
ssg83
g2418
sg76
(lp2425
S'environ'
p2426
asbag69
(g90
g71
NtRp2427
(dp2428
g74
(dp2429
g101
g102
ssg83
g2418
sg76
(lp2430
S':'
asbag69
(g90
g71
NtRp2431
(dp2432
g74
(dp2433
sg83
g2418
sg76
(lp2434
g69
(g70
g71
NtRp2435
(dp2436
g74
(dp2437
g82
I4
ssg83
g2431
sg76
(lp2438
g69
(g78
g71
NtRp2439
(dp2440
g74
(dp2441
g82
I3
ssg83
Nsg76
(lp2442
g69
(g85
g71
NtRp2443
(dp2444
g74
(dp2445
sg83
g2439
sg76
(lp2446
g69
(g90
g71
NtRp2447
(dp2448
g74
(dp2449
g94
g95
ssg83
g2443
sg76
(lp2450
S'HTTP_ACCEPT'
p2451
asbag69
(g90
g71
NtRp2452
(dp2453
g74
(dp2454
g101
g102
ssg83
g2443
sg76
(lp2455
S':'
asbag69
(g90
g71
NtRp2456
(dp2457
g74
(dp2458
sg83
g2443
sg76
(lp2459
g69
(g70
g71
NtRp2460
(dp2461
g74
(dp2462
g82
I3
ssg83
g2456
sg76
(lp2463
g1015
asbasbasbag69
(g85
g71
NtRp2464
(dp2465
g74
(dp2466
sg83
g2439
sg76
(lp2467
g69
(g90
g71
NtRp2468
(dp2469
g74
(dp2470
g94
g95
ssg83
g2464
sg76
(lp2471
S'HTTP_ACCEPT_ENCODING'
p2472
asbag69
(g90
g71
NtRp2473
(dp2474
g74
(dp2475
g101
g102
ssg83
g2464
sg76
(lp2476
S':'
asbag69
(g90
g71
NtRp2477
(dp2478
g74
(dp2479
sg83
g2464
sg76
(lp2480
g69
(g70
g71
NtRp2481
(dp2482
g74
(dp2483
g82
I3
ssg83
g2477
sg76
(lp2484
g1037
asbasbasbag69
(g85
g71
NtRp2485
(dp2486
g74
(dp2487
sg83
g2439
sg76
(lp2488
g69
(g90
g71
NtRp2489
(dp2490
g74
(dp2491
g94
g95
ssg83
g2485
sg76
(lp2492
S'HTTP_ACCEPT_LANGUAGE'
p2493
asbag69
(g90
g71
NtRp2494
(dp2495
g74
(dp2496
g101
g102
ssg83
g2485
sg76
(lp2497
S':'
asbag69
(g90
g71
NtRp2498
(dp2499
g74
(dp2500
sg83
g2485
sg76
(lp2501
g69
(g70
g71
NtRp2502
(dp2503
g74
(dp2504
g82
I3
ssg83
g2498
sg76
(lp2505
g1059
asbasbasbag69
(g85
g71
NtRp2506
(dp2507
g74
(dp2508
sg83
g2439
sg76
(lp2509
g69
(g90
g71
NtRp2510
(dp2511
g74
(dp2512
g94
g95
ssg83
g2506
sg76
(lp2513
S'HTTP_CACHE_CONTROL'
p2514
asbag69
(g90
g71
NtRp2515
(dp2516
g74
(dp2517
g101
g102
ssg83
g2506
sg76
(lp2518
S':'
asbag69
(g90
g71
NtRp2519
(dp2520
g74
(dp2521
sg83
g2506
sg76
(lp2522
g69
(g70
g71
NtRp2523
(dp2524
g74
(dp2525
g82
I3
ssg83
g2519
sg76
(lp2526
g1081
asbasbasbag69
(g85
g71
NtRp2527
(dp2528
g74
(dp2529
sg83
g2439
sg76
(lp2530
g69
(g90
g71
NtRp2531
(dp2532
g74
(dp2533
g94
g95
ssg83
g2527
sg76
(lp2534
S'HTTP_CONNECTION'
p2535
asbag69
(g90
g71
NtRp2536
(dp2537
g74
(dp2538
g101
g102
ssg83
g2527
sg76
(lp2539
S':'
asbag69
(g90
g71
NtRp2540
(dp2541
g74
(dp2542
sg83
g2527
sg76
(lp2543
g69
(g70
g71
NtRp2544
(dp2545
g74
(dp2546
g82
I3
ssg83
g2540
sg76
(lp2547
g1103
asbasbasbag69
(g85
g71
NtRp2548
(dp2549
g74
(dp2550
sg83
g2439
sg76
(lp2551
g69
(g90
g71
NtRp2552
(dp2553
g74
(dp2554
g94
g95
ssg83
g2548
sg76
(lp2555
S'HTTP_COOKIE'
p2556
asbag69
(g90
g71
NtRp2557
(dp2558
g74
(dp2559
g101
g102
ssg83
g2548
sg76
(lp2560
S':'
asbag69
(g90
g71
NtRp2561
(dp2562
g74
(dp2563
sg83
g2548
sg76
(lp2564
g69
(g70
g71
NtRp2565
(dp2566
g74
(dp2567
g82
I3
ssg83
g2561
sg76
(lp2568
g1125
asbasbasbag69
(g85
g71
NtRp2569
(dp2570
g74
(dp2571
sg83
g2439
sg76
(lp2572
g69
(g90
g71
NtRp2573
(dp2574
g74
(dp2575
g94
g95
ssg83
g2569
sg76
(lp2576
S'HTTP_HOST'
p2577
asbag69
(g90
g71
NtRp2578
(dp2579
g74
(dp2580
g101
g102
ssg83
g2569
sg76
(lp2581
S':'
asbag69
(g90
g71
NtRp2582
(dp2583
g74
(dp2584
sg83
g2569
sg76
(lp2585
g69
(g70
g71
NtRp2586
(dp2587
g74
(dp2588
g82
I3
ssg83
g2582
sg76
(lp2589
g1147
asbasbasbag69
(g85
g71
NtRp2590
(dp2591
g74
(dp2592
sg83
g2439
sg76
(lp2593
g69
(g90
g71
NtRp2594
(dp2595
g74
(dp2596
g94
g95
ssg83
g2590
sg76
(lp2597
S'HTTP_REFERER'
p2598
asbag69
(g90
g71
NtRp2599
(dp2600
g74
(dp2601
g101
g102
ssg83
g2590
sg76
(lp2602
S':'
asbag69
(g90
g71
NtRp2603
(dp2604
g74
(dp2605
sg83
g2590
sg76
(lp2606
g69
(g70
g71
NtRp2607
(dp2608
g74
(dp2609
g82
I3
ssg83
g2603
sg76
(lp2610
g1169
asbasbasbag69
(g85
g71
NtRp2611
(dp2612
g74
(dp2613
sg83
g2439
sg76
(lp2614
g69
(g90
g71
NtRp2615
(dp2616
g74
(dp2617
g94
g95
ssg83
g2611
sg76
(lp2618
S'HTTP_USER_AGENT'
p2619
asbag69
(g90
g71
NtRp2620
(dp2621
g74
(dp2622
g101
g102
ssg83
g2611
sg76
(lp2623
S':'
asbag69
(g90
g71
NtRp2624
(dp2625
g74
(dp2626
sg83
g2611
sg76
(lp2627
g69
(g70
g71
NtRp2628
(dp2629
g74
(dp2630
g82
I3
ssg83
g2624
sg76
(lp2631
g1191
asbasbasbag69
(g85
g71
NtRp2632
(dp2633
g74
(dp2634
sg83
g2439
sg76
(lp2635
g69
(g90
g71
NtRp2636
(dp2637
g74
(dp2638
g94
g95
ssg83
g2632
sg76
(lp2639
S'PATH_INFO'
p2640
asbag69
(g90
g71
NtRp2641
(dp2642
g74
(dp2643
g101
g102
ssg83
g2632
sg76
(lp2644
S':'
asbag69
(g90
g71
NtRp2645
(dp2646
g74
(dp2647
sg83
g2632
sg76
(lp2648
g69
(g70
g71
NtRp2649
(dp2650
g74
(dp2651
g82
I3
ssg83
g2645
sg76
(lp2652
g1255
asbasbasbag69
(g85
g71
NtRp2653
(dp2654
g74
(dp2655
sg83
g2439
sg76
(lp2656
g69
(g90
g71
NtRp2657
(dp2658
g74
(dp2659
g94
g95
ssg83
g2653
sg76
(lp2660
S'QUERY_STRING'
p2661
asbag69
(g90
g71
NtRp2662
(dp2663
g74
(dp2664
g101
g102
ssg83
g2653
sg76
(lp2665
S':'
asbag69
(g90
g71
NtRp2666
(dp2667
g74
(dp2668
sg83
g2653
sg76
(lp2669
g69
(g70
g71
NtRp2670
(dp2671
g74
(dp2672
g82
I3
ssg83
g2666
sg76
(lp2673
S''
asbasbasbag69
(g85
g71
NtRp2674
(dp2675
g74
(dp2676
sg83
g2439
sg76
(lp2677
g69
(g90
g71
NtRp2678
(dp2679
g74
(dp2680
g94
g95
ssg83
g2674
sg76
(lp2681
S'REMOTE_ADDR'
p2682
asbag69
(g90
g71
NtRp2683
(dp2684
g74
(dp2685
g101
g102
ssg83
g2674
sg76
(lp2686
S':'
asbag69
(g90
g71
NtRp2687
(dp2688
g74
(dp2689
sg83
g2674
sg76
(lp2690
g69
(g70
g71
NtRp2691
(dp2692
g74
(dp2693
g82
I3
ssg83
g2687
sg76
(lp2694
g202
asbasbasbag69
(g85
g71
NtRp2695
(dp2696
g74
(dp2697
sg83
g2439
sg76
(lp2698
g69
(g90
g71
NtRp2699
(dp2700
g74
(dp2701
g94
g95
ssg83
g2695
sg76
(lp2702
S'REMOTE_PORT'
p2703
asbag69
(g90
g71
NtRp2704
(dp2705
g74
(dp2706
g101
g102
ssg83
g2695
sg76
(lp2707
S':'
asbag69
(g90
g71
NtRp2708
(dp2709
g74
(dp2710
sg83
g2695
sg76
(lp2711
g69
(g70
g71
NtRp2712
(dp2713
g74
(dp2714
g82
I3
ssg83
g2708
sg76
(lp2715
g1319
asbasbasbag69
(g85
g71
NtRp2716
(dp2717
g74
(dp2718
sg83
g2439
sg76
(lp2719
g69
(g90
g71
NtRp2720
(dp2721
g74
(dp2722
g94
g95
ssg83
g2716
sg76
(lp2723
S'REQUEST_METHOD'
p2724
asbag69
(g90
g71
NtRp2725
(dp2726
g74
(dp2727
g101
g102
ssg83
g2716
sg76
(lp2728
S':'
asbag69
(g90
g71
NtRp2729
(dp2730
g74
(dp2731
sg83
g2716
sg76
(lp2732
g69
(g70
g71
NtRp2733
(dp2734
g74
(dp2735
g82
I3
ssg83
g2729
sg76
(lp2736
g1341
asbasbasbag69
(g85
g71
NtRp2737
(dp2738
g74
(dp2739
sg83
g2439
sg76
(lp2740
g69
(g90
g71
NtRp2741
(dp2742
g74
(dp2743
g94
g95
ssg83
g2737
sg76
(lp2744
S'SCRIPT_NAME'
p2745
asbag69
(g90
g71
NtRp2746
(dp2747
g74
(dp2748
g101
g102
ssg83
g2737
sg76
(lp2749
S':'
asbag69
(g90
g71
NtRp2750
(dp2751
g74
(dp2752
sg83
g2737
sg76
(lp2753
g69
(g70
g71
NtRp2754
(dp2755
g74
(dp2756
g82
I3
ssg83
g2750
sg76
(lp2757
S''
asbasbasbag69
(g85
g71
NtRp2758
(dp2759
g74
(dp2760
sg83
g2439
sg76
(lp2761
g69
(g90
g71
NtRp2762
(dp2763
g74
(dp2764
g94
g95
ssg83
g2758
sg76
(lp2765
S'SERVER_NAME'
p2766
asbag69
(g90
g71
NtRp2767
(dp2768
g74
(dp2769
g101
g102
ssg83
g2758
sg76
(lp2770
S':'
asbag69
(g90
g71
NtRp2771
(dp2772
g74
(dp2773
sg83
g2758
sg76
(lp2774
g69
(g70
g71
NtRp2775
(dp2776
g74
(dp2777
g82
I3
ssg83
g2771
sg76
(lp2778
g1384
asbasbasbag69
(g85
g71
NtRp2779
(dp2780
g74
(dp2781
sg83
g2439
sg76
(lp2782
g69
(g90
g71
NtRp2783
(dp2784
g74
(dp2785
g94
g95
ssg83
g2779
sg76
(lp2786
S'SERVER_PORT'
p2787
asbag69
(g90
g71
NtRp2788
(dp2789
g74
(dp2790
g101
g102
ssg83
g2779
sg76
(lp2791
S':'
asbag69
(g90
g71
NtRp2792
(dp2793
g74
(dp2794
sg83
g2779
sg76
(lp2795
g69
(g70
g71
NtRp2796
(dp2797
g74
(dp2798
g82
I3
ssg83
g2792
sg76
(lp2799
g1406
asbasbasbag69
(g85
g71
NtRp2800
(dp2801
g74
(dp2802
sg83
g2439
sg76
(lp2803
g69
(g90
g71
NtRp2804
(dp2805
g74
(dp2806
g94
g95
ssg83
g2800
sg76
(lp2807
S'SERVER_PROTOCOL'
p2808
asbag69
(g90
g71
NtRp2809
(dp2810
g74
(dp2811
g101
g102
ssg83
g2800
sg76
(lp2812
S':'
asbag69
(g90
g71
NtRp2813
(dp2814
g74
(dp2815
sg83
g2800
sg76
(lp2816
g69
(g70
g71
NtRp2817
(dp2818
g74
(dp2819
g82
I3
ssg83
g2813
sg76
(lp2820
g1428
asbasbasbag69
(g85
g71
NtRp2821
(dp2822
g74
(dp2823
sg83
g2439
sg76
(lp2824
g69
(g90
g71
NtRp2825
(dp2826
g74
(dp2827
g94
g95
ssg83
g2821
sg76
(lp2828
S'SERVER_SOFTWARE'
p2829
asbag69
(g90
g71
NtRp2830
(dp2831
g74
(dp2832
g101
g102
ssg83
g2821
sg76
(lp2833
S':'
asbag69
(g90
g71
NtRp2834
(dp2835
g74
(dp2836
sg83
g2821
sg76
(lp2837
g69
(g70
g71
NtRp2838
(dp2839
g74
(dp2840
g82
I3
ssg83
g2834
sg76
(lp2841
g1450
asbasbasbag69
(g85
g71
NtRp2842
(dp2843
g74
(dp2844
sg83
g2439
sg76
(lp2845
g69
(g90
g71
NtRp2846
(dp2847
g74
(dp2848
g94
g95
ssg83
g2842
sg76
(lp2849
S'wsgi.errors'
p2850
asbag69
(g90
g71
NtRp2851
(dp2852
g74
(dp2853
g101
g102
ssg83
g2842
sg76
(lp2854
S':'
asbag69
(g90
g71
NtRp2855
(dp2856
g74
(dp2857
sg83
g2842
sg76
(lp2858
g69
(g70
g71
NtRp2859
(dp2860
g74
(dp2861
g82
I3
ssg83
g2855
sg76
(lp2862
S"<open file '<stderr>', mode 'w' at 0x7feb9a13b270>"
p2863
asbasbasbag69
(g85
g71
NtRp2864
(dp2865
g74
(dp2866
sg83
g2439
sg76
(lp2867
g69
(g90
g71
NtRp2868
(dp2869
g74
(dp2870
g94
g95
ssg83
g2864
sg76
(lp2871
S'wsgi.file_wrapper'
p2872
asbag69
(g90
g71
NtRp2873
(dp2874
g74
(dp2875
g101
g102
ssg83
g2864
sg76
(lp2876
S':'
asbag69
(g90
g71
NtRp2877
(dp2878
g74
(dp2879
sg83
g2864
sg76
(lp2880
g69
(g70
g71
NtRp2881
(dp2882
g74
(dp2883
g82
I3
ssg83
g2877
sg76
(lp2884
S'<class wsgiref.util.FileWrapper at 0x1404d50>'
p2885
asbasbasbag69
(g85
g71
NtRp2886
(dp2887
g74
(dp2888
sg83
g2439
sg76
(lp2889
g69
(g90
g71
NtRp2890
(dp2891
g74
(dp2892
g94
g95
ssg83
g2886
sg76
(lp2893
S'wsgi.input'
p2894
asbag69
(g90
g71
NtRp2895
(dp2896
g74
(dp2897
g101
g102
ssg83
g2886
sg76
(lp2898
S':'
asbag69
(g90
g71
NtRp2899
(dp2900
g74
(dp2901
sg83
g2886
sg76
(lp2902
g69
(g70
g71
NtRp2903
(dp2904
g74
(dp2905
g82
I3
ssg83
g2899
sg76
(lp2906
S'<cStringIO.StringO object at 0x7feb600f40d8>'
p2907
asbasbasbag69
(g85
g71
NtRp2908
(dp2909
g74
(dp2910
sg83
g2439
sg76
(lp2911
g69
(g90
g71
NtRp2912
(dp2913
g74
(dp2914
g94
g95
ssg83
g2908
sg76
(lp2915
S'wsgi.multiprocess'
p2916
asbag69
(g90
g71
NtRp2917
(dp2918
g74
(dp2919
g101
g102
ssg83
g2908
sg76
(lp2920
S':'
asbag69
(g90
g71
NtRp2921
(dp2922
g74
(dp2923
sg83
g2908
sg76
(lp2924
g69
(g70
g71
NtRp2925
(dp2926
g74
(dp2927
g82
I3
ssg83
g2921
sg76
(lp2928
g112
asbasbasbag69
(g85
g71
NtRp2929
(dp2930
g74
(dp2931
sg83
g2439
sg76
(lp2932
g69
(g90
g71
NtRp2933
(dp2934
g74
(dp2935
g94
g95
ssg83
g2929
sg76
(lp2936
S'wsgi.multithread'
p2937
asbag69
(g90
g71
NtRp2938
(dp2939
g74
(dp2940
g101
g102
ssg83
g2929
sg76
(lp2941
S':'
asbag69
(g90
g71
NtRp2942
(dp2943
g74
(dp2944
sg83
g2929
sg76
(lp2945
g69
(g70
g71
NtRp2946
(dp2947
g74
(dp2948
g82
I3
ssg83
g2942
sg76
(lp2949
g1690
asbasbasbag69
(g85
g71
NtRp2950
(dp2951
g74
(dp2952
sg83
g2439
sg76
(lp2953
g69
(g90
g71
NtRp2954
(dp2955
g74
(dp2956
g94
g95
ssg83
g2950
sg76
(lp2957
S'wsgi.run_once'
p2958
asbag69
(g90
g71
NtRp2959
(dp2960
g74
(dp2961
g101
g102
ssg83
g2950
sg76
(lp2962
S':'
asbag69
(g90
g71
NtRp2963
(dp2964
g74
(dp2965
sg83
g2950
sg76
(lp2966
g69
(g70
g71
NtRp2967
(dp2968
g74
(dp2969
g82
I3
ssg83
g2963
sg76
(lp2970
g112
asbasbasbag69
(g85
g71
NtRp2971
(dp2972
g74
(dp2973
sg83
g2439
sg76
(lp2974
g69
(g90
g71
NtRp2975
(dp2976
g74
(dp2977
g94
g95
ssg83
g2971
sg76
(lp2978
S'wsgi.url_scheme'
p2979
asbag69
(g90
g71
NtRp2980
(dp2981
g74
(dp2982
g101
g102
ssg83
g2971
sg76
(lp2983
S':'
asbag69
(g90
g71
NtRp2984
(dp2985
g74
(dp2986
sg83
g2971
sg76
(lp2987
g69
(g70
g71
NtRp2988
(dp2989
g74
(dp2990
g82
I3
ssg83
g2984
sg76
(lp2991
g1733
asbasbasbag69
(g85
g71
NtRp2992
(dp2993
g74
(dp2994
sg83
g2439
sg76
(lp2995
g69
(g90
g71
NtRp2996
(dp2997
g74
(dp2998
g94
g95
ssg83
g2992
sg76
(lp2999
S'wsgi.version'
p3000
asbag69
(g90
g71
NtRp3001
(dp3002
g74
(dp3003
g101
g102
ssg83
g2992
sg76
(lp3004
S':'
asbag69
(g90
g71
NtRp3005
(dp3006
g74
(dp3007
sg83
g2992
sg76
(lp3008
g69
(g70
g71
NtRp3009
(dp3010
g74
(dp3011
g82
I3
ssg83
g3005
sg76
(lp3012
S'1'
asbasbasbasbasbasbasbasbasbasbasbasbasbsS'frames'
p3013
(lp3014
(dp3015
S'file'
p3016
S'/home/ian/web/web2py/gluon/restricted.py'
p3017
sS'dump'
p3018
(dp3019
S'environment'
p3020
S"{'A': <class 'gluon.html.A'>, 'AjaxSelect': <class applications.paideia.modules.plugin_ajaxselect.AjaxSelect>, 'Auth': <class 'gluon.tools.Auth'>, 'B': <class 'gluon.html.B'>, 'BEAUTIFY': <class 'gluon.html.BEAUTIFY'>, 'BODY': <class 'gluon.html.BODY'>, 'BR': <class 'gluon.html.BR'>, 'BUTTON': <class 'gluon.html.BUTTON'>, 'CAT': <class 'gluon.html.CAT'>, 'CENTER': <class 'gluon.html.CENTER'>, ...}"
p3021
sS'ccode'
p3022
S'<code object <module> at 0x7feb6011a0b0, file "/...ations/paideia/controllers/exploring.py", line 2>'
p3023
ssS'lnum'
p3024
I204
sS'lines'
p3025
(dp3026
I199
S'    try:'
p3027
sI200
S'        if type(code) == types.CodeType:'
p3028
sI201
S'            ccode = code'
p3029
sI202
S'        else:'
p3030
sI203
S'            ccode = compile2(code,layer)'
p3031
sI204
S'        exec ccode in environment'
p3032
sI205
S'    except HTTP:'
p3033
sI206
S'        raise'
p3034
sI207
S'    except RestrictedError:'
p3035
sI208
S'        # do not encapsulate (obfuscate) the original RestrictedError'
p3036
ssS'call'
p3037
S"(code='# coding: utf8\\nfrom paideia_exploring import pai...herror()\\n\\nresponse._vars=response._caller(index)\\n', environment={'A': <class 'gluon.html.A'>, 'AjaxSelect': <class applications.paideia.modules.plugin_ajaxselect.AjaxSelect>, 'Auth': <class 'gluon.tools.Auth'>, 'B': <class 'gluon.html.B'>, 'BEAUTIFY': <class 'gluon.html.BEAUTIFY'>, 'BODY': <class 'gluon.html.BODY'>, 'BR': <class 'gluon.html.BR'>, 'BUTTON': <class 'gluon.html.BUTTON'>, 'CAT': <class 'gluon.html.CAT'>, 'CENTER': <class 'gluon.html.CENTER'>, ...}, layer='/home/ian/web/web2py/applications/paideia/controllers/exploring.py')"
p3038
sS'func'
p3039
S'restricted'
p3040
sa(dp3041
g3016
S'/home/ian/web/web2py/applications/paideia/controllers/exploring.py'
p3042
sg3018
(dp3043
S'builtinmap'
p3044
S'<built-in function map>'
p3045
sS'counter'
p3046
S'undefined'
p3047
sS'paideia_tag'
p3048
g3047
sS'paideia_exploring'
p3049
g3047
sS'paideia_path'
p3050
g3047
ssg3024
I2
sg3025
(dp3051
I2
S'from paideia_exploring import paideia_path, paideia_tag, counter, map'
p3052
sI3
S'from paideia_questions import question'
p3053
sI4
S'import pprint'
p3054
sI5
S''
sI6
S'def session_init():'
p3055
sI7
S"    print 'calling session_init'"
p3056
sI8
S''
sI9
S'    #categorize paths for today'
p3057
sI10
S'    tags = paideia_tag()'
p3058
sI11
S'    session.tagset = tags.categorize_tags()'
p3059
ssg3037
S'()'
p3060
sg3039
S'<module>'
p3061
sa(dp3062
g3016
S'/home/ian/web/web2py/gluon/custom_import.py'
p3063
sg3018
(dp3064
S'fromlist'
p3065
S"('paideia_path', 'paideia_tag', 'counter', 'map')"
p3066
sS'globals'
p3067
S"{'A': <class 'gluon.html.A'>, 'AjaxSelect': <class applications.paideia.modules.plugin_ajaxselect.AjaxSelect>, 'Auth': <class 'gluon.tools.Auth'>, 'B': <class 'gluon.html.B'>, 'BEAUTIFY': <class 'gluon.html.BEAUTIFY'>, 'BODY': <class 'gluon.html.BODY'>, 'BR': <class 'gluon.html.BR'>, 'BUTTON': <class 'gluon.html.BUTTON'>, 'CAT': <class 'gluon.html.CAT'>, 'CENTER': <class 'gluon.html.CENTER'>, ...}"
p3068
sS'locals'
p3069
S"{'A': <class 'gluon.html.A'>, 'AjaxSelect': <class applications.paideia.modules.plugin_ajaxselect.AjaxSelect>, 'Auth': <class 'gluon.tools.Auth'>, 'B': <class 'gluon.html.B'>, 'BEAUTIFY': <class 'gluon.html.BEAUTIFY'>, 'BODY': <class 'gluon.html.BODY'>, 'BR': <class 'gluon.html.BR'>, 'BUTTON': <class 'gluon.html.BUTTON'>, 'CAT': <class 'gluon.html.CAT'>, 'CENTER': <class 'gluon.html.CENTER'>, ...}"
p3070
sS'level'
p3071
S'-1'
p3072
ssg3024
I289
sg3025
(dp3073
I288
S'                            .__call__(modules_prefix+"."+name,'
p3074
sI289
S'                                    globals, locals, fromlist, level)'
p3075
sI290
S'                except ImportError:'
p3076
sI291
S'                    pass'
p3077
sI292
S'        return super(_Web2pyImporter, self).__call__(name, globals, locals,'
p3078
sI293
S'                                                    fromlist, level)'
p3079
sI284
S'                            globals, locals, fromlist, level)'
p3080
sI285
S'                    else:'
p3081
sI286
S'                        # import like "from x import a, b, ..."'
p3082
sI287
S'                        return super(_Web2pyImporter, self) \\'
p3083
ssg3037
S"(self=<gluon.custom_import._Web2pyDateTrackerImporter object>, name='paideia_exploring', globals={'A': <class 'gluon.html.A'>, 'AjaxSelect': <class applications.paideia.modules.plugin_ajaxselect.AjaxSelect>, 'Auth': <class 'gluon.tools.Auth'>, 'B': <class 'gluon.html.B'>, 'BEAUTIFY': <class 'gluon.html.BEAUTIFY'>, 'BODY': <class 'gluon.html.BODY'>, 'BR': <class 'gluon.html.BR'>, 'BUTTON': <class 'gluon.html.BUTTON'>, 'CAT': <class 'gluon.html.CAT'>, 'CENTER': <class 'gluon.html.CENTER'>, ...}, locals={'A': <class 'gluon.html.A'>, 'AjaxSelect': <class applications.paideia.modules.plugin_ajaxselect.AjaxSelect>, 'Auth': <class 'gluon.tools.Auth'>, 'B': <class 'gluon.html.B'>, 'BEAUTIFY': <class 'gluon.html.BEAUTIFY'>, 'BODY': <class 'gluon.html.BODY'>, 'BR': <class 'gluon.html.BR'>, 'BUTTON': <class 'gluon.html.BUTTON'>, 'CAT': <class 'gluon.html.CAT'>, 'CENTER': <class 'gluon.html.CENTER'>, ...}, fromlist=('paideia_path', 'paideia_tag', 'counter', 'map'), level=-1)"
p3084
sg3039
S'__call__'
p3085
sa(dp3086
g3016
S'/home/ian/web/web2py/gluon/custom_import.py'
p3087
sg3018
(dp3088
S'e'
S'SyntaxError(\'invalid syntax\', (\'applications/pai...          print \'raw catXpaths = \' catXpaths\\n"))'
p3089
ssg3024
I132
sg3025
(dp3090
I128
S'            # Module maybe loaded for the 1st time so we need to set the date'
p3091
sI129
S'            self._update_dates(name, fromlist)'
p3092
sI130
S'            return result'
p3093
sI131
S'        except Exception, e:'
p3094
sI132
S"            raise e  # Don't hide something that went wrong"
p3095
sI133
S'        finally:'
p3096
sI134
S'            if call_begin_end:'
p3097
sI135
S'                self.end()'
p3098
sI136
S''
sI127
S'              .__call__(name, globals, locals, fromlist, level)'
p3099
ssg3037
S"(self=<gluon.custom_import._Web2pyDateTrackerImporter object>, name='applications.paideia.modules.paideia_exploring', globals={'A': <class 'gluon.html.A'>, 'AjaxSelect': <class applications.paideia.modules.plugin_ajaxselect.AjaxSelect>, 'Auth': <class 'gluon.tools.Auth'>, 'B': <class 'gluon.html.B'>, 'BEAUTIFY': <class 'gluon.html.BEAUTIFY'>, 'BODY': <class 'gluon.html.BODY'>, 'BR': <class 'gluon.html.BR'>, 'BUTTON': <class 'gluon.html.BUTTON'>, 'CAT': <class 'gluon.html.CAT'>, 'CENTER': <class 'gluon.html.CENTER'>, ...}, locals={'A': <class 'gluon.html.A'>, 'AjaxSelect': <class applications.paideia.modules.plugin_ajaxselect.AjaxSelect>, 'Auth': <class 'gluon.tools.Auth'>, 'B': <class 'gluon.html.B'>, 'BEAUTIFY': <class 'gluon.html.BEAUTIFY'>, 'BODY': <class 'gluon.html.BODY'>, 'BR': <class 'gluon.html.BR'>, 'BUTTON': <class 'gluon.html.BUTTON'>, 'CAT': <class 'gluon.html.CAT'>, 'CENTER': <class 'gluon.html.CENTER'>, ...}, fromlist=('paideia_path', 'paideia_tag', 'counter', 'map'), level=-1)"
p3100
sg3039
g3085
sasS'pyver'
p3101
S'Python 2.7.3rc1: /usr/bin/python2.7'
p3102
sS'session'
p3103
g69
(g70
g71
NtRp3104
(dp3105
g74
(dp3106
sg76
(lp3107
g69
(g78
g71
NtRp3108
(dp3109
g74
(dp3110
g82
I5
ssg83
Nsg76
(lp3111
g69
(g85
g71
NtRp3112
(dp3113
g74
(dp3114
sg83
g3108
sg76
(lp3115
g69
(g90
g71
NtRp3116
(dp3117
g74
(dp3118
g94
g95
ssg83
g3112
sg76
(lp3119
S'active_paths'
p3120
asbag69
(g90
g71
NtRp3121
(dp3122
g74
(dp3123
g101
g102
ssg83
g3112
sg76
(lp3124
S':'
asbag69
(g90
g71
NtRp3125
(dp3126
g74
(dp3127
sg83
g3112
sg76
(lp3128
g69
(g70
g71
NtRp3129
(dp3130
g74
(dp3131
g82
I5
ssg83
g3125
sg76
(lp3132
g69
(g78
g71
NtRp3133
(dp3134
g74
(dp3135
g82
I4
ssg83
Nsg76
(lp3136
g69
(g85
g71
NtRp3137
(dp3138
g74
(dp3139
sg83
g3133
sg76
(lp3140
g69
(g90
g71
NtRp3141
(dp3142
g74
(dp3143
g94
g95
ssg83
g3137
sg76
(lp3144
S'3'
asbag69
(g90
g71
NtRp3145
(dp3146
g74
(dp3147
g101
g102
ssg83
g3137
sg76
(lp3148
S':'
asbag69
(g90
g71
NtRp3149
(dp3150
g74
(dp3151
sg83
g3137
sg76
(lp3152
g69
(g70
g71
NtRp3153
(dp3154
g74
(dp3155
g82
I4
ssg83
g3149
sg76
(lp3156
S'1'
asbasbasbasbasbasbasbag69
(g85
g71
NtRp3157
(dp3158
g74
(dp3159
sg83
g3108
sg76
(lp3160
g69
(g90
g71
NtRp3161
(dp3162
g74
(dp3163
g94
g95
ssg83
g3157
sg76
(lp3164
S'auth'
p3165
asbag69
(g90
g71
NtRp3166
(dp3167
g74
(dp3168
g101
g102
ssg83
g3157
sg76
(lp3169
S':'
asbag69
(g90
g71
NtRp3170
(dp3171
g74
(dp3172
sg83
g3157
sg76
(lp3173
g69
(g70
g71
NtRp3174
(dp3175
g74
(dp3176
g82
I5
ssg83
g3170
sg76
(lp3177
g69
(g78
g71
NtRp3178
(dp3179
g74
(dp3180
g82
I4
ssg83
Nsg76
(lp3181
g69
(g85
g71
NtRp3182
(dp3183
g74
(dp3184
sg83
g3178
sg76
(lp3185
g69
(g90
g71
NtRp3186
(dp3187
g74
(dp3188
g94
g95
ssg83
g3182
sg76
(lp3189
S'expiration'
p3190
asbag69
(g90
g71
NtRp3191
(dp3192
g74
(dp3193
g101
g102
ssg83
g3182
sg76
(lp3194
S':'
asbag69
(g90
g71
NtRp3195
(dp3196
g74
(dp3197
sg83
g3182
sg76
(lp3198
g69
(g70
g71
NtRp3199
(dp3200
g74
(dp3201
g82
I4
ssg83
g3195
sg76
(lp3202
S'2592000'
p3203
asbasbasbag69
(g85
g71
NtRp3204
(dp3205
g74
(dp3206
sg83
g3178
sg76
(lp3207
g69
(g90
g71
NtRp3208
(dp3209
g74
(dp3210
g94
g95
ssg83
g3204
sg76
(lp3211
S'hmac_key'
p3212
asbag69
(g90
g71
NtRp3213
(dp3214
g74
(dp3215
g101
g102
ssg83
g3204
sg76
(lp3216
S':'
asbag69
(g90
g71
NtRp3217
(dp3218
g74
(dp3219
sg83
g3204
sg76
(lp3220
g69
(g70
g71
NtRp3221
(dp3222
g74
(dp3223
g82
I4
ssg83
g3217
sg76
(lp3224
S'cf0843bd-b632-44be-979e-cdc3b6f8efb2'
p3225
asbasbasbag69
(g85
g71
NtRp3226
(dp3227
g74
(dp3228
sg83
g3178
sg76
(lp3229
g69
(g90
g71
NtRp3230
(dp3231
g74
(dp3232
g94
g95
ssg83
g3226
sg76
(lp3233
S'last_visit'
p3234
asbag69
(g90
g71
NtRp3235
(dp3236
g74
(dp3237
g101
g102
ssg83
g3226
sg76
(lp3238
S':'
asbag69
(g90
g71
NtRp3239
(dp3240
g74
(dp3241
sg83
g3226
sg76
(lp3242
g69
(g70
g71
NtRp3243
(dp3244
g74
(dp3245
g82
I4
ssg83
g3239
sg76
(lp3246
S'datetime.datetime(2012, 3, 14, 12, 38, 56, 266988)'
p3247
asbasbasbag69
(g85
g71
NtRp3248
(dp3249
g74
(dp3250
sg83
g3178
sg76
(lp3251
g69
(g90
g71
NtRp3252
(dp3253
g74
(dp3254
g94
g95
ssg83
g3248
sg76
(lp3255
S'remember'
p3256
asbag69
(g90
g71
NtRp3257
(dp3258
g74
(dp3259
g101
g102
ssg83
g3248
sg76
(lp3260
S':'
asbag69
(g90
g71
NtRp3261
(dp3262
g74
(dp3263
sg83
g3248
sg76
(lp3264
g69
(g70
g71
NtRp3265
(dp3266
g74
(dp3267
g82
I4
ssg83
g3261
sg76
(lp3268
g1690
asbasbasbag69
(g85
g71
NtRp3269
(dp3270
g74
(dp3271
sg83
g3178
sg76
(lp3272
g69
(g90
g71
NtRp3273
(dp3274
g74
(dp3275
g94
g95
ssg83
g3269
sg76
(lp3276
S'user'
p3277
asbag69
(g90
g71
NtRp3278
(dp3279
g74
(dp3280
g101
g102
ssg83
g3269
sg76
(lp3281
S':'
asbag69
(g90
g71
NtRp3282
(dp3283
g74
(dp3284
sg83
g3269
sg76
(lp3285
g69
(g70
g71
NtRp3286
(dp3287
g74
(dp3288
g82
I4
ssg83
g3282
sg76
(lp3289
g69
(g78
g71
NtRp3290
(dp3291
g74
(dp3292
g82
I3
ssg83
Nsg76
(lp3293
g69
(g85
g71
NtRp3294
(dp3295
g74
(dp3296
sg83
g3290
sg76
(lp3297
g69
(g90
g71
NtRp3298
(dp3299
g74
(dp3300
g94
g95
ssg83
g3294
sg76
(lp3301
S'email'
p3302
asbag69
(g90
g71
NtRp3303
(dp3304
g74
(dp3305
g101
g102
ssg83
g3294
sg76
(lp3306
S':'
asbag69
(g90
g71
NtRp3307
(dp3308
g74
(dp3309
sg83
g3294
sg76
(lp3310
g69
(g70
g71
NtRp3311
(dp3312
g74
(dp3313
g82
I3
ssg83
g3307
sg76
(lp3314
S'scottianw@gmail.com'
p3315
asbasbasbag69
(g85
g71
NtRp3316
(dp3317
g74
(dp3318
sg83
g3290
sg76
(lp3319
g69
(g90
g71
NtRp3320
(dp3321
g74
(dp3322
g94
g95
ssg83
g3316
sg76
(lp3323
S'first_name'
p3324
asbag69
(g90
g71
NtRp3325
(dp3326
g74
(dp3327
g101
g102
ssg83
g3316
sg76
(lp3328
S':'
asbag69
(g90
g71
NtRp3329
(dp3330
g74
(dp3331
sg83
g3316
sg76
(lp3332
g69
(g70
g71
NtRp3333
(dp3334
g74
(dp3335
g82
I3
ssg83
g3329
sg76
(lp3336
S'Ian'
p3337
asbasbasbag69
(g85
g71
NtRp3338
(dp3339
g74
(dp3340
sg83
g3290
sg76
(lp3341
g69
(g90
g71
NtRp3342
(dp3343
g74
(dp3344
g94
g95
ssg83
g3338
sg76
(lp3345
S'id'
p3346
asbag69
(g90
g71
NtRp3347
(dp3348
g74
(dp3349
g101
g102
ssg83
g3338
sg76
(lp3350
S':'
asbag69
(g90
g71
NtRp3351
(dp3352
g74
(dp3353
sg83
g3338
sg76
(lp3354
g69
(g70
g71
NtRp3355
(dp3356
g74
(dp3357
g82
I3
ssg83
g3351
sg76
(lp3358
S'2'
asbasbasbag69
(g85
g71
NtRp3359
(dp3360
g74
(dp3361
sg83
g3290
sg76
(lp3362
g69
(g90
g71
NtRp3363
(dp3364
g74
(dp3365
g94
g95
ssg83
g3359
sg76
(lp3366
S'last_name'
p3367
asbag69
(g90
g71
NtRp3368
(dp3369
g74
(dp3370
g101
g102
ssg83
g3359
sg76
(lp3371
S':'
asbag69
(g90
g71
NtRp3372
(dp3373
g74
(dp3374
sg83
g3359
sg76
(lp3375
g69
(g70
g71
NtRp3376
(dp3377
g74
(dp3378
g82
I3
ssg83
g3372
sg76
(lp3379
S'Scott'
p3380
asbasbasbag69
(g85
g71
NtRp3381
(dp3382
g74
(dp3383
sg83
g3290
sg76
(lp3384
g69
(g90
g71
NtRp3385
(dp3386
g74
(dp3387
g94
g95
ssg83
g3381
sg76
(lp3388
S'password'
p3389
asbag69
(g90
g71
NtRp3390
(dp3391
g74
(dp3392
g101
g102
ssg83
g3381
sg76
(lp3393
S':'
asbag69
(g90
g71
NtRp3394
(dp3395
g74
(dp3396
sg83
g3381
sg76
(lp3397
g69
(g70
g71
NtRp3398
(dp3399
g74
(dp3400
g82
I3
ssg83
g3394
sg76
(lp3401
S'19738f1e9a2c8eaac81936a86bf608a1a6995e02f527fa31723cb88a2e513a1efae33471354a02805bf25ea2ea17a59c025a5fc8eca6b3bb2137bda74e538737'
p3402
asbasbasbag69
(g85
g71
NtRp3403
(dp3404
g74
(dp3405
sg83
g3290
sg76
(lp3406
g69
(g90
g71
NtRp3407
(dp3408
g74
(dp3409
g94
g95
ssg83
g3403
sg76
(lp3410
S'registration_id'
p3411
asbag69
(g90
g71
NtRp3412
(dp3413
g74
(dp3414
g101
g102
ssg83
g3403
sg76
(lp3415
S':'
asbag69
(g90
g71
NtRp3416
(dp3417
g74
(dp3418
sg83
g3403
sg76
(lp3419
g69
(g70
g71
NtRp3420
(dp3421
g74
(dp3422
g82
I3
ssg83
g3416
sg76
(lp3423
S'None'
p3424
asbasbasbag69
(g85
g71
NtRp3425
(dp3426
g74
(dp3427
sg83
g3290
sg76
(lp3428
g69
(g90
g71
NtRp3429
(dp3430
g74
(dp3431
g94
g95
ssg83
g3425
sg76
(lp3432
S'registration_key'
p3433
asbag69
(g90
g71
NtRp3434
(dp3435
g74
(dp3436
g101
g102
ssg83
g3425
sg76
(lp3437
S':'
asbag69
(g90
g71
NtRp3438
(dp3439
g74
(dp3440
sg83
g3425
sg76
(lp3441
g69
(g70
g71
NtRp3442
(dp3443
g74
(dp3444
g82
I3
ssg83
g3438
sg76
(lp3445
S''
asbasbasbag69
(g85
g71
NtRp3446
(dp3447
g74
(dp3448
sg83
g3290
sg76
(lp3449
g69
(g90
g71
NtRp3450
(dp3451
g74
(dp3452
g94
g95
ssg83
g3446
sg76
(lp3453
S'reset_password_key'
p3454
asbag69
(g90
g71
NtRp3455
(dp3456
g74
(dp3457
g101
g102
ssg83
g3446
sg76
(lp3458
S':'
asbag69
(g90
g71
NtRp3459
(dp3460
g74
(dp3461
sg83
g3446
sg76
(lp3462
g69
(g70
g71
NtRp3463
(dp3464
g74
(dp3465
g82
I3
ssg83
g3459
sg76
(lp3466
S'1327083713-2cc5b0bb-81c6-473e-adeb-2160a9624c63'
p3467
asbasbasbasbasbasbasbasbasbasbasbag69
(g85
g71
NtRp3468
(dp3469
g74
(dp3470
sg83
g3108
sg76
(lp3471
g69
(g90
g71
NtRp3472
(dp3473
g74
(dp3474
g94
g95
ssg83
g3468
sg76
(lp3475
S'blocks'
p3476
asbag69
(g90
g71
NtRp3477
(dp3478
g74
(dp3479
g101
g102
ssg83
g3468
sg76
(lp3480
S':'
asbag69
(g90
g71
NtRp3481
(dp3482
g74
(dp3483
sg83
g3468
sg76
(lp3484
g69
(g70
g71
NtRp3485
(dp3486
g74
(dp3487
g82
I5
ssg83
g3481
sg76
(lp3488
S'None'
p3489
asbasbasbag69
(g85
g71
NtRp3490
(dp3491
g74
(dp3492
sg83
g3108
sg76
(lp3493
g69
(g90
g71
NtRp3494
(dp3495
g74
(dp3496
g94
g95
ssg83
g3490
sg76
(lp3497
S'completed_paths'
p3498
asbag69
(g90
g71
NtRp3499
(dp3500
g74
(dp3501
g101
g102
ssg83
g3490
sg76
(lp3502
S':'
asbag69
(g90
g71
NtRp3503
(dp3504
g74
(dp3505
sg83
g3490
sg76
(lp3506
g69
(g70
g71
NtRp3507
(dp3508
g74
(dp3509
g82
I5
ssg83
g3503
sg76
(lp3510
g69
(g78
g71
NtRp3511
(dp3512
g74
(dp3513
g82
I4
ssg83
Nsg76
(lp3514
g69
(g85
g71
NtRp3515
(dp3516
g74
(dp3517
sg83
g3511
sg76
(lp3518
g69
(g90
g71
NtRp3519
(dp3520
g74
(dp3521
sg83
g3515
sg76
(lp3522
g69
(g70
g71
NtRp3523
(dp3524
g74
(dp3525
g82
I4
ssg83
g3519
sg76
(lp3526
S'3'
asbasbasbag69
(g85
g71
NtRp3527
(dp3528
g74
(dp3529
sg83
g3511
sg76
(lp3530
g69
(g90
g71
NtRp3531
(dp3532
g74
(dp3533
sg83
g3527
sg76
(lp3534
g69
(g70
g71
NtRp3535
(dp3536
g74
(dp3537
g82
I4
ssg83
g3531
sg76
(lp3538
S'3'
asbasbasbasbasbasbasbag69
(g85
g71
NtRp3539
(dp3540
g74
(dp3541
sg83
g3108
sg76
(lp3542
g69
(g90
g71
NtRp3543
(dp3544
g74
(dp3545
g94
g95
ssg83
g3539
sg76
(lp3546
S'debug'
p3547
asbag69
(g90
g71
NtRp3548
(dp3549
g74
(dp3550
g101
g102
ssg83
g3539
sg76
(lp3551
S':'
asbag69
(g90
g71
NtRp3552
(dp3553
g74
(dp3554
sg83
g3539
sg76
(lp3555
g69
(g70
g71
NtRp3556
(dp3557
g74
(dp3558
g82
I5
ssg83
g3552
sg76
(lp3559
g69
(g78
g71
NtRp3560
(dp3561
g74
(dp3562
g82
I4
ssg83
Nsg76
(lp3563
g69
(g85
g71
NtRp3564
(dp3565
g74
(dp3566
sg83
g3560
sg76
(lp3567
g69
(g90
g71
NtRp3568
(dp3569
g74
(dp3570
g94
g95
ssg83
g3564
sg76
(lp3571
S'2011-10-24'
p3572
asbag69
(g90
g71
NtRp3573
(dp3574
g74
(dp3575
g101
g102
ssg83
g3564
sg76
(lp3576
S':'
asbag69
(g90
g71
NtRp3577
(dp3578
g74
(dp3579
sg83
g3564
sg76
(lp3580
g69
(g70
g71
NtRp3581
(dp3582
g74
(dp3583
g82
I4
ssg83
g3577
sg76
(lp3584
S'8'
asbasbasbag69
(g85
g71
NtRp3585
(dp3586
g74
(dp3587
sg83
g3560
sg76
(lp3588
g69
(g90
g71
NtRp3589
(dp3590
g74
(dp3591
g94
g95
ssg83
g3585
sg76
(lp3592
S'2011-10-25'
p3593
asbag69
(g90
g71
NtRp3594
(dp3595
g74
(dp3596
g101
g102
ssg83
g3585
sg76
(lp3597
S':'
asbag69
(g90
g71
NtRp3598
(dp3599
g74
(dp3600
sg83
g3585
sg76
(lp3601
g69
(g70
g71
NtRp3602
(dp3603
g74
(dp3604
g82
I4
ssg83
g3598
sg76
(lp3605
S'2'
asbasbasbag69
(g85
g71
NtRp3606
(dp3607
g74
(dp3608
sg83
g3560
sg76
(lp3609
g69
(g90
g71
NtRp3610
(dp3611
g74
(dp3612
g94
g95
ssg83
g3606
sg76
(lp3613
S'2011-10-26'
p3614
asbag69
(g90
g71
NtRp3615
(dp3616
g74
(dp3617
g101
g102
ssg83
g3606
sg76
(lp3618
S':'
asbag69
(g90
g71
NtRp3619
(dp3620
g74
(dp3621
sg83
g3606
sg76
(lp3622
g69
(g70
g71
NtRp3623
(dp3624
g74
(dp3625
g82
I4
ssg83
g3619
sg76
(lp3626
S'11'
p3627
asbasbasbag69
(g85
g71
NtRp3628
(dp3629
g74
(dp3630
sg83
g3560
sg76
(lp3631
g69
(g90
g71
NtRp3632
(dp3633
g74
(dp3634
g94
g95
ssg83
g3628
sg76
(lp3635
S'2011-10-31'
p3636
asbag69
(g90
g71
NtRp3637
(dp3638
g74
(dp3639
g101
g102
ssg83
g3628
sg76
(lp3640
S':'
asbag69
(g90
g71
NtRp3641
(dp3642
g74
(dp3643
sg83
g3628
sg76
(lp3644
g69
(g70
g71
NtRp3645
(dp3646
g74
(dp3647
g82
I4
ssg83
g3641
sg76
(lp3648
S'29'
p3649
asbasbasbag69
(g85
g71
NtRp3650
(dp3651
g74
(dp3652
sg83
g3560
sg76
(lp3653
g69
(g90
g71
NtRp3654
(dp3655
g74
(dp3656
g94
g95
ssg83
g3650
sg76
(lp3657
S'2011-11-01'
p3658
asbag69
(g90
g71
NtRp3659
(dp3660
g74
(dp3661
g101
g102
ssg83
g3650
sg76
(lp3662
S':'
asbag69
(g90
g71
NtRp3663
(dp3664
g74
(dp3665
sg83
g3650
sg76
(lp3666
g69
(g70
g71
NtRp3667
(dp3668
g74
(dp3669
g82
I4
ssg83
g3663
sg76
(lp3670
S'11'
p3671
asbasbasbag69
(g85
g71
NtRp3672
(dp3673
g74
(dp3674
sg83
g3560
sg76
(lp3675
g69
(g90
g71
NtRp3676
(dp3677
g74
(dp3678
g94
g95
ssg83
g3672
sg76
(lp3679
S'2011-11-09'
p3680
asbag69
(g90
g71
NtRp3681
(dp3682
g74
(dp3683
g101
g102
ssg83
g3672
sg76
(lp3684
S':'
asbag69
(g90
g71
NtRp3685
(dp3686
g74
(dp3687
sg83
g3672
sg76
(lp3688
g69
(g70
g71
NtRp3689
(dp3690
g74
(dp3691
g82
I4
ssg83
g3685
sg76
(lp3692
S'2'
asbasbasbag69
(g85
g71
NtRp3693
(dp3694
g74
(dp3695
sg83
g3560
sg76
(lp3696
g69
(g90
g71
NtRp3697
(dp3698
g74
(dp3699
g94
g95
ssg83
g3693
sg76
(lp3700
S'2011-11-10'
p3701
asbag69
(g90
g71
NtRp3702
(dp3703
g74
(dp3704
g101
g102
ssg83
g3693
sg76
(lp3705
S':'
asbag69
(g90
g71
NtRp3706
(dp3707
g74
(dp3708
sg83
g3693
sg76
(lp3709
g69
(g70
g71
NtRp3710
(dp3711
g74
(dp3712
g82
I4
ssg83
g3706
sg76
(lp3713
S'14'
p3714
asbasbasbag69
(g85
g71
NtRp3715
(dp3716
g74
(dp3717
sg83
g3560
sg76
(lp3718
g69
(g90
g71
NtRp3719
(dp3720
g74
(dp3721
g94
g95
ssg83
g3715
sg76
(lp3722
S'2011-11-11'
p3723
asbag69
(g90
g71
NtRp3724
(dp3725
g74
(dp3726
g101
g102
ssg83
g3715
sg76
(lp3727
S':'
asbag69
(g90
g71
NtRp3728
(dp3729
g74
(dp3730
sg83
g3715
sg76
(lp3731
g69
(g70
g71
NtRp3732
(dp3733
g74
(dp3734
g82
I4
ssg83
g3728
sg76
(lp3735
S'56'
p3736
asbasbasbag69
(g85
g71
NtRp3737
(dp3738
g74
(dp3739
sg83
g3560
sg76
(lp3740
g69
(g90
g71
NtRp3741
(dp3742
g74
(dp3743
g94
g95
ssg83
g3737
sg76
(lp3744
S'2011-11-12'
p3745
asbag69
(g90
g71
NtRp3746
(dp3747
g74
(dp3748
g101
g102
ssg83
g3737
sg76
(lp3749
S':'
asbag69
(g90
g71
NtRp3750
(dp3751
g74
(dp3752
sg83
g3737
sg76
(lp3753
g69
(g70
g71
NtRp3754
(dp3755
g74
(dp3756
g82
I4
ssg83
g3750
sg76
(lp3757
S'23'
p3758
asbasbasbag69
(g85
g71
NtRp3759
(dp3760
g74
(dp3761
sg83
g3560
sg76
(lp3762
g69
(g90
g71
NtRp3763
(dp3764
g74
(dp3765
g94
g95
ssg83
g3759
sg76
(lp3766
S'2011-11-15'
p3767
asbag69
(g90
g71
NtRp3768
(dp3769
g74
(dp3770
g101
g102
ssg83
g3759
sg76
(lp3771
S':'
asbag69
(g90
g71
NtRp3772
(dp3773
g74
(dp3774
sg83
g3759
sg76
(lp3775
g69
(g70
g71
NtRp3776
(dp3777
g74
(dp3778
g82
I4
ssg83
g3772
sg76
(lp3779
S'10'
p3780
asbasbasbag69
(g85
g71
NtRp3781
(dp3782
g74
(dp3783
sg83
g3560
sg76
(lp3784
g69
(g90
g71
NtRp3785
(dp3786
g74
(dp3787
g94
g95
ssg83
g3781
sg76
(lp3788
S'2011-11-16'
p3789
asbag69
(g90
g71
NtRp3790
(dp3791
g74
(dp3792
g101
g102
ssg83
g3781
sg76
(lp3793
S':'
asbag69
(g90
g71
NtRp3794
(dp3795
g74
(dp3796
sg83
g3781
sg76
(lp3797
g69
(g70
g71
NtRp3798
(dp3799
g74
(dp3800
g82
I4
ssg83
g3794
sg76
(lp3801
S'21'
p3802
asbasbasbag69
(g85
g71
NtRp3803
(dp3804
g74
(dp3805
sg83
g3560
sg76
(lp3806
g69
(g90
g71
NtRp3807
(dp3808
g74
(dp3809
g94
g95
ssg83
g3803
sg76
(lp3810
S'2011-11-25'
p3811
asbag69
(g90
g71
NtRp3812
(dp3813
g74
(dp3814
g101
g102
ssg83
g3803
sg76
(lp3815
S':'
asbag69
(g90
g71
NtRp3816
(dp3817
g74
(dp3818
sg83
g3803
sg76
(lp3819
g69
(g70
g71
NtRp3820
(dp3821
g74
(dp3822
g82
I4
ssg83
g3816
sg76
(lp3823
S'5'
asbasbasbag69
(g85
g71
NtRp3824
(dp3825
g74
(dp3826
sg83
g3560
sg76
(lp3827
g69
(g90
g71
NtRp3828
(dp3829
g74
(dp3830
g94
g95
ssg83
g3824
sg76
(lp3831
S'2012-01-16'
p3832
asbag69
(g90
g71
NtRp3833
(dp3834
g74
(dp3835
g101
g102
ssg83
g3824
sg76
(lp3836
S':'
asbag69
(g90
g71
NtRp3837
(dp3838
g74
(dp3839
sg83
g3824
sg76
(lp3840
g69
(g70
g71
NtRp3841
(dp3842
g74
(dp3843
g82
I4
ssg83
g3837
sg76
(lp3844
S'1'
asbasbasbag69
(g85
g71
NtRp3845
(dp3846
g74
(dp3847
sg83
g3560
sg76
(lp3848
g69
(g90
g71
NtRp3849
(dp3850
g74
(dp3851
g94
g95
ssg83
g3845
sg76
(lp3852
S'2012-01-18'
p3853
asbag69
(g90
g71
NtRp3854
(dp3855
g74
(dp3856
g101
g102
ssg83
g3845
sg76
(lp3857
S':'
asbag69
(g90
g71
NtRp3858
(dp3859
g74
(dp3860
sg83
g3845
sg76
(lp3861
g69
(g70
g71
NtRp3862
(dp3863
g74
(dp3864
g82
I4
ssg83
g3858
sg76
(lp3865
S'2'
asbasbasbag69
(g85
g71
NtRp3866
(dp3867
g74
(dp3868
sg83
g3560
sg76
(lp3869
g69
(g90
g71
NtRp3870
(dp3871
g74
(dp3872
g94
g95
ssg83
g3866
sg76
(lp3873
S'2012-01-20'
p3874
asbag69
(g90
g71
NtRp3875
(dp3876
g74
(dp3877
g101
g102
ssg83
g3866
sg76
(lp3878
S':'
asbag69
(g90
g71
NtRp3879
(dp3880
g74
(dp3881
sg83
g3866
sg76
(lp3882
g69
(g70
g71
NtRp3883
(dp3884
g74
(dp3885
g82
I4
ssg83
g3879
sg76
(lp3886
S'20'
p3887
asbasbasbag69
(g85
g71
NtRp3888
(dp3889
g74
(dp3890
sg83
g3560
sg76
(lp3891
g69
(g90
g71
NtRp3892
(dp3893
g74
(dp3894
g94
g95
ssg83
g3888
sg76
(lp3895
S'2012-01-25'
p3896
asbag69
(g90
g71
NtRp3897
(dp3898
g74
(dp3899
g101
g102
ssg83
g3888
sg76
(lp3900
S':'
asbag69
(g90
g71
NtRp3901
(dp3902
g74
(dp3903
sg83
g3888
sg76
(lp3904
g69
(g70
g71
NtRp3905
(dp3906
g74
(dp3907
g82
I4
ssg83
g3901
sg76
(lp3908
S'7'
asbasbasbag69
(g85
g71
NtRp3909
(dp3910
g74
(dp3911
sg83
g3560
sg76
(lp3912
g69
(g90
g71
NtRp3913
(dp3914
g74
(dp3915
g94
g95
ssg83
g3909
sg76
(lp3916
S'2012-01-27'
p3917
asbag69
(g90
g71
NtRp3918
(dp3919
g74
(dp3920
g101
g102
ssg83
g3909
sg76
(lp3921
S':'
asbag69
(g90
g71
NtRp3922
(dp3923
g74
(dp3924
sg83
g3909
sg76
(lp3925
g69
(g70
g71
NtRp3926
(dp3927
g74
(dp3928
g82
I4
ssg83
g3922
sg76
(lp3929
S'24'
p3930
asbasbasbag69
(g85
g71
NtRp3931
(dp3932
g74
(dp3933
sg83
g3560
sg76
(lp3934
g69
(g90
g71
NtRp3935
(dp3936
g74
(dp3937
g94
g95
ssg83
g3931
sg76
(lp3938
S'2012-02-02'
p3939
asbag69
(g90
g71
NtRp3940
(dp3941
g74
(dp3942
g101
g102
ssg83
g3931
sg76
(lp3943
S':'
asbag69
(g90
g71
NtRp3944
(dp3945
g74
(dp3946
sg83
g3931
sg76
(lp3947
g69
(g70
g71
NtRp3948
(dp3949
g74
(dp3950
g82
I4
ssg83
g3944
sg76
(lp3951
S'22'
p3952
asbasbasbag69
(g85
g71
NtRp3953
(dp3954
g74
(dp3955
sg83
g3560
sg76
(lp3956
g69
(g90
g71
NtRp3957
(dp3958
g74
(dp3959
g94
g95
ssg83
g3953
sg76
(lp3960
S'2012-02-07'
p3961
asbag69
(g90
g71
NtRp3962
(dp3963
g74
(dp3964
g101
g102
ssg83
g3953
sg76
(lp3965
S':'
asbag69
(g90
g71
NtRp3966
(dp3967
g74
(dp3968
sg83
g3953
sg76
(lp3969
g69
(g70
g71
NtRp3970
(dp3971
g74
(dp3972
g82
I4
ssg83
g3966
sg76
(lp3973
S'3'
asbasbasbasbasbasbasbag69
(g85
g71
NtRp3974
(dp3975
g74
(dp3976
sg83
g3108
sg76
(lp3977
g69
(g90
g71
NtRp3978
(dp3979
g74
(dp3980
g94
g95
ssg83
g3974
sg76
(lp3981
S'last_query'
p3982
asbag69
(g90
g71
NtRp3983
(dp3984
g74
(dp3985
g101
g102
ssg83
g3974
sg76
(lp3986
S':'
asbag69
(g90
g71
NtRp3987
(dp3988
g74
(dp3989
sg83
g3974
sg76
(lp3990
g69
(g70
g71
NtRp3991
(dp3992
g74
(dp3993
g82
I5
ssg83
g3987
sg76
(lp3994
S'db.steps.id>0'
p3995
asbasbasbag69
(g85
g71
NtRp3996
(dp3997
g74
(dp3998
sg83
g3108
sg76
(lp3999
g69
(g90
g71
NtRp4000
(dp4001
g74
(dp4002
g94
g95
ssg83
g3996
sg76
(lp4003
S'paths_npcs_loader'
p4004
asbag69
(g90
g71
NtRp4005
(dp4006
g74
(dp4007
g101
g102
ssg83
g3996
sg76
(lp4008
S':'
asbag69
(g90
g71
NtRp4009
(dp4010
g74
(dp4011
sg83
g3996
sg76
(lp4012
g69
(g70
g71
NtRp4013
(dp4014
g74
(dp4015
g82
I5
ssg83
g4009
sg76
(lp4016
S'None'
p4017
asbasbasbag69
(g85
g71
NtRp4018
(dp4019
g74
(dp4020
sg83
g3108
sg76
(lp4021
g69
(g90
g71
NtRp4022
(dp4023
g74
(dp4024
g94
g95
ssg83
g4018
sg76
(lp4025
S'paths_steps_loader'
p4026
asbag69
(g90
g71
NtRp4027
(dp4028
g74
(dp4029
g101
g102
ssg83
g4018
sg76
(lp4030
S':'
asbag69
(g90
g71
NtRp4031
(dp4032
g74
(dp4033
sg83
g4018
sg76
(lp4034
g69
(g70
g71
NtRp4035
(dp4036
g74
(dp4037
g82
I5
ssg83
g4031
sg76
(lp4038
S'None'
p4039
asbasbasbag69
(g85
g71
NtRp4040
(dp4041
g74
(dp4042
sg83
g3108
sg76
(lp4043
g69
(g90
g71
NtRp4044
(dp4045
g74
(dp4046
g94
g95
ssg83
g4040
sg76
(lp4047
S'steps_locations_loader'
p4048
asbag69
(g90
g71
NtRp4049
(dp4050
g74
(dp4051
g101
g102
ssg83
g4040
sg76
(lp4052
S':'
asbag69
(g90
g71
NtRp4053
(dp4054
g74
(dp4055
sg83
g4040
sg76
(lp4056
g69
(g70
g71
NtRp4057
(dp4058
g74
(dp4059
g82
I5
ssg83
g4053
sg76
(lp4060
S'None'
p4061
asbasbasbag69
(g85
g71
NtRp4062
(dp4063
g74
(dp4064
sg83
g3108
sg76
(lp4065
g69
(g90
g71
NtRp4066
(dp4067
g74
(dp4068
g94
g95
ssg83
g4062
sg76
(lp4069
S'steps_npcs_loader'
p4070
asbag69
(g90
g71
NtRp4071
(dp4072
g74
(dp4073
g101
g102
ssg83
g4062
sg76
(lp4074
S':'
asbag69
(g90
g71
NtRp4075
(dp4076
g74
(dp4077
sg83
g4062
sg76
(lp4078
g69
(g70
g71
NtRp4079
(dp4080
g74
(dp4081
g82
I5
ssg83
g4075
sg76
(lp4082
S'None'
p4083
asbasbasbag69
(g85
g71
NtRp4084
(dp4085
g74
(dp4086
sg83
g3108
sg76
(lp4087
g69
(g90
g71
NtRp4088
(dp4089
g74
(dp4090
g94
g95
ssg83
g4084
sg76
(lp4091
S'steps_tags_loader'
p4092
asbag69
(g90
g71
NtRp4093
(dp4094
g74
(dp4095
g101
g102
ssg83
g4084
sg76
(lp4096
S':'
asbag69
(g90
g71
NtRp4097
(dp4098
g74
(dp4099
sg83
g4084
sg76
(lp4100
g69
(g70
g71
NtRp4101
(dp4102
g74
(dp4103
g82
I5
ssg83
g4097
sg76
(lp4104
S'None'
p4105
asbasbasbag69
(g85
g71
NtRp4106
(dp4107
g74
(dp4108
sg83
g3108
sg76
(lp4109
g69
(g90
g71
NtRp4110
(dp4111
g74
(dp4112
g94
g95
ssg83
g4106
sg76
(lp4113
S'steps_tags_secondary_loader'
p4114
asbag69
(g90
g71
NtRp4115
(dp4116
g74
(dp4117
g101
g102
ssg83
g4106
sg76
(lp4118
S':'
asbag69
(g90
g71
NtRp4119
(dp4120
g74
(dp4121
sg83
g4106
sg76
(lp4122
g69
(g70
g71
NtRp4123
(dp4124
g74
(dp4125
g82
I5
ssg83
g4119
sg76
(lp4126
S'None'
p4127
asbasbasbag69
(g85
g71
NtRp4128
(dp4129
g74
(dp4130
sg83
g3108
sg76
(lp4131
g69
(g90
g71
NtRp4132
(dp4133
g74
(dp4134
g94
g95
ssg83
g4128
sg76
(lp4135
S'tagset'
p4136
asbag69
(g90
g71
NtRp4137
(dp4138
g74
(dp4139
g101
g102
ssg83
g4128
sg76
(lp4140
S':'
asbag69
(g90
g71
NtRp4141
(dp4142
g74
(dp4143
sg83
g4128
sg76
(lp4144
g69
(g70
g71
NtRp4145
(dp4146
g74
(dp4147
g82
I5
ssg83
g4141
sg76
(lp4148
g69
(g78
g71
NtRp4149
(dp4150
g74
(dp4151
g82
I4
ssg83
Nsg76
(lp4152
g69
(g85
g71
NtRp4153
(dp4154
g74
(dp4155
sg83
g4149
sg76
(lp4156
g69
(g90
g71
NtRp4157
(dp4158
g74
(dp4159
g94
g95
ssg83
g4153
sg76
(lp4160
S'1'
asbag69
(g90
g71
NtRp4161
(dp4162
g74
(dp4163
g101
g102
ssg83
g4153
sg76
(lp4164
S':'
asbag69
(g90
g71
NtRp4165
(dp4166
g74
(dp4167
sg83
g4153
sg76
(lp4168
g69
(g70
g71
NtRp4169
(dp4170
g74
(dp4171
g82
I4
ssg83
g4165
sg76
(lp4172
g69
(g78
g71
NtRp4173
(dp4174
g74
(dp4175
g82
I3
ssg83
Nsg76
(lp4176
g69
(g85
g71
NtRp4177
(dp4178
g74
(dp4179
sg83
g4173
sg76
(lp4180
g69
(g90
g71
NtRp4181
(dp4182
g74
(dp4183
sg83
g4177
sg76
(lp4184
g69
(g70
g71
NtRp4185
(dp4186
g74
(dp4187
g82
I3
ssg83
g4181
sg76
(lp4188
S'44'
p4189
asbasbasbag69
(g85
g71
NtRp4190
(dp4191
g74
(dp4192
sg83
g4173
sg76
(lp4193
g69
(g90
g71
NtRp4194
(dp4195
g74
(dp4196
sg83
g4190
sg76
(lp4197
g69
(g70
g71
NtRp4198
(dp4199
g74
(dp4200
g82
I3
ssg83
g4194
sg76
(lp4201
S'44'
p4202
asbasbasbag69
(g85
g71
NtRp4203
(dp4204
g74
(dp4205
sg83
g4173
sg76
(lp4206
g69
(g90
g71
NtRp4207
(dp4208
g74
(dp4209
sg83
g4203
sg76
(lp4210
g69
(g70
g71
NtRp4211
(dp4212
g74
(dp4213
g82
I3
ssg83
g4207
sg76
(lp4214
S'44'
p4215
asbasbasbag69
(g85
g71
NtRp4216
(dp4217
g74
(dp4218
sg83
g4173
sg76
(lp4219
g69
(g90
g71
NtRp4220
(dp4221
g74
(dp4222
sg83
g4216
sg76
(lp4223
g69
(g70
g71
NtRp4224
(dp4225
g74
(dp4226
g82
I3
ssg83
g4220
sg76
(lp4227
S'44'
p4228
asbasbasbag69
(g85
g71
NtRp4229
(dp4230
g74
(dp4231
sg83
g4173
sg76
(lp4232
g69
(g90
g71
NtRp4233
(dp4234
g74
(dp4235
sg83
g4229
sg76
(lp4236
g69
(g70
g71
NtRp4237
(dp4238
g74
(dp4239
g82
I3
ssg83
g4233
sg76
(lp4240
S'44'
p4241
asbasbasbag69
(g85
g71
NtRp4242
(dp4243
g74
(dp4244
sg83
g4173
sg76
(lp4245
g69
(g90
g71
NtRp4246
(dp4247
g74
(dp4248
sg83
g4242
sg76
(lp4249
g69
(g70
g71
NtRp4250
(dp4251
g74
(dp4252
g82
I3
ssg83
g4246
sg76
(lp4253
S'18'
p4254
asbasbasbag69
(g85
g71
NtRp4255
(dp4256
g74
(dp4257
sg83
g4173
sg76
(lp4258
g69
(g90
g71
NtRp4259
(dp4260
g74
(dp4261
sg83
g4255
sg76
(lp4262
g69
(g70
g71
NtRp4263
(dp4264
g74
(dp4265
g82
I3
ssg83
g4259
sg76
(lp4266
S'6'
asbasbasbag69
(g85
g71
NtRp4267
(dp4268
g74
(dp4269
sg83
g4173
sg76
(lp4270
g69
(g90
g71
NtRp4271
(dp4272
g74
(dp4273
sg83
g4267
sg76
(lp4274
g69
(g70
g71
NtRp4275
(dp4276
g74
(dp4277
g82
I3
ssg83
g4271
sg76
(lp4278
S'1'
asbasbasbag69
(g85
g71
NtRp4279
(dp4280
g74
(dp4281
sg83
g4173
sg76
(lp4282
g69
(g90
g71
NtRp4283
(dp4284
g74
(dp4285
sg83
g4279
sg76
(lp4286
g69
(g70
g71
NtRp4287
(dp4288
g74
(dp4289
g82
I3
ssg83
g4283
sg76
(lp4290
S'33'
p4291
asbasbasbag69
(g85
g71
NtRp4292
(dp4293
g74
(dp4294
sg83
g4173
sg76
(lp4295
g69
(g90
g71
NtRp4296
(dp4297
g74
(dp4298
sg83
g4292
sg76
(lp4299
g69
(g70
g71
NtRp4300
(dp4301
g74
(dp4302
g82
I3
ssg83
g4296
sg76
(lp4303
S'31'
p4304
asbasbasbag69
(g85
g71
NtRp4305
(dp4306
g74
(dp4307
sg83
g4173
sg76
(lp4308
g69
(g90
g71
NtRp4309
(dp4310
g74
(dp4311
sg83
g4305
sg76
(lp4312
g69
(g70
g71
NtRp4313
(dp4314
g74
(dp4315
g82
I3
ssg83
g4309
sg76
(lp4316
S'12'
p4317
asbasbasbag69
(g85
g71
NtRp4318
(dp4319
g74
(dp4320
sg83
g4173
sg76
(lp4321
g69
(g90
g71
NtRp4322
(dp4323
g74
(dp4324
sg83
g4318
sg76
(lp4325
g69
(g70
g71
NtRp4326
(dp4327
g74
(dp4328
g82
I3
ssg83
g4322
sg76
(lp4329
S'2'
asbasbasbag69
(g85
g71
NtRp4330
(dp4331
g74
(dp4332
sg83
g4173
sg76
(lp4333
g69
(g90
g71
NtRp4334
(dp4335
g74
(dp4336
sg83
g4330
sg76
(lp4337
g69
(g70
g71
NtRp4338
(dp4339
g74
(dp4340
g82
I3
ssg83
g4334
sg76
(lp4341
S'14'
p4342
asbasbasbag69
(g85
g71
NtRp4343
(dp4344
g74
(dp4345
sg83
g4173
sg76
(lp4346
g69
(g90
g71
NtRp4347
(dp4348
g74
(dp4349
sg83
g4343
sg76
(lp4350
g69
(g70
g71
NtRp4351
(dp4352
g74
(dp4353
g82
I3
ssg83
g4347
sg76
(lp4354
S'7'
asbasbasbag69
(g85
g71
NtRp4355
(dp4356
g74
(dp4357
sg83
g4173
sg76
(lp4358
g69
(g90
g71
NtRp4359
(dp4360
g74
(dp4361
sg83
g4355
sg76
(lp4362
g69
(g70
g71
NtRp4363
(dp4364
g74
(dp4365
g82
I3
ssg83
g4359
sg76
(lp4366
S'8'
asbasbasbag69
(g85
g71
NtRp4367
(dp4368
g74
(dp4369
sg83
g4173
sg76
(lp4370
g69
(g90
g71
NtRp4371
(dp4372
g74
(dp4373
sg83
g4367
sg76
(lp4374
g69
(g70
g71
NtRp4375
(dp4376
g74
(dp4377
g82
I3
ssg83
g4371
sg76
(lp4378
S'16'
p4379
asbasbasbag69
(g85
g71
NtRp4380
(dp4381
g74
(dp4382
sg83
g4173
sg76
(lp4383
g69
(g90
g71
NtRp4384
(dp4385
g74
(dp4386
sg83
g4380
sg76
(lp4387
g69
(g70
g71
NtRp4388
(dp4389
g74
(dp4390
g82
I3
ssg83
g4384
sg76
(lp4391
S'4'
asbasbasbag69
(g85
g71
NtRp4392
(dp4393
g74
(dp4394
sg83
g4173
sg76
(lp4395
g69
(g90
g71
NtRp4396
(dp4397
g74
(dp4398
sg83
g4392
sg76
(lp4399
g69
(g70
g71
NtRp4400
(dp4401
g74
(dp4402
g82
I3
ssg83
g4396
sg76
(lp4403
S'3'
asbasbasbag69
(g85
g71
NtRp4404
(dp4405
g74
(dp4406
sg83
g4173
sg76
(lp4407
g69
(g90
g71
NtRp4408
(dp4409
g74
(dp4410
sg83
g4404
sg76
(lp4411
g69
(g70
g71
NtRp4412
(dp4413
g74
(dp4414
g82
I3
ssg83
g4408
sg76
(lp4415
S'35'
p4416
asbasbasbag69
(g85
g71
NtRp4417
(dp4418
g74
(dp4419
sg83
g4173
sg76
(lp4420
g69
(g90
g71
NtRp4421
(dp4422
g74
(dp4423
sg83
g4417
sg76
(lp4424
g69
(g70
g71
NtRp4425
(dp4426
g74
(dp4427
g82
I3
ssg83
g4421
sg76
(lp4428
S'17'
p4429
asbasbasbag69
(g85
g71
NtRp4430
(dp4431
g74
(dp4432
sg83
g4173
sg76
(lp4433
g69
(g90
g71
NtRp4434
(dp4435
g74
(dp4436
sg83
g4430
sg76
(lp4437
g69
(g70
g71
NtRp4438
(dp4439
g74
(dp4440
g82
I3
ssg83
g4434
sg76
(lp4441
S'32'
p4442
asbasbasbag69
(g85
g71
NtRp4443
(dp4444
g74
(dp4445
sg83
g4173
sg76
(lp4446
g69
(g90
g71
NtRp4447
(dp4448
g74
(dp4449
sg83
g4443
sg76
(lp4450
g69
(g70
g71
NtRp4451
(dp4452
g74
(dp4453
g82
I3
ssg83
g4447
sg76
(lp4454
S'10'
p4455
asbasbasbag69
(g85
g71
NtRp4456
(dp4457
g74
(dp4458
sg83
g4173
sg76
(lp4459
g69
(g90
g71
NtRp4460
(dp4461
g74
(dp4462
sg83
g4456
sg76
(lp4463
g69
(g70
g71
NtRp4464
(dp4465
g74
(dp4466
g82
I3
ssg83
g4460
sg76
(lp4467
S'24'
p4468
asbasbasbag69
(g85
g71
NtRp4469
(dp4470
g74
(dp4471
sg83
g4173
sg76
(lp4472
g69
(g90
g71
NtRp4473
(dp4474
g74
(dp4475
sg83
g4469
sg76
(lp4476
g69
(g70
g71
NtRp4477
(dp4478
g74
(dp4479
g82
I3
ssg83
g4473
sg76
(lp4480
S'22'
p4481
asbasbasbag69
(g85
g71
NtRp4482
(dp4483
g74
(dp4484
sg83
g4173
sg76
(lp4485
g69
(g90
g71
NtRp4486
(dp4487
g74
(dp4488
sg83
g4482
sg76
(lp4489
g69
(g70
g71
NtRp4490
(dp4491
g74
(dp4492
g82
I3
ssg83
g4486
sg76
(lp4493
S'43'
p4494
asbasbasbag69
(g85
g71
NtRp4495
(dp4496
g74
(dp4497
sg83
g4173
sg76
(lp4498
g69
(g90
g71
NtRp4499
(dp4500
g74
(dp4501
sg83
g4495
sg76
(lp4502
g69
(g70
g71
NtRp4503
(dp4504
g74
(dp4505
g82
I3
ssg83
g4499
sg76
(lp4506
S'15'
p4507
asbasbasbag69
(g85
g71
NtRp4508
(dp4509
g74
(dp4510
sg83
g4173
sg76
(lp4511
g69
(g90
g71
NtRp4512
(dp4513
g74
(dp4514
sg83
g4508
sg76
(lp4515
g69
(g70
g71
NtRp4516
(dp4517
g74
(dp4518
g82
I3
ssg83
g4512
sg76
(lp4519
S'37'
p4520
asbasbasbag69
(g85
g71
NtRp4521
(dp4522
g74
(dp4523
sg83
g4173
sg76
(lp4524
g69
(g90
g71
NtRp4525
(dp4526
g74
(dp4527
sg83
g4521
sg76
(lp4528
g69
(g70
g71
NtRp4529
(dp4530
g74
(dp4531
g82
I3
ssg83
g4525
sg76
(lp4532
S'30'
p4533
asbasbasbag69
(g85
g71
NtRp4534
(dp4535
g74
(dp4536
sg83
g4173
sg76
(lp4537
g69
(g90
g71
NtRp4538
(dp4539
g74
(dp4540
sg83
g4534
sg76
(lp4541
g69
(g70
g71
NtRp4542
(dp4543
g74
(dp4544
g82
I3
ssg83
g4538
sg76
(lp4545
S'36'
p4546
asbasbasbag69
(g85
g71
NtRp4547
(dp4548
g74
(dp4549
sg83
g4173
sg76
(lp4550
g69
(g90
g71
NtRp4551
(dp4552
g74
(dp4553
sg83
g4547
sg76
(lp4554
g69
(g70
g71
NtRp4555
(dp4556
g74
(dp4557
g82
I3
ssg83
g4551
sg76
(lp4558
S'48'
p4559
asbasbasbag69
(g85
g71
NtRp4560
(dp4561
g74
(dp4562
sg83
g4173
sg76
(lp4563
g69
(g90
g71
NtRp4564
(dp4565
g74
(dp4566
sg83
g4560
sg76
(lp4567
g69
(g70
g71
NtRp4568
(dp4569
g74
(dp4570
g82
I3
ssg83
g4564
sg76
(lp4571
S'29'
p4572
asbasbasbag69
(g85
g71
NtRp4573
(dp4574
g74
(dp4575
sg83
g4173
sg76
(lp4576
g69
(g90
g71
NtRp4577
(dp4578
g74
(dp4579
sg83
g4573
sg76
(lp4580
g69
(g70
g71
NtRp4581
(dp4582
g74
(dp4583
g82
I3
ssg83
g4577
sg76
(lp4584
S'5'
asbasbasbag69
(g85
g71
NtRp4585
(dp4586
g74
(dp4587
sg83
g4173
sg76
(lp4588
g69
(g90
g71
NtRp4589
(dp4590
g74
(dp4591
sg83
g4585
sg76
(lp4592
g69
(g70
g71
NtRp4593
(dp4594
g74
(dp4595
g82
I3
ssg83
g4589
sg76
(lp4596
S'9'
asbasbasbag69
(g85
g71
NtRp4597
(dp4598
g74
(dp4599
sg83
g4173
sg76
(lp4600
g69
(g90
g71
NtRp4601
(dp4602
g74
(dp4603
sg83
g4597
sg76
(lp4604
g69
(g70
g71
NtRp4605
(dp4606
g74
(dp4607
g82
I3
ssg83
g4601
sg76
(lp4608
S'40'
p4609
asbasbasbag69
(g85
g71
NtRp4610
(dp4611
g74
(dp4612
sg83
g4173
sg76
(lp4613
g69
(g90
g71
NtRp4614
(dp4615
g74
(dp4616
sg83
g4610
sg76
(lp4617
g69
(g70
g71
NtRp4618
(dp4619
g74
(dp4620
g82
I3
ssg83
g4614
sg76
(lp4621
S'25'
p4622
asbasbasbag69
(g85
g71
NtRp4623
(dp4624
g74
(dp4625
sg83
g4173
sg76
(lp4626
g69
(g90
g71
NtRp4627
(dp4628
g74
(dp4629
sg83
g4623
sg76
(lp4630
g69
(g70
g71
NtRp4631
(dp4632
g74
(dp4633
g82
I3
ssg83
g4627
sg76
(lp4634
S'39'
p4635
asbasbasbasbasbasbasbag69
(g85
g71
NtRp4636
(dp4637
g74
(dp4638
sg83
g4149
sg76
(lp4639
g69
(g90
g71
NtRp4640
(dp4641
g74
(dp4642
g94
g95
ssg83
g4636
sg76
(lp4643
S'2'
asbag69
(g90
g71
NtRp4644
(dp4645
g74
(dp4646
g101
g102
ssg83
g4636
sg76
(lp4647
S':'
asbag69
(g90
g71
NtRp4648
(dp4649
g74
(dp4650
sg83
g4636
sg76
(lp4651
g69
(g70
g71
NtRp4652
(dp4653
g74
(dp4654
g82
I4
ssg83
g4648
sg76
(lp4655
g69
(g78
g71
NtRp4656
(dp4657
g74
(dp4658
g82
I3
ssg83
Nsg76
(lp4659
sbasbasbasbag69
(g85
g71
NtRp4660
(dp4661
g74
(dp4662
sg83
g4149
sg76
(lp4663
g69
(g90
g71
NtRp4664
(dp4665
g74
(dp4666
g94
g95
ssg83
g4660
sg76
(lp4667
S'3'
asbag69
(g90
g71
NtRp4668
(dp4669
g74
(dp4670
g101
g102
ssg83
g4660
sg76
(lp4671
S':'
asbag69
(g90
g71
NtRp4672
(dp4673
g74
(dp4674
sg83
g4660
sg76
(lp4675
g69
(g70
g71
NtRp4676
(dp4677
g74
(dp4678
g82
I4
ssg83
g4672
sg76
(lp4679
g69
(g78
g71
NtRp4680
(dp4681
g74
(dp4682
g82
I3
ssg83
Nsg76
(lp4683
sbasbasbasbag69
(g85
g71
NtRp4684
(dp4685
g74
(dp4686
sg83
g4149
sg76
(lp4687
g69
(g90
g71
NtRp4688
(dp4689
g74
(dp4690
g94
g95
ssg83
g4684
sg76
(lp4691
S'4'
asbag69
(g90
g71
NtRp4692
(dp4693
g74
(dp4694
g101
g102
ssg83
g4684
sg76
(lp4695
S':'
asbag69
(g90
g71
NtRp4696
(dp4697
g74
(dp4698
sg83
g4684
sg76
(lp4699
g69
(g70
g71
NtRp4700
(dp4701
g74
(dp4702
g82
I4
ssg83
g4696
sg76
(lp4703
g69
(g78
g71
NtRp4704
(dp4705
g74
(dp4706
g82
I3
ssg83
Nsg76
(lp4707
sbasbasbasbasbasbasbasbasbasbsS'etype'
p4708
S"<type 'exceptions.SyntaxError'>"
p4709
sS'date'
p4710
S'Fri Mar 16 17:21:54 2012'
p4711
sS'response'
p4712
g69
(g70
g71
NtRp4713
(dp4714
g74
(dp4715
sg76
(lp4716
g69
(g78
g71
NtRp4717
(dp4718
g74
(dp4719
g82
I5
ssg83
Nsg76
(lp4720
g69
(g85
g71
NtRp4721
(dp4722
g74
(dp4723
sg83
g4717
sg76
(lp4724
g69
(g90
g71
NtRp4725
(dp4726
g74
(dp4727
g94
g95
ssg83
g4721
sg76
(lp4728
g167
asbag69
(g90
g71
NtRp4729
(dp4730
g74
(dp4731
g101
g102
ssg83
g4721
sg76
(lp4732
S':'
asbag69
(g90
g71
NtRp4733
(dp4734
g74
(dp4735
sg83
g4721
sg76
(lp4736
g69
(g70
g71
NtRp4737
(dp4738
g74
(dp4739
g82
I5
ssg83
g4733
sg76
(lp4740
S'<cStringIO.StringO object at 0x7feb5c166e30>'
p4741
asbasbasbag69
(g85
g71
NtRp4742
(dp4743
g74
(dp4744
sg83
g4717
sg76
(lp4745
g69
(g90
g71
NtRp4746
(dp4747
g74
(dp4748
g94
g95
ssg83
g4742
sg76
(lp4749
g233
asbag69
(g90
g71
NtRp4750
(dp4751
g74
(dp4752
g101
g102
ssg83
g4742
sg76
(lp4753
S':'
asbag69
(g90
g71
NtRp4754
(dp4755
g74
(dp4756
sg83
g4742
sg76
(lp4757
g69
(g70
g71
NtRp4758
(dp4759
g74
(dp4760
g82
I5
ssg83
g4754
sg76
(lp4761
g69
(g78
g71
NtRp4762
(dp4763
g74
(dp4764
g82
I4
ssg83
Nsg76
(lp4765
g69
(g85
g71
NtRp4766
(dp4767
g74
(dp4768
sg83
g4762
sg76
(lp4769
g69
(g90
g71
NtRp4770
(dp4771
g74
(dp4772
g94
g95
ssg83
g4766
sg76
(lp4773
S'session_id_paideia'
p4774
asbag69
(g90
g71
NtRp4775
(dp4776
g74
(dp4777
g101
g102
ssg83
g4766
sg76
(lp4778
S':'
asbag69
(g90
g71
NtRp4779
(dp4780
g74
(dp4781
sg83
g4766
sg76
(lp4782
g69
(g70
g71
NtRp4783
(dp4784
g74
(dp4785
g82
I4
ssg83
g4779
sg76
(lp4786
g69
(g78
g71
NtRp4787
(dp4788
g74
(dp4789
g82
I3
ssg83
Nsg76
(lp4790
g69
(g85
g71
NtRp4791
(dp4792
g74
(dp4793
sg83
g4787
sg76
(lp4794
g69
(g90
g71
NtRp4795
(dp4796
g74
(dp4797
g94
g95
ssg83
g4791
sg76
(lp4798
g283
asbag69
(g90
g71
NtRp4799
(dp4800
g74
(dp4801
g101
g102
ssg83
g4791
sg76
(lp4802
S':'
asbag69
(g90
g71
NtRp4803
(dp4804
g74
(dp4805
sg83
g4791
sg76
(lp4806
g69
(g70
g71
NtRp4807
(dp4808
g74
(dp4809
g82
I3
ssg83
g4803
sg76
(lp4810
S''
asbasbasbag69
(g85
g71
NtRp4811
(dp4812
g74
(dp4813
sg83
g4787
sg76
(lp4814
g69
(g90
g71
NtRp4815
(dp4816
g74
(dp4817
g94
g95
ssg83
g4811
sg76
(lp4818
g304
asbag69
(g90
g71
NtRp4819
(dp4820
g74
(dp4821
g101
g102
ssg83
g4811
sg76
(lp4822
S':'
asbag69
(g90
g71
NtRp4823
(dp4824
g74
(dp4825
sg83
g4811
sg76
(lp4826
g69
(g70
g71
NtRp4827
(dp4828
g74
(dp4829
g82
I3
ssg83
g4823
sg76
(lp4830
S''
asbasbasbag69
(g85
g71
NtRp4831
(dp4832
g74
(dp4833
sg83
g4787
sg76
(lp4834
g69
(g90
g71
NtRp4835
(dp4836
g74
(dp4837
g94
g95
ssg83
g4831
sg76
(lp4838
g325
asbag69
(g90
g71
NtRp4839
(dp4840
g74
(dp4841
g101
g102
ssg83
g4831
sg76
(lp4842
S':'
asbag69
(g90
g71
NtRp4843
(dp4844
g74
(dp4845
sg83
g4831
sg76
(lp4846
g69
(g70
g71
NtRp4847
(dp4848
g74
(dp4849
g82
I3
ssg83
g4843
sg76
(lp4850
S'2592000'
p4851
asbasbasbag69
(g85
g71
NtRp4852
(dp4853
g74
(dp4854
sg83
g4787
sg76
(lp4855
g69
(g90
g71
NtRp4856
(dp4857
g74
(dp4858
g94
g95
ssg83
g4852
sg76
(lp4859
g346
asbag69
(g90
g71
NtRp4860
(dp4861
g74
(dp4862
g101
g102
ssg83
g4852
sg76
(lp4863
S':'
asbag69
(g90
g71
NtRp4864
(dp4865
g74
(dp4866
sg83
g4852
sg76
(lp4867
g69
(g70
g71
NtRp4868
(dp4869
g74
(dp4870
g82
I3
ssg83
g4864
sg76
(lp4871
S''
asbasbasbag69
(g85
g71
NtRp4872
(dp4873
g74
(dp4874
sg83
g4787
sg76
(lp4875
g69
(g90
g71
NtRp4876
(dp4877
g74
(dp4878
g94
g95
ssg83
g4872
sg76
(lp4879
g367
asbag69
(g90
g71
NtRp4880
(dp4881
g74
(dp4882
g101
g102
ssg83
g4872
sg76
(lp4883
S':'
asbag69
(g90
g71
NtRp4884
(dp4885
g74
(dp4886
sg83
g4872
sg76
(lp4887
g69
(g70
g71
NtRp4888
(dp4889
g74
(dp4890
g82
I3
ssg83
g4884
sg76
(lp4891
S''
asbasbasbag69
(g85
g71
NtRp4892
(dp4893
g74
(dp4894
sg83
g4787
sg76
(lp4895
g69
(g90
g71
NtRp4896
(dp4897
g74
(dp4898
g94
g95
ssg83
g4892
sg76
(lp4899
g388
asbag69
(g90
g71
NtRp4900
(dp4901
g74
(dp4902
g101
g102
ssg83
g4892
sg76
(lp4903
S':'
asbag69
(g90
g71
NtRp4904
(dp4905
g74
(dp4906
sg83
g4892
sg76
(lp4907
g69
(g70
g71
NtRp4908
(dp4909
g74
(dp4910
g82
I3
ssg83
g4904
sg76
(lp4911
S'/'
asbasbasbag69
(g85
g71
NtRp4912
(dp4913
g74
(dp4914
sg83
g4787
sg76
(lp4915
g69
(g90
g71
NtRp4916
(dp4917
g74
(dp4918
g94
g95
ssg83
g4912
sg76
(lp4919
g409
asbag69
(g90
g71
NtRp4920
(dp4921
g74
(dp4922
g101
g102
ssg83
g4912
sg76
(lp4923
S':'
asbag69
(g90
g71
NtRp4924
(dp4925
g74
(dp4926
sg83
g4912
sg76
(lp4927
g69
(g70
g71
NtRp4928
(dp4929
g74
(dp4930
g82
I3
ssg83
g4924
sg76
(lp4931
S''
asbasbasbag69
(g85
g71
NtRp4932
(dp4933
g74
(dp4934
sg83
g4787
sg76
(lp4935
g69
(g90
g71
NtRp4936
(dp4937
g74
(dp4938
g94
g95
ssg83
g4932
sg76
(lp4939
g430
asbag69
(g90
g71
NtRp4940
(dp4941
g74
(dp4942
g101
g102
ssg83
g4932
sg76
(lp4943
S':'
asbag69
(g90
g71
NtRp4944
(dp4945
g74
(dp4946
sg83
g4932
sg76
(lp4947
g69
(g70
g71
NtRp4948
(dp4949
g74
(dp4950
g82
I3
ssg83
g4944
sg76
(lp4951
S''
asbasbasbasbasbasbasbasbasbasbasbag69
(g85
g71
NtRp4952
(dp4953
g74
(dp4954
sg83
g4717
sg76
(lp4955
g69
(g90
g71
NtRp4956
(dp4957
g74
(dp4958
g94
g95
ssg83
g4952
sg76
(lp4959
S'files'
p4960
asbag69
(g90
g71
NtRp4961
(dp4962
g74
(dp4963
g101
g102
ssg83
g4952
sg76
(lp4964
S':'
asbag69
(g90
g71
NtRp4965
(dp4966
g74
(dp4967
sg83
g4952
sg76
(lp4968
g69
(g70
g71
NtRp4969
(dp4970
g74
(dp4971
g82
I5
ssg83
g4965
sg76
(lp4972
g69
(g78
g71
NtRp4973
(dp4974
g74
(dp4975
g82
I4
ssg83
Nsg76
(lp4976
g69
(g85
g71
NtRp4977
(dp4978
g74
(dp4979
sg83
g4973
sg76
(lp4980
g69
(g90
g71
NtRp4981
(dp4982
g74
(dp4983
sg83
g4977
sg76
(lp4984
g69
(g70
g71
NtRp4985
(dp4986
g74
(dp4987
g82
I4
ssg83
g4981
sg76
(lp4988
S'/paideia/static/plugin_ajaxselect/plugin_ajaxselect.js'
p4989
asbasbasbasbasbasbasbag69
(g85
g71
NtRp4990
(dp4991
g74
(dp4992
sg83
g4717
sg76
(lp4993
g69
(g90
g71
NtRp4994
(dp4995
g74
(dp4996
g94
g95
ssg83
g4990
sg76
(lp4997
S'flash'
p4998
asbag69
(g90
g71
NtRp4999
(dp5000
g74
(dp5001
g101
g102
ssg83
g4990
sg76
(lp5002
S':'
asbag69
(g90
g71
NtRp5003
(dp5004
g74
(dp5005
sg83
g4990
sg76
(lp5006
g69
(g70
g71
NtRp5007
(dp5008
g74
(dp5009
g82
I5
ssg83
g5003
sg76
(lp5010
S''
asbasbasbag69
(g85
g71
NtRp5011
(dp5012
g74
(dp5013
sg83
g4717
sg76
(lp5014
g69
(g90
g71
NtRp5015
(dp5016
g74
(dp5017
g94
g95
ssg83
g5011
sg76
(lp5018
S'generic_patterns'
p5019
asbag69
(g90
g71
NtRp5020
(dp5021
g74
(dp5022
g101
g102
ssg83
g5011
sg76
(lp5023
S':'
asbag69
(g90
g71
NtRp5024
(dp5025
g74
(dp5026
sg83
g5011
sg76
(lp5027
g69
(g70
g71
NtRp5028
(dp5029
g74
(dp5030
g82
I5
ssg83
g5024
sg76
(lp5031
g69
(g78
g71
NtRp5032
(dp5033
g74
(dp5034
g82
I4
ssg83
Nsg76
(lp5035
g69
(g85
g71
NtRp5036
(dp5037
g74
(dp5038
sg83
g5032
sg76
(lp5039
g69
(g90
g71
NtRp5040
(dp5041
g74
(dp5042
sg83
g5036
sg76
(lp5043
g69
(g70
g71
NtRp5044
(dp5045
g74
(dp5046
g82
I4
ssg83
g5040
sg76
(lp5047
S'*'
asbasbasbasbasbasbasbag69
(g85
g71
NtRp5048
(dp5049
g74
(dp5050
sg83
g4717
sg76
(lp5051
g69
(g90
g71
NtRp5052
(dp5053
g74
(dp5054
g94
g95
ssg83
g5048
sg76
(lp5055
S'headers'
p5056
asbag69
(g90
g71
NtRp5057
(dp5058
g74
(dp5059
g101
g102
ssg83
g5048
sg76
(lp5060
S':'
asbag69
(g90
g71
NtRp5061
(dp5062
g74
(dp5063
sg83
g5048
sg76
(lp5064
g69
(g70
g71
NtRp5065
(dp5066
g74
(dp5067
g82
I5
ssg83
g5061
sg76
(lp5068
g69
(g78
g71
NtRp5069
(dp5070
g74
(dp5071
g82
I4
ssg83
Nsg76
(lp5072
g69
(g85
g71
NtRp5073
(dp5074
g74
(dp5075
sg83
g5069
sg76
(lp5076
g69
(g90
g71
NtRp5077
(dp5078
g74
(dp5079
g94
g95
ssg83
g5073
sg76
(lp5080
S'Cache-Control'
p5081
asbag69
(g90
g71
NtRp5082
(dp5083
g74
(dp5084
g101
g102
ssg83
g5073
sg76
(lp5085
S':'
asbag69
(g90
g71
NtRp5086
(dp5087
g74
(dp5088
sg83
g5073
sg76
(lp5089
g69
(g70
g71
NtRp5090
(dp5091
g74
(dp5092
g82
I4
ssg83
g5086
sg76
(lp5093
S'no-store, no-cache, must-revalidate, post-check=0, pre-check=0'
p5094
asbasbasbag69
(g85
g71
NtRp5095
(dp5096
g74
(dp5097
sg83
g5069
sg76
(lp5098
g69
(g90
g71
NtRp5099
(dp5100
g74
(dp5101
g94
g95
ssg83
g5095
sg76
(lp5102
S'Content-Type'
p5103
asbag69
(g90
g71
NtRp5104
(dp5105
g74
(dp5106
g101
g102
ssg83
g5095
sg76
(lp5107
S':'
asbag69
(g90
g71
NtRp5108
(dp5109
g74
(dp5110
sg83
g5095
sg76
(lp5111
g69
(g70
g71
NtRp5112
(dp5113
g74
(dp5114
g82
I4
ssg83
g5108
sg76
(lp5115
S'text/html; charset=utf-8'
p5116
asbasbasbag69
(g85
g71
NtRp5117
(dp5118
g74
(dp5119
sg83
g5069
sg76
(lp5120
g69
(g90
g71
NtRp5121
(dp5122
g74
(dp5123
g94
g95
ssg83
g5117
sg76
(lp5124
S'Expires'
p5125
asbag69
(g90
g71
NtRp5126
(dp5127
g74
(dp5128
g101
g102
ssg83
g5117
sg76
(lp5129
S':'
asbag69
(g90
g71
NtRp5130
(dp5131
g74
(dp5132
sg83
g5117
sg76
(lp5133
g69
(g70
g71
NtRp5134
(dp5135
g74
(dp5136
g82
I4
ssg83
g5130
sg76
(lp5137
S'Fri, 16 Mar 2012 21:21:54 GMT'
p5138
asbasbasbag69
(g85
g71
NtRp5139
(dp5140
g74
(dp5141
sg83
g5069
sg76
(lp5142
g69
(g90
g71
NtRp5143
(dp5144
g74
(dp5145
g94
g95
ssg83
g5139
sg76
(lp5146
S'Pragma'
p5147
asbag69
(g90
g71
NtRp5148
(dp5149
g74
(dp5150
g101
g102
ssg83
g5139
sg76
(lp5151
S':'
asbag69
(g90
g71
NtRp5152
(dp5153
g74
(dp5154
sg83
g5139
sg76
(lp5155
g69
(g70
g71
NtRp5156
(dp5157
g74
(dp5158
g82
I4
ssg83
g5152
sg76
(lp5159
S'no-cache'
p5160
asbasbasbag69
(g85
g71
NtRp5161
(dp5162
g74
(dp5163
sg83
g5069
sg76
(lp5164
g69
(g90
g71
NtRp5165
(dp5166
g74
(dp5167
g94
g95
ssg83
g5161
sg76
(lp5168
S'X-Powered-By'
p5169
asbag69
(g90
g71
NtRp5170
(dp5171
g74
(dp5172
g101
g102
ssg83
g5161
sg76
(lp5173
S':'
asbag69
(g90
g71
NtRp5174
(dp5175
g74
(dp5176
sg83
g5161
sg76
(lp5177
g69
(g70
g71
NtRp5178
(dp5179
g74
(dp5180
g82
I4
ssg83
g5174
sg76
(lp5181
S'web2py'
p5182
asbasbasbasbasbasbasbag69
(g85
g71
NtRp5183
(dp5184
g74
(dp5185
sg83
g4717
sg76
(lp5186
g69
(g90
g71
NtRp5187
(dp5188
g74
(dp5189
g94
g95
ssg83
g5183
sg76
(lp5190
S'menu'
p5191
asbag69
(g90
g71
NtRp5192
(dp5193
g74
(dp5194
g101
g102
ssg83
g5183
sg76
(lp5195
S':'
asbag69
(g90
g71
NtRp5196
(dp5197
g74
(dp5198
sg83
g5183
sg76
(lp5199
g69
(g70
g71
NtRp5200
(dp5201
g74
(dp5202
g82
I5
ssg83
g5196
sg76
(lp5203
g69
(g78
g71
NtRp5204
(dp5205
g74
(dp5206
g82
I4
ssg83
Nsg76
(lp5207
g69
(g85
g71
NtRp5208
(dp5209
g74
(dp5210
sg83
g5204
sg76
(lp5211
g69
(g90
g71
NtRp5212
(dp5213
g74
(dp5214
sg83
g5208
sg76
(lp5215
g69
(g70
g71
NtRp5216
(dp5217
g74
(dp5218
g82
I4
ssg83
g5212
sg76
(lp5219
g69
(g78
g71
NtRp5220
(dp5221
g74
(dp5222
g82
I3
ssg83
Nsg76
(lp5223
g69
(g85
g71
NtRp5224
(dp5225
g74
(dp5226
sg83
g5220
sg76
(lp5227
g69
(g90
g71
NtRp5228
(dp5229
g74
(dp5230
sg83
g5224
sg76
(lp5231
g69
(g70
g71
NtRp5232
(dp5233
g74
(dp5234
g82
I3
ssg83
g5228
sg76
(lp5235
cgluon.languages
lazyT_unpickle
p5236
(S't\x04\x00\x00\x00Home'
tRp5237
asbasbasbag69
(g85
g71
NtRp5238
(dp5239
g74
(dp5240
sg83
g5220
sg76
(lp5241
g69
(g90
g71
NtRp5242
(dp5243
g74
(dp5244
sg83
g5238
sg76
(lp5245
g69
(g70
g71
NtRp5246
(dp5247
g74
(dp5248
g82
I3
ssg83
g5242
sg76
(lp5249
g112
asbasbasbag69
(g85
g71
NtRp5250
(dp5251
g74
(dp5252
sg83
g5220
sg76
(lp5253
g69
(g90
g71
NtRp5254
(dp5255
g74
(dp5256
sg83
g5250
sg76
(lp5257
g69
(g70
g71
NtRp5258
(dp5259
g74
(dp5260
g82
I3
ssg83
g5254
sg76
(lp5261
S'/paideia/default/index'
p5262
asbasbasbag69
(g85
g71
NtRp5263
(dp5264
g74
(dp5265
sg83
g5220
sg76
(lp5266
g69
(g90
g71
NtRp5267
(dp5268
g74
(dp5269
sg83
g5263
sg76
(lp5270
g69
(g70
g71
NtRp5271
(dp5272
g74
(dp5273
g82
I3
ssg83
g5267
sg76
(lp5274
g69
(g78
g71
NtRp5275
(dp5276
g74
(dp5277
g82
I2
ssg83
Nsg76
(lp5278
sbasbasbasbasbasbasbasbag69
(g85
g71
NtRp5279
(dp5280
g74
(dp5281
sg83
g5204
sg76
(lp5282
g69
(g90
g71
NtRp5283
(dp5284
g74
(dp5285
sg83
g5279
sg76
(lp5286
g69
(g70
g71
NtRp5287
(dp5288
g74
(dp5289
g82
I4
ssg83
g5283
sg76
(lp5290
g69
(g78
g71
NtRp5291
(dp5292
g74
(dp5293
g82
I3
ssg83
Nsg76
(lp5294
g69
(g85
g71
NtRp5295
(dp5296
g74
(dp5297
sg83
g5291
sg76
(lp5298
g69
(g90
g71
NtRp5299
(dp5300
g74
(dp5301
sg83
g5295
sg76
(lp5302
g69
(g70
g71
NtRp5303
(dp5304
g74
(dp5305
g82
I3
ssg83
g5299
sg76
(lp5306
g5236
(S't\x05\x00\x00\x00Admin'
tRp5307
asbasbasbag69
(g85
g71
NtRp5308
(dp5309
g74
(dp5310
sg83
g5291
sg76
(lp5311
g69
(g90
g71
NtRp5312
(dp5313
g74
(dp5314
sg83
g5308
sg76
(lp5315
g69
(g70
g71
NtRp5316
(dp5317
g74
(dp5318
g82
I3
ssg83
g5312
sg76
(lp5319
g112
asbasbasbag69
(g85
g71
NtRp5320
(dp5321
g74
(dp5322
sg83
g5291
sg76
(lp5323
g69
(g90
g71
NtRp5324
(dp5325
g74
(dp5326
sg83
g5320
sg76
(lp5327
g69
(g70
g71
NtRp5328
(dp5329
g74
(dp5330
g82
I3
ssg83
g5324
sg76
(lp5331
S'None'
p5332
asbasbasbag69
(g85
g71
NtRp5333
(dp5334
g74
(dp5335
sg83
g5291
sg76
(lp5336
g69
(g90
g71
NtRp5337
(dp5338
g74
(dp5339
sg83
g5333
sg76
(lp5340
g69
(g70
g71
NtRp5341
(dp5342
g74
(dp5343
g82
I3
ssg83
g5337
sg76
(lp5344
g69
(g78
g71
NtRp5345
(dp5346
g74
(dp5347
g82
I2
ssg83
Nsg76
(lp5348
g69
(g85
g71
NtRp5349
(dp5350
g74
(dp5351
sg83
g5345
sg76
(lp5352
g69
(g90
g71
NtRp5353
(dp5354
g74
(dp5355
sg83
g5349
sg76
(lp5356
g69
(g70
g71
NtRp5357
(dp5358
g74
(dp5359
g82
I2
ssg83
g5353
sg76
(lp5360
g69
(g78
g71
NtRp5361
(dp5362
g74
(dp5363
g82
I1
ssg83
Nsg76
(lp5364
g69
(g85
g71
NtRp5365
(dp5366
g74
(dp5367
sg83
g5361
sg76
(lp5368
g69
(g90
g71
NtRp5369
(dp5370
g74
(dp5371
sg83
g5365
sg76
(lp5372
g69
(g70
g71
NtRp5373
(dp5374
g74
(dp5375
g82
I1
ssg83
g5369
sg76
(lp5376
g5236
(S's\x07\x00\x00\x00Web IDE'
tRp5377
asbasbasbag69
(g85
g71
NtRp5378
(dp5379
g74
(dp5380
sg83
g5361
sg76
(lp5381
g69
(g90
g71
NtRp5382
(dp5383
g74
(dp5384
sg83
g5378
sg76
(lp5385
g69
(g70
g71
NtRp5386
(dp5387
g74
(dp5388
g82
I1
ssg83
g5382
sg76
(lp5389
I00
asbasbasbag69
(g85
g71
NtRp5390
(dp5391
g74
(dp5392
sg83
g5361
sg76
(lp5393
g69
(g90
g71
NtRp5394
(dp5395
g74
(dp5396
sg83
g5390
sg76
(lp5397
g69
(g70
g71
NtRp5398
(dp5399
g74
(dp5400
g82
I1
ssg83
g5394
sg76
(lp5401
S'/admin/default/index'
p5402
asbasbasbasbasbasbasbag69
(g85
g71
NtRp5403
(dp5404
g74
(dp5405
sg83
g5345
sg76
(lp5406
g69
(g90
g71
NtRp5407
(dp5408
g74
(dp5409
sg83
g5403
sg76
(lp5410
g69
(g70
g71
NtRp5411
(dp5412
g74
(dp5413
g82
I2
ssg83
g5407
sg76
(lp5414
g69
(g78
g71
NtRp5415
(dp5416
g74
(dp5417
g82
I1
ssg83
Nsg76
(lp5418
g69
(g85
g71
NtRp5419
(dp5420
g74
(dp5421
sg83
g5415
sg76
(lp5422
g69
(g90
g71
NtRp5423
(dp5424
g74
(dp5425
sg83
g5419
sg76
(lp5426
g69
(g70
g71
NtRp5427
(dp5428
g74
(dp5429
g82
I1
ssg83
g5423
sg76
(lp5430
g5236
(S't\x08\x00\x00\x00Database'
tRp5431
asbasbasbag69
(g85
g71
NtRp5432
(dp5433
g74
(dp5434
sg83
g5415
sg76
(lp5435
g69
(g90
g71
NtRp5436
(dp5437
g74
(dp5438
sg83
g5432
sg76
(lp5439
g69
(g70
g71
NtRp5440
(dp5441
g74
(dp5442
g82
I1
ssg83
g5436
sg76
(lp5443
I00
asbasbasbag69
(g85
g71
NtRp5444
(dp5445
g74
(dp5446
sg83
g5415
sg76
(lp5447
g69
(g90
g71
NtRp5448
(dp5449
g74
(dp5450
sg83
g5444
sg76
(lp5451
g69
(g70
g71
NtRp5452
(dp5453
g74
(dp5454
g82
I1
ssg83
g5448
sg76
(lp5455
S'/paideia/appadmin/index'
p5456
asbasbasbasbasbasbasbag69
(g85
g71
NtRp5457
(dp5458
g74
(dp5459
sg83
g5345
sg76
(lp5460
g69
(g90
g71
NtRp5461
(dp5462
g74
(dp5463
sg83
g5457
sg76
(lp5464
g69
(g70
g71
NtRp5465
(dp5466
g74
(dp5467
g82
I2
ssg83
g5461
sg76
(lp5468
g69
(g78
g71
NtRp5469
(dp5470
g74
(dp5471
g82
I1
ssg83
Nsg76
(lp5472
g69
(g85
g71
NtRp5473
(dp5474
g74
(dp5475
sg83
g5469
sg76
(lp5476
g69
(g90
g71
NtRp5477
(dp5478
g74
(dp5479
sg83
g5473
sg76
(lp5480
g69
(g70
g71
NtRp5481
(dp5482
g74
(dp5483
g82
I1
ssg83
g5477
sg76
(lp5484
g5236
(S't\x05\x00\x00\x00Users'
tRp5485
asbasbasbag69
(g85
g71
NtRp5486
(dp5487
g74
(dp5488
sg83
g5469
sg76
(lp5489
g69
(g90
g71
NtRp5490
(dp5491
g74
(dp5492
sg83
g5486
sg76
(lp5493
g69
(g70
g71
NtRp5494
(dp5495
g74
(dp5496
g82
I1
ssg83
g5490
sg76
(lp5497
I00
asbasbasbag69
(g85
g71
NtRp5498
(dp5499
g74
(dp5500
sg83
g5469
sg76
(lp5501
g69
(g90
g71
NtRp5502
(dp5503
g74
(dp5504
sg83
g5498
sg76
(lp5505
g69
(g70
g71
NtRp5506
(dp5507
g74
(dp5508
g82
I1
ssg83
g5502
sg76
(lp5509
S'/paideia/listing/user'
p5510
asbasbasbasbasbasbasbag69
(g85
g71
NtRp5511
(dp5512
g74
(dp5513
sg83
g5345
sg76
(lp5514
g69
(g90
g71
NtRp5515
(dp5516
g74
(dp5517
sg83
g5511
sg76
(lp5518
g69
(g70
g71
NtRp5519
(dp5520
g74
(dp5521
g82
I2
ssg83
g5515
sg76
(lp5522
g69
(g78
g71
NtRp5523
(dp5524
g74
(dp5525
g82
I1
ssg83
Nsg76
(lp5526
g69
(g85
g71
NtRp5527
(dp5528
g74
(dp5529
sg83
g5523
sg76
(lp5530
g69
(g90
g71
NtRp5531
(dp5532
g74
(dp5533
sg83
g5527
sg76
(lp5534
g69
(g70
g71
NtRp5535
(dp5536
g74
(dp5537
g82
I1
ssg83
g5531
sg76
(lp5538
g5236
(S't\x05\x00\x00\x00Paths'
tRp5539
asbasbasbag69
(g85
g71
NtRp5540
(dp5541
g74
(dp5542
sg83
g5523
sg76
(lp5543
g69
(g90
g71
NtRp5544
(dp5545
g74
(dp5546
sg83
g5540
sg76
(lp5547
g69
(g70
g71
NtRp5548
(dp5549
g74
(dp5550
g82
I1
ssg83
g5544
sg76
(lp5551
I00
asbasbasbag69
(g85
g71
NtRp5552
(dp5553
g74
(dp5554
sg83
g5523
sg76
(lp5555
g69
(g90
g71
NtRp5556
(dp5557
g74
(dp5558
sg83
g5552
sg76
(lp5559
g69
(g70
g71
NtRp5560
(dp5561
g74
(dp5562
g82
I1
ssg83
g5556
sg76
(lp5563
S'/paideia/plugin_listandedit/listing.html/paths'
p5564
asbasbasbasbasbasbasbag69
(g85
g71
NtRp5565
(dp5566
g74
(dp5567
sg83
g5345
sg76
(lp5568
g69
(g90
g71
NtRp5569
(dp5570
g74
(dp5571
sg83
g5565
sg76
(lp5572
g69
(g70
g71
NtRp5573
(dp5574
g74
(dp5575
g82
I2
ssg83
g5569
sg76
(lp5576
g69
(g78
g71
NtRp5577
(dp5578
g74
(dp5579
g82
I1
ssg83
Nsg76
(lp5580
g69
(g85
g71
NtRp5581
(dp5582
g74
(dp5583
sg83
g5577
sg76
(lp5584
g69
(g90
g71
NtRp5585
(dp5586
g74
(dp5587
sg83
g5581
sg76
(lp5588
g69
(g70
g71
NtRp5589
(dp5590
g74
(dp5591
g82
I1
ssg83
g5585
sg76
(lp5592
g5236
(S't\x05\x00\x00\x00Steps'
tRp5593
asbasbasbag69
(g85
g71
NtRp5594
(dp5595
g74
(dp5596
sg83
g5577
sg76
(lp5597
g69
(g90
g71
NtRp5598
(dp5599
g74
(dp5600
sg83
g5594
sg76
(lp5601
g69
(g70
g71
NtRp5602
(dp5603
g74
(dp5604
g82
I1
ssg83
g5598
sg76
(lp5605
I00
asbasbasbag69
(g85
g71
NtRp5606
(dp5607
g74
(dp5608
sg83
g5577
sg76
(lp5609
g69
(g90
g71
NtRp5610
(dp5611
g74
(dp5612
sg83
g5606
sg76
(lp5613
g69
(g70
g71
NtRp5614
(dp5615
g74
(dp5616
g82
I1
ssg83
g5610
sg76
(lp5617
S'/paideia/plugin_listandedit/listing.html/steps'
p5618
asbasbasbasbasbasbasbag69
(g85
g71
NtRp5619
(dp5620
g74
(dp5621
sg83
g5345
sg76
(lp5622
g69
(g90
g71
NtRp5623
(dp5624
g74
(dp5625
sg83
g5619
sg76
(lp5626
g69
(g70
g71
NtRp5627
(dp5628
g74
(dp5629
g82
I2
ssg83
g5623
sg76
(lp5630
g69
(g78
g71
NtRp5631
(dp5632
g74
(dp5633
g82
I1
ssg83
Nsg76
(lp5634
g69
(g85
g71
NtRp5635
(dp5636
g74
(dp5637
sg83
g5631
sg76
(lp5638
g69
(g90
g71
NtRp5639
(dp5640
g74
(dp5641
sg83
g5635
sg76
(lp5642
g69
(g70
g71
NtRp5643
(dp5644
g74
(dp5645
g82
I1
ssg83
g5639
sg76
(lp5646
g5236
(S't\t\x00\x00\x00Questions'
tRp5647
asbasbasbag69
(g85
g71
NtRp5648
(dp5649
g74
(dp5650
sg83
g5631
sg76
(lp5651
g69
(g90
g71
NtRp5652
(dp5653
g74
(dp5654
sg83
g5648
sg76
(lp5655
g69
(g70
g71
NtRp5656
(dp5657
g74
(dp5658
g82
I1
ssg83
g5652
sg76
(lp5659
I00
asbasbasbag69
(g85
g71
NtRp5660
(dp5661
g74
(dp5662
sg83
g5631
sg76
(lp5663
g69
(g90
g71
NtRp5664
(dp5665
g74
(dp5666
sg83
g5660
sg76
(lp5667
g69
(g70
g71
NtRp5668
(dp5669
g74
(dp5670
g82
I1
ssg83
g5664
sg76
(lp5671
S'/paideia/plugin_listandedit/listing.html/questions'
p5672
asbasbasbasbasbasbasbag69
(g85
g71
NtRp5673
(dp5674
g74
(dp5675
sg83
g5345
sg76
(lp5676
g69
(g90
g71
NtRp5677
(dp5678
g74
(dp5679
sg83
g5673
sg76
(lp5680
g69
(g70
g71
NtRp5681
(dp5682
g74
(dp5683
g82
I2
ssg83
g5677
sg76
(lp5684
g69
(g78
g71
NtRp5685
(dp5686
g74
(dp5687
g82
I1
ssg83
Nsg76
(lp5688
g69
(g85
g71
NtRp5689
(dp5690
g74
(dp5691
sg83
g5685
sg76
(lp5692
g69
(g90
g71
NtRp5693
(dp5694
g74
(dp5695
sg83
g5689
sg76
(lp5696
g69
(g70
g71
NtRp5697
(dp5698
g74
(dp5699
g82
I1
ssg83
g5693
sg76
(lp5700
g5236
(S't\x07\x00\x00\x00Quizzes'
tRp5701
asbasbasbag69
(g85
g71
NtRp5702
(dp5703
g74
(dp5704
sg83
g5685
sg76
(lp5705
g69
(g90
g71
NtRp5706
(dp5707
g74
(dp5708
sg83
g5702
sg76
(lp5709
g69
(g70
g71
NtRp5710
(dp5711
g74
(dp5712
g82
I1
ssg83
g5706
sg76
(lp5713
I00
asbasbasbag69
(g85
g71
NtRp5714
(dp5715
g74
(dp5716
sg83
g5685
sg76
(lp5717
g69
(g90
g71
NtRp5718
(dp5719
g74
(dp5720
sg83
g5714
sg76
(lp5721
g69
(g70
g71
NtRp5722
(dp5723
g74
(dp5724
g82
I1
ssg83
g5718
sg76
(lp5725
S'/paideia/plugin_listandedit/listing.html/quizzes'
p5726
asbasbasbasbasbasbasbag69
(g85
g71
NtRp5727
(dp5728
g74
(dp5729
sg83
g5345
sg76
(lp5730
g69
(g90
g71
NtRp5731
(dp5732
g74
(dp5733
sg83
g5727
sg76
(lp5734
g69
(g70
g71
NtRp5735
(dp5736
g74
(dp5737
g82
I2
ssg83
g5731
sg76
(lp5738
g69
(g78
g71
NtRp5739
(dp5740
g74
(dp5741
g82
I1
ssg83
Nsg76
(lp5742
g69
(g85
g71
NtRp5743
(dp5744
g74
(dp5745
sg83
g5739
sg76
(lp5746
g69
(g90
g71
NtRp5747
(dp5748
g74
(dp5749
sg83
g5743
sg76
(lp5750
g69
(g70
g71
NtRp5751
(dp5752
g74
(dp5753
g82
I1
ssg83
g5747
sg76
(lp5754
g5236
(S't\x04\x00\x00\x00Tags'
tRp5755
asbasbasbag69
(g85
g71
NtRp5756
(dp5757
g74
(dp5758
sg83
g5739
sg76
(lp5759
g69
(g90
g71
NtRp5760
(dp5761
g74
(dp5762
sg83
g5756
sg76
(lp5763
g69
(g70
g71
NtRp5764
(dp5765
g74
(dp5766
g82
I1
ssg83
g5760
sg76
(lp5767
I00
asbasbasbag69
(g85
g71
NtRp5768
(dp5769
g74
(dp5770
sg83
g5739
sg76
(lp5771
g69
(g90
g71
NtRp5772
(dp5773
g74
(dp5774
sg83
g5768
sg76
(lp5775
g69
(g70
g71
NtRp5776
(dp5777
g74
(dp5778
g82
I1
ssg83
g5772
sg76
(lp5779
S'/paideia/plugin_listandedit/listing.html/tags'
p5780
asbasbasbasbasbasbasbag69
(g85
g71
NtRp5781
(dp5782
g74
(dp5783
sg83
g5345
sg76
(lp5784
g69
(g90
g71
NtRp5785
(dp5786
g74
(dp5787
sg83
g5781
sg76
(lp5788
g69
(g70
g71
NtRp5789
(dp5790
g74
(dp5791
g82
I2
ssg83
g5785
sg76
(lp5792
g69
(g78
g71
NtRp5793
(dp5794
g74
(dp5795
g82
I1
ssg83
Nsg76
(lp5796
g69
(g85
g71
NtRp5797
(dp5798
g74
(dp5799
sg83
g5793
sg76
(lp5800
g69
(g90
g71
NtRp5801
(dp5802
g74
(dp5803
sg83
g5797
sg76
(lp5804
g69
(g70
g71
NtRp5805
(dp5806
g74
(dp5807
g82
I1
ssg83
g5801
sg76
(lp5808
g5236
(S't\x04\x00\x00\x00NPCs'
tRp5809
asbasbasbag69
(g85
g71
NtRp5810
(dp5811
g74
(dp5812
sg83
g5793
sg76
(lp5813
g69
(g90
g71
NtRp5814
(dp5815
g74
(dp5816
sg83
g5810
sg76
(lp5817
g69
(g70
g71
NtRp5818
(dp5819
g74
(dp5820
g82
I1
ssg83
g5814
sg76
(lp5821
I00
asbasbasbag69
(g85
g71
NtRp5822
(dp5823
g74
(dp5824
sg83
g5793
sg76
(lp5825
g69
(g90
g71
NtRp5826
(dp5827
g74
(dp5828
sg83
g5822
sg76
(lp5829
g69
(g70
g71
NtRp5830
(dp5831
g74
(dp5832
g82
I1
ssg83
g5826
sg76
(lp5833
S'/paideia/plugin_listandedit/listing.html/npcs'
p5834
asbasbasbasbasbasbasbag69
(g85
g71
NtRp5835
(dp5836
g74
(dp5837
sg83
g5345
sg76
(lp5838
g69
(g90
g71
NtRp5839
(dp5840
g74
(dp5841
sg83
g5835
sg76
(lp5842
g69
(g70
g71
NtRp5843
(dp5844
g74
(dp5845
g82
I2
ssg83
g5839
sg76
(lp5846
g69
(g78
g71
NtRp5847
(dp5848
g74
(dp5849
g82
I1
ssg83
Nsg76
(lp5850
g69
(g85
g71
NtRp5851
(dp5852
g74
(dp5853
sg83
g5847
sg76
(lp5854
g69
(g90
g71
NtRp5855
(dp5856
g74
(dp5857
sg83
g5851
sg76
(lp5858
g69
(g70
g71
NtRp5859
(dp5860
g74
(dp5861
g82
I1
ssg83
g5855
sg76
(lp5862
g5236
(S't\t\x00\x00\x00locations'
tRp5863
asbasbasbag69
(g85
g71
NtRp5864
(dp5865
g74
(dp5866
sg83
g5847
sg76
(lp5867
g69
(g90
g71
NtRp5868
(dp5869
g74
(dp5870
sg83
g5864
sg76
(lp5871
g69
(g70
g71
NtRp5872
(dp5873
g74
(dp5874
g82
I1
ssg83
g5868
sg76
(lp5875
I00
asbasbasbag69
(g85
g71
NtRp5876
(dp5877
g74
(dp5878
sg83
g5847
sg76
(lp5879
g69
(g90
g71
NtRp5880
(dp5881
g74
(dp5882
sg83
g5876
sg76
(lp5883
g69
(g70
g71
NtRp5884
(dp5885
g74
(dp5886
g82
I1
ssg83
g5880
sg76
(lp5887
S'/paideia/plugin_listandedit/listing.html/locations'
p5888
asbasbasbasbasbasbasbasbasbasbasbasbasbasbasbasbasbasbasbag69
(g85
g71
NtRp5889
(dp5890
g74
(dp5891
sg83
g4717
sg76
(lp5892
g69
(g90
g71
NtRp5893
(dp5894
g74
(dp5895
g94
g95
ssg83
g5889
sg76
(lp5896
S'meta'
p5897
asbag69
(g90
g71
NtRp5898
(dp5899
g74
(dp5900
g101
g102
ssg83
g5889
sg76
(lp5901
S':'
asbag69
(g90
g71
NtRp5902
(dp5903
g74
(dp5904
sg83
g5889
sg76
(lp5905
g69
(g70
g71
NtRp5906
(dp5907
g74
(dp5908
g82
I5
ssg83
g5902
sg76
(lp5909
g69
(g78
g71
NtRp5910
(dp5911
g74
(dp5912
g82
I4
ssg83
Nsg76
(lp5913
g69
(g85
g71
NtRp5914
(dp5915
g74
(dp5916
sg83
g5910
sg76
(lp5917
g69
(g90
g71
NtRp5918
(dp5919
g74
(dp5920
g94
g95
ssg83
g5914
sg76
(lp5921
S'author'
p5922
asbag69
(g90
g71
NtRp5923
(dp5924
g74
(dp5925
g101
g102
ssg83
g5914
sg76
(lp5926
S':'
asbag69
(g90
g71
NtRp5927
(dp5928
g74
(dp5929
sg83
g5914
sg76
(lp5930
g69
(g70
g71
NtRp5931
(dp5932
g74
(dp5933
g82
I4
ssg83
g5927
sg76
(lp5934
S'Ian W. Scott'
p5935
asbasbasbag69
(g85
g71
NtRp5936
(dp5937
g74
(dp5938
sg83
g5910
sg76
(lp5939
g69
(g90
g71
NtRp5940
(dp5941
g74
(dp5942
g94
g95
ssg83
g5936
sg76
(lp5943
S'copyright'
p5944
asbag69
(g90
g71
NtRp5945
(dp5946
g74
(dp5947
g101
g102
ssg83
g5936
sg76
(lp5948
S':'
asbag69
(g90
g71
NtRp5949
(dp5950
g74
(dp5951
sg83
g5936
sg76
(lp5952
g69
(g70
g71
NtRp5953
(dp5954
g74
(dp5955
g82
I4
ssg83
g5949
sg76
(lp5956
S'Copyright 2011'
p5957
asbasbasbag69
(g85
g71
NtRp5958
(dp5959
g74
(dp5960
sg83
g5910
sg76
(lp5961
g69
(g90
g71
NtRp5962
(dp5963
g74
(dp5964
g94
g95
ssg83
g5958
sg76
(lp5965
S'description'
p5966
asbag69
(g90
g71
NtRp5967
(dp5968
g74
(dp5969
g101
g102
ssg83
g5958
sg76
(lp5970
S':'
asbag69
(g90
g71
NtRp5971
(dp5972
g74
(dp5973
sg83
g5958
sg76
(lp5974
g69
(g70
g71
NtRp5975
(dp5976
g74
(dp5977
g82
I4
ssg83
g5971
sg76
(lp5978
S'An online space for learning New Testament Greek'
p5979
asbasbasbag69
(g85
g71
NtRp5980
(dp5981
g74
(dp5982
sg83
g5910
sg76
(lp5983
g69
(g90
g71
NtRp5984
(dp5985
g74
(dp5986
g94
g95
ssg83
g5980
sg76
(lp5987
S'generator'
p5988
asbag69
(g90
g71
NtRp5989
(dp5990
g74
(dp5991
g101
g102
ssg83
g5980
sg76
(lp5992
S':'
asbag69
(g90
g71
NtRp5993
(dp5994
g74
(dp5995
sg83
g5980
sg76
(lp5996
g69
(g70
g71
NtRp5997
(dp5998
g74
(dp5999
g82
I4
ssg83
g5993
sg76
(lp6000
S'Web2py Enterprise Framework'
p6001
asbasbasbag69
(g85
g71
NtRp6002
(dp6003
g74
(dp6004
sg83
g5910
sg76
(lp6005
g69
(g90
g71
NtRp6006
(dp6007
g74
(dp6008
g94
g95
ssg83
g6002
sg76
(lp6009
S'keywords'
p6010
asbag69
(g90
g71
NtRp6011
(dp6012
g74
(dp6013
g101
g102
ssg83
g6002
sg76
(lp6014
S':'
asbag69
(g90
g71
NtRp6015
(dp6016
g74
(dp6017
sg83
g6002
sg76
(lp6018
g69
(g70
g71
NtRp6019
(dp6020
g74
(dp6021
g82
I4
ssg83
g6015
sg76
(lp6022
S'Greek, koine, New Testament, language, education, learning'
p6023
asbasbasbasbasbasbasbag69
(g85
g71
NtRp6024
(dp6025
g74
(dp6026
sg83
g4717
sg76
(lp6027
g69
(g90
g71
NtRp6028
(dp6029
g74
(dp6030
g94
g95
ssg83
g6024
sg76
(lp6031
S'mobiletitle'
p6032
asbag69
(g90
g71
NtRp6033
(dp6034
g74
(dp6035
g101
g102
ssg83
g6024
sg76
(lp6036
S':'
asbag69
(g90
g71
NtRp6037
(dp6038
g74
(dp6039
sg83
g6024
sg76
(lp6040
g69
(g70
g71
NtRp6041
(dp6042
g74
(dp6043
g82
I5
ssg83
g6037
sg76
(lp6044
g134
asbasbasbag69
(g85
g71
NtRp6045
(dp6046
g74
(dp6047
sg83
g4717
sg76
(lp6048
g69
(g90
g71
NtRp6049
(dp6050
g74
(dp6051
g94
g95
ssg83
g6045
sg76
(lp6052
S'postprocessing'
p6053
asbag69
(g90
g71
NtRp6054
(dp6055
g74
(dp6056
g101
g102
ssg83
g6045
sg76
(lp6057
S':'
asbag69
(g90
g71
NtRp6058
(dp6059
g74
(dp6060
sg83
g6045
sg76
(lp6061
g69
(g70
g71
NtRp6062
(dp6063
g74
(dp6064
g82
I5
ssg83
g6058
sg76
(lp6065
g69
(g78
g71
NtRp6066
(dp6067
g74
(dp6068
g82
I4
ssg83
Nsg76
(lp6069
sbasbasbasbag69
(g85
g71
NtRp6070
(dp6071
g74
(dp6072
sg83
g4717
sg76
(lp6073
g69
(g90
g71
NtRp6074
(dp6075
g74
(dp6076
g94
g95
ssg83
g6070
sg76
(lp6077
S'session_file'
p6078
asbag69
(g90
g71
NtRp6079
(dp6080
g74
(dp6081
g101
g102
ssg83
g6070
sg76
(lp6082
S':'
asbag69
(g90
g71
NtRp6083
(dp6084
g74
(dp6085
sg83
g6070
sg76
(lp6086
g69
(g70
g71
NtRp6087
(dp6088
g74
(dp6089
g82
I5
ssg83
g6083
sg76
(lp6090
S"<open file '/home/ian/web/web2py/applications/paideia/sessions/127.0.0.1-d6bcece8-2742-4dcd-9d50-e8b957d71ddc', mode 'rb+' at 0x7feb80217810>"
p6091
asbasbasbag69
(g85
g71
NtRp6092
(dp6093
g74
(dp6094
sg83
g4717
sg76
(lp6095
g69
(g90
g71
NtRp6096
(dp6097
g74
(dp6098
g94
g95
ssg83
g6092
sg76
(lp6099
S'session_filename'
p6100
asbag69
(g90
g71
NtRp6101
(dp6102
g74
(dp6103
g101
g102
ssg83
g6092
sg76
(lp6104
S':'
asbag69
(g90
g71
NtRp6105
(dp6106
g74
(dp6107
sg83
g6092
sg76
(lp6108
g69
(g70
g71
NtRp6109
(dp6110
g74
(dp6111
g82
I5
ssg83
g6105
sg76
(lp6112
S'/home/ian/web/web2py/applications/paideia/sessions/127.0.0.1-d6bcece8-2742-4dcd-9d50-e8b957d71ddc'
p6113
asbasbasbag69
(g85
g71
NtRp6114
(dp6115
g74
(dp6116
sg83
g4717
sg76
(lp6117
g69
(g90
g71
NtRp6118
(dp6119
g74
(dp6120
g94
g95
ssg83
g6114
sg76
(lp6121
S'session_id'
p6122
asbag69
(g90
g71
NtRp6123
(dp6124
g74
(dp6125
g101
g102
ssg83
g6114
sg76
(lp6126
S':'
asbag69
(g90
g71
NtRp6127
(dp6128
g74
(dp6129
sg83
g6114
sg76
(lp6130
g69
(g70
g71
NtRp6131
(dp6132
g74
(dp6133
g82
I5
ssg83
g6127
sg76
(lp6134
S'127.0.0.1-d6bcece8-2742-4dcd-9d50-e8b957d71ddc'
p6135
asbasbasbag69
(g85
g71
NtRp6136
(dp6137
g74
(dp6138
sg83
g4717
sg76
(lp6139
g69
(g90
g71
NtRp6140
(dp6141
g74
(dp6142
g94
g95
ssg83
g6136
sg76
(lp6143
S'session_id_name'
p6144
asbag69
(g90
g71
NtRp6145
(dp6146
g74
(dp6147
g101
g102
ssg83
g6136
sg76
(lp6148
S':'
asbag69
(g90
g71
NtRp6149
(dp6150
g74
(dp6151
sg83
g6136
sg76
(lp6152
g69
(g70
g71
NtRp6153
(dp6154
g74
(dp6155
g82
I5
ssg83
g6149
sg76
(lp6156
g4774
asbasbasbag69
(g85
g71
NtRp6157
(dp6158
g74
(dp6159
sg83
g4717
sg76
(lp6160
g69
(g90
g71
NtRp6161
(dp6162
g74
(dp6163
g94
g95
ssg83
g6157
sg76
(lp6164
S'session_locked'
p6165
asbag69
(g90
g71
NtRp6166
(dp6167
g74
(dp6168
g101
g102
ssg83
g6157
sg76
(lp6169
S':'
asbag69
(g90
g71
NtRp6170
(dp6171
g74
(dp6172
sg83
g6157
sg76
(lp6173
g69
(g70
g71
NtRp6174
(dp6175
g74
(dp6176
g82
I5
ssg83
g6170
sg76
(lp6177
g1690
asbasbasbag69
(g85
g71
NtRp6178
(dp6179
g74
(dp6180
sg83
g4717
sg76
(lp6181
g69
(g90
g71
NtRp6182
(dp6183
g74
(dp6184
g94
g95
ssg83
g6178
sg76
(lp6185
S'session_new'
p6186
asbag69
(g90
g71
NtRp6187
(dp6188
g74
(dp6189
g101
g102
ssg83
g6178
sg76
(lp6190
S':'
asbag69
(g90
g71
NtRp6191
(dp6192
g74
(dp6193
sg83
g6178
sg76
(lp6194
g69
(g70
g71
NtRp6195
(dp6196
g74
(dp6197
g82
I5
ssg83
g6191
sg76
(lp6198
g112
asbasbasbag69
(g85
g71
NtRp6199
(dp6200
g74
(dp6201
sg83
g4717
sg76
(lp6202
g69
(g90
g71
NtRp6203
(dp6204
g74
(dp6205
g94
g95
ssg83
g6199
sg76
(lp6206
S'status'
p6207
asbag69
(g90
g71
NtRp6208
(dp6209
g74
(dp6210
g101
g102
ssg83
g6199
sg76
(lp6211
S':'
asbag69
(g90
g71
NtRp6212
(dp6213
g74
(dp6214
sg83
g6199
sg76
(lp6215
g69
(g70
g71
NtRp6216
(dp6217
g74
(dp6218
g82
I5
ssg83
g6212
sg76
(lp6219
S'200'
p6220
asbasbasbag69
(g85
g71
NtRp6221
(dp6222
g74
(dp6223
sg83
g4717
sg76
(lp6224
g69
(g90
g71
NtRp6225
(dp6226
g74
(dp6227
g94
g95
ssg83
g6221
sg76
(lp6228
S'subtitle'
p6229
asbag69
(g90
g71
NtRp6230
(dp6231
g74
(dp6232
g101
g102
ssg83
g6221
sg76
(lp6233
S':'
asbag69
(g90
g71
NtRp6234
(dp6235
g74
(dp6236
sg83
g6221
sg76
(lp6237
g69
(g70
g71
NtRp6238
(dp6239
g74
(dp6240
g82
I5
ssg83
g6234
sg76
(lp6241
g5236
(S's0\x00\x00\x00An online space for learning New Testament Greek'
tRp6242
asbasbasbag69
(g85
g71
NtRp6243
(dp6244
g74
(dp6245
sg83
g4717
sg76
(lp6246
g69
(g90
g71
NtRp6247
(dp6248
g74
(dp6249
g94
g95
ssg83
g6243
sg76
(lp6250
S'title'
p6251
asbag69
(g90
g71
NtRp6252
(dp6253
g74
(dp6254
g101
g102
ssg83
g6243
sg76
(lp6255
S':'
asbag69
(g90
g71
NtRp6256
(dp6257
g74
(dp6258
sg83
g6243
sg76
(lp6259
g69
(g70
g71
NtRp6260
(dp6261
g74
(dp6262
g82
I5
ssg83
g6256
sg76
(lp6263
g134
asbasbasbag69
(g85
g71
NtRp6264
(dp6265
g74
(dp6266
sg83
g4717
sg76
(lp6267
g69
(g90
g71
NtRp6268
(dp6269
g74
(dp6270
g94
g95
ssg83
g6264
sg76
(lp6271
g2354
asbag69
(g90
g71
NtRp6272
(dp6273
g74
(dp6274
g101
g102
ssg83
g6264
sg76
(lp6275
S':'
asbag69
(g90
g71
NtRp6276
(dp6277
g74
(dp6278
sg83
g6264
sg76
(lp6279
g69
(g70
g71
NtRp6280
(dp6281
g74
(dp6282
g82
I5
ssg83
g6276
sg76
(lp6283
g2367
asbasbasbag69
(g85
g71
NtRp6284
(dp6285
g74
(dp6286
sg83
g4717
sg76
(lp6287
g69
(g90
g71
NtRp6288
(dp6289
g74
(dp6290
g94
g95
ssg83
g6284
sg76
(lp6291
S'view'
p6292
asbag69
(g90
g71
NtRp6293
(dp6294
g74
(dp6295
g101
g102
ssg83
g6284
sg76
(lp6296
S':'
asbag69
(g90
g71
NtRp6297
(dp6298
g74
(dp6299
sg83
g6284
sg76
(lp6300
g69
(g70
g71
NtRp6301
(dp6302
g74
(dp6303
g82
I5
ssg83
g6297
sg76
(lp6304
S'exploring/index.html'
p6305
asbasbasbasbasbsS'locals'
p6306
(dp6307
S'fromlist'
p6308
S"('paideia_path', 'paideia_tag', 'counter', 'map')"
p6309
sS'e'
S'SyntaxError(\'invalid syntax\', (\'applications/pai...          print \'raw catXpaths = \' catXpaths\\n"))'
p6310
sS'name'
p6311
S"'applications.paideia.modules.paideia_exploring'"
p6312
sg82
S'-1'
p6313
sS'self'
p6314
S'<gluon.custom_import._Web2pyDateTrackerImporter object>'
p6315
sS'globals'
p6316
S"{'A': <class 'gluon.html.A'>, 'AjaxSelect': <class applications.paideia.modules.plugin_ajaxselect.AjaxSelect>, 'Auth': <class 'gluon.tools.Auth'>, 'B': <class 'gluon.html.B'>, 'BEAUTIFY': <class 'gluon.html.BEAUTIFY'>, 'BODY': <class 'gluon.html.BODY'>, 'BR': <class 'gluon.html.BR'>, 'BUTTON': <class 'gluon.html.BUTTON'>, 'CAT': <class 'gluon.html.CAT'>, 'CENTER': <class 'gluon.html.CENTER'>, ...}"
p6317
sS'call_begin_end'
p6318
g112
sg6306
S"{'A': <class 'gluon.html.A'>, 'AjaxSelect': <class applications.paideia.modules.plugin_ajaxselect.AjaxSelect>, 'Auth': <class 'gluon.tools.Auth'>, 'B': <class 'gluon.html.B'>, 'BEAUTIFY': <class 'gluon.html.BEAUTIFY'>, 'BODY': <class 'gluon.html.BODY'>, 'BR': <class 'gluon.html.BR'>, 'BUTTON': <class 'gluon.html.BUTTON'>, 'CAT': <class 'gluon.html.CAT'>, 'CENTER': <class 'gluon.html.CENTER'>, ...}"
p6319
sssS'traceback'
p6320
S'Traceback (most recent call last):\n  File "/home/ian/web/web2py/gluon/restricted.py", line 204, in restricted\n    exec ccode in environment\n  File "/home/ian/web/web2py/applications/paideia/controllers/exploring.py", line 2, in <module>\n    from paideia_exploring import paideia_path, paideia_tag, counter, map\n  File "/home/ian/web/web2py/gluon/custom_import.py", line 289, in __call__\n    globals, locals, fromlist, level)\n  File "/home/ian/web/web2py/gluon/custom_import.py", line 132, in __call__\n    raise e  # Don\'t hide something that went wrong\n  File "applications/paideia/modules/paideia_exploring.py", line 300\n    print \'raw catXpaths = \' catXpaths\n                                     ^\nSyntaxError: invalid syntax\n'
p6321
s.