(dp1
S'output'
p2
S''
sS'layer'
p3
S'/home/ian/web2py/applications/paideia/controllers/appadmin.py'
p4
sS'code'
p5
S'# -*- coding: utf-8 -*-\n\n# ##########################################################\n# ## make sure administrator is on localhost\n# ###########################################################\n\nimport os\nimport socket\nimport datetime\nimport copy\nimport gluon.contenttype\nimport gluon.fileutils\n\n# ## critical --- make a copy of the environment\n\nglobal_env = copy.copy(globals())\nglobal_env[\'datetime\'] = datetime\n\nhttp_host = request.env.http_host.split(\':\')[0]\nremote_addr = request.env.remote_addr\ntry:\n    hosts = (http_host, socket.gethostname(),\n             socket.gethostbyname(http_host),\n             \'::1\',\'127.0.0.1\',\'::ffff:127.0.0.1\')\nexcept:\n    hosts = (http_host, )\n\nif request.env.http_x_forwarded_for or request.env.wsgi_url_scheme\\\n     in [\'https\', \'HTTPS\']:\n    session.secure()\nelif (remote_addr not in hosts) and (remote_addr != "127.0.0.1"):\n    raise HTTP(200, T(\'appadmin is disabled because insecure channel\'))\n\nif (request.application==\'admin\' and not session.authorized) or \\\n        (request.application!=\'admin\' and not gluon.fileutils.check_credentials(request)):\n    redirect(URL(\'admin\', \'default\', \'index\'))\n\nignore_rw = True\nresponse.view = \'appadmin.html\'\nresponse.menu = [[T(\'design\'), False, URL(\'admin\', \'default\', \'design\',\n                 args=[request.application])], [T(\'db\'), False,\n                 URL(\'index\')], [T(\'state\'), False,\n                 URL(\'state\')], [T(\'cache\'), False,\n                 URL(\'ccache\')]]\n\n# ##########################################################\n# ## auxiliary functions\n# ###########################################################\n\n\ndef get_databases(request):\n    dbs = {}\n    for (key, value) in global_env.items():\n        cond = False\n        try:\n            cond = isinstance(value, GQLDB)\n        except:\n            cond = isinstance(value, SQLDB)\n        if cond:\n            dbs[key] = value\n    return dbs\n\n\ndatabases = get_databases(None)\n\n\ndef eval_in_global_env(text):\n    exec (\'_ret=%s\' % text, {}, global_env)\n    return global_env[\'_ret\']\n\n\ndef get_database(request):\n    if request.args and request.args[0] in databases:\n        return eval_in_global_env(request.args[0])\n    else:\n        session.flash = T(\'invalid request\')\n        redirect(URL(\'index\'))\n\n\ndef get_table(request):\n    db = get_database(request)\n    if len(request.args) > 1 and request.args[1] in db.tables:\n        return (db, request.args[1])\n    else:\n        session.flash = T(\'invalid request\')\n        redirect(URL(\'index\'))\n\n\ndef get_query(request):\n    try:\n        return eval_in_global_env(request.vars.query)\n    except Exception:\n        return None\n\n\ndef query_by_table_type(tablename,db,request=request):\n    keyed = hasattr(db[tablename],\'_primarykey\')\n    if keyed:\n        firstkey = db[tablename][db[tablename]._primarykey[0]]\n        cond = \'>0\'\n        if firstkey.type in [\'string\', \'text\']:\n            cond = \'!=""\'\n        qry = \'%s.%s.%s%s\' % (request.args[0], request.args[1], firstkey.name, cond)\n    else:\n        qry = \'%s.%s.id>0\' % tuple(request.args[:2])\n    return qry\n\n\n\n# ##########################################################\n# ## list all databases and tables\n# ###########################################################\n\n\ndef index():\n    return dict(databases=databases)\n\n\n# ##########################################################\n# ## insert a new record\n# ###########################################################\n\n\ndef insert():\n    (db, table) = get_table(request)\n    form = SQLFORM(db[table], ignore_rw=ignore_rw)\n    if form.accepts(request.vars, session):\n        response.flash = T(\'new record inserted\')\n    return dict(form=form,table=db[table])\n\n\n# ##########################################################\n# ## list all records in table and insert new record\n# ###########################################################\n\n\ndef download():\n    import os\n    db = get_database(request)\n    return response.download(request,db)\n\ndef csv():\n    import gluon.contenttype\n    response.headers[\'Content-Type\'] = \\\n        gluon.contenttype.contenttype(\'.csv\')\n    db = get_database(request)\n    query = get_query(request)\n    if not query:\n        return None\n    response.headers[\'Content-disposition\'] = \'attachment; filename=%s_%s.csv\'\\\n         % tuple(request.vars.query.split(\'.\')[:2])\n    return str(db(query).select())\n\n\ndef import_csv(table, file):\n    table.import_from_csv_file(file)\n\ndef select():\n    import re\n    db = get_database(request)\n    dbname = request.args[0]\n    regex = re.compile(\'(?P<table>\\w+)\\.(?P<field>\\w+)=(?P<value>\\d+)\')\n    if len(request.args)>1 and hasattr(db[request.args[1]],\'_primarykey\'):\n        regex = re.compile(\'(?P<table>\\w+)\\.(?P<field>\\w+)=(?P<value>.+)\')\n    if request.vars.query:\n        match = regex.match(request.vars.query)\n        if match:\n            request.vars.query = \'%s.%s.%s==%s\' % (request.args[0],\n                    match.group(\'table\'), match.group(\'field\'),\n                    match.group(\'value\'))\n    else:\n        request.vars.query = session.last_query\n    query = get_query(request)\n    if request.vars.start:\n        start = int(request.vars.start)\n    else:\n        start = 0\n    nrows = 0\n    stop = start + 100\n    table = None\n    rows = []\n    orderby = request.vars.orderby\n    if orderby:\n        orderby = dbname + \'.\' + orderby\n        if orderby == session.last_orderby:\n            if orderby[0] == \'~\':\n                orderby = orderby[1:]\n            else:\n                orderby = \'~\' + orderby\n    session.last_orderby = orderby\n    session.last_query = request.vars.query\n    form = FORM(TABLE(TR(T(\'Query:\'), \'\', INPUT(_style=\'width:400px\',\n                _name=\'query\', _value=request.vars.query or \'\',\n                requires=IS_NOT_EMPTY(error_message=T("Cannot be empty")))), TR(T(\'Update:\'),\n                INPUT(_name=\'update_check\', _type=\'checkbox\',\n                value=False), INPUT(_style=\'width:400px\',\n                _name=\'update_fields\', _value=request.vars.update_fields\n                 or \'\')), TR(T(\'Delete:\'), INPUT(_name=\'delete_check\',\n                _class=\'delete\', _type=\'checkbox\', value=False), \'\'),\n                TR(\'\', \'\', INPUT(_type=\'submit\', _value=\'submit\'))),\n                _action=URL(r=request,args=request.args))\n    if request.vars.csvfile != None:\n        try:\n            import_csv(db[request.vars.table],\n                       request.vars.csvfile.file)\n            response.flash = T(\'data uploaded\')\n        except Exception, e:\n            response.flash = DIV(T(\'unable to parse csv file\'),PRE(str(e)))\n    if form.accepts(request.vars, formname=None):\n#         regex = re.compile(request.args[0] + \'\\.(?P<table>\\w+)\\.id\\>0\')\n        regex = re.compile(request.args[0] + \'\\.(?P<table>\\w+)\\..+\')\n\n        match = regex.match(form.vars.query.strip())\n        if match:\n            table = match.group(\'table\')\n        try:\n            nrows = db(query).count()\n            if form.vars.update_check and form.vars.update_fields:\n                db(query).update(**eval_in_global_env(\'dict(%s)\'\n                                  % form.vars.update_fields))\n                response.flash = T(\'%s rows updated\', nrows)\n            elif form.vars.delete_check:\n                db(query).delete()\n                response.flash = T(\'%s rows deleted\', nrows)\n            nrows = db(query).count()\n            if orderby:\n                rows = db(query).select(limitby=(start, stop),\n                        orderby=eval_in_global_env(orderby))\n            else:\n                rows = db(query).select(limitby=(start, stop))\n        except Exception, e:\n            (rows, nrows) = ([], 0)\n            response.flash = DIV(T(\'Invalid Query\'),PRE(str(e)))\n    return dict(\n        form=form,\n        table=table,\n        start=start,\n        stop=stop,\n        nrows=nrows,\n        rows=rows,\n        query=request.vars.query,\n        )\n\n\n# ##########################################################\n# ## edit delete one record\n# ###########################################################\n\n\ndef update():\n    (db, table) = get_table(request)\n    keyed = hasattr(db[table],\'_primarykey\')\n    record = None\n    if keyed:\n        key = [f for f in request.vars if f in db[table]._primarykey]\n        if key:\n            record = db(db[table][key[0]] == request.vars[key[0]]).select().first()\n    else:\n        record = db(db[table].id == request.args(2)).select().first()\n\n    if not record:\n        qry = query_by_table_type(table, db)\n        session.flash = T(\'record does not exist\')\n        redirect(URL(\'select\', args=request.args[:1],\n                     vars=dict(query=qry)))\n\n    if keyed:\n        for k in db[table]._primarykey:\n            db[table][k].writable=False\n\n    form = SQLFORM(db[table], record, deletable=True, delete_label=T(\'Check to delete\'),\n                   ignore_rw=ignore_rw and not keyed,\n                   linkto=URL(\'select\',\n                   args=request.args[:1]), upload=URL(r=request,\n                   f=\'download\', args=request.args[:1]))\n\n    if form.accepts(request.vars, session):\n        session.flash = T(\'done!\')\n        qry = query_by_table_type(table, db)\n        redirect(URL(\'select\', args=request.args[:1],\n                 vars=dict(query=qry)))\n    return dict(form=form,table=db[table])\n\n\n# ##########################################################\n# ## get global variables\n# ###########################################################\n\n\ndef state():\n    return dict()\n\ndef ccache():\n    form = FORM(\n        P(TAG.BUTTON("Clear CACHE?", _type="submit", _name="yes", _value="yes")),\n        P(TAG.BUTTON("Clear RAM", _type="submit", _name="ram", _value="ram")),\n        P(TAG.BUTTON("Clear DISK", _type="submit", _name="disk", _value="disk")),\n    )\n\n    if form.accepts(request.vars, session):\n        clear_ram = False\n        clear_disk = False\n        session.flash = ""\n        if request.vars.yes:\n            clear_ram = clear_disk = True\n        if request.vars.ram:\n            clear_ram = True\n        if request.vars.disk:\n            clear_disk = True\n\n        if clear_ram:\n            cache.ram.clear()\n            session.flash += "Ram Cleared "\n        if clear_disk:\n            cache.disk.clear()\n            session.flash += "Disk Cleared"\n\n        redirect(URL(r=request))\n\n    try:\n        from guppy import hpy; hp=hpy()\n    except ImportError:\n        hp = False\n\n    import shelve, os, copy, time, math\n    from gluon import portalocker\n\n    ram = {\n        \'bytes\': 0,\n        \'objects\': 0,\n        \'hits\': 0,\n        \'misses\': 0,\n        \'ratio\': 0,\n        \'oldest\': time.time()\n    }\n    disk = copy.copy(ram)\n    total = copy.copy(ram)\n\n    for key, value in cache.ram.storage.items():\n        if isinstance(value, dict):\n            ram[\'hits\'] = value[\'hit_total\'] - value[\'misses\']\n            ram[\'misses\'] = value[\'misses\']\n            try:\n                ram[\'ratio\'] = ram[\'hits\'] * 100 / value[\'hit_total\']\n            except (KeyError, ZeroDivisionError):\n                ram[\'ratio\'] = 0\n        else:\n            if hp:\n                ram[\'bytes\'] += hp.iso(value[1]).size\n                ram[\'objects\'] += hp.iso(value[1]).count\n\n                if value[0] < ram[\'oldest\']:\n                    ram[\'oldest\'] = value[0]\n\n    locker = open(os.path.join(request.folder,\n                                        \'cache/cache.lock\'), \'a\')\n    portalocker.lock(locker, portalocker.LOCK_EX)\n    disk_storage = shelve.open(os.path.join(request.folder, \'cache/cache.shelve\'))\n    try:\n        for key, value in disk_storage.items():\n            if isinstance(value, dict):\n                disk[\'hits\'] = value[\'hit_total\'] - value[\'misses\']\n                disk[\'misses\'] = value[\'misses\']\n                try:\n                    disk[\'ratio\'] = disk[\'hits\'] * 100 / value[\'hit_total\']\n                except (KeyError, ZeroDivisionError):\n                    disk[\'ratio\'] = 0\n            else:\n                if hp:\n                    disk[\'bytes\'] += hp.iso(value[1]).size\n                    disk[\'objects\'] += hp.iso(value[1]).count\n                    if value[0] < disk[\'oldest\']:\n                        disk[\'oldest\'] = value[0]\n    finally:\n        portalocker.unlock(locker)\n        locker.close()\n        disk_storage.close()\n\n    total[\'bytes\'] = ram[\'bytes\'] + disk[\'bytes\']\n    total[\'objects\'] = ram[\'objects\'] + disk[\'objects\']\n    total[\'hits\'] = ram[\'hits\'] + disk[\'hits\']\n    total[\'misses\'] = ram[\'misses\'] + disk[\'misses\']\n    try:\n        total[\'ratio\'] = total[\'hits\'] * 100 / (total[\'hits\'] + total[\'misses\'])\n    except (KeyError, ZeroDivisionError):\n        total[\'ratio\'] = 0\n\n    if disk[\'oldest\'] < ram[\'oldest\']:\n        total[\'oldest\'] = disk[\'oldest\']\n    else:\n        total[\'oldest\'] = ram[\'oldest\']\n\n    def GetInHMS(seconds):\n        hours = math.floor(seconds / 3600)\n        seconds -= hours * 3600\n        minutes = math.floor(seconds / 60)\n        seconds -= minutes * 60\n        seconds = math.floor(seconds)\n\n        return (hours, minutes, seconds)\n\n    ram[\'oldest\'] = GetInHMS(time.time() - ram[\'oldest\'])\n    disk[\'oldest\'] = GetInHMS(time.time() - disk[\'oldest\'])\n    total[\'oldest\'] = GetInHMS(time.time() - total[\'oldest\'])\n\n    return dict(form=form, total=total,\n                ram=ram, disk=disk)\n\n\nresponse._vars=response._caller(insert)\n'
p6
sS'snapshot'
p7
(dp8
S'exception'
p9
(dp10
S'__module__'
p11
S"'pysqlite2.dbapi2'"
p12
sS'__getslice__'
p13
S"<method-wrapper '__getslice__' of OperationalError object>"
p14
sS'__str__'
p15
S"<method-wrapper '__str__' of OperationalError object>"
p16
sS'__reduce__'
p17
S'<built-in method __reduce__ of OperationalError object>'
p18
sS'__dict__'
p19
S'{}'
p20
sS'__sizeof__'
p21
S'<built-in method __sizeof__ of OperationalError object>'
p22
sS'__weakref__'
p23
S'None'
p24
sS'__init__'
p25
S"<method-wrapper '__init__' of OperationalError object>"
p26
sS'__setattr__'
p27
S"<method-wrapper '__setattr__' of OperationalError object>"
p28
sS'__reduce_ex__'
p29
S'<built-in method __reduce_ex__ of OperationalError object>'
p30
sS'__new__'
p31
S'<built-in method __new__ of type object>'
p32
sS'__format__'
p33
S'<built-in method __format__ of OperationalError object>'
p34
sS'__class__'
p35
S"<class 'pysqlite2.dbapi2.OperationalError'>"
p36
sS'__doc__'
p37
S'None'
p38
sS'__getitem__'
p39
S"<method-wrapper '__getitem__' of OperationalError object>"
p40
sS'__setstate__'
p41
S'<built-in method __setstate__ of OperationalError object>'
p42
sS'__getattribute__'
p43
S"<method-wrapper '__getattribute__' of OperationalError object>"
p44
sS'args'
p45
S"('no such table: bug_status',)"
p46
sS'__subclasshook__'
p47
S'<built-in method __subclasshook__ of type object>'
p48
sS'__unicode__'
p49
S'<built-in method __unicode__ of OperationalError object>'
p50
sS'__delattr__'
p51
S"<method-wrapper '__delattr__' of OperationalError object>"
p52
sS'__repr__'
p53
S"<method-wrapper '__repr__' of OperationalError object>"
p54
sS'__hash__'
p55
S"<method-wrapper '__hash__' of OperationalError object>"
p56
ssS'evalue'
p57
S'no such table: bug_status'
p58
sS'request'
p59
ccopy_reg
_reconstructor
p60
(cgluon.html
BEAUTIFY
p61
c__builtin__
object
p62
NtRp63
(dp64
S'attributes'
p65
(dp66
sS'components'
p67
(lp68
g60
(cgluon.html
TABLE
p69
g62
NtRp70
(dp71
g65
(dp72
S'level'
p73
I5
ssS'parent'
p74
Nsg67
(lp75
g60
(cgluon.html
TR
p76
g62
NtRp77
(dp78
g65
(dp79
sg74
g70
sg67
(lp80
g60
(cgluon.html
TD
p81
g62
NtRp82
(dp83
g65
(dp84
S'_style'
p85
S'font-weight:bold;'
p86
ssg74
g77
sg67
(lp87
S'ajax'
p88
asbag60
(g81
g62
NtRp89
(dp90
g65
(dp91
S'_valign'
p92
S'top'
p93
ssg74
g77
sg67
(lp94
S':'
asbag60
(g81
g62
NtRp95
(dp96
g65
(dp97
sg74
g77
sg67
(lp98
g60
(g61
g62
NtRp99
(dp100
g65
(dp101
g73
I5
ssg74
g95
sg67
(lp102
S'False'
p103
asbasbasbag60
(g76
g62
NtRp104
(dp105
g65
(dp106
sg74
g70
sg67
(lp107
g60
(g81
g62
NtRp108
(dp109
g65
(dp110
g85
g86
ssg74
g104
sg67
(lp111
S'application'
p112
asbag60
(g81
g62
NtRp113
(dp114
g65
(dp115
g92
g93
ssg74
g104
sg67
(lp116
S':'
asbag60
(g81
g62
NtRp117
(dp118
g65
(dp119
sg74
g104
sg67
(lp120
g60
(g61
g62
NtRp121
(dp122
g65
(dp123
g73
I5
ssg74
g117
sg67
(lp124
S'paideia'
p125
asbasbasbag60
(g76
g62
NtRp126
(dp127
g65
(dp128
sg74
g70
sg67
(lp129
g60
(g81
g62
NtRp130
(dp131
g65
(dp132
g85
g86
ssg74
g126
sg67
(lp133
g45
asbag60
(g81
g62
NtRp134
(dp135
g65
(dp136
g92
g93
ssg74
g126
sg67
(lp137
S':'
asbag60
(g81
g62
NtRp138
(dp139
g65
(dp140
sg74
g126
sg67
(lp141
g60
(g61
g62
NtRp142
(dp143
g65
(dp144
g73
I5
ssg74
g138
sg67
(lp145
g60
(g69
g62
NtRp146
(dp147
g65
(dp148
g73
I4
ssg74
Nsg67
(lp149
g60
(g76
g62
NtRp150
(dp151
g65
(dp152
sg74
g146
sg67
(lp153
g60
(g81
g62
NtRp154
(dp155
g65
(dp156
sg74
g150
sg67
(lp157
g60
(g61
g62
NtRp158
(dp159
g65
(dp160
g73
I4
ssg74
g154
sg67
(lp161
S'db'
p162
asbasbasbag60
(g76
g62
NtRp163
(dp164
g65
(dp165
sg74
g146
sg67
(lp166
g60
(g81
g62
NtRp167
(dp168
g65
(dp169
sg74
g163
sg67
(lp170
g60
(g61
g62
NtRp171
(dp172
g65
(dp173
g73
I4
ssg74
g167
sg67
(lp174
S'bug_status'
p175
asbasbasbasbasbasbasbag60
(g76
g62
NtRp176
(dp177
g65
(dp178
sg74
g70
sg67
(lp179
g60
(g81
g62
NtRp180
(dp181
g65
(dp182
g85
g86
ssg74
g176
sg67
(lp183
S'body'
p184
asbag60
(g81
g62
NtRp185
(dp186
g65
(dp187
g92
g93
ssg74
g176
sg67
(lp188
S':'
asbag60
(g81
g62
NtRp189
(dp190
g65
(dp191
sg74
g176
sg67
(lp192
g60
(g61
g62
NtRp193
(dp194
g65
(dp195
g73
I5
ssg74
g189
sg67
(lp196
S"<open file '<fdopen>', mode 'w+b' at 0x3116ae0>"
p197
asbasbasbag60
(g76
g62
NtRp198
(dp199
g65
(dp200
sg74
g70
sg67
(lp201
g60
(g81
g62
NtRp202
(dp203
g65
(dp204
g85
g86
ssg74
g198
sg67
(lp205
S'client'
p206
asbag60
(g81
g62
NtRp207
(dp208
g65
(dp209
g92
g93
ssg74
g198
sg67
(lp210
S':'
asbag60
(g81
g62
NtRp211
(dp212
g65
(dp213
sg74
g198
sg67
(lp214
g60
(g61
g62
NtRp215
(dp216
g65
(dp217
g73
I5
ssg74
g211
sg67
(lp218
S'127.0.0.1'
p219
asbasbasbag60
(g76
g62
NtRp220
(dp221
g65
(dp222
sg74
g70
sg67
(lp223
g60
(g81
g62
NtRp224
(dp225
g65
(dp226
g85
g86
ssg74
g220
sg67
(lp227
S'controller'
p228
asbag60
(g81
g62
NtRp229
(dp230
g65
(dp231
g92
g93
ssg74
g220
sg67
(lp232
S':'
asbag60
(g81
g62
NtRp233
(dp234
g65
(dp235
sg74
g220
sg67
(lp236
g60
(g61
g62
NtRp237
(dp238
g65
(dp239
g73
I5
ssg74
g233
sg67
(lp240
S'appadmin'
p241
asbasbasbag60
(g76
g62
NtRp242
(dp243
g65
(dp244
sg74
g70
sg67
(lp245
g60
(g81
g62
NtRp246
(dp247
g65
(dp248
g85
g86
ssg74
g242
sg67
(lp249
S'cookies'
p250
asbag60
(g81
g62
NtRp251
(dp252
g65
(dp253
g92
g93
ssg74
g242
sg67
(lp254
S':'
asbag60
(g81
g62
NtRp255
(dp256
g65
(dp257
sg74
g242
sg67
(lp258
g60
(g61
g62
NtRp259
(dp260
g65
(dp261
g73
I5
ssg74
g255
sg67
(lp262
g60
(g69
g62
NtRp263
(dp264
g65
(dp265
g73
I4
ssg74
Nsg67
(lp266
g60
(g76
g62
NtRp267
(dp268
g65
(dp269
sg74
g263
sg67
(lp270
g60
(g81
g62
NtRp271
(dp272
g65
(dp273
g85
g86
ssg74
g267
sg67
(lp274
S'session_id_admin'
p275
asbag60
(g81
g62
NtRp276
(dp277
g65
(dp278
g92
g93
ssg74
g267
sg67
(lp279
S':'
asbag60
(g81
g62
NtRp280
(dp281
g65
(dp282
sg74
g267
sg67
(lp283
g60
(g61
g62
NtRp284
(dp285
g65
(dp286
g73
I4
ssg74
g280
sg67
(lp287
g60
(g69
g62
NtRp288
(dp289
g65
(dp290
g73
I3
ssg74
Nsg67
(lp291
g60
(g76
g62
NtRp292
(dp293
g65
(dp294
sg74
g288
sg67
(lp295
g60
(g81
g62
NtRp296
(dp297
g65
(dp298
g85
g86
ssg74
g292
sg67
(lp299
S'comment'
p300
asbag60
(g81
g62
NtRp301
(dp302
g65
(dp303
g92
g93
ssg74
g292
sg67
(lp304
S':'
asbag60
(g81
g62
NtRp305
(dp306
g65
(dp307
sg74
g292
sg67
(lp308
g60
(g61
g62
NtRp309
(dp310
g65
(dp311
g73
I3
ssg74
g305
sg67
(lp312
S''
asbasbasbag60
(g76
g62
NtRp313
(dp314
g65
(dp315
sg74
g288
sg67
(lp316
g60
(g81
g62
NtRp317
(dp318
g65
(dp319
g85
g86
ssg74
g313
sg67
(lp320
S'domain'
p321
asbag60
(g81
g62
NtRp322
(dp323
g65
(dp324
g92
g93
ssg74
g313
sg67
(lp325
S':'
asbag60
(g81
g62
NtRp326
(dp327
g65
(dp328
sg74
g313
sg67
(lp329
g60
(g61
g62
NtRp330
(dp331
g65
(dp332
g73
I3
ssg74
g326
sg67
(lp333
S''
asbasbasbag60
(g76
g62
NtRp334
(dp335
g65
(dp336
sg74
g288
sg67
(lp337
g60
(g81
g62
NtRp338
(dp339
g65
(dp340
g85
g86
ssg74
g334
sg67
(lp341
S'expires'
p342
asbag60
(g81
g62
NtRp343
(dp344
g65
(dp345
g92
g93
ssg74
g334
sg67
(lp346
S':'
asbag60
(g81
g62
NtRp347
(dp348
g65
(dp349
sg74
g334
sg67
(lp350
g60
(g61
g62
NtRp351
(dp352
g65
(dp353
g73
I3
ssg74
g347
sg67
(lp354
S''
asbasbasbag60
(g76
g62
NtRp355
(dp356
g65
(dp357
sg74
g288
sg67
(lp358
g60
(g81
g62
NtRp359
(dp360
g65
(dp361
g85
g86
ssg74
g355
sg67
(lp362
S'httponly'
p363
asbag60
(g81
g62
NtRp364
(dp365
g65
(dp366
g92
g93
ssg74
g355
sg67
(lp367
S':'
asbag60
(g81
g62
NtRp368
(dp369
g65
(dp370
sg74
g355
sg67
(lp371
g60
(g61
g62
NtRp372
(dp373
g65
(dp374
g73
I3
ssg74
g368
sg67
(lp375
S''
asbasbasbag60
(g76
g62
NtRp376
(dp377
g65
(dp378
sg74
g288
sg67
(lp379
g60
(g81
g62
NtRp380
(dp381
g65
(dp382
g85
g86
ssg74
g376
sg67
(lp383
S'max-age'
p384
asbag60
(g81
g62
NtRp385
(dp386
g65
(dp387
g92
g93
ssg74
g376
sg67
(lp388
S':'
asbag60
(g81
g62
NtRp389
(dp390
g65
(dp391
sg74
g376
sg67
(lp392
g60
(g61
g62
NtRp393
(dp394
g65
(dp395
g73
I3
ssg74
g389
sg67
(lp396
S''
asbasbasbag60
(g76
g62
NtRp397
(dp398
g65
(dp399
sg74
g288
sg67
(lp400
g60
(g81
g62
NtRp401
(dp402
g65
(dp403
g85
g86
ssg74
g397
sg67
(lp404
S'path'
p405
asbag60
(g81
g62
NtRp406
(dp407
g65
(dp408
g92
g93
ssg74
g397
sg67
(lp409
S':'
asbag60
(g81
g62
NtRp410
(dp411
g65
(dp412
sg74
g397
sg67
(lp413
g60
(g61
g62
NtRp414
(dp415
g65
(dp416
g73
I3
ssg74
g410
sg67
(lp417
S''
asbasbasbag60
(g76
g62
NtRp418
(dp419
g65
(dp420
sg74
g288
sg67
(lp421
g60
(g81
g62
NtRp422
(dp423
g65
(dp424
g85
g86
ssg74
g418
sg67
(lp425
S'secure'
p426
asbag60
(g81
g62
NtRp427
(dp428
g65
(dp429
g92
g93
ssg74
g418
sg67
(lp430
S':'
asbag60
(g81
g62
NtRp431
(dp432
g65
(dp433
sg74
g418
sg67
(lp434
g60
(g61
g62
NtRp435
(dp436
g65
(dp437
g73
I3
ssg74
g431
sg67
(lp438
S''
asbasbasbag60
(g76
g62
NtRp439
(dp440
g65
(dp441
sg74
g288
sg67
(lp442
g60
(g81
g62
NtRp443
(dp444
g65
(dp445
g85
g86
ssg74
g439
sg67
(lp446
S'version'
p447
asbag60
(g81
g62
NtRp448
(dp449
g65
(dp450
g92
g93
ssg74
g439
sg67
(lp451
S':'
asbag60
(g81
g62
NtRp452
(dp453
g65
(dp454
sg74
g439
sg67
(lp455
g60
(g61
g62
NtRp456
(dp457
g65
(dp458
g73
I3
ssg74
g452
sg67
(lp459
S''
asbasbasbasbasbasbasbag60
(g76
g62
NtRp460
(dp461
g65
(dp462
sg74
g263
sg67
(lp463
g60
(g81
g62
NtRp464
(dp465
g65
(dp466
g85
g86
ssg74
g460
sg67
(lp467
S'session_id_paideia'
p468
asbag60
(g81
g62
NtRp469
(dp470
g65
(dp471
g92
g93
ssg74
g460
sg67
(lp472
S':'
asbag60
(g81
g62
NtRp473
(dp474
g65
(dp475
sg74
g460
sg67
(lp476
g60
(g61
g62
NtRp477
(dp478
g65
(dp479
g73
I4
ssg74
g473
sg67
(lp480
g60
(g69
g62
NtRp481
(dp482
g65
(dp483
g73
I3
ssg74
Nsg67
(lp484
g60
(g76
g62
NtRp485
(dp486
g65
(dp487
sg74
g481
sg67
(lp488
g60
(g81
g62
NtRp489
(dp490
g65
(dp491
g85
g86
ssg74
g485
sg67
(lp492
g300
asbag60
(g81
g62
NtRp493
(dp494
g65
(dp495
g92
g93
ssg74
g485
sg67
(lp496
S':'
asbag60
(g81
g62
NtRp497
(dp498
g65
(dp499
sg74
g485
sg67
(lp500
g60
(g61
g62
NtRp501
(dp502
g65
(dp503
g73
I3
ssg74
g497
sg67
(lp504
S''
asbasbasbag60
(g76
g62
NtRp505
(dp506
g65
(dp507
sg74
g481
sg67
(lp508
g60
(g81
g62
NtRp509
(dp510
g65
(dp511
g85
g86
ssg74
g505
sg67
(lp512
g321
asbag60
(g81
g62
NtRp513
(dp514
g65
(dp515
g92
g93
ssg74
g505
sg67
(lp516
S':'
asbag60
(g81
g62
NtRp517
(dp518
g65
(dp519
sg74
g505
sg67
(lp520
g60
(g61
g62
NtRp521
(dp522
g65
(dp523
g73
I3
ssg74
g517
sg67
(lp524
S''
asbasbasbag60
(g76
g62
NtRp525
(dp526
g65
(dp527
sg74
g481
sg67
(lp528
g60
(g81
g62
NtRp529
(dp530
g65
(dp531
g85
g86
ssg74
g525
sg67
(lp532
g342
asbag60
(g81
g62
NtRp533
(dp534
g65
(dp535
g92
g93
ssg74
g525
sg67
(lp536
S':'
asbag60
(g81
g62
NtRp537
(dp538
g65
(dp539
sg74
g525
sg67
(lp540
g60
(g61
g62
NtRp541
(dp542
g65
(dp543
g73
I3
ssg74
g537
sg67
(lp544
S''
asbasbasbag60
(g76
g62
NtRp545
(dp546
g65
(dp547
sg74
g481
sg67
(lp548
g60
(g81
g62
NtRp549
(dp550
g65
(dp551
g85
g86
ssg74
g545
sg67
(lp552
g363
asbag60
(g81
g62
NtRp553
(dp554
g65
(dp555
g92
g93
ssg74
g545
sg67
(lp556
S':'
asbag60
(g81
g62
NtRp557
(dp558
g65
(dp559
sg74
g545
sg67
(lp560
g60
(g61
g62
NtRp561
(dp562
g65
(dp563
g73
I3
ssg74
g557
sg67
(lp564
S''
asbasbasbag60
(g76
g62
NtRp565
(dp566
g65
(dp567
sg74
g481
sg67
(lp568
g60
(g81
g62
NtRp569
(dp570
g65
(dp571
g85
g86
ssg74
g565
sg67
(lp572
g384
asbag60
(g81
g62
NtRp573
(dp574
g65
(dp575
g92
g93
ssg74
g565
sg67
(lp576
S':'
asbag60
(g81
g62
NtRp577
(dp578
g65
(dp579
sg74
g565
sg67
(lp580
g60
(g61
g62
NtRp581
(dp582
g65
(dp583
g73
I3
ssg74
g577
sg67
(lp584
S''
asbasbasbag60
(g76
g62
NtRp585
(dp586
g65
(dp587
sg74
g481
sg67
(lp588
g60
(g81
g62
NtRp589
(dp590
g65
(dp591
g85
g86
ssg74
g585
sg67
(lp592
g405
asbag60
(g81
g62
NtRp593
(dp594
g65
(dp595
g92
g93
ssg74
g585
sg67
(lp596
S':'
asbag60
(g81
g62
NtRp597
(dp598
g65
(dp599
sg74
g585
sg67
(lp600
g60
(g61
g62
NtRp601
(dp602
g65
(dp603
g73
I3
ssg74
g597
sg67
(lp604
S''
asbasbasbag60
(g76
g62
NtRp605
(dp606
g65
(dp607
sg74
g481
sg67
(lp608
g60
(g81
g62
NtRp609
(dp610
g65
(dp611
g85
g86
ssg74
g605
sg67
(lp612
g426
asbag60
(g81
g62
NtRp613
(dp614
g65
(dp615
g92
g93
ssg74
g605
sg67
(lp616
S':'
asbag60
(g81
g62
NtRp617
(dp618
g65
(dp619
sg74
g605
sg67
(lp620
g60
(g61
g62
NtRp621
(dp622
g65
(dp623
g73
I3
ssg74
g617
sg67
(lp624
S''
asbasbasbag60
(g76
g62
NtRp625
(dp626
g65
(dp627
sg74
g481
sg67
(lp628
g60
(g81
g62
NtRp629
(dp630
g65
(dp631
g85
g86
ssg74
g625
sg67
(lp632
g447
asbag60
(g81
g62
NtRp633
(dp634
g65
(dp635
g92
g93
ssg74
g625
sg67
(lp636
S':'
asbag60
(g81
g62
NtRp637
(dp638
g65
(dp639
sg74
g625
sg67
(lp640
g60
(g61
g62
NtRp641
(dp642
g65
(dp643
g73
I3
ssg74
g637
sg67
(lp644
S''
asbasbasbasbasbasbasbag60
(g76
g62
NtRp645
(dp646
g65
(dp647
sg74
g263
sg67
(lp648
g60
(g81
g62
NtRp649
(dp650
g65
(dp651
g85
g86
ssg74
g645
sg67
(lp652
S'session_id_welcome'
p653
asbag60
(g81
g62
NtRp654
(dp655
g65
(dp656
g92
g93
ssg74
g645
sg67
(lp657
S':'
asbag60
(g81
g62
NtRp658
(dp659
g65
(dp660
sg74
g645
sg67
(lp661
g60
(g61
g62
NtRp662
(dp663
g65
(dp664
g73
I4
ssg74
g658
sg67
(lp665
g60
(g69
g62
NtRp666
(dp667
g65
(dp668
g73
I3
ssg74
Nsg67
(lp669
g60
(g76
g62
NtRp670
(dp671
g65
(dp672
sg74
g666
sg67
(lp673
g60
(g81
g62
NtRp674
(dp675
g65
(dp676
g85
g86
ssg74
g670
sg67
(lp677
g300
asbag60
(g81
g62
NtRp678
(dp679
g65
(dp680
g92
g93
ssg74
g670
sg67
(lp681
S':'
asbag60
(g81
g62
NtRp682
(dp683
g65
(dp684
sg74
g670
sg67
(lp685
g60
(g61
g62
NtRp686
(dp687
g65
(dp688
g73
I3
ssg74
g682
sg67
(lp689
S''
asbasbasbag60
(g76
g62
NtRp690
(dp691
g65
(dp692
sg74
g666
sg67
(lp693
g60
(g81
g62
NtRp694
(dp695
g65
(dp696
g85
g86
ssg74
g690
sg67
(lp697
g321
asbag60
(g81
g62
NtRp698
(dp699
g65
(dp700
g92
g93
ssg74
g690
sg67
(lp701
S':'
asbag60
(g81
g62
NtRp702
(dp703
g65
(dp704
sg74
g690
sg67
(lp705
g60
(g61
g62
NtRp706
(dp707
g65
(dp708
g73
I3
ssg74
g702
sg67
(lp709
S''
asbasbasbag60
(g76
g62
NtRp710
(dp711
g65
(dp712
sg74
g666
sg67
(lp713
g60
(g81
g62
NtRp714
(dp715
g65
(dp716
g85
g86
ssg74
g710
sg67
(lp717
g342
asbag60
(g81
g62
NtRp718
(dp719
g65
(dp720
g92
g93
ssg74
g710
sg67
(lp721
S':'
asbag60
(g81
g62
NtRp722
(dp723
g65
(dp724
sg74
g710
sg67
(lp725
g60
(g61
g62
NtRp726
(dp727
g65
(dp728
g73
I3
ssg74
g722
sg67
(lp729
S''
asbasbasbag60
(g76
g62
NtRp730
(dp731
g65
(dp732
sg74
g666
sg67
(lp733
g60
(g81
g62
NtRp734
(dp735
g65
(dp736
g85
g86
ssg74
g730
sg67
(lp737
g363
asbag60
(g81
g62
NtRp738
(dp739
g65
(dp740
g92
g93
ssg74
g730
sg67
(lp741
S':'
asbag60
(g81
g62
NtRp742
(dp743
g65
(dp744
sg74
g730
sg67
(lp745
g60
(g61
g62
NtRp746
(dp747
g65
(dp748
g73
I3
ssg74
g742
sg67
(lp749
S''
asbasbasbag60
(g76
g62
NtRp750
(dp751
g65
(dp752
sg74
g666
sg67
(lp753
g60
(g81
g62
NtRp754
(dp755
g65
(dp756
g85
g86
ssg74
g750
sg67
(lp757
g384
asbag60
(g81
g62
NtRp758
(dp759
g65
(dp760
g92
g93
ssg74
g750
sg67
(lp761
S':'
asbag60
(g81
g62
NtRp762
(dp763
g65
(dp764
sg74
g750
sg67
(lp765
g60
(g61
g62
NtRp766
(dp767
g65
(dp768
g73
I3
ssg74
g762
sg67
(lp769
S''
asbasbasbag60
(g76
g62
NtRp770
(dp771
g65
(dp772
sg74
g666
sg67
(lp773
g60
(g81
g62
NtRp774
(dp775
g65
(dp776
g85
g86
ssg74
g770
sg67
(lp777
g405
asbag60
(g81
g62
NtRp778
(dp779
g65
(dp780
g92
g93
ssg74
g770
sg67
(lp781
S':'
asbag60
(g81
g62
NtRp782
(dp783
g65
(dp784
sg74
g770
sg67
(lp785
g60
(g61
g62
NtRp786
(dp787
g65
(dp788
g73
I3
ssg74
g782
sg67
(lp789
S''
asbasbasbag60
(g76
g62
NtRp790
(dp791
g65
(dp792
sg74
g666
sg67
(lp793
g60
(g81
g62
NtRp794
(dp795
g65
(dp796
g85
g86
ssg74
g790
sg67
(lp797
g426
asbag60
(g81
g62
NtRp798
(dp799
g65
(dp800
g92
g93
ssg74
g790
sg67
(lp801
S':'
asbag60
(g81
g62
NtRp802
(dp803
g65
(dp804
sg74
g790
sg67
(lp805
g60
(g61
g62
NtRp806
(dp807
g65
(dp808
g73
I3
ssg74
g802
sg67
(lp809
S''
asbasbasbag60
(g76
g62
NtRp810
(dp811
g65
(dp812
sg74
g666
sg67
(lp813
g60
(g81
g62
NtRp814
(dp815
g65
(dp816
g85
g86
ssg74
g810
sg67
(lp817
g447
asbag60
(g81
g62
NtRp818
(dp819
g65
(dp820
g92
g93
ssg74
g810
sg67
(lp821
S':'
asbag60
(g81
g62
NtRp822
(dp823
g65
(dp824
sg74
g810
sg67
(lp825
g60
(g61
g62
NtRp826
(dp827
g65
(dp828
g73
I3
ssg74
g822
sg67
(lp829
S''
asbasbasbasbasbasbasbasbasbasbasbag60
(g76
g62
NtRp830
(dp831
g65
(dp832
sg74
g70
sg67
(lp833
g60
(g81
g62
NtRp834
(dp835
g65
(dp836
g85
g86
ssg74
g830
sg67
(lp837
S'env'
p838
asbag60
(g81
g62
NtRp839
(dp840
g65
(dp841
g92
g93
ssg74
g830
sg67
(lp842
S':'
asbag60
(g81
g62
NtRp843
(dp844
g65
(dp845
sg74
g830
sg67
(lp846
g60
(g61
g62
NtRp847
(dp848
g65
(dp849
g73
I5
ssg74
g843
sg67
(lp850
g60
(g69
g62
NtRp851
(dp852
g65
(dp853
g73
I4
ssg74
Nsg67
(lp854
g60
(g76
g62
NtRp855
(dp856
g65
(dp857
sg74
g851
sg67
(lp858
g60
(g81
g62
NtRp859
(dp860
g65
(dp861
g85
g86
ssg74
g855
sg67
(lp862
S'app_folders'
p863
asbag60
(g81
g62
NtRp864
(dp865
g65
(dp866
g92
g93
ssg74
g855
sg67
(lp867
S':'
asbag60
(g81
g62
NtRp868
(dp869
g65
(dp870
sg74
g855
sg67
(lp871
g60
(g61
g62
NtRp872
(dp873
g65
(dp874
g73
I4
ssg74
g868
sg67
(lp875
S"set(['/home/ian/web2py/applications/welcome/', '/home/ian/web2py/applications/paideia/', '/home/ian/web2py/applications/admin/'])"
p876
asbasbasbag60
(g76
g62
NtRp877
(dp878
g65
(dp879
sg74
g851
sg67
(lp880
g60
(g81
g62
NtRp881
(dp882
g65
(dp883
g85
g86
ssg74
g877
sg67
(lp884
S'applications_parent'
p885
asbag60
(g81
g62
NtRp886
(dp887
g65
(dp888
g92
g93
ssg74
g877
sg67
(lp889
S':'
asbag60
(g81
g62
NtRp890
(dp891
g65
(dp892
sg74
g877
sg67
(lp893
g60
(g61
g62
NtRp894
(dp895
g65
(dp896
g73
I4
ssg74
g890
sg67
(lp897
S'/home/ian/web2py'
p898
asbasbasbag60
(g76
g62
NtRp899
(dp900
g65
(dp901
sg74
g851
sg67
(lp902
g60
(g81
g62
NtRp903
(dp904
g65
(dp905
g85
g86
ssg74
g899
sg67
(lp906
S'cmd_args'
p907
asbag60
(g81
g62
NtRp908
(dp909
g65
(dp910
g92
g93
ssg74
g899
sg67
(lp911
S':'
asbag60
(g81
g62
NtRp912
(dp913
g65
(dp914
sg74
g899
sg67
(lp915
g60
(g61
g62
NtRp916
(dp917
g65
(dp918
g73
I4
ssg74
g912
sg67
(lp919
g60
(g69
g62
NtRp920
(dp921
g65
(dp922
g73
I3
ssg74
Nsg67
(lp923
sbasbasbasbag60
(g76
g62
NtRp924
(dp925
g65
(dp926
sg74
g851
sg67
(lp927
g60
(g81
g62
NtRp928
(dp929
g65
(dp930
g85
g86
ssg74
g924
sg67
(lp931
S'cmd_options'
p932
asbag60
(g81
g62
NtRp933
(dp934
g65
(dp935
g92
g93
ssg74
g924
sg67
(lp936
S':'
asbag60
(g81
g62
NtRp937
(dp938
g65
(dp939
sg74
g924
sg67
(lp940
g60
(g61
g62
NtRp941
(dp942
g65
(dp943
g73
I4
ssg74
g937
sg67
(lp944
S"<Values at 0x1bc77e8: {'verbose': False, 'ip': '127.0.0.1', 'shutdown_timeout': 5, 'taskbar': False, 'nocron': False, 'pid_filename': 'httpserver.pid', 'maxthreads': None, 'softcron': False, 'server_name': 'Ariel-ubuntu', 'bpython': False, 'nogui': False, 'port': 8000, 'extcron': False, 'debuglevel': 30, 'test': None, 'folder': '/home/ian/web2py', 'config': '', 'import_models': False, 'winservice': '', 'shell': None, 'run': '', 'log_filename': 'httpserver.log', 'args': [''], 'ssl_ca_certificate': None, 'scheduler': None, 'profiler_filename': None, 'ssl_private_key': '', 'password': '<ask>', 'request_queue_size': 5, 'ssl_certificate': '', 'cronjob': False, 'plain': False, 'quiet': False, 'interfaces': None, 'minthreads': None, 'timeout': 10, 'numthreads': None, 'nobanner': False}>"
p945
asbasbasbag60
(g76
g62
NtRp946
(dp947
g65
(dp948
sg74
g851
sg67
(lp949
g60
(g81
g62
NtRp950
(dp951
g65
(dp952
g85
g86
ssg74
g946
sg67
(lp953
S'content_length'
p954
asbag60
(g81
g62
NtRp955
(dp956
g65
(dp957
g92
g93
ssg74
g946
sg67
(lp958
S':'
asbag60
(g81
g62
NtRp959
(dp960
g65
(dp961
sg74
g946
sg67
(lp962
g60
(g61
g62
NtRp963
(dp964
g65
(dp965
g73
I4
ssg74
g959
sg67
(lp966
S'468'
p967
asbasbasbag60
(g76
g62
NtRp968
(dp969
g65
(dp970
sg74
g851
sg67
(lp971
g60
(g81
g62
NtRp972
(dp973
g65
(dp974
g85
g86
ssg74
g968
sg67
(lp975
S'content_type'
p976
asbag60
(g81
g62
NtRp977
(dp978
g65
(dp979
g92
g93
ssg74
g968
sg67
(lp980
S':'
asbag60
(g81
g62
NtRp981
(dp982
g65
(dp983
sg74
g968
sg67
(lp984
g60
(g61
g62
NtRp985
(dp986
g65
(dp987
g73
I4
ssg74
g981
sg67
(lp988
S'multipart/form-data; boundary=---------------------------11963895642827082331631212906'
p989
asbasbasbag60
(g76
g62
NtRp990
(dp991
g65
(dp992
sg74
g851
sg67
(lp993
g60
(g81
g62
NtRp994
(dp995
g65
(dp996
g85
g86
ssg74
g990
sg67
(lp997
S'db_sessions'
p998
asbag60
(g81
g62
NtRp999
(dp1000
g65
(dp1001
g92
g93
ssg74
g990
sg67
(lp1002
S':'
asbag60
(g81
g62
NtRp1003
(dp1004
g65
(dp1005
sg74
g990
sg67
(lp1006
g60
(g61
g62
NtRp1007
(dp1008
g65
(dp1009
g73
I4
ssg74
g1003
sg67
(lp1010
S'set([])'
p1011
asbasbasbag60
(g76
g62
NtRp1012
(dp1013
g65
(dp1014
sg74
g851
sg67
(lp1015
g60
(g81
g62
NtRp1016
(dp1017
g65
(dp1018
g85
g86
ssg74
g1012
sg67
(lp1019
S'debugging'
p1020
asbag60
(g81
g62
NtRp1021
(dp1022
g65
(dp1023
g92
g93
ssg74
g1012
sg67
(lp1024
S':'
asbag60
(g81
g62
NtRp1025
(dp1026
g65
(dp1027
sg74
g1012
sg67
(lp1028
g60
(g61
g62
NtRp1029
(dp1030
g65
(dp1031
g73
I4
ssg74
g1025
sg67
(lp1032
g103
asbasbasbag60
(g76
g62
NtRp1033
(dp1034
g65
(dp1035
sg74
g851
sg67
(lp1036
g60
(g81
g62
NtRp1037
(dp1038
g65
(dp1039
g85
g86
ssg74
g1033
sg67
(lp1040
S'gluon_parent'
p1041
asbag60
(g81
g62
NtRp1042
(dp1043
g65
(dp1044
g92
g93
ssg74
g1033
sg67
(lp1045
S':'
asbag60
(g81
g62
NtRp1046
(dp1047
g65
(dp1048
sg74
g1033
sg67
(lp1049
g60
(g61
g62
NtRp1050
(dp1051
g65
(dp1052
g73
I4
ssg74
g1046
sg67
(lp1053
S'/home/ian/web2py'
p1054
asbasbasbag60
(g76
g62
NtRp1055
(dp1056
g65
(dp1057
sg74
g851
sg67
(lp1058
g60
(g81
g62
NtRp1059
(dp1060
g65
(dp1061
g85
g86
ssg74
g1055
sg67
(lp1062
S'http_accept'
p1063
asbag60
(g81
g62
NtRp1064
(dp1065
g65
(dp1066
g92
g93
ssg74
g1055
sg67
(lp1067
S':'
asbag60
(g81
g62
NtRp1068
(dp1069
g65
(dp1070
sg74
g1055
sg67
(lp1071
g60
(g61
g62
NtRp1072
(dp1073
g65
(dp1074
g73
I4
ssg74
g1068
sg67
(lp1075
S'text/html,application/xhtml+xml,application/xml;q=0.9,*/*;q=0.8'
p1076
asbasbasbag60
(g76
g62
NtRp1077
(dp1078
g65
(dp1079
sg74
g851
sg67
(lp1080
g60
(g81
g62
NtRp1081
(dp1082
g65
(dp1083
g85
g86
ssg74
g1077
sg67
(lp1084
S'http_accept_charset'
p1085
asbag60
(g81
g62
NtRp1086
(dp1087
g65
(dp1088
g92
g93
ssg74
g1077
sg67
(lp1089
S':'
asbag60
(g81
g62
NtRp1090
(dp1091
g65
(dp1092
sg74
g1077
sg67
(lp1093
g60
(g61
g62
NtRp1094
(dp1095
g65
(dp1096
g73
I4
ssg74
g1090
sg67
(lp1097
S'ISO-8859-1,utf-8;q=0.7,*;q=0.7'
p1098
asbasbasbag60
(g76
g62
NtRp1099
(dp1100
g65
(dp1101
sg74
g851
sg67
(lp1102
g60
(g81
g62
NtRp1103
(dp1104
g65
(dp1105
g85
g86
ssg74
g1099
sg67
(lp1106
S'http_accept_encoding'
p1107
asbag60
(g81
g62
NtRp1108
(dp1109
g65
(dp1110
g92
g93
ssg74
g1099
sg67
(lp1111
S':'
asbag60
(g81
g62
NtRp1112
(dp1113
g65
(dp1114
sg74
g1099
sg67
(lp1115
g60
(g61
g62
NtRp1116
(dp1117
g65
(dp1118
g73
I4
ssg74
g1112
sg67
(lp1119
S'gzip, deflate'
p1120
asbasbasbag60
(g76
g62
NtRp1121
(dp1122
g65
(dp1123
sg74
g851
sg67
(lp1124
g60
(g81
g62
NtRp1125
(dp1126
g65
(dp1127
g85
g86
ssg74
g1121
sg67
(lp1128
S'http_accept_language'
p1129
asbag60
(g81
g62
NtRp1130
(dp1131
g65
(dp1132
g92
g93
ssg74
g1121
sg67
(lp1133
S':'
asbag60
(g81
g62
NtRp1134
(dp1135
g65
(dp1136
sg74
g1121
sg67
(lp1137
g60
(g61
g62
NtRp1138
(dp1139
g65
(dp1140
g73
I4
ssg74
g1134
sg67
(lp1141
S'en-us,en;q=0.5'
p1142
asbasbasbag60
(g76
g62
NtRp1143
(dp1144
g65
(dp1145
sg74
g851
sg67
(lp1146
g60
(g81
g62
NtRp1147
(dp1148
g65
(dp1149
g85
g86
ssg74
g1143
sg67
(lp1150
S'http_connection'
p1151
asbag60
(g81
g62
NtRp1152
(dp1153
g65
(dp1154
g92
g93
ssg74
g1143
sg67
(lp1155
S':'
asbag60
(g81
g62
NtRp1156
(dp1157
g65
(dp1158
sg74
g1143
sg67
(lp1159
g60
(g61
g62
NtRp1160
(dp1161
g65
(dp1162
g73
I4
ssg74
g1156
sg67
(lp1163
S'keep-alive'
p1164
asbasbasbag60
(g76
g62
NtRp1165
(dp1166
g65
(dp1167
sg74
g851
sg67
(lp1168
g60
(g81
g62
NtRp1169
(dp1170
g65
(dp1171
g85
g86
ssg74
g1165
sg67
(lp1172
S'http_content_length'
p1173
asbag60
(g81
g62
NtRp1174
(dp1175
g65
(dp1176
g92
g93
ssg74
g1165
sg67
(lp1177
S':'
asbag60
(g81
g62
NtRp1178
(dp1179
g65
(dp1180
sg74
g1165
sg67
(lp1181
g60
(g61
g62
NtRp1182
(dp1183
g65
(dp1184
g73
I4
ssg74
g1178
sg67
(lp1185
g967
asbasbasbag60
(g76
g62
NtRp1186
(dp1187
g65
(dp1188
sg74
g851
sg67
(lp1189
g60
(g81
g62
NtRp1190
(dp1191
g65
(dp1192
g85
g86
ssg74
g1186
sg67
(lp1193
S'http_content_type'
p1194
asbag60
(g81
g62
NtRp1195
(dp1196
g65
(dp1197
g92
g93
ssg74
g1186
sg67
(lp1198
S':'
asbag60
(g81
g62
NtRp1199
(dp1200
g65
(dp1201
sg74
g1186
sg67
(lp1202
g60
(g61
g62
NtRp1203
(dp1204
g65
(dp1205
g73
I4
ssg74
g1199
sg67
(lp1206
g989
asbasbasbag60
(g76
g62
NtRp1207
(dp1208
g65
(dp1209
sg74
g851
sg67
(lp1210
g60
(g81
g62
NtRp1211
(dp1212
g65
(dp1213
g85
g86
ssg74
g1207
sg67
(lp1214
S'http_cookie'
p1215
asbag60
(g81
g62
NtRp1216
(dp1217
g65
(dp1218
g92
g93
ssg74
g1207
sg67
(lp1219
S':'
asbag60
(g81
g62
NtRp1220
(dp1221
g65
(dp1222
sg74
g1207
sg67
(lp1223
g60
(g61
g62
NtRp1224
(dp1225
g65
(dp1226
g73
I4
ssg74
g1220
sg67
(lp1227
S'__utma_a2a=9789918665.1351576430.1320019504.1320019504.1320019504.1; session_id_welcome=127.0.0.1-63eb9671-979b-43fd-a250-3ddb4a62adc8; session_id_admin=127.0.0.1-06e13cc3-230d-44f8-b198-b85ff127136c; session_id_paideia=127.0.0.1-dab44118-197b-450c-a3a0-b12f6caf0c5c'
p1228
asbasbasbag60
(g76
g62
NtRp1229
(dp1230
g65
(dp1231
sg74
g851
sg67
(lp1232
g60
(g81
g62
NtRp1233
(dp1234
g65
(dp1235
g85
g86
ssg74
g1229
sg67
(lp1236
S'http_host'
p1237
asbag60
(g81
g62
NtRp1238
(dp1239
g65
(dp1240
g92
g93
ssg74
g1229
sg67
(lp1241
S':'
asbag60
(g81
g62
NtRp1242
(dp1243
g65
(dp1244
sg74
g1229
sg67
(lp1245
g60
(g61
g62
NtRp1246
(dp1247
g65
(dp1248
g73
I4
ssg74
g1242
sg67
(lp1249
S'127.0.0.1:8000'
p1250
asbasbasbag60
(g76
g62
NtRp1251
(dp1252
g65
(dp1253
sg74
g851
sg67
(lp1254
g60
(g81
g62
NtRp1255
(dp1256
g65
(dp1257
g85
g86
ssg74
g1251
sg67
(lp1258
S'http_referer'
p1259
asbag60
(g81
g62
NtRp1260
(dp1261
g65
(dp1262
g92
g93
ssg74
g1251
sg67
(lp1263
S':'
asbag60
(g81
g62
NtRp1264
(dp1265
g65
(dp1266
sg74
g1251
sg67
(lp1267
g60
(g61
g62
NtRp1268
(dp1269
g65
(dp1270
g73
I4
ssg74
g1264
sg67
(lp1271
S'http://127.0.0.1:8000/paideia/appadmin/insert/db/bug_status'
p1272
asbasbasbag60
(g76
g62
NtRp1273
(dp1274
g65
(dp1275
sg74
g851
sg67
(lp1276
g60
(g81
g62
NtRp1277
(dp1278
g65
(dp1279
g85
g86
ssg74
g1273
sg67
(lp1280
S'http_user_agent'
p1281
asbag60
(g81
g62
NtRp1282
(dp1283
g65
(dp1284
g92
g93
ssg74
g1273
sg67
(lp1285
S':'
asbag60
(g81
g62
NtRp1286
(dp1287
g65
(dp1288
sg74
g1273
sg67
(lp1289
g60
(g61
g62
NtRp1290
(dp1291
g65
(dp1292
g73
I4
ssg74
g1286
sg67
(lp1293
S'Mozilla/5.0 (X11; Linux x86_64; rv:7.0.1) Gecko/20100101 Firefox/7.0.1'
p1294
asbasbasbag60
(g76
g62
NtRp1295
(dp1296
g65
(dp1297
sg74
g851
sg67
(lp1298
g60
(g81
g62
NtRp1299
(dp1300
g65
(dp1301
g85
g86
ssg74
g1295
sg67
(lp1302
S'is_jython'
p1303
asbag60
(g81
g62
NtRp1304
(dp1305
g65
(dp1306
g92
g93
ssg74
g1295
sg67
(lp1307
S':'
asbag60
(g81
g62
NtRp1308
(dp1309
g65
(dp1310
sg74
g1295
sg67
(lp1311
g60
(g61
g62
NtRp1312
(dp1313
g65
(dp1314
g73
I4
ssg74
g1308
sg67
(lp1315
g103
asbasbasbag60
(g76
g62
NtRp1316
(dp1317
g65
(dp1318
sg74
g851
sg67
(lp1319
g60
(g81
g62
NtRp1320
(dp1321
g65
(dp1322
g85
g86
ssg74
g1316
sg67
(lp1323
S'path_info'
p1324
asbag60
(g81
g62
NtRp1325
(dp1326
g65
(dp1327
g92
g93
ssg74
g1316
sg67
(lp1328
S':'
asbag60
(g81
g62
NtRp1329
(dp1330
g65
(dp1331
sg74
g1316
sg67
(lp1332
g60
(g61
g62
NtRp1333
(dp1334
g65
(dp1335
g73
I4
ssg74
g1329
sg67
(lp1336
S'/paideia/appadmin/insert/db/bug_status'
p1337
asbasbasbag60
(g76
g62
NtRp1338
(dp1339
g65
(dp1340
sg74
g851
sg67
(lp1341
g60
(g81
g62
NtRp1342
(dp1343
g65
(dp1344
g85
g86
ssg74
g1338
sg67
(lp1345
S'query_string'
p1346
asbag60
(g81
g62
NtRp1347
(dp1348
g65
(dp1349
g92
g93
ssg74
g1338
sg67
(lp1350
S':'
asbag60
(g81
g62
NtRp1351
(dp1352
g65
(dp1353
sg74
g1338
sg67
(lp1354
g60
(g61
g62
NtRp1355
(dp1356
g65
(dp1357
g73
I4
ssg74
g1351
sg67
(lp1358
S''
asbasbasbag60
(g76
g62
NtRp1359
(dp1360
g65
(dp1361
sg74
g851
sg67
(lp1362
g60
(g81
g62
NtRp1363
(dp1364
g65
(dp1365
g85
g86
ssg74
g1359
sg67
(lp1366
S'remote_addr'
p1367
asbag60
(g81
g62
NtRp1368
(dp1369
g65
(dp1370
g92
g93
ssg74
g1359
sg67
(lp1371
S':'
asbag60
(g81
g62
NtRp1372
(dp1373
g65
(dp1374
sg74
g1359
sg67
(lp1375
g60
(g61
g62
NtRp1376
(dp1377
g65
(dp1378
g73
I4
ssg74
g1372
sg67
(lp1379
g219
asbasbasbag60
(g76
g62
NtRp1380
(dp1381
g65
(dp1382
sg74
g851
sg67
(lp1383
g60
(g81
g62
NtRp1384
(dp1385
g65
(dp1386
g85
g86
ssg74
g1380
sg67
(lp1387
S'remote_port'
p1388
asbag60
(g81
g62
NtRp1389
(dp1390
g65
(dp1391
g92
g93
ssg74
g1380
sg67
(lp1392
S':'
asbag60
(g81
g62
NtRp1393
(dp1394
g65
(dp1395
sg74
g1380
sg67
(lp1396
g60
(g61
g62
NtRp1397
(dp1398
g65
(dp1399
g73
I4
ssg74
g1393
sg67
(lp1400
S'49001'
p1401
asbasbasbag60
(g76
g62
NtRp1402
(dp1403
g65
(dp1404
sg74
g851
sg67
(lp1405
g60
(g81
g62
NtRp1406
(dp1407
g65
(dp1408
g85
g86
ssg74
g1402
sg67
(lp1409
S'request_method'
p1410
asbag60
(g81
g62
NtRp1411
(dp1412
g65
(dp1413
g92
g93
ssg74
g1402
sg67
(lp1414
S':'
asbag60
(g81
g62
NtRp1415
(dp1416
g65
(dp1417
sg74
g1402
sg67
(lp1418
g60
(g61
g62
NtRp1419
(dp1420
g65
(dp1421
g73
I4
ssg74
g1415
sg67
(lp1422
S'POST'
p1423
asbasbasbag60
(g76
g62
NtRp1424
(dp1425
g65
(dp1426
sg74
g851
sg67
(lp1427
g60
(g81
g62
NtRp1428
(dp1429
g65
(dp1430
g85
g86
ssg74
g1424
sg67
(lp1431
S'script_name'
p1432
asbag60
(g81
g62
NtRp1433
(dp1434
g65
(dp1435
g92
g93
ssg74
g1424
sg67
(lp1436
S':'
asbag60
(g81
g62
NtRp1437
(dp1438
g65
(dp1439
sg74
g1424
sg67
(lp1440
g60
(g61
g62
NtRp1441
(dp1442
g65
(dp1443
g73
I4
ssg74
g1437
sg67
(lp1444
S''
asbasbasbag60
(g76
g62
NtRp1445
(dp1446
g65
(dp1447
sg74
g851
sg67
(lp1448
g60
(g81
g62
NtRp1449
(dp1450
g65
(dp1451
g85
g86
ssg74
g1445
sg67
(lp1452
S'server_name'
p1453
asbag60
(g81
g62
NtRp1454
(dp1455
g65
(dp1456
g92
g93
ssg74
g1445
sg67
(lp1457
S':'
asbag60
(g81
g62
NtRp1458
(dp1459
g65
(dp1460
sg74
g1445
sg67
(lp1461
g60
(g61
g62
NtRp1462
(dp1463
g65
(dp1464
g73
I4
ssg74
g1458
sg67
(lp1465
S'Ariel-ubuntu'
p1466
asbasbasbag60
(g76
g62
NtRp1467
(dp1468
g65
(dp1469
sg74
g851
sg67
(lp1470
g60
(g81
g62
NtRp1471
(dp1472
g65
(dp1473
g85
g86
ssg74
g1467
sg67
(lp1474
S'server_port'
p1475
asbag60
(g81
g62
NtRp1476
(dp1477
g65
(dp1478
g92
g93
ssg74
g1467
sg67
(lp1479
S':'
asbag60
(g81
g62
NtRp1480
(dp1481
g65
(dp1482
sg74
g1467
sg67
(lp1483
g60
(g61
g62
NtRp1484
(dp1485
g65
(dp1486
g73
I4
ssg74
g1480
sg67
(lp1487
S'8000'
p1488
asbasbasbag60
(g76
g62
NtRp1489
(dp1490
g65
(dp1491
sg74
g851
sg67
(lp1492
g60
(g81
g62
NtRp1493
(dp1494
g65
(dp1495
g85
g86
ssg74
g1489
sg67
(lp1496
S'server_protocol'
p1497
asbag60
(g81
g62
NtRp1498
(dp1499
g65
(dp1500
g92
g93
ssg74
g1489
sg67
(lp1501
S':'
asbag60
(g81
g62
NtRp1502
(dp1503
g65
(dp1504
sg74
g1489
sg67
(lp1505
g60
(g61
g62
NtRp1506
(dp1507
g65
(dp1508
g73
I4
ssg74
g1502
sg67
(lp1509
S'HTTP/1.1'
p1510
asbasbasbag60
(g76
g62
NtRp1511
(dp1512
g65
(dp1513
sg74
g851
sg67
(lp1514
g60
(g81
g62
NtRp1515
(dp1516
g65
(dp1517
g85
g86
ssg74
g1511
sg67
(lp1518
S'server_software'
p1519
asbag60
(g81
g62
NtRp1520
(dp1521
g65
(dp1522
g92
g93
ssg74
g1511
sg67
(lp1523
S':'
asbag60
(g81
g62
NtRp1524
(dp1525
g65
(dp1526
sg74
g1511
sg67
(lp1527
g60
(g61
g62
NtRp1528
(dp1529
g65
(dp1530
g73
I4
ssg74
g1524
sg67
(lp1531
S'Rocket 1.2.4'
p1532
asbasbasbag60
(g76
g62
NtRp1533
(dp1534
g65
(dp1535
sg74
g851
sg67
(lp1536
g60
(g81
g62
NtRp1537
(dp1538
g65
(dp1539
g85
g86
ssg74
g1533
sg67
(lp1540
S'web2py_crontype'
p1541
asbag60
(g81
g62
NtRp1542
(dp1543
g65
(dp1544
g92
g93
ssg74
g1533
sg67
(lp1545
S':'
asbag60
(g81
g62
NtRp1546
(dp1547
g65
(dp1548
sg74
g1533
sg67
(lp1549
g60
(g61
g62
NtRp1550
(dp1551
g65
(dp1552
g73
I4
ssg74
g1546
sg67
(lp1553
S'hard'
p1554
asbasbasbag60
(g76
g62
NtRp1555
(dp1556
g65
(dp1557
sg74
g851
sg67
(lp1558
g60
(g81
g62
NtRp1559
(dp1560
g65
(dp1561
g85
g86
ssg74
g1555
sg67
(lp1562
S'web2py_path'
p1563
asbag60
(g81
g62
NtRp1564
(dp1565
g65
(dp1566
g92
g93
ssg74
g1555
sg67
(lp1567
S':'
asbag60
(g81
g62
NtRp1568
(dp1569
g65
(dp1570
sg74
g1555
sg67
(lp1571
g60
(g61
g62
NtRp1572
(dp1573
g65
(dp1574
g73
I4
ssg74
g1568
sg67
(lp1575
g898
asbasbasbag60
(g76
g62
NtRp1576
(dp1577
g65
(dp1578
sg74
g851
sg67
(lp1579
g60
(g81
g62
NtRp1580
(dp1581
g65
(dp1582
g85
g86
ssg74
g1576
sg67
(lp1583
S'web2py_version'
p1584
asbag60
(g81
g62
NtRp1585
(dp1586
g65
(dp1587
g92
g93
ssg74
g1576
sg67
(lp1588
S':'
asbag60
(g81
g62
NtRp1589
(dp1590
g65
(dp1591
sg74
g1576
sg67
(lp1592
g60
(g61
g62
NtRp1593
(dp1594
g65
(dp1595
g73
I4
ssg74
g1589
sg67
(lp1596
g60
(g69
g62
NtRp1597
(dp1598
g65
(dp1599
g73
I3
ssg74
Nsg67
(lp1600
g60
(g76
g62
NtRp1601
(dp1602
g65
(dp1603
sg74
g1597
sg67
(lp1604
g60
(g81
g62
NtRp1605
(dp1606
g65
(dp1607
sg74
g1601
sg67
(lp1608
g60
(g61
g62
NtRp1609
(dp1610
g65
(dp1611
g73
I3
ssg74
g1605
sg67
(lp1612
S'1'
asbasbasbag60
(g76
g62
NtRp1613
(dp1614
g65
(dp1615
sg74
g1597
sg67
(lp1616
g60
(g81
g62
NtRp1617
(dp1618
g65
(dp1619
sg74
g1613
sg67
(lp1620
g60
(g61
g62
NtRp1621
(dp1622
g65
(dp1623
g73
I3
ssg74
g1617
sg67
(lp1624
S'99'
p1625
asbasbasbag60
(g76
g62
NtRp1626
(dp1627
g65
(dp1628
sg74
g1597
sg67
(lp1629
g60
(g81
g62
NtRp1630
(dp1631
g65
(dp1632
sg74
g1626
sg67
(lp1633
g60
(g61
g62
NtRp1634
(dp1635
g65
(dp1636
g73
I3
ssg74
g1630
sg67
(lp1637
S'2'
asbasbasbag60
(g76
g62
NtRp1638
(dp1639
g65
(dp1640
sg74
g1597
sg67
(lp1641
g60
(g81
g62
NtRp1642
(dp1643
g65
(dp1644
sg74
g1638
sg67
(lp1645
g60
(g61
g62
NtRp1646
(dp1647
g65
(dp1648
g73
I3
ssg74
g1642
sg67
(lp1649
S'datetime.datetime(2011, 9, 26, 6, 55, 33)'
p1650
asbasbasbag60
(g76
g62
NtRp1651
(dp1652
g65
(dp1653
sg74
g1597
sg67
(lp1654
g60
(g81
g62
NtRp1655
(dp1656
g65
(dp1657
sg74
g1651
sg67
(lp1658
g60
(g61
g62
NtRp1659
(dp1660
g65
(dp1661
g73
I3
ssg74
g1655
sg67
(lp1662
S'stable'
p1663
asbasbasbasbasbasbasbag60
(g76
g62
NtRp1664
(dp1665
g65
(dp1666
sg74
g851
sg67
(lp1667
g60
(g81
g62
NtRp1668
(dp1669
g65
(dp1670
g85
g86
ssg74
g1664
sg67
(lp1671
S'wsgi_errors'
p1672
asbag60
(g81
g62
NtRp1673
(dp1674
g65
(dp1675
g92
g93
ssg74
g1664
sg67
(lp1676
S':'
asbag60
(g81
g62
NtRp1677
(dp1678
g65
(dp1679
sg74
g1664
sg67
(lp1680
g60
(g61
g62
NtRp1681
(dp1682
g65
(dp1683
g73
I4
ssg74
g1677
sg67
(lp1684
S"<open file '<stderr>', mode 'w' at 0x7f4d20f63270>"
p1685
asbasbasbag60
(g76
g62
NtRp1686
(dp1687
g65
(dp1688
sg74
g851
sg67
(lp1689
g60
(g81
g62
NtRp1690
(dp1691
g65
(dp1692
g85
g86
ssg74
g1686
sg67
(lp1693
S'wsgi_file_wrapper'
p1694
asbag60
(g81
g62
NtRp1695
(dp1696
g65
(dp1697
g92
g93
ssg74
g1686
sg67
(lp1698
S':'
asbag60
(g81
g62
NtRp1699
(dp1700
g65
(dp1701
sg74
g1686
sg67
(lp1702
g60
(g61
g62
NtRp1703
(dp1704
g65
(dp1705
g73
I4
ssg74
g1699
sg67
(lp1706
S'<class wsgiref.util.FileWrapper at 0x1a90808>'
p1707
asbasbasbag60
(g76
g62
NtRp1708
(dp1709
g65
(dp1710
sg74
g851
sg67
(lp1711
g60
(g81
g62
NtRp1712
(dp1713
g65
(dp1714
g85
g86
ssg74
g1708
sg67
(lp1715
S'wsgi_input'
p1716
asbag60
(g81
g62
NtRp1717
(dp1718
g65
(dp1719
g92
g93
ssg74
g1708
sg67
(lp1720
S':'
asbag60
(g81
g62
NtRp1721
(dp1722
g65
(dp1723
sg74
g1708
sg67
(lp1724
g60
(g61
g62
NtRp1725
(dp1726
g65
(dp1727
g73
I4
ssg74
g1721
sg67
(lp1728
S'<socket._fileobject object at 0x3a05650>'
p1729
asbasbasbag60
(g76
g62
NtRp1730
(dp1731
g65
(dp1732
sg74
g851
sg67
(lp1733
g60
(g81
g62
NtRp1734
(dp1735
g65
(dp1736
g85
g86
ssg74
g1730
sg67
(lp1737
S'wsgi_multiprocess'
p1738
asbag60
(g81
g62
NtRp1739
(dp1740
g65
(dp1741
g92
g93
ssg74
g1730
sg67
(lp1742
S':'
asbag60
(g81
g62
NtRp1743
(dp1744
g65
(dp1745
sg74
g1730
sg67
(lp1746
g60
(g61
g62
NtRp1747
(dp1748
g65
(dp1749
g73
I4
ssg74
g1743
sg67
(lp1750
g103
asbasbasbag60
(g76
g62
NtRp1751
(dp1752
g65
(dp1753
sg74
g851
sg67
(lp1754
g60
(g81
g62
NtRp1755
(dp1756
g65
(dp1757
g85
g86
ssg74
g1751
sg67
(lp1758
S'wsgi_multithread'
p1759
asbag60
(g81
g62
NtRp1760
(dp1761
g65
(dp1762
g92
g93
ssg74
g1751
sg67
(lp1763
S':'
asbag60
(g81
g62
NtRp1764
(dp1765
g65
(dp1766
sg74
g1751
sg67
(lp1767
g60
(g61
g62
NtRp1768
(dp1769
g65
(dp1770
g73
I4
ssg74
g1764
sg67
(lp1771
S'True'
p1772
asbasbasbag60
(g76
g62
NtRp1773
(dp1774
g65
(dp1775
sg74
g851
sg67
(lp1776
g60
(g81
g62
NtRp1777
(dp1778
g65
(dp1779
g85
g86
ssg74
g1773
sg67
(lp1780
S'wsgi_run_once'
p1781
asbag60
(g81
g62
NtRp1782
(dp1783
g65
(dp1784
g92
g93
ssg74
g1773
sg67
(lp1785
S':'
asbag60
(g81
g62
NtRp1786
(dp1787
g65
(dp1788
sg74
g1773
sg67
(lp1789
g60
(g61
g62
NtRp1790
(dp1791
g65
(dp1792
g73
I4
ssg74
g1786
sg67
(lp1793
g103
asbasbasbag60
(g76
g62
NtRp1794
(dp1795
g65
(dp1796
sg74
g851
sg67
(lp1797
g60
(g81
g62
NtRp1798
(dp1799
g65
(dp1800
g85
g86
ssg74
g1794
sg67
(lp1801
S'wsgi_url_scheme'
p1802
asbag60
(g81
g62
NtRp1803
(dp1804
g65
(dp1805
g92
g93
ssg74
g1794
sg67
(lp1806
S':'
asbag60
(g81
g62
NtRp1807
(dp1808
g65
(dp1809
sg74
g1794
sg67
(lp1810
g60
(g61
g62
NtRp1811
(dp1812
g65
(dp1813
g73
I4
ssg74
g1807
sg67
(lp1814
S'http'
p1815
asbasbasbag60
(g76
g62
NtRp1816
(dp1817
g65
(dp1818
sg74
g851
sg67
(lp1819
g60
(g81
g62
NtRp1820
(dp1821
g65
(dp1822
g85
g86
ssg74
g1816
sg67
(lp1823
S'wsgi_version'
p1824
asbag60
(g81
g62
NtRp1825
(dp1826
g65
(dp1827
g92
g93
ssg74
g1816
sg67
(lp1828
S':'
asbag60
(g81
g62
NtRp1829
(dp1830
g65
(dp1831
sg74
g1816
sg67
(lp1832
g60
(g61
g62
NtRp1833
(dp1834
g65
(dp1835
g73
I4
ssg74
g1829
sg67
(lp1836
g60
(g69
g62
NtRp1837
(dp1838
g65
(dp1839
g73
I3
ssg74
Nsg67
(lp1840
g60
(g76
g62
NtRp1841
(dp1842
g65
(dp1843
sg74
g1837
sg67
(lp1844
g60
(g81
g62
NtRp1845
(dp1846
g65
(dp1847
sg74
g1841
sg67
(lp1848
g60
(g61
g62
NtRp1849
(dp1850
g65
(dp1851
g73
I3
ssg74
g1845
sg67
(lp1852
S'1'
asbasbasbag60
(g76
g62
NtRp1853
(dp1854
g65
(dp1855
sg74
g1837
sg67
(lp1856
g60
(g81
g62
NtRp1857
(dp1858
g65
(dp1859
sg74
g1853
sg67
(lp1860
g60
(g61
g62
NtRp1861
(dp1862
g65
(dp1863
g73
I3
ssg74
g1857
sg67
(lp1864
S'0'
asbasbasbasbasbasbasbasbasbasbasbag60
(g76
g62
NtRp1865
(dp1866
g65
(dp1867
sg74
g70
sg67
(lp1868
g60
(g81
g62
NtRp1869
(dp1870
g65
(dp1871
g85
g86
ssg74
g1865
sg67
(lp1872
S'extension'
p1873
asbag60
(g81
g62
NtRp1874
(dp1875
g65
(dp1876
g92
g93
ssg74
g1865
sg67
(lp1877
S':'
asbag60
(g81
g62
NtRp1878
(dp1879
g65
(dp1880
sg74
g1865
sg67
(lp1881
g60
(g61
g62
NtRp1882
(dp1883
g65
(dp1884
g73
I5
ssg74
g1878
sg67
(lp1885
S'html'
p1886
asbasbasbag60
(g76
g62
NtRp1887
(dp1888
g65
(dp1889
sg74
g70
sg67
(lp1890
g60
(g81
g62
NtRp1891
(dp1892
g65
(dp1893
g85
g86
ssg74
g1887
sg67
(lp1894
S'folder'
p1895
asbag60
(g81
g62
NtRp1896
(dp1897
g65
(dp1898
g92
g93
ssg74
g1887
sg67
(lp1899
S':'
asbag60
(g81
g62
NtRp1900
(dp1901
g65
(dp1902
sg74
g1887
sg67
(lp1903
g60
(g61
g62
NtRp1904
(dp1905
g65
(dp1906
g73
I5
ssg74
g1900
sg67
(lp1907
S'/home/ian/web2py/applications/paideia/'
p1908
asbasbasbag60
(g76
g62
NtRp1909
(dp1910
g65
(dp1911
sg74
g70
sg67
(lp1912
g60
(g81
g62
NtRp1913
(dp1914
g65
(dp1915
g85
g86
ssg74
g1909
sg67
(lp1916
S'function'
p1917
asbag60
(g81
g62
NtRp1918
(dp1919
g65
(dp1920
g92
g93
ssg74
g1909
sg67
(lp1921
S':'
asbag60
(g81
g62
NtRp1922
(dp1923
g65
(dp1924
sg74
g1909
sg67
(lp1925
g60
(g61
g62
NtRp1926
(dp1927
g65
(dp1928
g73
I5
ssg74
g1922
sg67
(lp1929
S'insert'
p1930
asbasbasbag60
(g76
g62
NtRp1931
(dp1932
g65
(dp1933
sg74
g70
sg67
(lp1934
g60
(g81
g62
NtRp1935
(dp1936
g65
(dp1937
g85
g86
ssg74
g1931
sg67
(lp1938
S'get_vars'
p1939
asbag60
(g81
g62
NtRp1940
(dp1941
g65
(dp1942
g92
g93
ssg74
g1931
sg67
(lp1943
S':'
asbag60
(g81
g62
NtRp1944
(dp1945
g65
(dp1946
sg74
g1931
sg67
(lp1947
g60
(g61
g62
NtRp1948
(dp1949
g65
(dp1950
g73
I5
ssg74
g1944
sg67
(lp1951
g60
(g69
g62
NtRp1952
(dp1953
g65
(dp1954
g73
I4
ssg74
Nsg67
(lp1955
sbasbasbasbag60
(g76
g62
NtRp1956
(dp1957
g65
(dp1958
sg74
g70
sg67
(lp1959
g60
(g81
g62
NtRp1960
(dp1961
g65
(dp1962
g85
g86
ssg74
g1956
sg67
(lp1963
S'global_settings'
p1964
asbag60
(g81
g62
NtRp1965
(dp1966
g65
(dp1967
g92
g93
ssg74
g1956
sg67
(lp1968
S':'
asbag60
(g81
g62
NtRp1969
(dp1970
g65
(dp1971
sg74
g1956
sg67
(lp1972
g60
(g61
g62
NtRp1973
(dp1974
g65
(dp1975
g73
I5
ssg74
g1969
sg67
(lp1976
g60
(g69
g62
NtRp1977
(dp1978
g65
(dp1979
g73
I4
ssg74
Nsg67
(lp1980
g60
(g76
g62
NtRp1981
(dp1982
g65
(dp1983
sg74
g1977
sg67
(lp1984
g60
(g81
g62
NtRp1985
(dp1986
g65
(dp1987
g85
g86
ssg74
g1981
sg67
(lp1988
g863
asbag60
(g81
g62
NtRp1989
(dp1990
g65
(dp1991
g92
g93
ssg74
g1981
sg67
(lp1992
S':'
asbag60
(g81
g62
NtRp1993
(dp1994
g65
(dp1995
sg74
g1981
sg67
(lp1996
g60
(g61
g62
NtRp1997
(dp1998
g65
(dp1999
g73
I4
ssg74
g1993
sg67
(lp2000
S"set(['/home/ian/web2py/applications/welcome/', '/home/ian/web2py/applications/paideia/', '/home/ian/web2py/applications/admin/'])"
p2001
asbasbasbag60
(g76
g62
NtRp2002
(dp2003
g65
(dp2004
sg74
g1977
sg67
(lp2005
g60
(g81
g62
NtRp2006
(dp2007
g65
(dp2008
g85
g86
ssg74
g2002
sg67
(lp2009
g885
asbag60
(g81
g62
NtRp2010
(dp2011
g65
(dp2012
g92
g93
ssg74
g2002
sg67
(lp2013
S':'
asbag60
(g81
g62
NtRp2014
(dp2015
g65
(dp2016
sg74
g2002
sg67
(lp2017
g60
(g61
g62
NtRp2018
(dp2019
g65
(dp2020
g73
I4
ssg74
g2014
sg67
(lp2021
g898
asbasbasbag60
(g76
g62
NtRp2022
(dp2023
g65
(dp2024
sg74
g1977
sg67
(lp2025
g60
(g81
g62
NtRp2026
(dp2027
g65
(dp2028
g85
g86
ssg74
g2022
sg67
(lp2029
g907
asbag60
(g81
g62
NtRp2030
(dp2031
g65
(dp2032
g92
g93
ssg74
g2022
sg67
(lp2033
S':'
asbag60
(g81
g62
NtRp2034
(dp2035
g65
(dp2036
sg74
g2022
sg67
(lp2037
g60
(g61
g62
NtRp2038
(dp2039
g65
(dp2040
g73
I4
ssg74
g2034
sg67
(lp2041
g60
(g69
g62
NtRp2042
(dp2043
g65
(dp2044
g73
I3
ssg74
Nsg67
(lp2045
sbasbasbasbag60
(g76
g62
NtRp2046
(dp2047
g65
(dp2048
sg74
g1977
sg67
(lp2049
g60
(g81
g62
NtRp2050
(dp2051
g65
(dp2052
g85
g86
ssg74
g2046
sg67
(lp2053
g932
asbag60
(g81
g62
NtRp2054
(dp2055
g65
(dp2056
g92
g93
ssg74
g2046
sg67
(lp2057
S':'
asbag60
(g81
g62
NtRp2058
(dp2059
g65
(dp2060
sg74
g2046
sg67
(lp2061
g60
(g61
g62
NtRp2062
(dp2063
g65
(dp2064
g73
I4
ssg74
g2058
sg67
(lp2065
S"<Values at 0x1bc77e8: {'verbose': False, 'ip': '127.0.0.1', 'shutdown_timeout': 5, 'taskbar': False, 'nocron': False, 'pid_filename': 'httpserver.pid', 'maxthreads': None, 'softcron': False, 'server_name': 'Ariel-ubuntu', 'bpython': False, 'nogui': False, 'port': 8000, 'extcron': False, 'debuglevel': 30, 'test': None, 'folder': '/home/ian/web2py', 'config': '', 'import_models': False, 'winservice': '', 'shell': None, 'run': '', 'log_filename': 'httpserver.log', 'args': [''], 'ssl_ca_certificate': None, 'scheduler': None, 'profiler_filename': None, 'ssl_private_key': '', 'password': '<ask>', 'request_queue_size': 5, 'ssl_certificate': '', 'cronjob': False, 'plain': False, 'quiet': False, 'interfaces': None, 'minthreads': None, 'timeout': 10, 'numthreads': None, 'nobanner': False}>"
p2066
asbasbasbag60
(g76
g62
NtRp2067
(dp2068
g65
(dp2069
sg74
g1977
sg67
(lp2070
g60
(g81
g62
NtRp2071
(dp2072
g65
(dp2073
g85
g86
ssg74
g2067
sg67
(lp2074
g998
asbag60
(g81
g62
NtRp2075
(dp2076
g65
(dp2077
g92
g93
ssg74
g2067
sg67
(lp2078
S':'
asbag60
(g81
g62
NtRp2079
(dp2080
g65
(dp2081
sg74
g2067
sg67
(lp2082
g60
(g61
g62
NtRp2083
(dp2084
g65
(dp2085
g73
I4
ssg74
g2079
sg67
(lp2086
S'set([])'
p2087
asbasbasbag60
(g76
g62
NtRp2088
(dp2089
g65
(dp2090
sg74
g1977
sg67
(lp2091
g60
(g81
g62
NtRp2092
(dp2093
g65
(dp2094
g85
g86
ssg74
g2088
sg67
(lp2095
g1020
asbag60
(g81
g62
NtRp2096
(dp2097
g65
(dp2098
g92
g93
ssg74
g2088
sg67
(lp2099
S':'
asbag60
(g81
g62
NtRp2100
(dp2101
g65
(dp2102
sg74
g2088
sg67
(lp2103
g60
(g61
g62
NtRp2104
(dp2105
g65
(dp2106
g73
I4
ssg74
g2100
sg67
(lp2107
g103
asbasbasbag60
(g76
g62
NtRp2108
(dp2109
g65
(dp2110
sg74
g1977
sg67
(lp2111
g60
(g81
g62
NtRp2112
(dp2113
g65
(dp2114
g85
g86
ssg74
g2108
sg67
(lp2115
g1041
asbag60
(g81
g62
NtRp2116
(dp2117
g65
(dp2118
g92
g93
ssg74
g2108
sg67
(lp2119
S':'
asbag60
(g81
g62
NtRp2120
(dp2121
g65
(dp2122
sg74
g2108
sg67
(lp2123
g60
(g61
g62
NtRp2124
(dp2125
g65
(dp2126
g73
I4
ssg74
g2120
sg67
(lp2127
g1054
asbasbasbag60
(g76
g62
NtRp2128
(dp2129
g65
(dp2130
sg74
g1977
sg67
(lp2131
g60
(g81
g62
NtRp2132
(dp2133
g65
(dp2134
g85
g86
ssg74
g2128
sg67
(lp2135
g1303
asbag60
(g81
g62
NtRp2136
(dp2137
g65
(dp2138
g92
g93
ssg74
g2128
sg67
(lp2139
S':'
asbag60
(g81
g62
NtRp2140
(dp2141
g65
(dp2142
sg74
g2128
sg67
(lp2143
g60
(g61
g62
NtRp2144
(dp2145
g65
(dp2146
g73
I4
ssg74
g2140
sg67
(lp2147
g103
asbasbasbag60
(g76
g62
NtRp2148
(dp2149
g65
(dp2150
sg74
g1977
sg67
(lp2151
g60
(g81
g62
NtRp2152
(dp2153
g65
(dp2154
g85
g86
ssg74
g2148
sg67
(lp2155
g1541
asbag60
(g81
g62
NtRp2156
(dp2157
g65
(dp2158
g92
g93
ssg74
g2148
sg67
(lp2159
S':'
asbag60
(g81
g62
NtRp2160
(dp2161
g65
(dp2162
sg74
g2148
sg67
(lp2163
g60
(g61
g62
NtRp2164
(dp2165
g65
(dp2166
g73
I4
ssg74
g2160
sg67
(lp2167
g1554
asbasbasbag60
(g76
g62
NtRp2168
(dp2169
g65
(dp2170
sg74
g1977
sg67
(lp2171
g60
(g81
g62
NtRp2172
(dp2173
g65
(dp2174
g85
g86
ssg74
g2168
sg67
(lp2175
g1584
asbag60
(g81
g62
NtRp2176
(dp2177
g65
(dp2178
g92
g93
ssg74
g2168
sg67
(lp2179
S':'
asbag60
(g81
g62
NtRp2180
(dp2181
g65
(dp2182
sg74
g2168
sg67
(lp2183
g60
(g61
g62
NtRp2184
(dp2185
g65
(dp2186
g73
I4
ssg74
g2180
sg67
(lp2187
g60
(g69
g62
NtRp2188
(dp2189
g65
(dp2190
g73
I3
ssg74
Nsg67
(lp2191
g60
(g76
g62
NtRp2192
(dp2193
g65
(dp2194
sg74
g2188
sg67
(lp2195
g60
(g81
g62
NtRp2196
(dp2197
g65
(dp2198
sg74
g2192
sg67
(lp2199
g60
(g61
g62
NtRp2200
(dp2201
g65
(dp2202
g73
I3
ssg74
g2196
sg67
(lp2203
S'1'
asbasbasbag60
(g76
g62
NtRp2204
(dp2205
g65
(dp2206
sg74
g2188
sg67
(lp2207
g60
(g81
g62
NtRp2208
(dp2209
g65
(dp2210
sg74
g2204
sg67
(lp2211
g60
(g61
g62
NtRp2212
(dp2213
g65
(dp2214
g73
I3
ssg74
g2208
sg67
(lp2215
S'99'
p2216
asbasbasbag60
(g76
g62
NtRp2217
(dp2218
g65
(dp2219
sg74
g2188
sg67
(lp2220
g60
(g81
g62
NtRp2221
(dp2222
g65
(dp2223
sg74
g2217
sg67
(lp2224
g60
(g61
g62
NtRp2225
(dp2226
g65
(dp2227
g73
I3
ssg74
g2221
sg67
(lp2228
S'2'
asbasbasbag60
(g76
g62
NtRp2229
(dp2230
g65
(dp2231
sg74
g2188
sg67
(lp2232
g60
(g81
g62
NtRp2233
(dp2234
g65
(dp2235
sg74
g2229
sg67
(lp2236
g60
(g61
g62
NtRp2237
(dp2238
g65
(dp2239
g73
I3
ssg74
g2233
sg67
(lp2240
S'datetime.datetime(2011, 9, 26, 6, 55, 33)'
p2241
asbasbasbag60
(g76
g62
NtRp2242
(dp2243
g65
(dp2244
sg74
g2188
sg67
(lp2245
g60
(g81
g62
NtRp2246
(dp2247
g65
(dp2248
sg74
g2242
sg67
(lp2249
g60
(g61
g62
NtRp2250
(dp2251
g65
(dp2252
g73
I3
ssg74
g2246
sg67
(lp2253
g1663
asbasbasbasbasbasbasbasbasbasbasbag60
(g76
g62
NtRp2254
(dp2255
g65
(dp2256
sg74
g70
sg67
(lp2257
g60
(g81
g62
NtRp2258
(dp2259
g65
(dp2260
g85
g86
ssg74
g2254
sg67
(lp2261
S'is_https'
p2262
asbag60
(g81
g62
NtRp2263
(dp2264
g65
(dp2265
g92
g93
ssg74
g2254
sg67
(lp2266
S':'
asbag60
(g81
g62
NtRp2267
(dp2268
g65
(dp2269
sg74
g2254
sg67
(lp2270
g60
(g61
g62
NtRp2271
(dp2272
g65
(dp2273
g73
I5
ssg74
g2267
sg67
(lp2274
g103
asbasbasbag60
(g76
g62
NtRp2275
(dp2276
g65
(dp2277
sg74
g70
sg67
(lp2278
g60
(g81
g62
NtRp2279
(dp2280
g65
(dp2281
g85
g86
ssg74
g2275
sg67
(lp2282
S'is_local'
p2283
asbag60
(g81
g62
NtRp2284
(dp2285
g65
(dp2286
g92
g93
ssg74
g2275
sg67
(lp2287
S':'
asbag60
(g81
g62
NtRp2288
(dp2289
g65
(dp2290
sg74
g2275
sg67
(lp2291
g60
(g61
g62
NtRp2292
(dp2293
g65
(dp2294
g73
I5
ssg74
g2288
sg67
(lp2295
g1772
asbasbasbag60
(g76
g62
NtRp2296
(dp2297
g65
(dp2298
sg74
g70
sg67
(lp2299
g60
(g81
g62
NtRp2300
(dp2301
g65
(dp2302
g85
g86
ssg74
g2296
sg67
(lp2303
S'is_restful'
p2304
asbag60
(g81
g62
NtRp2305
(dp2306
g65
(dp2307
g92
g93
ssg74
g2296
sg67
(lp2308
S':'
asbag60
(g81
g62
NtRp2309
(dp2310
g65
(dp2311
sg74
g2296
sg67
(lp2312
g60
(g61
g62
NtRp2313
(dp2314
g65
(dp2315
g73
I5
ssg74
g2309
sg67
(lp2316
g103
asbasbasbag60
(g76
g62
NtRp2317
(dp2318
g65
(dp2319
sg74
g70
sg67
(lp2320
g60
(g81
g62
NtRp2321
(dp2322
g65
(dp2323
g85
g86
ssg74
g2317
sg67
(lp2324
S'now'
p2325
asbag60
(g81
g62
NtRp2326
(dp2327
g65
(dp2328
g92
g93
ssg74
g2317
sg67
(lp2329
S':'
asbag60
(g81
g62
NtRp2330
(dp2331
g65
(dp2332
sg74
g2317
sg67
(lp2333
g60
(g61
g62
NtRp2334
(dp2335
g65
(dp2336
g73
I5
ssg74
g2330
sg67
(lp2337
S'datetime.datetime(2011, 11, 11, 11, 54, 9, 180765)'
p2338
asbasbasbag60
(g76
g62
NtRp2339
(dp2340
g65
(dp2341
sg74
g70
sg67
(lp2342
g60
(g81
g62
NtRp2343
(dp2344
g65
(dp2345
g85
g86
ssg74
g2339
sg67
(lp2346
S'post_vars'
p2347
asbag60
(g81
g62
NtRp2348
(dp2349
g65
(dp2350
g92
g93
ssg74
g2339
sg67
(lp2351
S':'
asbag60
(g81
g62
NtRp2352
(dp2353
g65
(dp2354
sg74
g2339
sg67
(lp2355
g60
(g61
g62
NtRp2356
(dp2357
g65
(dp2358
g73
I5
ssg74
g2352
sg67
(lp2359
g60
(g69
g62
NtRp2360
(dp2361
g65
(dp2362
g73
I4
ssg74
Nsg67
(lp2363
g60
(g76
g62
NtRp2364
(dp2365
g65
(dp2366
sg74
g2360
sg67
(lp2367
g60
(g81
g62
NtRp2368
(dp2369
g65
(dp2370
g85
g86
ssg74
g2364
sg67
(lp2371
S'status_label'
p2372
asbag60
(g81
g62
NtRp2373
(dp2374
g65
(dp2375
g92
g93
ssg74
g2364
sg67
(lp2376
S':'
asbag60
(g81
g62
NtRp2377
(dp2378
g65
(dp2379
sg74
g2364
sg67
(lp2380
g60
(g61
g62
NtRp2381
(dp2382
g65
(dp2383
g73
I4
ssg74
g2377
sg67
(lp2384
S'confirmed'
p2385
asbasbasbasbasbasbasbag60
(g76
g62
NtRp2386
(dp2387
g65
(dp2388
sg74
g70
sg67
(lp2389
g60
(g81
g62
NtRp2390
(dp2391
g65
(dp2392
g85
g86
ssg74
g2386
sg67
(lp2393
S'raw_args'
p2394
asbag60
(g81
g62
NtRp2395
(dp2396
g65
(dp2397
g92
g93
ssg74
g2386
sg67
(lp2398
S':'
asbag60
(g81
g62
NtRp2399
(dp2400
g65
(dp2401
sg74
g2386
sg67
(lp2402
g60
(g61
g62
NtRp2403
(dp2404
g65
(dp2405
g73
I5
ssg74
g2399
sg67
(lp2406
S'db/bug_status'
p2407
asbasbasbag60
(g76
g62
NtRp2408
(dp2409
g65
(dp2410
sg74
g70
sg67
(lp2411
g60
(g81
g62
NtRp2412
(dp2413
g65
(dp2414
g85
g86
ssg74
g2408
sg67
(lp2415
S'url'
p2416
asbag60
(g81
g62
NtRp2417
(dp2418
g65
(dp2419
g92
g93
ssg74
g2408
sg67
(lp2420
S':'
asbag60
(g81
g62
NtRp2421
(dp2422
g65
(dp2423
sg74
g2408
sg67
(lp2424
g60
(g61
g62
NtRp2425
(dp2426
g65
(dp2427
g73
I5
ssg74
g2421
sg67
(lp2428
S'/paideia/appadmin/insert/db/bug_status'
p2429
asbasbasbag60
(g76
g62
NtRp2430
(dp2431
g65
(dp2432
sg74
g70
sg67
(lp2433
g60
(g81
g62
NtRp2434
(dp2435
g65
(dp2436
g85
g86
ssg74
g2430
sg67
(lp2437
S'utcnow'
p2438
asbag60
(g81
g62
NtRp2439
(dp2440
g65
(dp2441
g92
g93
ssg74
g2430
sg67
(lp2442
S':'
asbag60
(g81
g62
NtRp2443
(dp2444
g65
(dp2445
sg74
g2430
sg67
(lp2446
g60
(g61
g62
NtRp2447
(dp2448
g65
(dp2449
g73
I5
ssg74
g2443
sg67
(lp2450
S'datetime.datetime(2011, 11, 11, 16, 54, 9, 180813)'
p2451
asbasbasbag60
(g76
g62
NtRp2452
(dp2453
g65
(dp2454
sg74
g70
sg67
(lp2455
g60
(g81
g62
NtRp2456
(dp2457
g65
(dp2458
g85
g86
ssg74
g2452
sg67
(lp2459
S'uuid'
p2460
asbag60
(g81
g62
NtRp2461
(dp2462
g65
(dp2463
g92
g93
ssg74
g2452
sg67
(lp2464
S':'
asbag60
(g81
g62
NtRp2465
(dp2466
g65
(dp2467
sg74
g2452
sg67
(lp2468
g60
(g61
g62
NtRp2469
(dp2470
g65
(dp2471
g73
I5
ssg74
g2465
sg67
(lp2472
S'paideia/127.0.0.1.2011-11-11.11-54-09.705f5ec1-0c6e-47dc-b67b-06665b8a62a6'
p2473
asbasbasbag60
(g76
g62
NtRp2474
(dp2475
g65
(dp2476
sg74
g70
sg67
(lp2477
g60
(g81
g62
NtRp2478
(dp2479
g65
(dp2480
g85
g86
ssg74
g2474
sg67
(lp2481
S'vars'
p2482
asbag60
(g81
g62
NtRp2483
(dp2484
g65
(dp2485
g92
g93
ssg74
g2474
sg67
(lp2486
S':'
asbag60
(g81
g62
NtRp2487
(dp2488
g65
(dp2489
sg74
g2474
sg67
(lp2490
g60
(g61
g62
NtRp2491
(dp2492
g65
(dp2493
g73
I5
ssg74
g2487
sg67
(lp2494
g60
(g69
g62
NtRp2495
(dp2496
g65
(dp2497
g73
I4
ssg74
Nsg67
(lp2498
g60
(g76
g62
NtRp2499
(dp2500
g65
(dp2501
sg74
g2495
sg67
(lp2502
g60
(g81
g62
NtRp2503
(dp2504
g65
(dp2505
g85
g86
ssg74
g2499
sg67
(lp2506
g2372
asbag60
(g81
g62
NtRp2507
(dp2508
g65
(dp2509
g92
g93
ssg74
g2499
sg67
(lp2510
S':'
asbag60
(g81
g62
NtRp2511
(dp2512
g65
(dp2513
sg74
g2499
sg67
(lp2514
g60
(g61
g62
NtRp2515
(dp2516
g65
(dp2517
g73
I4
ssg74
g2511
sg67
(lp2518
g2385
asbasbasbasbasbasbasbag60
(g76
g62
NtRp2519
(dp2520
g65
(dp2521
sg74
g70
sg67
(lp2522
g60
(g81
g62
NtRp2523
(dp2524
g65
(dp2525
g85
g86
ssg74
g2519
sg67
(lp2526
S'wsgi'
p2527
asbag60
(g81
g62
NtRp2528
(dp2529
g65
(dp2530
g92
g93
ssg74
g2519
sg67
(lp2531
S':'
asbag60
(g81
g62
NtRp2532
(dp2533
g65
(dp2534
sg74
g2519
sg67
(lp2535
g60
(g61
g62
NtRp2536
(dp2537
g65
(dp2538
g73
I5
ssg74
g2532
sg67
(lp2539
g60
(g69
g62
NtRp2540
(dp2541
g65
(dp2542
g73
I4
ssg74
Nsg67
(lp2543
g60
(g76
g62
NtRp2544
(dp2545
g65
(dp2546
sg74
g2540
sg67
(lp2547
g60
(g81
g62
NtRp2548
(dp2549
g65
(dp2550
g85
g86
ssg74
g2544
sg67
(lp2551
S'environ'
p2552
asbag60
(g81
g62
NtRp2553
(dp2554
g65
(dp2555
g92
g93
ssg74
g2544
sg67
(lp2556
S':'
asbag60
(g81
g62
NtRp2557
(dp2558
g65
(dp2559
sg74
g2544
sg67
(lp2560
g60
(g61
g62
NtRp2561
(dp2562
g65
(dp2563
g73
I4
ssg74
g2557
sg67
(lp2564
g60
(g69
g62
NtRp2565
(dp2566
g65
(dp2567
g73
I3
ssg74
Nsg67
(lp2568
g60
(g76
g62
NtRp2569
(dp2570
g65
(dp2571
sg74
g2565
sg67
(lp2572
g60
(g81
g62
NtRp2573
(dp2574
g65
(dp2575
g85
g86
ssg74
g2569
sg67
(lp2576
S'CONTENT_LENGTH'
p2577
asbag60
(g81
g62
NtRp2578
(dp2579
g65
(dp2580
g92
g93
ssg74
g2569
sg67
(lp2581
S':'
asbag60
(g81
g62
NtRp2582
(dp2583
g65
(dp2584
sg74
g2569
sg67
(lp2585
g60
(g61
g62
NtRp2586
(dp2587
g65
(dp2588
g73
I3
ssg74
g2582
sg67
(lp2589
g967
asbasbasbag60
(g76
g62
NtRp2590
(dp2591
g65
(dp2592
sg74
g2565
sg67
(lp2593
g60
(g81
g62
NtRp2594
(dp2595
g65
(dp2596
g85
g86
ssg74
g2590
sg67
(lp2597
S'CONTENT_TYPE'
p2598
asbag60
(g81
g62
NtRp2599
(dp2600
g65
(dp2601
g92
g93
ssg74
g2590
sg67
(lp2602
S':'
asbag60
(g81
g62
NtRp2603
(dp2604
g65
(dp2605
sg74
g2590
sg67
(lp2606
g60
(g61
g62
NtRp2607
(dp2608
g65
(dp2609
g73
I3
ssg74
g2603
sg67
(lp2610
g989
asbasbasbag60
(g76
g62
NtRp2611
(dp2612
g65
(dp2613
sg74
g2565
sg67
(lp2614
g60
(g81
g62
NtRp2615
(dp2616
g65
(dp2617
g85
g86
ssg74
g2611
sg67
(lp2618
S'HTTP_ACCEPT'
p2619
asbag60
(g81
g62
NtRp2620
(dp2621
g65
(dp2622
g92
g93
ssg74
g2611
sg67
(lp2623
S':'
asbag60
(g81
g62
NtRp2624
(dp2625
g65
(dp2626
sg74
g2611
sg67
(lp2627
g60
(g61
g62
NtRp2628
(dp2629
g65
(dp2630
g73
I3
ssg74
g2624
sg67
(lp2631
g1076
asbasbasbag60
(g76
g62
NtRp2632
(dp2633
g65
(dp2634
sg74
g2565
sg67
(lp2635
g60
(g81
g62
NtRp2636
(dp2637
g65
(dp2638
g85
g86
ssg74
g2632
sg67
(lp2639
S'HTTP_ACCEPT_CHARSET'
p2640
asbag60
(g81
g62
NtRp2641
(dp2642
g65
(dp2643
g92
g93
ssg74
g2632
sg67
(lp2644
S':'
asbag60
(g81
g62
NtRp2645
(dp2646
g65
(dp2647
sg74
g2632
sg67
(lp2648
g60
(g61
g62
NtRp2649
(dp2650
g65
(dp2651
g73
I3
ssg74
g2645
sg67
(lp2652
g1098
asbasbasbag60
(g76
g62
NtRp2653
(dp2654
g65
(dp2655
sg74
g2565
sg67
(lp2656
g60
(g81
g62
NtRp2657
(dp2658
g65
(dp2659
g85
g86
ssg74
g2653
sg67
(lp2660
S'HTTP_ACCEPT_ENCODING'
p2661
asbag60
(g81
g62
NtRp2662
(dp2663
g65
(dp2664
g92
g93
ssg74
g2653
sg67
(lp2665
S':'
asbag60
(g81
g62
NtRp2666
(dp2667
g65
(dp2668
sg74
g2653
sg67
(lp2669
g60
(g61
g62
NtRp2670
(dp2671
g65
(dp2672
g73
I3
ssg74
g2666
sg67
(lp2673
g1120
asbasbasbag60
(g76
g62
NtRp2674
(dp2675
g65
(dp2676
sg74
g2565
sg67
(lp2677
g60
(g81
g62
NtRp2678
(dp2679
g65
(dp2680
g85
g86
ssg74
g2674
sg67
(lp2681
S'HTTP_ACCEPT_LANGUAGE'
p2682
asbag60
(g81
g62
NtRp2683
(dp2684
g65
(dp2685
g92
g93
ssg74
g2674
sg67
(lp2686
S':'
asbag60
(g81
g62
NtRp2687
(dp2688
g65
(dp2689
sg74
g2674
sg67
(lp2690
g60
(g61
g62
NtRp2691
(dp2692
g65
(dp2693
g73
I3
ssg74
g2687
sg67
(lp2694
g1142
asbasbasbag60
(g76
g62
NtRp2695
(dp2696
g65
(dp2697
sg74
g2565
sg67
(lp2698
g60
(g81
g62
NtRp2699
(dp2700
g65
(dp2701
g85
g86
ssg74
g2695
sg67
(lp2702
S'HTTP_CONNECTION'
p2703
asbag60
(g81
g62
NtRp2704
(dp2705
g65
(dp2706
g92
g93
ssg74
g2695
sg67
(lp2707
S':'
asbag60
(g81
g62
NtRp2708
(dp2709
g65
(dp2710
sg74
g2695
sg67
(lp2711
g60
(g61
g62
NtRp2712
(dp2713
g65
(dp2714
g73
I3
ssg74
g2708
sg67
(lp2715
g1164
asbasbasbag60
(g76
g62
NtRp2716
(dp2717
g65
(dp2718
sg74
g2565
sg67
(lp2719
g60
(g81
g62
NtRp2720
(dp2721
g65
(dp2722
g85
g86
ssg74
g2716
sg67
(lp2723
S'HTTP_CONTENT_LENGTH'
p2724
asbag60
(g81
g62
NtRp2725
(dp2726
g65
(dp2727
g92
g93
ssg74
g2716
sg67
(lp2728
S':'
asbag60
(g81
g62
NtRp2729
(dp2730
g65
(dp2731
sg74
g2716
sg67
(lp2732
g60
(g61
g62
NtRp2733
(dp2734
g65
(dp2735
g73
I3
ssg74
g2729
sg67
(lp2736
g967
asbasbasbag60
(g76
g62
NtRp2737
(dp2738
g65
(dp2739
sg74
g2565
sg67
(lp2740
g60
(g81
g62
NtRp2741
(dp2742
g65
(dp2743
g85
g86
ssg74
g2737
sg67
(lp2744
S'HTTP_CONTENT_TYPE'
p2745
asbag60
(g81
g62
NtRp2746
(dp2747
g65
(dp2748
g92
g93
ssg74
g2737
sg67
(lp2749
S':'
asbag60
(g81
g62
NtRp2750
(dp2751
g65
(dp2752
sg74
g2737
sg67
(lp2753
g60
(g61
g62
NtRp2754
(dp2755
g65
(dp2756
g73
I3
ssg74
g2750
sg67
(lp2757
g989
asbasbasbag60
(g76
g62
NtRp2758
(dp2759
g65
(dp2760
sg74
g2565
sg67
(lp2761
g60
(g81
g62
NtRp2762
(dp2763
g65
(dp2764
g85
g86
ssg74
g2758
sg67
(lp2765
S'HTTP_COOKIE'
p2766
asbag60
(g81
g62
NtRp2767
(dp2768
g65
(dp2769
g92
g93
ssg74
g2758
sg67
(lp2770
S':'
asbag60
(g81
g62
NtRp2771
(dp2772
g65
(dp2773
sg74
g2758
sg67
(lp2774
g60
(g61
g62
NtRp2775
(dp2776
g65
(dp2777
g73
I3
ssg74
g2771
sg67
(lp2778
g1228
asbasbasbag60
(g76
g62
NtRp2779
(dp2780
g65
(dp2781
sg74
g2565
sg67
(lp2782
g60
(g81
g62
NtRp2783
(dp2784
g65
(dp2785
g85
g86
ssg74
g2779
sg67
(lp2786
S'HTTP_HOST'
p2787
asbag60
(g81
g62
NtRp2788
(dp2789
g65
(dp2790
g92
g93
ssg74
g2779
sg67
(lp2791
S':'
asbag60
(g81
g62
NtRp2792
(dp2793
g65
(dp2794
sg74
g2779
sg67
(lp2795
g60
(g61
g62
NtRp2796
(dp2797
g65
(dp2798
g73
I3
ssg74
g2792
sg67
(lp2799
g1250
asbasbasbag60
(g76
g62
NtRp2800
(dp2801
g65
(dp2802
sg74
g2565
sg67
(lp2803
g60
(g81
g62
NtRp2804
(dp2805
g65
(dp2806
g85
g86
ssg74
g2800
sg67
(lp2807
S'HTTP_REFERER'
p2808
asbag60
(g81
g62
NtRp2809
(dp2810
g65
(dp2811
g92
g93
ssg74
g2800
sg67
(lp2812
S':'
asbag60
(g81
g62
NtRp2813
(dp2814
g65
(dp2815
sg74
g2800
sg67
(lp2816
g60
(g61
g62
NtRp2817
(dp2818
g65
(dp2819
g73
I3
ssg74
g2813
sg67
(lp2820
g1272
asbasbasbag60
(g76
g62
NtRp2821
(dp2822
g65
(dp2823
sg74
g2565
sg67
(lp2824
g60
(g81
g62
NtRp2825
(dp2826
g65
(dp2827
g85
g86
ssg74
g2821
sg67
(lp2828
S'HTTP_USER_AGENT'
p2829
asbag60
(g81
g62
NtRp2830
(dp2831
g65
(dp2832
g92
g93
ssg74
g2821
sg67
(lp2833
S':'
asbag60
(g81
g62
NtRp2834
(dp2835
g65
(dp2836
sg74
g2821
sg67
(lp2837
g60
(g61
g62
NtRp2838
(dp2839
g65
(dp2840
g73
I3
ssg74
g2834
sg67
(lp2841
g1294
asbasbasbag60
(g76
g62
NtRp2842
(dp2843
g65
(dp2844
sg74
g2565
sg67
(lp2845
g60
(g81
g62
NtRp2846
(dp2847
g65
(dp2848
g85
g86
ssg74
g2842
sg67
(lp2849
S'PATH_INFO'
p2850
asbag60
(g81
g62
NtRp2851
(dp2852
g65
(dp2853
g92
g93
ssg74
g2842
sg67
(lp2854
S':'
asbag60
(g81
g62
NtRp2855
(dp2856
g65
(dp2857
sg74
g2842
sg67
(lp2858
g60
(g61
g62
NtRp2859
(dp2860
g65
(dp2861
g73
I3
ssg74
g2855
sg67
(lp2862
g1337
asbasbasbag60
(g76
g62
NtRp2863
(dp2864
g65
(dp2865
sg74
g2565
sg67
(lp2866
g60
(g81
g62
NtRp2867
(dp2868
g65
(dp2869
g85
g86
ssg74
g2863
sg67
(lp2870
S'QUERY_STRING'
p2871
asbag60
(g81
g62
NtRp2872
(dp2873
g65
(dp2874
g92
g93
ssg74
g2863
sg67
(lp2875
S':'
asbag60
(g81
g62
NtRp2876
(dp2877
g65
(dp2878
sg74
g2863
sg67
(lp2879
g60
(g61
g62
NtRp2880
(dp2881
g65
(dp2882
g73
I3
ssg74
g2876
sg67
(lp2883
S''
asbasbasbag60
(g76
g62
NtRp2884
(dp2885
g65
(dp2886
sg74
g2565
sg67
(lp2887
g60
(g81
g62
NtRp2888
(dp2889
g65
(dp2890
g85
g86
ssg74
g2884
sg67
(lp2891
S'REMOTE_ADDR'
p2892
asbag60
(g81
g62
NtRp2893
(dp2894
g65
(dp2895
g92
g93
ssg74
g2884
sg67
(lp2896
S':'
asbag60
(g81
g62
NtRp2897
(dp2898
g65
(dp2899
sg74
g2884
sg67
(lp2900
g60
(g61
g62
NtRp2901
(dp2902
g65
(dp2903
g73
I3
ssg74
g2897
sg67
(lp2904
g219
asbasbasbag60
(g76
g62
NtRp2905
(dp2906
g65
(dp2907
sg74
g2565
sg67
(lp2908
g60
(g81
g62
NtRp2909
(dp2910
g65
(dp2911
g85
g86
ssg74
g2905
sg67
(lp2912
S'REMOTE_PORT'
p2913
asbag60
(g81
g62
NtRp2914
(dp2915
g65
(dp2916
g92
g93
ssg74
g2905
sg67
(lp2917
S':'
asbag60
(g81
g62
NtRp2918
(dp2919
g65
(dp2920
sg74
g2905
sg67
(lp2921
g60
(g61
g62
NtRp2922
(dp2923
g65
(dp2924
g73
I3
ssg74
g2918
sg67
(lp2925
g1401
asbasbasbag60
(g76
g62
NtRp2926
(dp2927
g65
(dp2928
sg74
g2565
sg67
(lp2929
g60
(g81
g62
NtRp2930
(dp2931
g65
(dp2932
g85
g86
ssg74
g2926
sg67
(lp2933
S'REQUEST_METHOD'
p2934
asbag60
(g81
g62
NtRp2935
(dp2936
g65
(dp2937
g92
g93
ssg74
g2926
sg67
(lp2938
S':'
asbag60
(g81
g62
NtRp2939
(dp2940
g65
(dp2941
sg74
g2926
sg67
(lp2942
g60
(g61
g62
NtRp2943
(dp2944
g65
(dp2945
g73
I3
ssg74
g2939
sg67
(lp2946
g1423
asbasbasbag60
(g76
g62
NtRp2947
(dp2948
g65
(dp2949
sg74
g2565
sg67
(lp2950
g60
(g81
g62
NtRp2951
(dp2952
g65
(dp2953
g85
g86
ssg74
g2947
sg67
(lp2954
S'SCRIPT_NAME'
p2955
asbag60
(g81
g62
NtRp2956
(dp2957
g65
(dp2958
g92
g93
ssg74
g2947
sg67
(lp2959
S':'
asbag60
(g81
g62
NtRp2960
(dp2961
g65
(dp2962
sg74
g2947
sg67
(lp2963
g60
(g61
g62
NtRp2964
(dp2965
g65
(dp2966
g73
I3
ssg74
g2960
sg67
(lp2967
S''
asbasbasbag60
(g76
g62
NtRp2968
(dp2969
g65
(dp2970
sg74
g2565
sg67
(lp2971
g60
(g81
g62
NtRp2972
(dp2973
g65
(dp2974
g85
g86
ssg74
g2968
sg67
(lp2975
S'SERVER_NAME'
p2976
asbag60
(g81
g62
NtRp2977
(dp2978
g65
(dp2979
g92
g93
ssg74
g2968
sg67
(lp2980
S':'
asbag60
(g81
g62
NtRp2981
(dp2982
g65
(dp2983
sg74
g2968
sg67
(lp2984
g60
(g61
g62
NtRp2985
(dp2986
g65
(dp2987
g73
I3
ssg74
g2981
sg67
(lp2988
g1466
asbasbasbag60
(g76
g62
NtRp2989
(dp2990
g65
(dp2991
sg74
g2565
sg67
(lp2992
g60
(g81
g62
NtRp2993
(dp2994
g65
(dp2995
g85
g86
ssg74
g2989
sg67
(lp2996
S'SERVER_PORT'
p2997
asbag60
(g81
g62
NtRp2998
(dp2999
g65
(dp3000
g92
g93
ssg74
g2989
sg67
(lp3001
S':'
asbag60
(g81
g62
NtRp3002
(dp3003
g65
(dp3004
sg74
g2989
sg67
(lp3005
g60
(g61
g62
NtRp3006
(dp3007
g65
(dp3008
g73
I3
ssg74
g3002
sg67
(lp3009
g1488
asbasbasbag60
(g76
g62
NtRp3010
(dp3011
g65
(dp3012
sg74
g2565
sg67
(lp3013
g60
(g81
g62
NtRp3014
(dp3015
g65
(dp3016
g85
g86
ssg74
g3010
sg67
(lp3017
S'SERVER_PROTOCOL'
p3018
asbag60
(g81
g62
NtRp3019
(dp3020
g65
(dp3021
g92
g93
ssg74
g3010
sg67
(lp3022
S':'
asbag60
(g81
g62
NtRp3023
(dp3024
g65
(dp3025
sg74
g3010
sg67
(lp3026
g60
(g61
g62
NtRp3027
(dp3028
g65
(dp3029
g73
I3
ssg74
g3023
sg67
(lp3030
g1510
asbasbasbag60
(g76
g62
NtRp3031
(dp3032
g65
(dp3033
sg74
g2565
sg67
(lp3034
g60
(g81
g62
NtRp3035
(dp3036
g65
(dp3037
g85
g86
ssg74
g3031
sg67
(lp3038
S'SERVER_SOFTWARE'
p3039
asbag60
(g81
g62
NtRp3040
(dp3041
g65
(dp3042
g92
g93
ssg74
g3031
sg67
(lp3043
S':'
asbag60
(g81
g62
NtRp3044
(dp3045
g65
(dp3046
sg74
g3031
sg67
(lp3047
g60
(g61
g62
NtRp3048
(dp3049
g65
(dp3050
g73
I3
ssg74
g3044
sg67
(lp3051
g1532
asbasbasbag60
(g76
g62
NtRp3052
(dp3053
g65
(dp3054
sg74
g2565
sg67
(lp3055
g60
(g81
g62
NtRp3056
(dp3057
g65
(dp3058
g85
g86
ssg74
g3052
sg67
(lp3059
S'wsgi.errors'
p3060
asbag60
(g81
g62
NtRp3061
(dp3062
g65
(dp3063
g92
g93
ssg74
g3052
sg67
(lp3064
S':'
asbag60
(g81
g62
NtRp3065
(dp3066
g65
(dp3067
sg74
g3052
sg67
(lp3068
g60
(g61
g62
NtRp3069
(dp3070
g65
(dp3071
g73
I3
ssg74
g3065
sg67
(lp3072
S"<open file '<stderr>', mode 'w' at 0x7f4d20f63270>"
p3073
asbasbasbag60
(g76
g62
NtRp3074
(dp3075
g65
(dp3076
sg74
g2565
sg67
(lp3077
g60
(g81
g62
NtRp3078
(dp3079
g65
(dp3080
g85
g86
ssg74
g3074
sg67
(lp3081
S'wsgi.file_wrapper'
p3082
asbag60
(g81
g62
NtRp3083
(dp3084
g65
(dp3085
g92
g93
ssg74
g3074
sg67
(lp3086
S':'
asbag60
(g81
g62
NtRp3087
(dp3088
g65
(dp3089
sg74
g3074
sg67
(lp3090
g60
(g61
g62
NtRp3091
(dp3092
g65
(dp3093
g73
I3
ssg74
g3087
sg67
(lp3094
S'<class wsgiref.util.FileWrapper at 0x1a90808>'
p3095
asbasbasbag60
(g76
g62
NtRp3096
(dp3097
g65
(dp3098
sg74
g2565
sg67
(lp3099
g60
(g81
g62
NtRp3100
(dp3101
g65
(dp3102
g85
g86
ssg74
g3096
sg67
(lp3103
S'wsgi.input'
p3104
asbag60
(g81
g62
NtRp3105
(dp3106
g65
(dp3107
g92
g93
ssg74
g3096
sg67
(lp3108
S':'
asbag60
(g81
g62
NtRp3109
(dp3110
g65
(dp3111
sg74
g3096
sg67
(lp3112
g60
(g61
g62
NtRp3113
(dp3114
g65
(dp3115
g73
I3
ssg74
g3109
sg67
(lp3116
S"<open file '<fdopen>', mode 'w+b' at 0x3116ae0>"
p3117
asbasbasbag60
(g76
g62
NtRp3118
(dp3119
g65
(dp3120
sg74
g2565
sg67
(lp3121
g60
(g81
g62
NtRp3122
(dp3123
g65
(dp3124
g85
g86
ssg74
g3118
sg67
(lp3125
S'wsgi.multiprocess'
p3126
asbag60
(g81
g62
NtRp3127
(dp3128
g65
(dp3129
g92
g93
ssg74
g3118
sg67
(lp3130
S':'
asbag60
(g81
g62
NtRp3131
(dp3132
g65
(dp3133
sg74
g3118
sg67
(lp3134
g60
(g61
g62
NtRp3135
(dp3136
g65
(dp3137
g73
I3
ssg74
g3131
sg67
(lp3138
g103
asbasbasbag60
(g76
g62
NtRp3139
(dp3140
g65
(dp3141
sg74
g2565
sg67
(lp3142
g60
(g81
g62
NtRp3143
(dp3144
g65
(dp3145
g85
g86
ssg74
g3139
sg67
(lp3146
S'wsgi.multithread'
p3147
asbag60
(g81
g62
NtRp3148
(dp3149
g65
(dp3150
g92
g93
ssg74
g3139
sg67
(lp3151
S':'
asbag60
(g81
g62
NtRp3152
(dp3153
g65
(dp3154
sg74
g3139
sg67
(lp3155
g60
(g61
g62
NtRp3156
(dp3157
g65
(dp3158
g73
I3
ssg74
g3152
sg67
(lp3159
g1772
asbasbasbag60
(g76
g62
NtRp3160
(dp3161
g65
(dp3162
sg74
g2565
sg67
(lp3163
g60
(g81
g62
NtRp3164
(dp3165
g65
(dp3166
g85
g86
ssg74
g3160
sg67
(lp3167
S'wsgi.run_once'
p3168
asbag60
(g81
g62
NtRp3169
(dp3170
g65
(dp3171
g92
g93
ssg74
g3160
sg67
(lp3172
S':'
asbag60
(g81
g62
NtRp3173
(dp3174
g65
(dp3175
sg74
g3160
sg67
(lp3176
g60
(g61
g62
NtRp3177
(dp3178
g65
(dp3179
g73
I3
ssg74
g3173
sg67
(lp3180
g103
asbasbasbag60
(g76
g62
NtRp3181
(dp3182
g65
(dp3183
sg74
g2565
sg67
(lp3184
g60
(g81
g62
NtRp3185
(dp3186
g65
(dp3187
g85
g86
ssg74
g3181
sg67
(lp3188
S'wsgi.url_scheme'
p3189
asbag60
(g81
g62
NtRp3190
(dp3191
g65
(dp3192
g92
g93
ssg74
g3181
sg67
(lp3193
S':'
asbag60
(g81
g62
NtRp3194
(dp3195
g65
(dp3196
sg74
g3181
sg67
(lp3197
g60
(g61
g62
NtRp3198
(dp3199
g65
(dp3200
g73
I3
ssg74
g3194
sg67
(lp3201
g1815
asbasbasbag60
(g76
g62
NtRp3202
(dp3203
g65
(dp3204
sg74
g2565
sg67
(lp3205
g60
(g81
g62
NtRp3206
(dp3207
g65
(dp3208
g85
g86
ssg74
g3202
sg67
(lp3209
S'wsgi.version'
p3210
asbag60
(g81
g62
NtRp3211
(dp3212
g65
(dp3213
g92
g93
ssg74
g3202
sg67
(lp3214
S':'
asbag60
(g81
g62
NtRp3215
(dp3216
g65
(dp3217
sg74
g3202
sg67
(lp3218
g60
(g61
g62
NtRp3219
(dp3220
g65
(dp3221
g73
I3
ssg74
g3215
sg67
(lp3222
S'1'
asbasbasbasbasbasbasbasbasbasbasbasbasbsS'frames'
p3223
(lp3224
(dp3225
S'file'
p3226
S'/home/ian/web2py/gluon/restricted.py'
p3227
sS'dump'
p3228
(dp3229
S'environment'
p3230
S"{'A': <class 'gluon.html.A'>, 'Auth': <class 'gluon.tools.Auth'>, 'B': <class 'gluon.html.B'>, 'BEAUTIFY': <class 'gluon.html.BEAUTIFY'>, 'BODY': <class 'gluon.html.BODY'>, 'BR': <class 'gluon.html.BR'>, 'BUTTON': <class 'gluon.html.BUTTON'>, 'CAT': <class 'gluon.html.CAT'>, 'CENTER': <class 'gluon.html.CENTER'>, 'CLEANUP': <class 'gluon.validators.CLEANUP'>, ...}"
p3231
sS'ccode'
p3232
S'<code object <module> at 0x20e56b0, file "/home/...cations/paideia/controllers/appadmin.py", line 7>'
p3233
ssS'lnum'
p3234
I194
sS'lines'
p3235
(dp3236
I192
S'        else:'
p3237
sI193
S'            ccode = compile2(code,layer)'
p3238
sI194
S'        exec ccode in environment'
p3239
sI195
S'    except HTTP:'
p3240
sI196
S'        raise'
p3241
sI197
S'    except Exception, error:'
p3242
sI198
S'        # XXX Show exception in Wing IDE if running in debugger'
p3243
sI189
S'    try:'
p3244
sI190
S'        if type(code) == types.CodeType:'
p3245
sI191
S'            ccode = code'
p3246
ssS'call'
p3247
S"(code='# -*- coding: utf-8 -*-\\n\\n# #####################...=disk)\\n\\n\\nresponse._vars=response._caller(insert)\\n', environment={'A': <class 'gluon.html.A'>, 'Auth': <class 'gluon.tools.Auth'>, 'B': <class 'gluon.html.B'>, 'BEAUTIFY': <class 'gluon.html.BEAUTIFY'>, 'BODY': <class 'gluon.html.BODY'>, 'BR': <class 'gluon.html.BR'>, 'BUTTON': <class 'gluon.html.BUTTON'>, 'CAT': <class 'gluon.html.CAT'>, 'CENTER': <class 'gluon.html.CENTER'>, 'CLEANUP': <class 'gluon.validators.CLEANUP'>, ...}, layer='/home/ian/web2py/applications/paideia/controllers/appadmin.py')"
p3248
sS'func'
p3249
S'restricted'
p3250
sa(dp3251
g3226
S'/home/ian/web2py/applications/paideia/controllers/appadmin.py'
p3252
sg3228
(dp3253
sg3234
I410
sg3235
(dp3254
I399
S''
sI400
S'        return (hours, minutes, seconds)'
p3255
sI401
S''
sI402
S"    ram['oldest'] = GetInHMS(time.time() - ram['oldest'])"
p3256
sI403
S"    disk['oldest'] = GetInHMS(time.time() - disk['oldest'])"
p3257
sI404
S"    total['oldest'] = GetInHMS(time.time() - total['oldest'])"
p3258
sI405
S''
sI406
S'    return dict(form=form, total=total,'
p3259
sI407
S'                ram=ram, disk=disk)'
p3260
sI408
S''
ssg3247
S'()'
p3261
sg3249
S'<module>'
p3262
sa(dp3263
g3226
S'/home/ian/web2py/gluon/globals.py'
p3264
sg3228
(dp3265
S'self'
p3266
S'undefined'
p3267
sS'f'
S'<function insert>'
p3268
ssg3234
I149
sg3235
(dp3269
I144
S'        self.meta = Storage()      # used by web2py_ajax.html'
p3270
sI145
S'        self.menu = []             # used by the default view layout'
p3271
sI146
S'        self.files = []            # used by web2py_ajax.html'
p3272
sI147
S'        self.generic_patterns = [] # patterns to allow generic views'
p3273
sI148
S'        self._vars = None'
p3274
sI149
S'        self._caller = lambda f: f()'
p3275
sI150
S'        self._view_environment = None'
p3276
sI151
S'        self._custom_commit = None'
p3277
sI152
S'        self._custom_rollback = None'
p3278
sI153
S''
ssg3247
S'(f=<function insert>)'
p3279
sg3249
S'<lambda>'
p3280
sa(dp3281
g3226
S'/home/ian/web2py/applications/paideia/controllers/appadmin.py'
p3282
sg3228
(dp3283
S'global request'
p3284
S"<Storage {'body': <open file '<fdopen>', mode 'w...cc48805c98', '_formname': 'bug_status/create'}>}>"
p3285
sS'request.vars'
p3286
S"<Storage {'status_label': 'confirmed', '_formkey...1dcc48805c98', '_formname': 'bug_status/create'}>"
p3287
sS'global session'
p3288
S"<Storage {'path_name': 'Tyndale - Greek Exegesis...reate]': '017d9dd4-dece-4fa2-9731-26f27066363f'}>"
p3289
sS'form'
p3290
S'<gluon.sqlhtml.SQLFORM object>'
p3291
sS'form.accepts'
p3292
S'<bound method SQLFORM.accepts of <gluon.sqlhtml.SQLFORM object>>'
p3293
ssg3234
I127
sg3235
(dp3294
I128
S"        response.flash = T('new record inserted')"
p3295
sI129
S'    return dict(form=form,table=db[table])'
p3296
sI130
S''
sI131
S''
sI122
S''
sI123
S''
sI124
S'def insert():'
p3297
sI125
S'    (db, table) = get_table(request)'
p3298
sI126
S'    form = SQLFORM(db[table], ignore_rw=ignore_rw)'
p3299
sI127
S'    if form.accepts(request.vars, session):'
p3300
ssg3247
S'()'
p3301
sg3249
S'insert'
p3302
sa(dp3303
g3226
S'/home/ian/web2py/gluon/sqlhtml.py'
p3304
sg3228
(dp3305
S'self.vars.id'
p3306
S'None'
p3307
sS'fields'
p3308
S"{'status_label': 'confirmed'}"
p3309
sS'self'
p3310
S'<gluon.sqlhtml.SQLFORM object>'
p3311
sS'self.vars'
p3312
S"<Storage {'status_label': 'confirmed'}>"
p3313
sS'self.table.insert'
p3314
S"<bound method Table.insert of <Table {'ALL': <gl...>, 'id': <gluon.dal.Field object at 0x35c31d0>}>>"
p3315
sS'self.table'
p3316
S"<Table {'ALL': <gluon.dal.SQLALL object at 0x35c...0>, 'id': <gluon.dal.Field object at 0x35c31d0>}>"
p3317
ssg3234
I1259
sg3235
(dp3318
I1254
S'                if record_id:'
p3319
sI1255
S'                    self.vars.id = self.record.id'
p3320
sI1256
S'                    if fields:'
p3321
sI1257
S'                        self.table._db(self.table._id == self.record.id).update(**fields)'
p3322
sI1258
S'                else:'
p3323
sI1259
S'                    self.vars.id = self.table.insert(**fields)'
p3324
sI1260
S'        self.accepted = ret'
p3325
sI1261
S'        return ret'
p3326
sI1262
S''
sI1263
S'    @staticmethod'
p3327
ssg3247
S"(self=<gluon.sqlhtml.SQLFORM object>, request_vars=<Storage {'status_label': 'confirmed', '_formkey...1dcc48805c98', '_formname': 'bug_status/create'}>, session=<Storage {'path_name': 'Tyndale - Greek Exegesis...reate]': '017d9dd4-dece-4fa2-9731-26f27066363f'}>, formname='bug_status/create', keepvalues=False, onvalidation=None, dbio=True, hideerror=False, detect_record_change=False)"
p3328
sg3249
S'accepts'
p3329
sa(dp3330
g3226
S'/home/ian/web2py/gluon/dal.py'
p3331
sg3228
(dp3332
S'self._listify'
p3333
S"<bound method Table._listify of <Table {'ALL': <...>, 'id': <gluon.dal.Field object at 0x35c31d0>}>>"
p3334
sS'fields'
p3335
S"{'status_label': 'confirmed'}"
p3336
sS'self'
p3337
S"<Table {'ALL': <gluon.dal.SQLALL object at 0x35c...0>, 'id': <gluon.dal.Field object at 0x35c31d0>}>"
p3338
sS'self._db._adapter'
p3339
S'<gluon.dal.SQLiteAdapter object>'
p3340
sS'self._db._adapter.insert'
p3341
S'<bound method SQLiteAdapter.insert of <gluon.dal.SQLiteAdapter object>>'
p3342
sS'self._db'
p3343
S"<DAL {'auth_event': <Table {'origin': <gluon.dal..., 'id': <gluon.dal.Field object at 0x39ea190>}>}>"
p3344
ssg3234
I4976
sg3235
(dp3345
I4971
S''
sI4972
S'    def _insert(self, **fields):'
p3346
sI4973
S'        return self._db._adapter._insert(self,self._listify(fields))'
p3347
sI4974
S''
sI4975
S'    def insert(self, **fields):'
p3348
sI4976
S'        return self._db._adapter.insert(self,self._listify(fields))'
p3349
sI4977
S''
sI4978
S'    def validate_and_insert(self,**fields):'
p3350
sI4979
S'        response = Row()'
p3351
sI4980
S'        response.errors = self._validate(**fields)'
p3352
ssg3247
S"(self=<Table {'ALL': <gluon.dal.SQLALL object at 0x35c...0>, 'id': <gluon.dal.Field object at 0x35c31d0>}>, **fields={'status_label': 'confirmed'})"
p3353
sg3249
g3302
sa(dp3354
g3226
S'/home/ian/web2py/gluon/dal.py'
p3355
sg3228
(dp3356
S'e'
S"OperationalError('no such table: bug_status',)"
p3357
ssg3234
I886
sg3235
(dp3358
I881
S'        try:'
p3359
sI882
S'            self.execute(query)'
p3360
sI883
S'        except Exception, e:'
p3361
sI884
S'            if isinstance(e,self.integrity_error_class()):'
p3362
sI885
S'                return None'
p3363
sI886
S'            raise e'
p3364
sI887
S"        if hasattr(table,'_primarykey'):"
p3365
sI888
S'            return dict([(k[0].name, k[1]) for k in fields \\'
p3366
sI889
S'                             if k[0].name in table._primarykey])'
p3367
sI890
S'        id = self.lastrowid(table)'
p3368
ssg3247
S"(self=<gluon.dal.SQLiteAdapter object>, table=<Table {'ALL': <gluon.dal.SQLALL object at 0x35c...0>, 'id': <gluon.dal.Field object at 0x35c31d0>}>, fields=[(<gluon.dal.Field object>, 'confirmed')])"
p3369
sg3249
g3302
sasS'pyver'
p3370
S'Python 2.7.2+: /usr/bin/python2.7'
p3371
sS'session'
p3372
g60
(g61
g62
NtRp3373
(dp3374
g65
(dp3375
sg67
(lp3376
g60
(g69
g62
NtRp3377
(dp3378
g65
(dp3379
g73
I5
ssg74
Nsg67
(lp3380
g60
(g76
g62
NtRp3381
(dp3382
g65
(dp3383
sg74
g3377
sg67
(lp3384
g60
(g81
g62
NtRp3385
(dp3386
g65
(dp3387
g85
g86
ssg74
g3381
sg67
(lp3388
S'answer'
p3389
asbag60
(g81
g62
NtRp3390
(dp3391
g65
(dp3392
g92
g93
ssg74
g3381
sg67
(lp3393
S':'
asbag60
(g81
g62
NtRp3394
(dp3395
g65
(dp3396
sg74
g3381
sg67
(lp3397
g60
(g61
g62
NtRp3398
(dp3399
g65
(dp3400
g73
I5
ssg74
g3394
sg67
(lp3401
S'^((of |by |from )(me|myself))|my( )*$'
p3402
asbasbasbag60
(g76
g62
NtRp3403
(dp3404
g65
(dp3405
sg74
g3377
sg67
(lp3406
g60
(g81
g62
NtRp3407
(dp3408
g65
(dp3409
g85
g86
ssg74
g3403
sg67
(lp3410
S'answer2'
p3411
asbag60
(g81
g62
NtRp3412
(dp3413
g65
(dp3414
g92
g93
ssg74
g3403
sg67
(lp3415
S':'
asbag60
(g81
g62
NtRp3416
(dp3417
g65
(dp3418
sg74
g3403
sg67
(lp3419
g60
(g61
g62
NtRp3420
(dp3421
g65
(dp3422
g73
I5
ssg74
g3416
sg67
(lp3423
S'me'
p3424
asbasbasbag60
(g76
g62
NtRp3425
(dp3426
g65
(dp3427
sg74
g3377
sg67
(lp3428
g60
(g81
g62
NtRp3429
(dp3430
g65
(dp3431
g85
g86
ssg74
g3425
sg67
(lp3432
S'answer3'
p3433
asbag60
(g81
g62
NtRp3434
(dp3435
g65
(dp3436
g92
g93
ssg74
g3425
sg67
(lp3437
S':'
asbag60
(g81
g62
NtRp3438
(dp3439
g65
(dp3440
sg74
g3425
sg67
(lp3441
g60
(g61
g62
NtRp3442
(dp3443
g65
(dp3444
g73
I5
ssg74
g3438
sg67
(lp3445
S'null'
p3446
asbasbasbag60
(g76
g62
NtRp3447
(dp3448
g65
(dp3449
sg74
g3377
sg67
(lp3450
g60
(g81
g62
NtRp3451
(dp3452
g65
(dp3453
g85
g86
ssg74
g3447
sg67
(lp3454
S'auth'
p3455
asbag60
(g81
g62
NtRp3456
(dp3457
g65
(dp3458
g92
g93
ssg74
g3447
sg67
(lp3459
S':'
asbag60
(g81
g62
NtRp3460
(dp3461
g65
(dp3462
sg74
g3447
sg67
(lp3463
g60
(g61
g62
NtRp3464
(dp3465
g65
(dp3466
g73
I5
ssg74
g3460
sg67
(lp3467
g60
(g69
g62
NtRp3468
(dp3469
g65
(dp3470
g73
I4
ssg74
Nsg67
(lp3471
g60
(g76
g62
NtRp3472
(dp3473
g65
(dp3474
sg74
g3468
sg67
(lp3475
g60
(g81
g62
NtRp3476
(dp3477
g65
(dp3478
g85
g86
ssg74
g3472
sg67
(lp3479
S'expiration'
p3480
asbag60
(g81
g62
NtRp3481
(dp3482
g65
(dp3483
g92
g93
ssg74
g3472
sg67
(lp3484
S':'
asbag60
(g81
g62
NtRp3485
(dp3486
g65
(dp3487
sg74
g3472
sg67
(lp3488
g60
(g61
g62
NtRp3489
(dp3490
g65
(dp3491
g73
I4
ssg74
g3485
sg67
(lp3492
S'2592000'
p3493
asbasbasbag60
(g76
g62
NtRp3494
(dp3495
g65
(dp3496
sg74
g3468
sg67
(lp3497
g60
(g81
g62
NtRp3498
(dp3499
g65
(dp3500
g85
g86
ssg74
g3494
sg67
(lp3501
S'hmac_key'
p3502
asbag60
(g81
g62
NtRp3503
(dp3504
g65
(dp3505
g92
g93
ssg74
g3494
sg67
(lp3506
S':'
asbag60
(g81
g62
NtRp3507
(dp3508
g65
(dp3509
sg74
g3494
sg67
(lp3510
g60
(g61
g62
NtRp3511
(dp3512
g65
(dp3513
g73
I4
ssg74
g3507
sg67
(lp3514
S'974d19e4-681d-42e8-a37c-03c60b935511'
p3515
asbasbasbag60
(g76
g62
NtRp3516
(dp3517
g65
(dp3518
sg74
g3468
sg67
(lp3519
g60
(g81
g62
NtRp3520
(dp3521
g65
(dp3522
g85
g86
ssg74
g3516
sg67
(lp3523
S'last_visit'
p3524
asbag60
(g81
g62
NtRp3525
(dp3526
g65
(dp3527
g92
g93
ssg74
g3516
sg67
(lp3528
S':'
asbag60
(g81
g62
NtRp3529
(dp3530
g65
(dp3531
sg74
g3516
sg67
(lp3532
g60
(g61
g62
NtRp3533
(dp3534
g65
(dp3535
g73
I4
ssg74
g3529
sg67
(lp3536
S'datetime.datetime(2011, 11, 11, 10, 2, 12, 35385)'
p3537
asbasbasbag60
(g76
g62
NtRp3538
(dp3539
g65
(dp3540
sg74
g3468
sg67
(lp3541
g60
(g81
g62
NtRp3542
(dp3543
g65
(dp3544
g85
g86
ssg74
g3538
sg67
(lp3545
S'remember'
p3546
asbag60
(g81
g62
NtRp3547
(dp3548
g65
(dp3549
g92
g93
ssg74
g3538
sg67
(lp3550
S':'
asbag60
(g81
g62
NtRp3551
(dp3552
g65
(dp3553
sg74
g3538
sg67
(lp3554
g60
(g61
g62
NtRp3555
(dp3556
g65
(dp3557
g73
I4
ssg74
g3551
sg67
(lp3558
g103
asbasbasbag60
(g76
g62
NtRp3559
(dp3560
g65
(dp3561
sg74
g3468
sg67
(lp3562
g60
(g81
g62
NtRp3563
(dp3564
g65
(dp3565
g85
g86
ssg74
g3559
sg67
(lp3566
S'user'
p3567
asbag60
(g81
g62
NtRp3568
(dp3569
g65
(dp3570
g92
g93
ssg74
g3559
sg67
(lp3571
S':'
asbag60
(g81
g62
NtRp3572
(dp3573
g65
(dp3574
sg74
g3559
sg67
(lp3575
g60
(g61
g62
NtRp3576
(dp3577
g65
(dp3578
g73
I4
ssg74
g3572
sg67
(lp3579
g60
(g69
g62
NtRp3580
(dp3581
g65
(dp3582
g73
I3
ssg74
Nsg67
(lp3583
g60
(g76
g62
NtRp3584
(dp3585
g65
(dp3586
sg74
g3580
sg67
(lp3587
g60
(g81
g62
NtRp3588
(dp3589
g65
(dp3590
g85
g86
ssg74
g3584
sg67
(lp3591
S'email'
p3592
asbag60
(g81
g62
NtRp3593
(dp3594
g65
(dp3595
g92
g93
ssg74
g3584
sg67
(lp3596
S':'
asbag60
(g81
g62
NtRp3597
(dp3598
g65
(dp3599
sg74
g3584
sg67
(lp3600
g60
(g61
g62
NtRp3601
(dp3602
g65
(dp3603
g73
I3
ssg74
g3597
sg67
(lp3604
S'scottianw@gmail.com'
p3605
asbasbasbag60
(g76
g62
NtRp3606
(dp3607
g65
(dp3608
sg74
g3580
sg67
(lp3609
g60
(g81
g62
NtRp3610
(dp3611
g65
(dp3612
g85
g86
ssg74
g3606
sg67
(lp3613
S'first_name'
p3614
asbag60
(g81
g62
NtRp3615
(dp3616
g65
(dp3617
g92
g93
ssg74
g3606
sg67
(lp3618
S':'
asbag60
(g81
g62
NtRp3619
(dp3620
g65
(dp3621
sg74
g3606
sg67
(lp3622
g60
(g61
g62
NtRp3623
(dp3624
g65
(dp3625
g73
I3
ssg74
g3619
sg67
(lp3626
S'Ian'
p3627
asbasbasbag60
(g76
g62
NtRp3628
(dp3629
g65
(dp3630
sg74
g3580
sg67
(lp3631
g60
(g81
g62
NtRp3632
(dp3633
g65
(dp3634
g85
g86
ssg74
g3628
sg67
(lp3635
S'id'
p3636
asbag60
(g81
g62
NtRp3637
(dp3638
g65
(dp3639
g92
g93
ssg74
g3628
sg67
(lp3640
S':'
asbag60
(g81
g62
NtRp3641
(dp3642
g65
(dp3643
sg74
g3628
sg67
(lp3644
g60
(g61
g62
NtRp3645
(dp3646
g65
(dp3647
g73
I3
ssg74
g3641
sg67
(lp3648
S'2'
asbasbasbag60
(g76
g62
NtRp3649
(dp3650
g65
(dp3651
sg74
g3580
sg67
(lp3652
g60
(g81
g62
NtRp3653
(dp3654
g65
(dp3655
g85
g86
ssg74
g3649
sg67
(lp3656
S'last_name'
p3657
asbag60
(g81
g62
NtRp3658
(dp3659
g65
(dp3660
g92
g93
ssg74
g3649
sg67
(lp3661
S':'
asbag60
(g81
g62
NtRp3662
(dp3663
g65
(dp3664
sg74
g3649
sg67
(lp3665
g60
(g61
g62
NtRp3666
(dp3667
g65
(dp3668
g73
I3
ssg74
g3662
sg67
(lp3669
S'Scott'
p3670
asbasbasbag60
(g76
g62
NtRp3671
(dp3672
g65
(dp3673
sg74
g3580
sg67
(lp3674
g60
(g81
g62
NtRp3675
(dp3676
g65
(dp3677
g85
g86
ssg74
g3671
sg67
(lp3678
S'password'
p3679
asbag60
(g81
g62
NtRp3680
(dp3681
g65
(dp3682
g92
g93
ssg74
g3671
sg67
(lp3683
S':'
asbag60
(g81
g62
NtRp3684
(dp3685
g65
(dp3686
sg74
g3671
sg67
(lp3687
g60
(g61
g62
NtRp3688
(dp3689
g65
(dp3690
g73
I3
ssg74
g3684
sg67
(lp3691
S'19738f1e9a2c8eaac81936a86bf608a1a6995e02f527fa31723cb88a2e513a1efae33471354a02805bf25ea2ea17a59c025a5fc8eca6b3bb2137bda74e538737'
p3692
asbasbasbag60
(g76
g62
NtRp3693
(dp3694
g65
(dp3695
sg74
g3580
sg67
(lp3696
g60
(g81
g62
NtRp3697
(dp3698
g65
(dp3699
g85
g86
ssg74
g3693
sg67
(lp3700
S'registration_key'
p3701
asbag60
(g81
g62
NtRp3702
(dp3703
g65
(dp3704
g92
g93
ssg74
g3693
sg67
(lp3705
S':'
asbag60
(g81
g62
NtRp3706
(dp3707
g65
(dp3708
sg74
g3693
sg67
(lp3709
g60
(g61
g62
NtRp3710
(dp3711
g65
(dp3712
g73
I3
ssg74
g3706
sg67
(lp3713
S''
asbasbasbag60
(g76
g62
NtRp3714
(dp3715
g65
(dp3716
sg74
g3580
sg67
(lp3717
g60
(g81
g62
NtRp3718
(dp3719
g65
(dp3720
g85
g86
ssg74
g3714
sg67
(lp3721
S'reset_password_key'
p3722
asbag60
(g81
g62
NtRp3723
(dp3724
g65
(dp3725
g92
g93
ssg74
g3714
sg67
(lp3726
S':'
asbag60
(g81
g62
NtRp3727
(dp3728
g65
(dp3729
sg74
g3714
sg67
(lp3730
g60
(g61
g62
NtRp3731
(dp3732
g65
(dp3733
g73
I3
ssg74
g3727
sg67
(lp3734
S''
asbasbasbasbasbasbasbasbasbasbasbag60
(g76
g62
NtRp3735
(dp3736
g65
(dp3737
sg74
g3377
sg67
(lp3738
g60
(g81
g62
NtRp3739
(dp3740
g65
(dp3741
g85
g86
ssg74
g3735
sg67
(lp3742
S'debug'
p3743
asbag60
(g81
g62
NtRp3744
(dp3745
g65
(dp3746
g92
g93
ssg74
g3735
sg67
(lp3747
S':'
asbag60
(g81
g62
NtRp3748
(dp3749
g65
(dp3750
sg74
g3735
sg67
(lp3751
g60
(g61
g62
NtRp3752
(dp3753
g65
(dp3754
g73
I5
ssg74
g3748
sg67
(lp3755
g60
(g69
g62
NtRp3756
(dp3757
g65
(dp3758
g73
I4
ssg74
Nsg67
(lp3759
g60
(g76
g62
NtRp3760
(dp3761
g65
(dp3762
sg74
g3756
sg67
(lp3763
g60
(g81
g62
NtRp3764
(dp3765
g65
(dp3766
sg74
g3760
sg67
(lp3767
g60
(g61
g62
NtRp3768
(dp3769
g65
(dp3770
g73
I4
ssg74
g3764
sg67
(lp3771
g60
(g69
g62
NtRp3772
(dp3773
g65
(dp3774
g73
I3
ssg74
Nsg67
(lp3775
g60
(g76
g62
NtRp3776
(dp3777
g65
(dp3778
sg74
g3772
sg67
(lp3779
g60
(g81
g62
NtRp3780
(dp3781
g65
(dp3782
sg74
g3776
sg67
(lp3783
g60
(g61
g62
NtRp3784
(dp3785
g65
(dp3786
g73
I3
ssg74
g3780
sg67
(lp3787
S'What does \xce\xba\xce\xb1\xcf\x84\xe1\xbd\xb0 \xce\xb4\xcf\x8d\xce\xbf \xe1\xbc\xa1\xce\xbc\xce\xad\xcf\x81\xce\xb1\xcf\x82 mean?'
p3788
asbasbasbag60
(g76
g62
NtRp3789
(dp3790
g65
(dp3791
sg74
g3772
sg67
(lp3792
g60
(g81
g62
NtRp3793
(dp3794
g65
(dp3795
sg74
g3789
sg67
(lp3796
g60
(g61
g62
NtRp3797
(dp3798
g65
(dp3799
g73
I3
ssg74
g3793
sg67
(lp3800
S'for two days'
p3801
asbasbasbag60
(g76
g62
NtRp3802
(dp3803
g65
(dp3804
sg74
g3772
sg67
(lp3805
g60
(g81
g62
NtRp3806
(dp3807
g65
(dp3808
sg74
g3802
sg67
(lp3809
g60
(g61
g62
NtRp3810
(dp3811
g65
(dp3812
g73
I3
ssg74
g3806
sg67
(lp3813
S'datetime.date(2011, 9, 25)'
p3814
asbasbasbag60
(g76
g62
NtRp3815
(dp3816
g65
(dp3817
sg74
g3772
sg67
(lp3818
g60
(g81
g62
NtRp3819
(dp3820
g65
(dp3821
sg74
g3815
sg67
(lp3822
g60
(g61
g62
NtRp3823
(dp3824
g65
(dp3825
g73
I3
ssg74
g3819
sg67
(lp3826
S'None'
p3827
asbasbasbag60
(g76
g62
NtRp3828
(dp3829
g65
(dp3830
sg74
g3772
sg67
(lp3831
g60
(g81
g62
NtRp3832
(dp3833
g65
(dp3834
sg74
g3828
sg67
(lp3835
g60
(g61
g62
NtRp3836
(dp3837
g65
(dp3838
g73
I3
ssg74
g3832
sg67
(lp3839
S'None'
p3840
asbasbasbasbasbasbasbag60
(g76
g62
NtRp3841
(dp3842
g65
(dp3843
sg74
g3756
sg67
(lp3844
g60
(g81
g62
NtRp3845
(dp3846
g65
(dp3847
sg74
g3841
sg67
(lp3848
g60
(g61
g62
NtRp3849
(dp3850
g65
(dp3851
g73
I4
ssg74
g3845
sg67
(lp3852
g60
(g69
g62
NtRp3853
(dp3854
g65
(dp3855
g73
I3
ssg74
Nsg67
(lp3856
g60
(g76
g62
NtRp3857
(dp3858
g65
(dp3859
sg74
g3853
sg67
(lp3860
g60
(g81
g62
NtRp3861
(dp3862
g65
(dp3863
sg74
g3857
sg67
(lp3864
g60
(g61
g62
NtRp3865
(dp3866
g65
(dp3867
g73
I3
ssg74
g3861
sg67
(lp3868
S'If \xcf\x80\xe1\xbe\xb6\xcf\x82 \xe1\xbc\x84\xce\xbd\xce\xb8\xcf\x81\xcf\x89\xcf\x80\xce\xbf\xcf\x82 has gone to the market for a festival, who will you find there?'
p3869
asbasbasbag60
(g76
g62
NtRp3870
(dp3871
g65
(dp3872
sg74
g3853
sg67
(lp3873
g60
(g81
g62
NtRp3874
(dp3875
g65
(dp3876
sg74
g3870
sg67
(lp3877
g60
(g61
g62
NtRp3878
(dp3879
g65
(dp3880
g73
I3
ssg74
g3874
sg67
(lp3881
S'each man'
p3882
asbasbasbag60
(g76
g62
NtRp3883
(dp3884
g65
(dp3885
sg74
g3853
sg67
(lp3886
g60
(g81
g62
NtRp3887
(dp3888
g65
(dp3889
sg74
g3883
sg67
(lp3890
g60
(g61
g62
NtRp3891
(dp3892
g65
(dp3893
g73
I3
ssg74
g3887
sg67
(lp3894
S'datetime.date(2011, 10, 1)'
p3895
asbasbasbag60
(g76
g62
NtRp3896
(dp3897
g65
(dp3898
sg74
g3853
sg67
(lp3899
g60
(g81
g62
NtRp3900
(dp3901
g65
(dp3902
sg74
g3896
sg67
(lp3903
g60
(g61
g62
NtRp3904
(dp3905
g65
(dp3906
g73
I3
ssg74
g3900
sg67
(lp3907
S'None'
p3908
asbasbasbag60
(g76
g62
NtRp3909
(dp3910
g65
(dp3911
sg74
g3853
sg67
(lp3912
g60
(g81
g62
NtRp3913
(dp3914
g65
(dp3915
sg74
g3909
sg67
(lp3916
g60
(g61
g62
NtRp3917
(dp3918
g65
(dp3919
g73
I3
ssg74
g3913
sg67
(lp3920
S'None'
p3921
asbasbasbasbasbasbasbag60
(g76
g62
NtRp3922
(dp3923
g65
(dp3924
sg74
g3756
sg67
(lp3925
g60
(g81
g62
NtRp3926
(dp3927
g65
(dp3928
sg74
g3922
sg67
(lp3929
g60
(g61
g62
NtRp3930
(dp3931
g65
(dp3932
g73
I4
ssg74
g3926
sg67
(lp3933
g60
(g69
g62
NtRp3934
(dp3935
g65
(dp3936
g73
I3
ssg74
Nsg67
(lp3937
g60
(g76
g62
NtRp3938
(dp3939
g65
(dp3940
sg74
g3934
sg67
(lp3941
g60
(g81
g62
NtRp3942
(dp3943
g65
(dp3944
sg74
g3938
sg67
(lp3945
g60
(g61
g62
NtRp3946
(dp3947
g65
(dp3948
g73
I3
ssg74
g3942
sg67
(lp3949
S'What does \xce\xb4\xcf\x8d\xce\xbd\xce\xb1\xce\xbc\xce\xb1\xce\xb9 mean?'
p3950
asbasbasbag60
(g76
g62
NtRp3951
(dp3952
g65
(dp3953
sg74
g3934
sg67
(lp3954
g60
(g81
g62
NtRp3955
(dp3956
g65
(dp3957
sg74
g3951
sg67
(lp3958
g60
(g61
g62
NtRp3959
(dp3960
g65
(dp3961
g73
I3
ssg74
g3955
sg67
(lp3962
S'None'
p3963
asbasbasbag60
(g76
g62
NtRp3964
(dp3965
g65
(dp3966
sg74
g3934
sg67
(lp3967
g60
(g81
g62
NtRp3968
(dp3969
g65
(dp3970
sg74
g3964
sg67
(lp3971
g60
(g61
g62
NtRp3972
(dp3973
g65
(dp3974
g73
I3
ssg74
g3968
sg67
(lp3975
S'datetime.date(2011, 10, 19)'
p3976
asbasbasbag60
(g76
g62
NtRp3977
(dp3978
g65
(dp3979
sg74
g3934
sg67
(lp3980
g60
(g81
g62
NtRp3981
(dp3982
g65
(dp3983
sg74
g3977
sg67
(lp3984
g60
(g61
g62
NtRp3985
(dp3986
g65
(dp3987
g73
I3
ssg74
g3981
sg67
(lp3988
S'None'
p3989
asbasbasbag60
(g76
g62
NtRp3990
(dp3991
g65
(dp3992
sg74
g3934
sg67
(lp3993
g60
(g81
g62
NtRp3994
(dp3995
g65
(dp3996
sg74
g3990
sg67
(lp3997
g60
(g61
g62
NtRp3998
(dp3999
g65
(dp4000
g73
I3
ssg74
g3994
sg67
(lp4001
S'None'
p4002
asbasbasbasbasbasbasbag60
(g76
g62
NtRp4003
(dp4004
g65
(dp4005
sg74
g3756
sg67
(lp4006
g60
(g81
g62
NtRp4007
(dp4008
g65
(dp4009
sg74
g4003
sg67
(lp4010
g60
(g61
g62
NtRp4011
(dp4012
g65
(dp4013
g73
I4
ssg74
g4007
sg67
(lp4014
g60
(g69
g62
NtRp4015
(dp4016
g65
(dp4017
g73
I3
ssg74
Nsg67
(lp4018
g60
(g76
g62
NtRp4019
(dp4020
g65
(dp4021
sg74
g4015
sg67
(lp4022
g60
(g81
g62
NtRp4023
(dp4024
g65
(dp4025
sg74
g4019
sg67
(lp4026
g60
(g61
g62
NtRp4027
(dp4028
g65
(dp4029
g73
I3
ssg74
g4023
sg67
(lp4030
S'Aquila has been very helpful to me. \xe1\xbc\xad \xce\xba\xce\xb1\xcf\x81\xce\xb4\xce\xaf\xce\xb1 \xce\xb1\xe1\xbd\x94\xcf\x84\xce\xbf\xcf\x85 \xce\xba\xce\xb1\xce\xbb\xcf\x8c\xcf\x82 \xe1\xbc\x90\xcf\x83\xcf\x84\xce\xb9\xce\xbd. What does this mean?'
p4031
asbasbasbag60
(g76
g62
NtRp4032
(dp4033
g65
(dp4034
sg74
g4015
sg67
(lp4035
g60
(g81
g62
NtRp4036
(dp4037
g65
(dp4038
sg74
g4032
sg67
(lp4039
g60
(g61
g62
NtRp4040
(dp4041
g65
(dp4042
g73
I3
ssg74
g4036
sg67
(lp4043
S'None'
p4044
asbasbasbag60
(g76
g62
NtRp4045
(dp4046
g65
(dp4047
sg74
g4015
sg67
(lp4048
g60
(g81
g62
NtRp4049
(dp4050
g65
(dp4051
sg74
g4045
sg67
(lp4052
g60
(g61
g62
NtRp4053
(dp4054
g65
(dp4055
g73
I3
ssg74
g4049
sg67
(lp4056
S'datetime.date(2011, 11, 10)'
p4057
asbasbasbag60
(g76
g62
NtRp4058
(dp4059
g65
(dp4060
sg74
g4015
sg67
(lp4061
g60
(g81
g62
NtRp4062
(dp4063
g65
(dp4064
sg74
g4058
sg67
(lp4065
g60
(g61
g62
NtRp4066
(dp4067
g65
(dp4068
g73
I3
ssg74
g4062
sg67
(lp4069
S'None'
p4070
asbasbasbag60
(g76
g62
NtRp4071
(dp4072
g65
(dp4073
sg74
g4015
sg67
(lp4074
g60
(g81
g62
NtRp4075
(dp4076
g65
(dp4077
sg74
g4071
sg67
(lp4078
g60
(g61
g62
NtRp4079
(dp4080
g65
(dp4081
g73
I3
ssg74
g4075
sg67
(lp4082
S'None'
p4083
asbasbasbasbasbasbasbag60
(g76
g62
NtRp4084
(dp4085
g65
(dp4086
sg74
g3756
sg67
(lp4087
g60
(g81
g62
NtRp4088
(dp4089
g65
(dp4090
sg74
g4084
sg67
(lp4091
g60
(g61
g62
NtRp4092
(dp4093
g65
(dp4094
g73
I4
ssg74
g4088
sg67
(lp4095
g60
(g69
g62
NtRp4096
(dp4097
g65
(dp4098
g73
I3
ssg74
Nsg67
(lp4099
g60
(g76
g62
NtRp4100
(dp4101
g65
(dp4102
sg74
g4096
sg67
(lp4103
g60
(g81
g62
NtRp4104
(dp4105
g65
(dp4106
sg74
g4100
sg67
(lp4107
g60
(g61
g62
NtRp4108
(dp4109
g65
(dp4110
g73
I3
ssg74
g4104
sg67
(lp4111
S'What does \xce\xb4\xce\xad mean?'
p4112
asbasbasbag60
(g76
g62
NtRp4113
(dp4114
g65
(dp4115
sg74
g4096
sg67
(lp4116
g60
(g81
g62
NtRp4117
(dp4118
g65
(dp4119
sg74
g4113
sg67
(lp4120
g60
(g61
g62
NtRp4121
(dp4122
g65
(dp4123
g73
I3
ssg74
g4117
sg67
(lp4124
S'None'
p4125
asbasbasbag60
(g76
g62
NtRp4126
(dp4127
g65
(dp4128
sg74
g4096
sg67
(lp4129
g60
(g81
g62
NtRp4130
(dp4131
g65
(dp4132
sg74
g4126
sg67
(lp4133
g60
(g61
g62
NtRp4134
(dp4135
g65
(dp4136
g73
I3
ssg74
g4130
sg67
(lp4137
S'datetime.date(2011, 11, 10)'
p4138
asbasbasbag60
(g76
g62
NtRp4139
(dp4140
g65
(dp4141
sg74
g4096
sg67
(lp4142
g60
(g81
g62
NtRp4143
(dp4144
g65
(dp4145
sg74
g4139
sg67
(lp4146
g60
(g61
g62
NtRp4147
(dp4148
g65
(dp4149
g73
I3
ssg74
g4143
sg67
(lp4150
S'None'
p4151
asbasbasbag60
(g76
g62
NtRp4152
(dp4153
g65
(dp4154
sg74
g4096
sg67
(lp4155
g60
(g81
g62
NtRp4156
(dp4157
g65
(dp4158
sg74
g4152
sg67
(lp4159
g60
(g61
g62
NtRp4160
(dp4161
g65
(dp4162
g73
I3
ssg74
g4156
sg67
(lp4163
S'None'
p4164
asbasbasbasbasbasbasbag60
(g76
g62
NtRp4165
(dp4166
g65
(dp4167
sg74
g3756
sg67
(lp4168
g60
(g81
g62
NtRp4169
(dp4170
g65
(dp4171
sg74
g4165
sg67
(lp4172
g60
(g61
g62
NtRp4173
(dp4174
g65
(dp4175
g73
I4
ssg74
g4169
sg67
(lp4176
g60
(g69
g62
NtRp4177
(dp4178
g65
(dp4179
g73
I3
ssg74
Nsg67
(lp4180
g60
(g76
g62
NtRp4181
(dp4182
g65
(dp4183
sg74
g4177
sg67
(lp4184
g60
(g81
g62
NtRp4185
(dp4186
g65
(dp4187
sg74
g4181
sg67
(lp4188
g60
(g61
g62
NtRp4189
(dp4190
g65
(dp4191
g73
I3
ssg74
g4185
sg67
(lp4192
S'I meet with my friends \xe1\xbc\x90\xcf\x80\xe1\xbd\xb6 \xcf\x84\xe1\xbf\x83 \xe1\xbc\xa5\xce\xbc\xce\xb5\xcf\x81\xe1\xbe\xb3 \xcf\x84\xe1\xbf\x83 \xcf\x80\xcf\x81\xcf\x89\xcf\x84\xe1\xbf\x83. When will you find us together?'
p4193
asbasbasbag60
(g76
g62
NtRp4194
(dp4195
g65
(dp4196
sg74
g4177
sg67
(lp4197
g60
(g81
g62
NtRp4198
(dp4199
g65
(dp4200
sg74
g4194
sg67
(lp4201
g60
(g61
g62
NtRp4202
(dp4203
g65
(dp4204
g73
I3
ssg74
g4198
sg67
(lp4205
S'None'
p4206
asbasbasbag60
(g76
g62
NtRp4207
(dp4208
g65
(dp4209
sg74
g4177
sg67
(lp4210
g60
(g81
g62
NtRp4211
(dp4212
g65
(dp4213
sg74
g4207
sg67
(lp4214
g60
(g61
g62
NtRp4215
(dp4216
g65
(dp4217
g73
I3
ssg74
g4211
sg67
(lp4218
S'datetime.date(2011, 11, 11)'
p4219
asbasbasbag60
(g76
g62
NtRp4220
(dp4221
g65
(dp4222
sg74
g4177
sg67
(lp4223
g60
(g81
g62
NtRp4224
(dp4225
g65
(dp4226
sg74
g4220
sg67
(lp4227
g60
(g61
g62
NtRp4228
(dp4229
g65
(dp4230
g73
I3
ssg74
g4224
sg67
(lp4231
S'None'
p4232
asbasbasbag60
(g76
g62
NtRp4233
(dp4234
g65
(dp4235
sg74
g4177
sg67
(lp4236
g60
(g81
g62
NtRp4237
(dp4238
g65
(dp4239
sg74
g4233
sg67
(lp4240
g60
(g61
g62
NtRp4241
(dp4242
g65
(dp4243
g73
I3
ssg74
g4237
sg67
(lp4244
S'None'
p4245
asbasbasbasbasbasbasbag60
(g76
g62
NtRp4246
(dp4247
g65
(dp4248
sg74
g3756
sg67
(lp4249
g60
(g81
g62
NtRp4250
(dp4251
g65
(dp4252
sg74
g4246
sg67
(lp4253
g60
(g61
g62
NtRp4254
(dp4255
g65
(dp4256
g73
I4
ssg74
g4250
sg67
(lp4257
g60
(g69
g62
NtRp4258
(dp4259
g65
(dp4260
g73
I3
ssg74
Nsg67
(lp4261
g60
(g76
g62
NtRp4262
(dp4263
g65
(dp4264
sg74
g4258
sg67
(lp4265
g60
(g81
g62
NtRp4266
(dp4267
g65
(dp4268
sg74
g4262
sg67
(lp4269
g60
(g61
g62
NtRp4270
(dp4271
g65
(dp4272
g73
I3
ssg74
g4266
sg67
(lp4273
S'What does \xce\xb3\xce\xb9\xce\xbd\xcf\x8e\xcf\x83\xce\xba\xcf\x89 mean?'
p4274
asbasbasbag60
(g76
g62
NtRp4275
(dp4276
g65
(dp4277
sg74
g4258
sg67
(lp4278
g60
(g81
g62
NtRp4279
(dp4280
g65
(dp4281
sg74
g4275
sg67
(lp4282
g60
(g61
g62
NtRp4283
(dp4284
g65
(dp4285
g73
I3
ssg74
g4279
sg67
(lp4286
S'None'
p4287
asbasbasbag60
(g76
g62
NtRp4288
(dp4289
g65
(dp4290
sg74
g4258
sg67
(lp4291
g60
(g81
g62
NtRp4292
(dp4293
g65
(dp4294
sg74
g4288
sg67
(lp4295
g60
(g61
g62
NtRp4296
(dp4297
g65
(dp4298
g73
I3
ssg74
g4292
sg67
(lp4299
S'datetime.date(2011, 11, 11)'
p4300
asbasbasbag60
(g76
g62
NtRp4301
(dp4302
g65
(dp4303
sg74
g4258
sg67
(lp4304
g60
(g81
g62
NtRp4305
(dp4306
g65
(dp4307
sg74
g4301
sg67
(lp4308
g60
(g61
g62
NtRp4309
(dp4310
g65
(dp4311
g73
I3
ssg74
g4305
sg67
(lp4312
S'None'
p4313
asbasbasbag60
(g76
g62
NtRp4314
(dp4315
g65
(dp4316
sg74
g4258
sg67
(lp4317
g60
(g81
g62
NtRp4318
(dp4319
g65
(dp4320
sg74
g4314
sg67
(lp4321
g60
(g61
g62
NtRp4322
(dp4323
g65
(dp4324
g73
I3
ssg74
g4318
sg67
(lp4325
S'None'
p4326
asbasbasbasbasbasbasbag60
(g76
g62
NtRp4327
(dp4328
g65
(dp4329
sg74
g3756
sg67
(lp4330
g60
(g81
g62
NtRp4331
(dp4332
g65
(dp4333
sg74
g4327
sg67
(lp4334
g60
(g61
g62
NtRp4335
(dp4336
g65
(dp4337
g73
I4
ssg74
g4331
sg67
(lp4338
g60
(g69
g62
NtRp4339
(dp4340
g65
(dp4341
g73
I3
ssg74
Nsg67
(lp4342
g60
(g76
g62
NtRp4343
(dp4344
g65
(dp4345
sg74
g4339
sg67
(lp4346
g60
(g81
g62
NtRp4347
(dp4348
g65
(dp4349
sg74
g4343
sg67
(lp4350
g60
(g61
g62
NtRp4351
(dp4352
g65
(dp4353
g73
I3
ssg74
g4347
sg67
(lp4354
S'What does \xce\xb4\xce\xb9\xe1\xbd\xb0 \xcf\x84\xe1\xbd\xb4\xcf\x82 \xe1\xbd\x85\xce\xb4\xce\xbf\xcf\x85 mean?'
p4355
asbasbasbag60
(g76
g62
NtRp4356
(dp4357
g65
(dp4358
sg74
g4339
sg67
(lp4359
g60
(g81
g62
NtRp4360
(dp4361
g65
(dp4362
sg74
g4356
sg67
(lp4363
g60
(g61
g62
NtRp4364
(dp4365
g65
(dp4366
g73
I3
ssg74
g4360
sg67
(lp4367
S'None'
p4368
asbasbasbag60
(g76
g62
NtRp4369
(dp4370
g65
(dp4371
sg74
g4339
sg67
(lp4372
g60
(g81
g62
NtRp4373
(dp4374
g65
(dp4375
sg74
g4369
sg67
(lp4376
g60
(g61
g62
NtRp4377
(dp4378
g65
(dp4379
g73
I3
ssg74
g4373
sg67
(lp4380
S'datetime.date(2011, 11, 11)'
p4381
asbasbasbag60
(g76
g62
NtRp4382
(dp4383
g65
(dp4384
sg74
g4339
sg67
(lp4385
g60
(g81
g62
NtRp4386
(dp4387
g65
(dp4388
sg74
g4382
sg67
(lp4389
g60
(g61
g62
NtRp4390
(dp4391
g65
(dp4392
g73
I3
ssg74
g4386
sg67
(lp4393
S'None'
p4394
asbasbasbag60
(g76
g62
NtRp4395
(dp4396
g65
(dp4397
sg74
g4339
sg67
(lp4398
g60
(g81
g62
NtRp4399
(dp4400
g65
(dp4401
sg74
g4395
sg67
(lp4402
g60
(g61
g62
NtRp4403
(dp4404
g65
(dp4405
g73
I3
ssg74
g4399
sg67
(lp4406
S'None'
p4407
asbasbasbasbasbasbasbag60
(g76
g62
NtRp4408
(dp4409
g65
(dp4410
sg74
g3756
sg67
(lp4411
g60
(g81
g62
NtRp4412
(dp4413
g65
(dp4414
sg74
g4408
sg67
(lp4415
g60
(g61
g62
NtRp4416
(dp4417
g65
(dp4418
g73
I4
ssg74
g4412
sg67
(lp4419
g60
(g69
g62
NtRp4420
(dp4421
g65
(dp4422
g73
I3
ssg74
Nsg67
(lp4423
g60
(g76
g62
NtRp4424
(dp4425
g65
(dp4426
sg74
g4420
sg67
(lp4427
g60
(g81
g62
NtRp4428
(dp4429
g65
(dp4430
sg74
g4424
sg67
(lp4431
g60
(g61
g62
NtRp4432
(dp4433
g65
(dp4434
g73
I3
ssg74
g4428
sg67
(lp4435
S'What does \xcf\x80\xce\xbf\xce\xbb\xcf\x8d mean?'
p4436
asbasbasbag60
(g76
g62
NtRp4437
(dp4438
g65
(dp4439
sg74
g4420
sg67
(lp4440
g60
(g81
g62
NtRp4441
(dp4442
g65
(dp4443
sg74
g4437
sg67
(lp4444
g60
(g61
g62
NtRp4445
(dp4446
g65
(dp4447
g73
I3
ssg74
g4441
sg67
(lp4448
S'None'
p4449
asbasbasbag60
(g76
g62
NtRp4450
(dp4451
g65
(dp4452
sg74
g4420
sg67
(lp4453
g60
(g81
g62
NtRp4454
(dp4455
g65
(dp4456
sg74
g4450
sg67
(lp4457
g60
(g61
g62
NtRp4458
(dp4459
g65
(dp4460
g73
I3
ssg74
g4454
sg67
(lp4461
S'datetime.date(2011, 11, 11)'
p4462
asbasbasbag60
(g76
g62
NtRp4463
(dp4464
g65
(dp4465
sg74
g4420
sg67
(lp4466
g60
(g81
g62
NtRp4467
(dp4468
g65
(dp4469
sg74
g4463
sg67
(lp4470
g60
(g61
g62
NtRp4471
(dp4472
g65
(dp4473
g73
I3
ssg74
g4467
sg67
(lp4474
S'None'
p4475
asbasbasbag60
(g76
g62
NtRp4476
(dp4477
g65
(dp4478
sg74
g4420
sg67
(lp4479
g60
(g81
g62
NtRp4480
(dp4481
g65
(dp4482
sg74
g4476
sg67
(lp4483
g60
(g61
g62
NtRp4484
(dp4485
g65
(dp4486
g73
I3
ssg74
g4480
sg67
(lp4487
S'None'
p4488
asbasbasbasbasbasbasbag60
(g76
g62
NtRp4489
(dp4490
g65
(dp4491
sg74
g3756
sg67
(lp4492
g60
(g81
g62
NtRp4493
(dp4494
g65
(dp4495
sg74
g4489
sg67
(lp4496
g60
(g61
g62
NtRp4497
(dp4498
g65
(dp4499
g73
I4
ssg74
g4493
sg67
(lp4500
g60
(g69
g62
NtRp4501
(dp4502
g65
(dp4503
g73
I3
ssg74
Nsg67
(lp4504
g60
(g76
g62
NtRp4505
(dp4506
g65
(dp4507
sg74
g4501
sg67
(lp4508
g60
(g81
g62
NtRp4509
(dp4510
g65
(dp4511
sg74
g4505
sg67
(lp4512
g60
(g61
g62
NtRp4513
(dp4514
g65
(dp4515
g73
I3
ssg74
g4509
sg67
(lp4516
S'What does \xcf\x84\xe1\xbf\x87 \xe1\xbc\x90\xce\xbd\xcf\x84\xce\xbf\xce\xbb\xe1\xbf\x87 \xe1\xbc\x90\xce\xbc\xce\xb1\xcf\x85\xcf\x84\xce\xbf\xe1\xbf\xa6 mean?'
p4517
asbasbasbag60
(g76
g62
NtRp4518
(dp4519
g65
(dp4520
sg74
g4501
sg67
(lp4521
g60
(g81
g62
NtRp4522
(dp4523
g65
(dp4524
sg74
g4518
sg67
(lp4525
g60
(g61
g62
NtRp4526
(dp4527
g65
(dp4528
g73
I3
ssg74
g4522
sg67
(lp4529
S'None'
p4530
asbasbasbag60
(g76
g62
NtRp4531
(dp4532
g65
(dp4533
sg74
g4501
sg67
(lp4534
g60
(g81
g62
NtRp4535
(dp4536
g65
(dp4537
sg74
g4531
sg67
(lp4538
g60
(g61
g62
NtRp4539
(dp4540
g65
(dp4541
g73
I3
ssg74
g4535
sg67
(lp4542
S'datetime.date(2011, 11, 11)'
p4543
asbasbasbag60
(g76
g62
NtRp4544
(dp4545
g65
(dp4546
sg74
g4501
sg67
(lp4547
g60
(g81
g62
NtRp4548
(dp4549
g65
(dp4550
sg74
g4544
sg67
(lp4551
g60
(g61
g62
NtRp4552
(dp4553
g65
(dp4554
g73
I3
ssg74
g4548
sg67
(lp4555
S'None'
p4556
asbasbasbag60
(g76
g62
NtRp4557
(dp4558
g65
(dp4559
sg74
g4501
sg67
(lp4560
g60
(g81
g62
NtRp4561
(dp4562
g65
(dp4563
sg74
g4557
sg67
(lp4564
g60
(g61
g62
NtRp4565
(dp4566
g65
(dp4567
g73
I3
ssg74
g4561
sg67
(lp4568
S'None'
p4569
asbasbasbasbasbasbasbag60
(g76
g62
NtRp4570
(dp4571
g65
(dp4572
sg74
g3756
sg67
(lp4573
g60
(g81
g62
NtRp4574
(dp4575
g65
(dp4576
sg74
g4570
sg67
(lp4577
g60
(g61
g62
NtRp4578
(dp4579
g65
(dp4580
g73
I4
ssg74
g4574
sg67
(lp4581
g60
(g69
g62
NtRp4582
(dp4583
g65
(dp4584
g73
I3
ssg74
Nsg67
(lp4585
g60
(g76
g62
NtRp4586
(dp4587
g65
(dp4588
sg74
g4582
sg67
(lp4589
g60
(g81
g62
NtRp4590
(dp4591
g65
(dp4592
sg74
g4586
sg67
(lp4593
g60
(g61
g62
NtRp4594
(dp4595
g65
(dp4596
g73
I3
ssg74
g4590
sg67
(lp4597
S'What does \xcf\x80\xce\xb9\xcf\x83\xcf\x84\xce\xb5\xcf\x8d\xcf\x83\xce\xb1\xcf\x82 mean?'
p4598
asbasbasbag60
(g76
g62
NtRp4599
(dp4600
g65
(dp4601
sg74
g4582
sg67
(lp4602
g60
(g81
g62
NtRp4603
(dp4604
g65
(dp4605
sg74
g4599
sg67
(lp4606
g60
(g61
g62
NtRp4607
(dp4608
g65
(dp4609
g73
I3
ssg74
g4603
sg67
(lp4610
S'None'
p4611
asbasbasbag60
(g76
g62
NtRp4612
(dp4613
g65
(dp4614
sg74
g4582
sg67
(lp4615
g60
(g81
g62
NtRp4616
(dp4617
g65
(dp4618
sg74
g4612
sg67
(lp4619
g60
(g61
g62
NtRp4620
(dp4621
g65
(dp4622
g73
I3
ssg74
g4616
sg67
(lp4623
S'datetime.date(2011, 11, 11)'
p4624
asbasbasbag60
(g76
g62
NtRp4625
(dp4626
g65
(dp4627
sg74
g4582
sg67
(lp4628
g60
(g81
g62
NtRp4629
(dp4630
g65
(dp4631
sg74
g4625
sg67
(lp4632
g60
(g61
g62
NtRp4633
(dp4634
g65
(dp4635
g73
I3
ssg74
g4629
sg67
(lp4636
S'None'
p4637
asbasbasbag60
(g76
g62
NtRp4638
(dp4639
g65
(dp4640
sg74
g4582
sg67
(lp4641
g60
(g81
g62
NtRp4642
(dp4643
g65
(dp4644
sg74
g4638
sg67
(lp4645
g60
(g61
g62
NtRp4646
(dp4647
g65
(dp4648
g73
I3
ssg74
g4642
sg67
(lp4649
S'None'
p4650
asbasbasbasbasbasbasbasbasbasbasbag60
(g76
g62
NtRp4651
(dp4652
g65
(dp4653
sg74
g3377
sg67
(lp4654
g60
(g81
g62
NtRp4655
(dp4656
g65
(dp4657
g85
g86
ssg74
g4651
sg67
(lp4658
S'eval'
p4659
asbag60
(g81
g62
NtRp4660
(dp4661
g65
(dp4662
g92
g93
ssg74
g4651
sg67
(lp4663
S':'
asbag60
(g81
g62
NtRp4664
(dp4665
g65
(dp4666
sg74
g4651
sg67
(lp4667
g60
(g61
g62
NtRp4668
(dp4669
g65
(dp4670
g73
I5
ssg74
g4664
sg67
(lp4671
S'correct'
p4672
asbasbasbag60
(g76
g62
NtRp4673
(dp4674
g65
(dp4675
sg74
g3377
sg67
(lp4676
g60
(g81
g62
NtRp4677
(dp4678
g65
(dp4679
g85
g86
ssg74
g4673
sg67
(lp4680
S'last_query'
p4681
asbag60
(g81
g62
NtRp4682
(dp4683
g65
(dp4684
g92
g93
ssg74
g4673
sg67
(lp4685
S':'
asbag60
(g81
g62
NtRp4686
(dp4687
g65
(dp4688
sg74
g4673
sg67
(lp4689
g60
(g61
g62
NtRp4690
(dp4691
g65
(dp4692
g73
I5
ssg74
g4686
sg67
(lp4693
S'db.question_records.id>0'
p4694
asbasbasbag60
(g76
g62
NtRp4695
(dp4696
g65
(dp4697
sg74
g3377
sg67
(lp4698
g60
(g81
g62
NtRp4699
(dp4700
g65
(dp4701
g85
g86
ssg74
g4695
sg67
(lp4702
S'path_freq'
p4703
asbag60
(g81
g62
NtRp4704
(dp4705
g65
(dp4706
g92
g93
ssg74
g4695
sg67
(lp4707
S':'
asbag60
(g81
g62
NtRp4708
(dp4709
g65
(dp4710
sg74
g4695
sg67
(lp4711
g60
(g61
g62
NtRp4712
(dp4713
g65
(dp4714
g73
I5
ssg74
g4708
sg67
(lp4715
S''
asbasbasbag60
(g76
g62
NtRp4716
(dp4717
g65
(dp4718
sg74
g3377
sg67
(lp4719
g60
(g81
g62
NtRp4720
(dp4721
g65
(dp4722
g85
g86
ssg74
g4716
sg67
(lp4723
S'path_id'
p4724
asbag60
(g81
g62
NtRp4725
(dp4726
g65
(dp4727
g92
g93
ssg74
g4716
sg67
(lp4728
S':'
asbag60
(g81
g62
NtRp4729
(dp4730
g65
(dp4731
sg74
g4716
sg67
(lp4732
g60
(g61
g62
NtRp4733
(dp4734
g65
(dp4735
g73
I5
ssg74
g4729
sg67
(lp4736
S'9'
asbasbasbag60
(g76
g62
NtRp4737
(dp4738
g65
(dp4739
sg74
g3377
sg67
(lp4740
g60
(g81
g62
NtRp4741
(dp4742
g65
(dp4743
g85
g86
ssg74
g4737
sg67
(lp4744
S'path_length'
p4745
asbag60
(g81
g62
NtRp4746
(dp4747
g65
(dp4748
g92
g93
ssg74
g4737
sg67
(lp4749
S':'
asbag60
(g81
g62
NtRp4750
(dp4751
g65
(dp4752
sg74
g4737
sg67
(lp4753
g60
(g61
g62
NtRp4754
(dp4755
g65
(dp4756
g73
I5
ssg74
g4750
sg67
(lp4757
S'20'
p4758
asbasbasbag60
(g76
g62
NtRp4759
(dp4760
g65
(dp4761
sg74
g3377
sg67
(lp4762
g60
(g81
g62
NtRp4763
(dp4764
g65
(dp4765
g85
g86
ssg74
g4759
sg67
(lp4766
S'path_name'
p4767
asbag60
(g81
g62
NtRp4768
(dp4769
g65
(dp4770
g92
g93
ssg74
g4759
sg67
(lp4771
S':'
asbag60
(g81
g62
NtRp4772
(dp4773
g65
(dp4774
sg74
g4759
sg67
(lp4775
g60
(g61
g62
NtRp4776
(dp4777
g65
(dp4778
g73
I5
ssg74
g4772
sg67
(lp4779
S'Tyndale - Greek Exegesis I - Week 9'
p4780
asbasbasbag60
(g76
g62
NtRp4781
(dp4782
g65
(dp4783
sg74
g3377
sg67
(lp4784
g60
(g81
g62
NtRp4785
(dp4786
g65
(dp4787
g85
g86
ssg74
g4781
sg67
(lp4788
S'path_tags'
p4789
asbag60
(g81
g62
NtRp4790
(dp4791
g65
(dp4792
g92
g93
ssg74
g4781
sg67
(lp4793
S':'
asbag60
(g81
g62
NtRp4794
(dp4795
g65
(dp4796
sg74
g4781
sg67
(lp4797
g60
(g61
g62
NtRp4798
(dp4799
g65
(dp4800
g73
I5
ssg74
g4794
sg67
(lp4801
g60
(g69
g62
NtRp4802
(dp4803
g65
(dp4804
g73
I4
ssg74
Nsg67
(lp4805
sbasbasbasbag60
(g76
g62
NtRp4806
(dp4807
g65
(dp4808
sg74
g3377
sg67
(lp4809
g60
(g81
g62
NtRp4810
(dp4811
g65
(dp4812
g85
g86
ssg74
g4806
sg67
(lp4813
S'qID'
p4814
asbag60
(g81
g62
NtRp4815
(dp4816
g65
(dp4817
g92
g93
ssg74
g4806
sg67
(lp4818
S':'
asbag60
(g81
g62
NtRp4819
(dp4820
g65
(dp4821
sg74
g4806
sg67
(lp4822
g60
(g61
g62
NtRp4823
(dp4824
g65
(dp4825
g73
I5
ssg74
g4819
sg67
(lp4826
S'2'
asbasbasbag60
(g76
g62
NtRp4827
(dp4828
g65
(dp4829
sg74
g3377
sg67
(lp4830
g60
(g81
g62
NtRp4831
(dp4832
g65
(dp4833
g85
g86
ssg74
g4827
sg67
(lp4834
S'q_counter'
p4835
asbag60
(g81
g62
NtRp4836
(dp4837
g65
(dp4838
g92
g93
ssg74
g4827
sg67
(lp4839
S':'
asbag60
(g81
g62
NtRp4840
(dp4841
g65
(dp4842
sg74
g4827
sg67
(lp4843
g60
(g61
g62
NtRp4844
(dp4845
g65
(dp4846
g73
I5
ssg74
g4840
sg67
(lp4847
S'5'
asbasbasbag60
(g76
g62
NtRp4848
(dp4849
g65
(dp4850
sg74
g3377
sg67
(lp4851
g60
(g81
g62
NtRp4852
(dp4853
g65
(dp4854
g85
g86
ssg74
g4848
sg67
(lp4855
S'question_text'
p4856
asbag60
(g81
g62
NtRp4857
(dp4858
g65
(dp4859
g92
g93
ssg74
g4848
sg67
(lp4860
S':'
asbag60
(g81
g62
NtRp4861
(dp4862
g65
(dp4863
sg74
g4848
sg67
(lp4864
g60
(g61
g62
NtRp4865
(dp4866
g65
(dp4867
g73
I5
ssg74
g4861
sg67
(lp4868
S'What does \xe1\xbc\x90\xce\xbc\xce\xb1\xcf\x85\xcf\x84\xce\xbf\xe1\xbf\xa6 mean?'
p4869
asbasbasbag60
(g76
g62
NtRp4870
(dp4871
g65
(dp4872
sg74
g3377
sg67
(lp4873
g60
(g81
g62
NtRp4874
(dp4875
g65
(dp4876
g85
g86
ssg74
g4870
sg67
(lp4877
S'quiz_type'
p4878
asbag60
(g81
g62
NtRp4879
(dp4880
g65
(dp4881
g92
g93
ssg74
g4870
sg67
(lp4882
S':'
asbag60
(g81
g62
NtRp4883
(dp4884
g65
(dp4885
sg74
g4870
sg67
(lp4886
g60
(g61
g62
NtRp4887
(dp4888
g65
(dp4889
g73
I5
ssg74
g4883
sg67
(lp4890
S'random'
p4891
asbasbasbag60
(g76
g62
NtRp4892
(dp4893
g65
(dp4894
sg74
g3377
sg67
(lp4895
g60
(g81
g62
NtRp4896
(dp4897
g65
(dp4898
g85
g86
ssg74
g4892
sg67
(lp4899
S'readable_answer'
p4900
asbag60
(g81
g62
NtRp4901
(dp4902
g65
(dp4903
g92
g93
ssg74
g4892
sg67
(lp4904
S':'
asbag60
(g81
g62
NtRp4905
(dp4906
g65
(dp4907
sg74
g4892
sg67
(lp4908
g60
(g61
g62
NtRp4909
(dp4910
g65
(dp4911
g73
I5
ssg74
g4905
sg67
(lp4912
S'of myself, my, from me, by me'
p4913
asbasbasbag60
(g76
g62
NtRp4914
(dp4915
g65
(dp4916
sg74
g3377
sg67
(lp4917
g60
(g81
g62
NtRp4918
(dp4919
g65
(dp4920
g85
g86
ssg74
g4914
sg67
(lp4921
S'response'
p4922
asbag60
(g81
g62
NtRp4923
(dp4924
g65
(dp4925
g92
g93
ssg74
g4914
sg67
(lp4926
S':'
asbag60
(g81
g62
NtRp4927
(dp4928
g65
(dp4929
sg74
g4914
sg67
(lp4930
g60
(g61
g62
NtRp4931
(dp4932
g65
(dp4933
g73
I5
ssg74
g4927
sg67
(lp4934
S'my'
p4935
asbasbasbasbasbsS'etype'
p4936
S"<class 'pysqlite2.dbapi2.OperationalError'>"
p4937
sS'date'
p4938
S'Fri Nov 11 11:54:09 2011'
p4939
sS'response'
p4940
g60
(g61
g62
NtRp4941
(dp4942
g65
(dp4943
sg67
(lp4944
g60
(g69
g62
NtRp4945
(dp4946
g65
(dp4947
g73
I5
ssg74
Nsg67
(lp4948
g60
(g76
g62
NtRp4949
(dp4950
g65
(dp4951
sg74
g4945
sg67
(lp4952
g60
(g81
g62
NtRp4953
(dp4954
g65
(dp4955
g85
g86
ssg74
g4949
sg67
(lp4956
g184
asbag60
(g81
g62
NtRp4957
(dp4958
g65
(dp4959
g92
g93
ssg74
g4949
sg67
(lp4960
S':'
asbag60
(g81
g62
NtRp4961
(dp4962
g65
(dp4963
sg74
g4949
sg67
(lp4964
g60
(g61
g62
NtRp4965
(dp4966
g65
(dp4967
g73
I5
ssg74
g4961
sg67
(lp4968
S'<cStringIO.StringO object at 0x2980420>'
p4969
asbasbasbag60
(g76
g62
NtRp4970
(dp4971
g65
(dp4972
sg74
g4945
sg67
(lp4973
g60
(g81
g62
NtRp4974
(dp4975
g65
(dp4976
g85
g86
ssg74
g4970
sg67
(lp4977
g250
asbag60
(g81
g62
NtRp4978
(dp4979
g65
(dp4980
g92
g93
ssg74
g4970
sg67
(lp4981
S':'
asbag60
(g81
g62
NtRp4982
(dp4983
g65
(dp4984
sg74
g4970
sg67
(lp4985
g60
(g61
g62
NtRp4986
(dp4987
g65
(dp4988
g73
I5
ssg74
g4982
sg67
(lp4989
g60
(g69
g62
NtRp4990
(dp4991
g65
(dp4992
g73
I4
ssg74
Nsg67
(lp4993
g60
(g76
g62
NtRp4994
(dp4995
g65
(dp4996
sg74
g4990
sg67
(lp4997
g60
(g81
g62
NtRp4998
(dp4999
g65
(dp5000
g85
g86
ssg74
g4994
sg67
(lp5001
S'session_id_paideia'
p5002
asbag60
(g81
g62
NtRp5003
(dp5004
g65
(dp5005
g92
g93
ssg74
g4994
sg67
(lp5006
S':'
asbag60
(g81
g62
NtRp5007
(dp5008
g65
(dp5009
sg74
g4994
sg67
(lp5010
g60
(g61
g62
NtRp5011
(dp5012
g65
(dp5013
g73
I4
ssg74
g5007
sg67
(lp5014
g60
(g69
g62
NtRp5015
(dp5016
g65
(dp5017
g73
I3
ssg74
Nsg67
(lp5018
g60
(g76
g62
NtRp5019
(dp5020
g65
(dp5021
sg74
g5015
sg67
(lp5022
g60
(g81
g62
NtRp5023
(dp5024
g65
(dp5025
g85
g86
ssg74
g5019
sg67
(lp5026
g300
asbag60
(g81
g62
NtRp5027
(dp5028
g65
(dp5029
g92
g93
ssg74
g5019
sg67
(lp5030
S':'
asbag60
(g81
g62
NtRp5031
(dp5032
g65
(dp5033
sg74
g5019
sg67
(lp5034
g60
(g61
g62
NtRp5035
(dp5036
g65
(dp5037
g73
I3
ssg74
g5031
sg67
(lp5038
S''
asbasbasbag60
(g76
g62
NtRp5039
(dp5040
g65
(dp5041
sg74
g5015
sg67
(lp5042
g60
(g81
g62
NtRp5043
(dp5044
g65
(dp5045
g85
g86
ssg74
g5039
sg67
(lp5046
g321
asbag60
(g81
g62
NtRp5047
(dp5048
g65
(dp5049
g92
g93
ssg74
g5039
sg67
(lp5050
S':'
asbag60
(g81
g62
NtRp5051
(dp5052
g65
(dp5053
sg74
g5039
sg67
(lp5054
g60
(g61
g62
NtRp5055
(dp5056
g65
(dp5057
g73
I3
ssg74
g5051
sg67
(lp5058
S''
asbasbasbag60
(g76
g62
NtRp5059
(dp5060
g65
(dp5061
sg74
g5015
sg67
(lp5062
g60
(g81
g62
NtRp5063
(dp5064
g65
(dp5065
g85
g86
ssg74
g5059
sg67
(lp5066
g342
asbag60
(g81
g62
NtRp5067
(dp5068
g65
(dp5069
g92
g93
ssg74
g5059
sg67
(lp5070
S':'
asbag60
(g81
g62
NtRp5071
(dp5072
g65
(dp5073
sg74
g5059
sg67
(lp5074
g60
(g61
g62
NtRp5075
(dp5076
g65
(dp5077
g73
I3
ssg74
g5071
sg67
(lp5078
S''
asbasbasbag60
(g76
g62
NtRp5079
(dp5080
g65
(dp5081
sg74
g5015
sg67
(lp5082
g60
(g81
g62
NtRp5083
(dp5084
g65
(dp5085
g85
g86
ssg74
g5079
sg67
(lp5086
g363
asbag60
(g81
g62
NtRp5087
(dp5088
g65
(dp5089
g92
g93
ssg74
g5079
sg67
(lp5090
S':'
asbag60
(g81
g62
NtRp5091
(dp5092
g65
(dp5093
sg74
g5079
sg67
(lp5094
g60
(g61
g62
NtRp5095
(dp5096
g65
(dp5097
g73
I3
ssg74
g5091
sg67
(lp5098
S''
asbasbasbag60
(g76
g62
NtRp5099
(dp5100
g65
(dp5101
sg74
g5015
sg67
(lp5102
g60
(g81
g62
NtRp5103
(dp5104
g65
(dp5105
g85
g86
ssg74
g5099
sg67
(lp5106
g384
asbag60
(g81
g62
NtRp5107
(dp5108
g65
(dp5109
g92
g93
ssg74
g5099
sg67
(lp5110
S':'
asbag60
(g81
g62
NtRp5111
(dp5112
g65
(dp5113
sg74
g5099
sg67
(lp5114
g60
(g61
g62
NtRp5115
(dp5116
g65
(dp5117
g73
I3
ssg74
g5111
sg67
(lp5118
S''
asbasbasbag60
(g76
g62
NtRp5119
(dp5120
g65
(dp5121
sg74
g5015
sg67
(lp5122
g60
(g81
g62
NtRp5123
(dp5124
g65
(dp5125
g85
g86
ssg74
g5119
sg67
(lp5126
g405
asbag60
(g81
g62
NtRp5127
(dp5128
g65
(dp5129
g92
g93
ssg74
g5119
sg67
(lp5130
S':'
asbag60
(g81
g62
NtRp5131
(dp5132
g65
(dp5133
sg74
g5119
sg67
(lp5134
g60
(g61
g62
NtRp5135
(dp5136
g65
(dp5137
g73
I3
ssg74
g5131
sg67
(lp5138
S'/'
asbasbasbag60
(g76
g62
NtRp5139
(dp5140
g65
(dp5141
sg74
g5015
sg67
(lp5142
g60
(g81
g62
NtRp5143
(dp5144
g65
(dp5145
g85
g86
ssg74
g5139
sg67
(lp5146
g426
asbag60
(g81
g62
NtRp5147
(dp5148
g65
(dp5149
g92
g93
ssg74
g5139
sg67
(lp5150
S':'
asbag60
(g81
g62
NtRp5151
(dp5152
g65
(dp5153
sg74
g5139
sg67
(lp5154
g60
(g61
g62
NtRp5155
(dp5156
g65
(dp5157
g73
I3
ssg74
g5151
sg67
(lp5158
S''
asbasbasbag60
(g76
g62
NtRp5159
(dp5160
g65
(dp5161
sg74
g5015
sg67
(lp5162
g60
(g81
g62
NtRp5163
(dp5164
g65
(dp5165
g85
g86
ssg74
g5159
sg67
(lp5166
g447
asbag60
(g81
g62
NtRp5167
(dp5168
g65
(dp5169
g92
g93
ssg74
g5159
sg67
(lp5170
S':'
asbag60
(g81
g62
NtRp5171
(dp5172
g65
(dp5173
sg74
g5159
sg67
(lp5174
g60
(g61
g62
NtRp5175
(dp5176
g65
(dp5177
g73
I3
ssg74
g5171
sg67
(lp5178
S''
asbasbasbasbasbasbasbasbasbasbasbag60
(g76
g62
NtRp5179
(dp5180
g65
(dp5181
sg74
g4945
sg67
(lp5182
g60
(g81
g62
NtRp5183
(dp5184
g65
(dp5185
g85
g86
ssg74
g5179
sg67
(lp5186
S'files'
p5187
asbag60
(g81
g62
NtRp5188
(dp5189
g65
(dp5190
g92
g93
ssg74
g5179
sg67
(lp5191
S':'
asbag60
(g81
g62
NtRp5192
(dp5193
g65
(dp5194
sg74
g5179
sg67
(lp5195
g60
(g61
g62
NtRp5196
(dp5197
g65
(dp5198
g73
I5
ssg74
g5192
sg67
(lp5199
g60
(g69
g62
NtRp5200
(dp5201
g65
(dp5202
g73
I4
ssg74
Nsg67
(lp5203
sbasbasbasbag60
(g76
g62
NtRp5204
(dp5205
g65
(dp5206
sg74
g4945
sg67
(lp5207
g60
(g81
g62
NtRp5208
(dp5209
g65
(dp5210
g85
g86
ssg74
g5204
sg67
(lp5211
S'flash'
p5212
asbag60
(g81
g62
NtRp5213
(dp5214
g65
(dp5215
g92
g93
ssg74
g5204
sg67
(lp5216
S':'
asbag60
(g81
g62
NtRp5217
(dp5218
g65
(dp5219
sg74
g5204
sg67
(lp5220
g60
(g61
g62
NtRp5221
(dp5222
g65
(dp5223
g73
I5
ssg74
g5217
sg67
(lp5224
S''
asbasbasbag60
(g76
g62
NtRp5225
(dp5226
g65
(dp5227
sg74
g4945
sg67
(lp5228
g60
(g81
g62
NtRp5229
(dp5230
g65
(dp5231
g85
g86
ssg74
g5225
sg67
(lp5232
S'generic_patterns'
p5233
asbag60
(g81
g62
NtRp5234
(dp5235
g65
(dp5236
g92
g93
ssg74
g5225
sg67
(lp5237
S':'
asbag60
(g81
g62
NtRp5238
(dp5239
g65
(dp5240
sg74
g5225
sg67
(lp5241
g60
(g61
g62
NtRp5242
(dp5243
g65
(dp5244
g73
I5
ssg74
g5238
sg67
(lp5245
g60
(g69
g62
NtRp5246
(dp5247
g65
(dp5248
g73
I4
ssg74
Nsg67
(lp5249
g60
(g76
g62
NtRp5250
(dp5251
g65
(dp5252
sg74
g5246
sg67
(lp5253
g60
(g81
g62
NtRp5254
(dp5255
g65
(dp5256
sg74
g5250
sg67
(lp5257
g60
(g61
g62
NtRp5258
(dp5259
g65
(dp5260
g73
I4
ssg74
g5254
sg67
(lp5261
S'*'
asbasbasbasbasbasbasbag60
(g76
g62
NtRp5262
(dp5263
g65
(dp5264
sg74
g4945
sg67
(lp5265
g60
(g81
g62
NtRp5266
(dp5267
g65
(dp5268
g85
g86
ssg74
g5262
sg67
(lp5269
S'headers'
p5270
asbag60
(g81
g62
NtRp5271
(dp5272
g65
(dp5273
g92
g93
ssg74
g5262
sg67
(lp5274
S':'
asbag60
(g81
g62
NtRp5275
(dp5276
g65
(dp5277
sg74
g5262
sg67
(lp5278
g60
(g61
g62
NtRp5279
(dp5280
g65
(dp5281
g73
I5
ssg74
g5275
sg67
(lp5282
g60
(g69
g62
NtRp5283
(dp5284
g65
(dp5285
g73
I4
ssg74
Nsg67
(lp5286
g60
(g76
g62
NtRp5287
(dp5288
g65
(dp5289
sg74
g5283
sg67
(lp5290
g60
(g81
g62
NtRp5291
(dp5292
g65
(dp5293
g85
g86
ssg74
g5287
sg67
(lp5294
S'Cache-Control'
p5295
asbag60
(g81
g62
NtRp5296
(dp5297
g65
(dp5298
g92
g93
ssg74
g5287
sg67
(lp5299
S':'
asbag60
(g81
g62
NtRp5300
(dp5301
g65
(dp5302
sg74
g5287
sg67
(lp5303
g60
(g61
g62
NtRp5304
(dp5305
g65
(dp5306
g73
I4
ssg74
g5300
sg67
(lp5307
S'no-store, no-cache, must-revalidate, post-check=0, pre-check=0'
p5308
asbasbasbag60
(g76
g62
NtRp5309
(dp5310
g65
(dp5311
sg74
g5283
sg67
(lp5312
g60
(g81
g62
NtRp5313
(dp5314
g65
(dp5315
g85
g86
ssg74
g5309
sg67
(lp5316
S'Content-Type'
p5317
asbag60
(g81
g62
NtRp5318
(dp5319
g65
(dp5320
g92
g93
ssg74
g5309
sg67
(lp5321
S':'
asbag60
(g81
g62
NtRp5322
(dp5323
g65
(dp5324
sg74
g5309
sg67
(lp5325
g60
(g61
g62
NtRp5326
(dp5327
g65
(dp5328
g73
I4
ssg74
g5322
sg67
(lp5329
S'text/html; charset=utf-8'
p5330
asbasbasbag60
(g76
g62
NtRp5331
(dp5332
g65
(dp5333
sg74
g5283
sg67
(lp5334
g60
(g81
g62
NtRp5335
(dp5336
g65
(dp5337
g85
g86
ssg74
g5331
sg67
(lp5338
S'Expires'
p5339
asbag60
(g81
g62
NtRp5340
(dp5341
g65
(dp5342
g92
g93
ssg74
g5331
sg67
(lp5343
S':'
asbag60
(g81
g62
NtRp5344
(dp5345
g65
(dp5346
sg74
g5331
sg67
(lp5347
g60
(g61
g62
NtRp5348
(dp5349
g65
(dp5350
g73
I4
ssg74
g5344
sg67
(lp5351
S'Fri, 11 Nov 2011 16:54:09 GMT'
p5352
asbasbasbag60
(g76
g62
NtRp5353
(dp5354
g65
(dp5355
sg74
g5283
sg67
(lp5356
g60
(g81
g62
NtRp5357
(dp5358
g65
(dp5359
g85
g86
ssg74
g5353
sg67
(lp5360
S'Pragma'
p5361
asbag60
(g81
g62
NtRp5362
(dp5363
g65
(dp5364
g92
g93
ssg74
g5353
sg67
(lp5365
S':'
asbag60
(g81
g62
NtRp5366
(dp5367
g65
(dp5368
sg74
g5353
sg67
(lp5369
g60
(g61
g62
NtRp5370
(dp5371
g65
(dp5372
g73
I4
ssg74
g5366
sg67
(lp5373
S'no-cache'
p5374
asbasbasbag60
(g76
g62
NtRp5375
(dp5376
g65
(dp5377
sg74
g5283
sg67
(lp5378
g60
(g81
g62
NtRp5379
(dp5380
g65
(dp5381
g85
g86
ssg74
g5375
sg67
(lp5382
S'X-Powered-By'
p5383
asbag60
(g81
g62
NtRp5384
(dp5385
g65
(dp5386
g92
g93
ssg74
g5375
sg67
(lp5387
S':'
asbag60
(g81
g62
NtRp5388
(dp5389
g65
(dp5390
sg74
g5375
sg67
(lp5391
g60
(g61
g62
NtRp5392
(dp5393
g65
(dp5394
g73
I4
ssg74
g5388
sg67
(lp5395
S'web2py'
p5396
asbasbasbasbasbasbasbag60
(g76
g62
NtRp5397
(dp5398
g65
(dp5399
sg74
g4945
sg67
(lp5400
g60
(g81
g62
NtRp5401
(dp5402
g65
(dp5403
g85
g86
ssg74
g5397
sg67
(lp5404
S'menu'
p5405
asbag60
(g81
g62
NtRp5406
(dp5407
g65
(dp5408
g92
g93
ssg74
g5397
sg67
(lp5409
S':'
asbag60
(g81
g62
NtRp5410
(dp5411
g65
(dp5412
sg74
g5397
sg67
(lp5413
g60
(g61
g62
NtRp5414
(dp5415
g65
(dp5416
g73
I5
ssg74
g5410
sg67
(lp5417
g60
(g69
g62
NtRp5418
(dp5419
g65
(dp5420
g73
I4
ssg74
Nsg67
(lp5421
g60
(g76
g62
NtRp5422
(dp5423
g65
(dp5424
sg74
g5418
sg67
(lp5425
g60
(g81
g62
NtRp5426
(dp5427
g65
(dp5428
sg74
g5422
sg67
(lp5429
g60
(g61
g62
NtRp5430
(dp5431
g65
(dp5432
g73
I4
ssg74
g5426
sg67
(lp5433
g60
(g69
g62
NtRp5434
(dp5435
g65
(dp5436
g73
I3
ssg74
Nsg67
(lp5437
g60
(g76
g62
NtRp5438
(dp5439
g65
(dp5440
sg74
g5434
sg67
(lp5441
g60
(g81
g62
NtRp5442
(dp5443
g65
(dp5444
sg74
g5438
sg67
(lp5445
g60
(g61
g62
NtRp5446
(dp5447
g65
(dp5448
g73
I3
ssg74
g5442
sg67
(lp5449
cgluon.languages
lazyT_unpickle
p5450
(S't\x06\x00\x00\x00design'
tRp5451
asbasbasbag60
(g76
g62
NtRp5452
(dp5453
g65
(dp5454
sg74
g5434
sg67
(lp5455
g60
(g81
g62
NtRp5456
(dp5457
g65
(dp5458
sg74
g5452
sg67
(lp5459
g60
(g61
g62
NtRp5460
(dp5461
g65
(dp5462
g73
I3
ssg74
g5456
sg67
(lp5463
g103
asbasbasbag60
(g76
g62
NtRp5464
(dp5465
g65
(dp5466
sg74
g5434
sg67
(lp5467
g60
(g81
g62
NtRp5468
(dp5469
g65
(dp5470
sg74
g5464
sg67
(lp5471
g60
(g61
g62
NtRp5472
(dp5473
g65
(dp5474
g73
I3
ssg74
g5468
sg67
(lp5475
S'/admin/default/design/paideia'
p5476
asbasbasbasbasbasbasbag60
(g76
g62
NtRp5477
(dp5478
g65
(dp5479
sg74
g5418
sg67
(lp5480
g60
(g81
g62
NtRp5481
(dp5482
g65
(dp5483
sg74
g5477
sg67
(lp5484
g60
(g61
g62
NtRp5485
(dp5486
g65
(dp5487
g73
I4
ssg74
g5481
sg67
(lp5488
g60
(g69
g62
NtRp5489
(dp5490
g65
(dp5491
g73
I3
ssg74
Nsg67
(lp5492
g60
(g76
g62
NtRp5493
(dp5494
g65
(dp5495
sg74
g5489
sg67
(lp5496
g60
(g81
g62
NtRp5497
(dp5498
g65
(dp5499
sg74
g5493
sg67
(lp5500
g60
(g61
g62
NtRp5501
(dp5502
g65
(dp5503
g73
I3
ssg74
g5497
sg67
(lp5504
g5450
(S't\x02\x00\x00\x00db'
tRp5505
asbasbasbag60
(g76
g62
NtRp5506
(dp5507
g65
(dp5508
sg74
g5489
sg67
(lp5509
g60
(g81
g62
NtRp5510
(dp5511
g65
(dp5512
sg74
g5506
sg67
(lp5513
g60
(g61
g62
NtRp5514
(dp5515
g65
(dp5516
g73
I3
ssg74
g5510
sg67
(lp5517
g103
asbasbasbag60
(g76
g62
NtRp5518
(dp5519
g65
(dp5520
sg74
g5489
sg67
(lp5521
g60
(g81
g62
NtRp5522
(dp5523
g65
(dp5524
sg74
g5518
sg67
(lp5525
g60
(g61
g62
NtRp5526
(dp5527
g65
(dp5528
g73
I3
ssg74
g5522
sg67
(lp5529
S'/paideia/appadmin/index'
p5530
asbasbasbasbasbasbasbag60
(g76
g62
NtRp5531
(dp5532
g65
(dp5533
sg74
g5418
sg67
(lp5534
g60
(g81
g62
NtRp5535
(dp5536
g65
(dp5537
sg74
g5531
sg67
(lp5538
g60
(g61
g62
NtRp5539
(dp5540
g65
(dp5541
g73
I4
ssg74
g5535
sg67
(lp5542
g60
(g69
g62
NtRp5543
(dp5544
g65
(dp5545
g73
I3
ssg74
Nsg67
(lp5546
g60
(g76
g62
NtRp5547
(dp5548
g65
(dp5549
sg74
g5543
sg67
(lp5550
g60
(g81
g62
NtRp5551
(dp5552
g65
(dp5553
sg74
g5547
sg67
(lp5554
g60
(g61
g62
NtRp5555
(dp5556
g65
(dp5557
g73
I3
ssg74
g5551
sg67
(lp5558
g5450
(S't\x05\x00\x00\x00state'
tRp5559
asbasbasbag60
(g76
g62
NtRp5560
(dp5561
g65
(dp5562
sg74
g5543
sg67
(lp5563
g60
(g81
g62
NtRp5564
(dp5565
g65
(dp5566
sg74
g5560
sg67
(lp5567
g60
(g61
g62
NtRp5568
(dp5569
g65
(dp5570
g73
I3
ssg74
g5564
sg67
(lp5571
g103
asbasbasbag60
(g76
g62
NtRp5572
(dp5573
g65
(dp5574
sg74
g5543
sg67
(lp5575
g60
(g81
g62
NtRp5576
(dp5577
g65
(dp5578
sg74
g5572
sg67
(lp5579
g60
(g61
g62
NtRp5580
(dp5581
g65
(dp5582
g73
I3
ssg74
g5576
sg67
(lp5583
S'/paideia/appadmin/state'
p5584
asbasbasbasbasbasbasbag60
(g76
g62
NtRp5585
(dp5586
g65
(dp5587
sg74
g5418
sg67
(lp5588
g60
(g81
g62
NtRp5589
(dp5590
g65
(dp5591
sg74
g5585
sg67
(lp5592
g60
(g61
g62
NtRp5593
(dp5594
g65
(dp5595
g73
I4
ssg74
g5589
sg67
(lp5596
g60
(g69
g62
NtRp5597
(dp5598
g65
(dp5599
g73
I3
ssg74
Nsg67
(lp5600
g60
(g76
g62
NtRp5601
(dp5602
g65
(dp5603
sg74
g5597
sg67
(lp5604
g60
(g81
g62
NtRp5605
(dp5606
g65
(dp5607
sg74
g5601
sg67
(lp5608
g60
(g61
g62
NtRp5609
(dp5610
g65
(dp5611
g73
I3
ssg74
g5605
sg67
(lp5612
g5450
(S't\x05\x00\x00\x00cache'
tRp5613
asbasbasbag60
(g76
g62
NtRp5614
(dp5615
g65
(dp5616
sg74
g5597
sg67
(lp5617
g60
(g81
g62
NtRp5618
(dp5619
g65
(dp5620
sg74
g5614
sg67
(lp5621
g60
(g61
g62
NtRp5622
(dp5623
g65
(dp5624
g73
I3
ssg74
g5618
sg67
(lp5625
g103
asbasbasbag60
(g76
g62
NtRp5626
(dp5627
g65
(dp5628
sg74
g5597
sg67
(lp5629
g60
(g81
g62
NtRp5630
(dp5631
g65
(dp5632
sg74
g5626
sg67
(lp5633
g60
(g61
g62
NtRp5634
(dp5635
g65
(dp5636
g73
I3
ssg74
g5630
sg67
(lp5637
S'/paideia/appadmin/ccache'
p5638
asbasbasbasbasbasbasbasbasbasbasbag60
(g76
g62
NtRp5639
(dp5640
g65
(dp5641
sg74
g4945
sg67
(lp5642
g60
(g81
g62
NtRp5643
(dp5644
g65
(dp5645
g85
g86
ssg74
g5639
sg67
(lp5646
S'meta'
p5647
asbag60
(g81
g62
NtRp5648
(dp5649
g65
(dp5650
g92
g93
ssg74
g5639
sg67
(lp5651
S':'
asbag60
(g81
g62
NtRp5652
(dp5653
g65
(dp5654
sg74
g5639
sg67
(lp5655
g60
(g61
g62
NtRp5656
(dp5657
g65
(dp5658
g73
I5
ssg74
g5652
sg67
(lp5659
g60
(g69
g62
NtRp5660
(dp5661
g65
(dp5662
g73
I4
ssg74
Nsg67
(lp5663
g60
(g76
g62
NtRp5664
(dp5665
g65
(dp5666
sg74
g5660
sg67
(lp5667
g60
(g81
g62
NtRp5668
(dp5669
g65
(dp5670
g85
g86
ssg74
g5664
sg67
(lp5671
S'author'
p5672
asbag60
(g81
g62
NtRp5673
(dp5674
g65
(dp5675
g92
g93
ssg74
g5664
sg67
(lp5676
S':'
asbag60
(g81
g62
NtRp5677
(dp5678
g65
(dp5679
sg74
g5664
sg67
(lp5680
g60
(g61
g62
NtRp5681
(dp5682
g65
(dp5683
g73
I4
ssg74
g5677
sg67
(lp5684
S'Ian W. Scott'
p5685
asbasbasbag60
(g76
g62
NtRp5686
(dp5687
g65
(dp5688
sg74
g5660
sg67
(lp5689
g60
(g81
g62
NtRp5690
(dp5691
g65
(dp5692
g85
g86
ssg74
g5686
sg67
(lp5693
S'copyright'
p5694
asbag60
(g81
g62
NtRp5695
(dp5696
g65
(dp5697
g92
g93
ssg74
g5686
sg67
(lp5698
S':'
asbag60
(g81
g62
NtRp5699
(dp5700
g65
(dp5701
sg74
g5686
sg67
(lp5702
g60
(g61
g62
NtRp5703
(dp5704
g65
(dp5705
g73
I4
ssg74
g5699
sg67
(lp5706
S'Copyright 2011'
p5707
asbasbasbag60
(g76
g62
NtRp5708
(dp5709
g65
(dp5710
sg74
g5660
sg67
(lp5711
g60
(g81
g62
NtRp5712
(dp5713
g65
(dp5714
g85
g86
ssg74
g5708
sg67
(lp5715
S'description'
p5716
asbag60
(g81
g62
NtRp5717
(dp5718
g65
(dp5719
g92
g93
ssg74
g5708
sg67
(lp5720
S':'
asbag60
(g81
g62
NtRp5721
(dp5722
g65
(dp5723
sg74
g5708
sg67
(lp5724
g60
(g61
g62
NtRp5725
(dp5726
g65
(dp5727
g73
I4
ssg74
g5721
sg67
(lp5728
S'An online space for learning New Testament Greek'
p5729
asbasbasbag60
(g76
g62
NtRp5730
(dp5731
g65
(dp5732
sg74
g5660
sg67
(lp5733
g60
(g81
g62
NtRp5734
(dp5735
g65
(dp5736
g85
g86
ssg74
g5730
sg67
(lp5737
S'generator'
p5738
asbag60
(g81
g62
NtRp5739
(dp5740
g65
(dp5741
g92
g93
ssg74
g5730
sg67
(lp5742
S':'
asbag60
(g81
g62
NtRp5743
(dp5744
g65
(dp5745
sg74
g5730
sg67
(lp5746
g60
(g61
g62
NtRp5747
(dp5748
g65
(dp5749
g73
I4
ssg74
g5743
sg67
(lp5750
S'Web2py Enterprise Framework'
p5751
asbasbasbag60
(g76
g62
NtRp5752
(dp5753
g65
(dp5754
sg74
g5660
sg67
(lp5755
g60
(g81
g62
NtRp5756
(dp5757
g65
(dp5758
g85
g86
ssg74
g5752
sg67
(lp5759
S'keywords'
p5760
asbag60
(g81
g62
NtRp5761
(dp5762
g65
(dp5763
g92
g93
ssg74
g5752
sg67
(lp5764
S':'
asbag60
(g81
g62
NtRp5765
(dp5766
g65
(dp5767
sg74
g5752
sg67
(lp5768
g60
(g61
g62
NtRp5769
(dp5770
g65
(dp5771
g73
I4
ssg74
g5765
sg67
(lp5772
S'Greek, koine, New Testament, language, education, learning'
p5773
asbasbasbasbasbasbasbag60
(g76
g62
NtRp5774
(dp5775
g65
(dp5776
sg74
g4945
sg67
(lp5777
g60
(g81
g62
NtRp5778
(dp5779
g65
(dp5780
g85
g86
ssg74
g5774
sg67
(lp5781
S'postprocessing'
p5782
asbag60
(g81
g62
NtRp5783
(dp5784
g65
(dp5785
g92
g93
ssg74
g5774
sg67
(lp5786
S':'
asbag60
(g81
g62
NtRp5787
(dp5788
g65
(dp5789
sg74
g5774
sg67
(lp5790
g60
(g61
g62
NtRp5791
(dp5792
g65
(dp5793
g73
I5
ssg74
g5787
sg67
(lp5794
g60
(g69
g62
NtRp5795
(dp5796
g65
(dp5797
g73
I4
ssg74
Nsg67
(lp5798
sbasbasbasbag60
(g76
g62
NtRp5799
(dp5800
g65
(dp5801
sg74
g4945
sg67
(lp5802
g60
(g81
g62
NtRp5803
(dp5804
g65
(dp5805
g85
g86
ssg74
g5799
sg67
(lp5806
S'session_file'
p5807
asbag60
(g81
g62
NtRp5808
(dp5809
g65
(dp5810
g92
g93
ssg74
g5799
sg67
(lp5811
S':'
asbag60
(g81
g62
NtRp5812
(dp5813
g65
(dp5814
sg74
g5799
sg67
(lp5815
g60
(g61
g62
NtRp5816
(dp5817
g65
(dp5818
g73
I5
ssg74
g5812
sg67
(lp5819
S"<open file '/home/ian/web2py/applications/paideia/sessions/127.0.0.1-dab44118-197b-450c-a3a0-b12f6caf0c5c', mode 'rb+' at 0x23a0e40>"
p5820
asbasbasbag60
(g76
g62
NtRp5821
(dp5822
g65
(dp5823
sg74
g4945
sg67
(lp5824
g60
(g81
g62
NtRp5825
(dp5826
g65
(dp5827
g85
g86
ssg74
g5821
sg67
(lp5828
S'session_filename'
p5829
asbag60
(g81
g62
NtRp5830
(dp5831
g65
(dp5832
g92
g93
ssg74
g5821
sg67
(lp5833
S':'
asbag60
(g81
g62
NtRp5834
(dp5835
g65
(dp5836
sg74
g5821
sg67
(lp5837
g60
(g61
g62
NtRp5838
(dp5839
g65
(dp5840
g73
I5
ssg74
g5834
sg67
(lp5841
S'/home/ian/web2py/applications/paideia/sessions/127.0.0.1-dab44118-197b-450c-a3a0-b12f6caf0c5c'
p5842
asbasbasbag60
(g76
g62
NtRp5843
(dp5844
g65
(dp5845
sg74
g4945
sg67
(lp5846
g60
(g81
g62
NtRp5847
(dp5848
g65
(dp5849
g85
g86
ssg74
g5843
sg67
(lp5850
S'session_id'
p5851
asbag60
(g81
g62
NtRp5852
(dp5853
g65
(dp5854
g92
g93
ssg74
g5843
sg67
(lp5855
S':'
asbag60
(g81
g62
NtRp5856
(dp5857
g65
(dp5858
sg74
g5843
sg67
(lp5859
g60
(g61
g62
NtRp5860
(dp5861
g65
(dp5862
g73
I5
ssg74
g5856
sg67
(lp5863
S'127.0.0.1-dab44118-197b-450c-a3a0-b12f6caf0c5c'
p5864
asbasbasbag60
(g76
g62
NtRp5865
(dp5866
g65
(dp5867
sg74
g4945
sg67
(lp5868
g60
(g81
g62
NtRp5869
(dp5870
g65
(dp5871
g85
g86
ssg74
g5865
sg67
(lp5872
S'session_id_name'
p5873
asbag60
(g81
g62
NtRp5874
(dp5875
g65
(dp5876
g92
g93
ssg74
g5865
sg67
(lp5877
S':'
asbag60
(g81
g62
NtRp5878
(dp5879
g65
(dp5880
sg74
g5865
sg67
(lp5881
g60
(g61
g62
NtRp5882
(dp5883
g65
(dp5884
g73
I5
ssg74
g5878
sg67
(lp5885
g5002
asbasbasbag60
(g76
g62
NtRp5886
(dp5887
g65
(dp5888
sg74
g4945
sg67
(lp5889
g60
(g81
g62
NtRp5890
(dp5891
g65
(dp5892
g85
g86
ssg74
g5886
sg67
(lp5893
S'session_locked'
p5894
asbag60
(g81
g62
NtRp5895
(dp5896
g65
(dp5897
g92
g93
ssg74
g5886
sg67
(lp5898
S':'
asbag60
(g81
g62
NtRp5899
(dp5900
g65
(dp5901
sg74
g5886
sg67
(lp5902
g60
(g61
g62
NtRp5903
(dp5904
g65
(dp5905
g73
I5
ssg74
g5899
sg67
(lp5906
g1772
asbasbasbag60
(g76
g62
NtRp5907
(dp5908
g65
(dp5909
sg74
g4945
sg67
(lp5910
g60
(g81
g62
NtRp5911
(dp5912
g65
(dp5913
g85
g86
ssg74
g5907
sg67
(lp5914
S'session_new'
p5915
asbag60
(g81
g62
NtRp5916
(dp5917
g65
(dp5918
g92
g93
ssg74
g5907
sg67
(lp5919
S':'
asbag60
(g81
g62
NtRp5920
(dp5921
g65
(dp5922
sg74
g5907
sg67
(lp5923
g60
(g61
g62
NtRp5924
(dp5925
g65
(dp5926
g73
I5
ssg74
g5920
sg67
(lp5927
g103
asbasbasbag60
(g76
g62
NtRp5928
(dp5929
g65
(dp5930
sg74
g4945
sg67
(lp5931
g60
(g81
g62
NtRp5932
(dp5933
g65
(dp5934
g85
g86
ssg74
g5928
sg67
(lp5935
S'status'
p5936
asbag60
(g81
g62
NtRp5937
(dp5938
g65
(dp5939
g92
g93
ssg74
g5928
sg67
(lp5940
S':'
asbag60
(g81
g62
NtRp5941
(dp5942
g65
(dp5943
sg74
g5928
sg67
(lp5944
g60
(g61
g62
NtRp5945
(dp5946
g65
(dp5947
g73
I5
ssg74
g5941
sg67
(lp5948
S'200'
p5949
asbasbasbag60
(g76
g62
NtRp5950
(dp5951
g65
(dp5952
sg74
g4945
sg67
(lp5953
g60
(g81
g62
NtRp5954
(dp5955
g65
(dp5956
g85
g86
ssg74
g5950
sg67
(lp5957
S'subtitle'
p5958
asbag60
(g81
g62
NtRp5959
(dp5960
g65
(dp5961
g92
g93
ssg74
g5950
sg67
(lp5962
S':'
asbag60
(g81
g62
NtRp5963
(dp5964
g65
(dp5965
sg74
g5950
sg67
(lp5966
g60
(g61
g62
NtRp5967
(dp5968
g65
(dp5969
g73
I5
ssg74
g5963
sg67
(lp5970
g5450
(S's0\x00\x00\x00An online space for learning New Testament Greek'
tRp5971
asbasbasbag60
(g76
g62
NtRp5972
(dp5973
g65
(dp5974
sg74
g4945
sg67
(lp5975
g60
(g81
g62
NtRp5976
(dp5977
g65
(dp5978
g85
g86
ssg74
g5972
sg67
(lp5979
S'title'
p5980
asbag60
(g81
g62
NtRp5981
(dp5982
g65
(dp5983
g92
g93
ssg74
g5972
sg67
(lp5984
S':'
asbag60
(g81
g62
NtRp5985
(dp5986
g65
(dp5987
sg74
g5972
sg67
(lp5988
g60
(g61
g62
NtRp5989
(dp5990
g65
(dp5991
g73
I5
ssg74
g5985
sg67
(lp5992
g125
asbasbasbag60
(g76
g62
NtRp5993
(dp5994
g65
(dp5995
sg74
g4945
sg67
(lp5996
g60
(g81
g62
NtRp5997
(dp5998
g65
(dp5999
g85
g86
ssg74
g5993
sg67
(lp6000
g2460
asbag60
(g81
g62
NtRp6001
(dp6002
g65
(dp6003
g92
g93
ssg74
g5993
sg67
(lp6004
S':'
asbag60
(g81
g62
NtRp6005
(dp6006
g65
(dp6007
sg74
g5993
sg67
(lp6008
g60
(g61
g62
NtRp6009
(dp6010
g65
(dp6011
g73
I5
ssg74
g6005
sg67
(lp6012
g2473
asbasbasbag60
(g76
g62
NtRp6013
(dp6014
g65
(dp6015
sg74
g4945
sg67
(lp6016
g60
(g81
g62
NtRp6017
(dp6018
g65
(dp6019
g85
g86
ssg74
g6013
sg67
(lp6020
S'view'
p6021
asbag60
(g81
g62
NtRp6022
(dp6023
g65
(dp6024
g92
g93
ssg74
g6013
sg67
(lp6025
S':'
asbag60
(g81
g62
NtRp6026
(dp6027
g65
(dp6028
sg74
g6013
sg67
(lp6029
g60
(g61
g62
NtRp6030
(dp6031
g65
(dp6032
g73
I5
ssg74
g6026
sg67
(lp6033
S'appadmin.html'
p6034
asbasbasbasbasbsS'locals'
p6035
(dp6036
S'query'
p6037
S'"INSERT INTO bug_status(status_label) VALUES (\'confirmed\');"'
p6038
sS'self'
p6039
S'<gluon.dal.SQLiteAdapter object>'
p6040
sS'e'
S"OperationalError('no such table: bug_status',)"
p6041
sS'fields'
p6042
S"[(<gluon.dal.Field object>, 'confirmed')]"
p6043
sS'table'
p6044
S"<Table {'ALL': <gluon.dal.SQLALL object at 0x35c...0>, 'id': <gluon.dal.Field object at 0x35c31d0>}>"
p6045
sssS'traceback'
p6046
S'Traceback (most recent call last):\n  File "/home/ian/web2py/gluon/restricted.py", line 194, in restricted\n    exec ccode in environment\n  File "/home/ian/web2py/applications/paideia/controllers/appadmin.py", line 410, in <module>\n  File "/home/ian/web2py/gluon/globals.py", line 149, in <lambda>\n    self._caller = lambda f: f()\n  File "/home/ian/web2py/applications/paideia/controllers/appadmin.py", line 127, in insert\n    if form.accepts(request.vars, session):\n  File "/home/ian/web2py/gluon/sqlhtml.py", line 1259, in accepts\n    self.vars.id = self.table.insert(**fields)\n  File "/home/ian/web2py/gluon/dal.py", line 4976, in insert\n    return self._db._adapter.insert(self,self._listify(fields))\n  File "/home/ian/web2py/gluon/dal.py", line 886, in insert\n    raise e\nOperationalError: no such table: bug_status\n'
p6047
s.