(dp1
S'output'
p2
S''
sS'layer'
p3
S'/home/ian/web2py/applications/paideia/controllers/default.py'
p4
sS'code'
p5
S'# -*- coding: utf-8 -*-\n# this file is released under public domain and you can use without limitations\n\n#########################################################################\n## This is a samples controller\n## - index is the default action of any application\n## - user is required for authentication and authorization\n## - download is for downloading files uploaded in the db (does streaming)\n## - call exposes all registered services (none by default)\n#########################################################################\n\nimport datetime\n\ndef index():\n    """\n    example action using the internationalization operator T and flash\n    rendered by views/default/index.html or views/generic.html\n    """\n    return dict(message=T(\'Hello World\'))\n\ndef user():\n    """\n    exposes:\n    http://..../[app]/default/user/login\n    http://..../[app]/default/user/logout\n    http://..../[app]/default/user/register\n    http://..../[app]/default/user/profile\n    http://..../[app]/default/user/retrieve_password\n    http://..../[app]/default/user/change_password\n    use @auth.requires_login()\n        @auth.requires_membership(\'group name\')\n        @auth.requires_permission(\'read\',\'table name\',record_id)\n    to decorate functions that need access control\n    """\n    # create instance of paideia_stats class from models\n    s = paideia_stats(auth.user_id)\n    t = paideia_timestats(auth.user_id)\n\n    return dict(form=auth(), score_avg=s.score_avg, total_len = t.total_len, total_cat1 = t.total_cat1, total_cat2 = t.total_cat2, total_cat3 = t.total_cat3, percent_cat1 = t.percent_cat1, percent_cat2 = t.percent_cat2, percent_cat3 = t.percent_cat3, total_cat4 = t.total_cat4, percent_cat4 = t.percent_cat4)\n\ndef download():\n    """\n    allows downloading of uploaded files\n    http://..../[app]/default/download/[filename]\n    """\n    return response.download(request,db)\n\n\ndef call():\n    """\n    exposes services. for example:\n    http://..../[app]/default/call/jsonrpc\n    decorate with @services.jsonrpc the functions to expose\n    supports xml, json, xmlrpc, jsonrpc, amfrpc, rss, csv\n    """\n    return service()\n\n\n@auth.requires_signature()\ndef data():\n    """\n    http://..../[app]/default/data/tables\n    http://..../[app]/default/data/create/[table]\n    http://..../[app]/default/data/read/[table]/[id]\n    http://..../[app]/default/data/update/[table]/[id]\n    http://..../[app]/default/data/delete/[table]/[id[\n    http://..../[app]/default/data/select/[table]\n    http://..../[app]/default/data/search/[table]\n    but URLs bust be signed, i.e. linked with\n      A(\'table\',_href=URL(\'data/tables\',user_signature=True))\n    or with the signed load operator\n      LOAD(\'default\',\'data.load\',args=\'tables\',ajax=True,user_signature=True)\n    """\n    return dict(form=crud())\n\n@auth.requires_membership(role=\'administrators\')\ndef send_mail():\n    addr = db(db.auth_user.id == session.the_student).select(db.auth_user.email)\n    subj = session.mail_subject\n    msg = session.mail_message\n\n    if mail.send(to=addr, subject=subj, message=msg):\n        response.flash(\'mail sent successfully\')\n    else:\n        response.flash(\'There was a problem sending the mail.\')\n\n    return\n\n@auth.requires_membership(role=\'administrators\')\ndef bulk_cat_qs():\n    records = db(db.question_records.id > 0).select()\n    counter = 0\n    for record in records:\n        #figure out how the student is doing with this question\n        last_right = record.last_right\n        last_wrong = record.last_wrong\n        now_date = datetime.date.today()\n        right_dur = now_date-last_right\n        wrong_dur = now_date-last_wrong\n        rightWrong_dur = last_right - last_wrong\n        #categorize this question based on student\'s performance\n        if right_dur < wrong_dur:\n            if (right_dur < rightWrong_dur) and (right_dur < datetime.timedelta(days=170)):\n                if right_dur > datetime.timedelta(days=14):\n                    cat = 4\n                else:\n                    cat = 3\n            else:\n                cat = 2\n        else:\n            cat = 1\n        # update database with categorization\n        db(db.question_records.id == record.id).update(category = cat)\n        # count each record updated\n        counter += 1\n        session.debug = record.id\n\n    message = "Success. I categorized ", counter, " records."\n\n    return dict(message = message)\n\nresponse._vars=response._caller(user)\n'
p6
sS'snapshot'
p7
(dp8
S'exception'
p9
(dp10
S'__hash__'
p11
S"<method-wrapper '__hash__' of exceptions.AttributeError object>"
p12
sS'__setattr__'
p13
S"<method-wrapper '__setattr__' of exceptions.AttributeError object>"
p14
sS'__reduce_ex__'
p15
S'<built-in method __reduce_ex__ of exceptions.AttributeError object>'
p16
sS'__getslice__'
p17
S"<method-wrapper '__getslice__' of exceptions.AttributeError object>"
p18
sS'__getitem__'
p19
S"<method-wrapper '__getitem__' of exceptions.AttributeError object>"
p20
sS'__setstate__'
p21
S'<built-in method __setstate__ of exceptions.AttributeError object>'
p22
sS'args'
p23
S'("paideia_timestats instance has no attribute \'user_id\'",)'
p24
sS'__reduce__'
p25
S'<built-in method __reduce__ of exceptions.AttributeError object>'
p26
sS'__str__'
p27
S"<method-wrapper '__str__' of exceptions.AttributeError object>"
p28
sS'__format__'
p29
S'<built-in method __format__ of exceptions.AttributeError object>'
p30
sS'__getattribute__'
p31
S"<method-wrapper '__getattribute__' of exceptions.AttributeError object>"
p32
sS'__class__'
p33
S"<type 'exceptions.AttributeError'>"
p34
sS'__unicode__'
p35
S'<built-in method __unicode__ of exceptions.AttributeError object>'
p36
sS'__delattr__'
p37
S"<method-wrapper '__delattr__' of exceptions.AttributeError object>"
p38
sS'__subclasshook__'
p39
S'<built-in method __subclasshook__ of type object>'
p40
sS'__repr__'
p41
S"<method-wrapper '__repr__' of exceptions.AttributeError object>"
p42
sS'__dict__'
p43
S'{}'
p44
sS'__sizeof__'
p45
S'<built-in method __sizeof__ of exceptions.AttributeError object>'
p46
sS'__doc__'
p47
S"'Attribute not found.'"
p48
sS'__init__'
p49
S"<method-wrapper '__init__' of exceptions.AttributeError object>"
p50
sS'__new__'
p51
S'<built-in method __new__ of type object>'
p52
ssS'evalue'
p53
S"paideia_timestats instance has no attribute 'user_id'"
p54
sS'request'
p55
ccopy_reg
_reconstructor
p56
(cgluon.html
BEAUTIFY
p57
c__builtin__
object
p58
NtRp59
(dp60
S'attributes'
p61
(dp62
sS'components'
p63
(lp64
g56
(cgluon.html
TABLE
p65
g58
NtRp66
(dp67
g61
(dp68
S'level'
p69
I5
ssS'parent'
p70
Nsg63
(lp71
g56
(cgluon.html
TR
p72
g58
NtRp73
(dp74
g61
(dp75
sg70
g66
sg63
(lp76
g56
(cgluon.html
TD
p77
g58
NtRp78
(dp79
g61
(dp80
S'_style'
p81
S'font-weight:bold;'
p82
ssg70
g73
sg63
(lp83
S'ajax'
p84
asbag56
(g77
g58
NtRp85
(dp86
g61
(dp87
S'_valign'
p88
S'top'
p89
ssg70
g73
sg63
(lp90
S':'
asbag56
(g77
g58
NtRp91
(dp92
g61
(dp93
sg70
g73
sg63
(lp94
g56
(g57
g58
NtRp95
(dp96
g61
(dp97
g69
I5
ssg70
g91
sg63
(lp98
S'False'
p99
asbasbasbag56
(g72
g58
NtRp100
(dp101
g61
(dp102
sg70
g66
sg63
(lp103
g56
(g77
g58
NtRp104
(dp105
g61
(dp106
g81
g82
ssg70
g100
sg63
(lp107
S'application'
p108
asbag56
(g77
g58
NtRp109
(dp110
g61
(dp111
g88
g89
ssg70
g100
sg63
(lp112
S':'
asbag56
(g77
g58
NtRp113
(dp114
g61
(dp115
sg70
g100
sg63
(lp116
g56
(g57
g58
NtRp117
(dp118
g61
(dp119
g69
I5
ssg70
g113
sg63
(lp120
S'paideia'
p121
asbasbasbag56
(g72
g58
NtRp122
(dp123
g61
(dp124
sg70
g66
sg63
(lp125
g56
(g77
g58
NtRp126
(dp127
g61
(dp128
g81
g82
ssg70
g122
sg63
(lp129
g23
asbag56
(g77
g58
NtRp130
(dp131
g61
(dp132
g88
g89
ssg70
g122
sg63
(lp133
S':'
asbag56
(g77
g58
NtRp134
(dp135
g61
(dp136
sg70
g122
sg63
(lp137
g56
(g57
g58
NtRp138
(dp139
g61
(dp140
g69
I5
ssg70
g134
sg63
(lp141
g56
(g65
g58
NtRp142
(dp143
g61
(dp144
g69
I4
ssg70
Nsg63
(lp145
g56
(g72
g58
NtRp146
(dp147
g61
(dp148
sg70
g142
sg63
(lp149
g56
(g77
g58
NtRp150
(dp151
g61
(dp152
sg70
g146
sg63
(lp153
g56
(g57
g58
NtRp154
(dp155
g61
(dp156
g69
I4
ssg70
g150
sg63
(lp157
S'login'
p158
asbasbasbasbasbasbasbag56
(g72
g58
NtRp159
(dp160
g61
(dp161
sg70
g66
sg63
(lp162
g56
(g77
g58
NtRp163
(dp164
g61
(dp165
g81
g82
ssg70
g159
sg63
(lp166
S'body'
p167
asbag56
(g77
g58
NtRp168
(dp169
g61
(dp170
g88
g89
ssg70
g159
sg63
(lp171
S':'
asbag56
(g77
g58
NtRp172
(dp173
g61
(dp174
sg70
g159
sg63
(lp175
g56
(g57
g58
NtRp176
(dp177
g61
(dp178
g69
I5
ssg70
g172
sg63
(lp179
S'<cStringIO.StringO object at 0x7f32e01a7650>'
p180
asbasbasbag56
(g72
g58
NtRp181
(dp182
g61
(dp183
sg70
g66
sg63
(lp184
g56
(g77
g58
NtRp185
(dp186
g61
(dp187
g81
g82
ssg70
g181
sg63
(lp188
S'client'
p189
asbag56
(g77
g58
NtRp190
(dp191
g61
(dp192
g88
g89
ssg70
g181
sg63
(lp193
S':'
asbag56
(g77
g58
NtRp194
(dp195
g61
(dp196
sg70
g181
sg63
(lp197
g56
(g57
g58
NtRp198
(dp199
g61
(dp200
g69
I5
ssg70
g194
sg63
(lp201
S'127.0.0.1'
p202
asbasbasbag56
(g72
g58
NtRp203
(dp204
g61
(dp205
sg70
g66
sg63
(lp206
g56
(g77
g58
NtRp207
(dp208
g61
(dp209
g81
g82
ssg70
g203
sg63
(lp210
S'controller'
p211
asbag56
(g77
g58
NtRp212
(dp213
g61
(dp214
g88
g89
ssg70
g203
sg63
(lp215
S':'
asbag56
(g77
g58
NtRp216
(dp217
g61
(dp218
sg70
g203
sg63
(lp219
g56
(g57
g58
NtRp220
(dp221
g61
(dp222
g69
I5
ssg70
g216
sg63
(lp223
S'default'
p224
asbasbasbag56
(g72
g58
NtRp225
(dp226
g61
(dp227
sg70
g66
sg63
(lp228
g56
(g77
g58
NtRp229
(dp230
g61
(dp231
g81
g82
ssg70
g225
sg63
(lp232
S'cookies'
p233
asbag56
(g77
g58
NtRp234
(dp235
g61
(dp236
g88
g89
ssg70
g225
sg63
(lp237
S':'
asbag56
(g77
g58
NtRp238
(dp239
g61
(dp240
sg70
g225
sg63
(lp241
g56
(g57
g58
NtRp242
(dp243
g61
(dp244
g69
I5
ssg70
g238
sg63
(lp245
g56
(g65
g58
NtRp246
(dp247
g61
(dp248
g69
I4
ssg70
Nsg63
(lp249
g56
(g72
g58
NtRp250
(dp251
g61
(dp252
sg70
g246
sg63
(lp253
g56
(g77
g58
NtRp254
(dp255
g61
(dp256
g81
g82
ssg70
g250
sg63
(lp257
S'session_id_admin'
p258
asbag56
(g77
g58
NtRp259
(dp260
g61
(dp261
g88
g89
ssg70
g250
sg63
(lp262
S':'
asbag56
(g77
g58
NtRp263
(dp264
g61
(dp265
sg70
g250
sg63
(lp266
g56
(g57
g58
NtRp267
(dp268
g61
(dp269
g69
I4
ssg70
g263
sg63
(lp270
g56
(g65
g58
NtRp271
(dp272
g61
(dp273
g69
I3
ssg70
Nsg63
(lp274
g56
(g72
g58
NtRp275
(dp276
g61
(dp277
sg70
g271
sg63
(lp278
g56
(g77
g58
NtRp279
(dp280
g61
(dp281
g81
g82
ssg70
g275
sg63
(lp282
S'comment'
p283
asbag56
(g77
g58
NtRp284
(dp285
g61
(dp286
g88
g89
ssg70
g275
sg63
(lp287
S':'
asbag56
(g77
g58
NtRp288
(dp289
g61
(dp290
sg70
g275
sg63
(lp291
g56
(g57
g58
NtRp292
(dp293
g61
(dp294
g69
I3
ssg70
g288
sg63
(lp295
S''
asbasbasbag56
(g72
g58
NtRp296
(dp297
g61
(dp298
sg70
g271
sg63
(lp299
g56
(g77
g58
NtRp300
(dp301
g61
(dp302
g81
g82
ssg70
g296
sg63
(lp303
S'domain'
p304
asbag56
(g77
g58
NtRp305
(dp306
g61
(dp307
g88
g89
ssg70
g296
sg63
(lp308
S':'
asbag56
(g77
g58
NtRp309
(dp310
g61
(dp311
sg70
g296
sg63
(lp312
g56
(g57
g58
NtRp313
(dp314
g61
(dp315
g69
I3
ssg70
g309
sg63
(lp316
S''
asbasbasbag56
(g72
g58
NtRp317
(dp318
g61
(dp319
sg70
g271
sg63
(lp320
g56
(g77
g58
NtRp321
(dp322
g61
(dp323
g81
g82
ssg70
g317
sg63
(lp324
S'expires'
p325
asbag56
(g77
g58
NtRp326
(dp327
g61
(dp328
g88
g89
ssg70
g317
sg63
(lp329
S':'
asbag56
(g77
g58
NtRp330
(dp331
g61
(dp332
sg70
g317
sg63
(lp333
g56
(g57
g58
NtRp334
(dp335
g61
(dp336
g69
I3
ssg70
g330
sg63
(lp337
S''
asbasbasbag56
(g72
g58
NtRp338
(dp339
g61
(dp340
sg70
g271
sg63
(lp341
g56
(g77
g58
NtRp342
(dp343
g61
(dp344
g81
g82
ssg70
g338
sg63
(lp345
S'httponly'
p346
asbag56
(g77
g58
NtRp347
(dp348
g61
(dp349
g88
g89
ssg70
g338
sg63
(lp350
S':'
asbag56
(g77
g58
NtRp351
(dp352
g61
(dp353
sg70
g338
sg63
(lp354
g56
(g57
g58
NtRp355
(dp356
g61
(dp357
g69
I3
ssg70
g351
sg63
(lp358
S''
asbasbasbag56
(g72
g58
NtRp359
(dp360
g61
(dp361
sg70
g271
sg63
(lp362
g56
(g77
g58
NtRp363
(dp364
g61
(dp365
g81
g82
ssg70
g359
sg63
(lp366
S'max-age'
p367
asbag56
(g77
g58
NtRp368
(dp369
g61
(dp370
g88
g89
ssg70
g359
sg63
(lp371
S':'
asbag56
(g77
g58
NtRp372
(dp373
g61
(dp374
sg70
g359
sg63
(lp375
g56
(g57
g58
NtRp376
(dp377
g61
(dp378
g69
I3
ssg70
g372
sg63
(lp379
S''
asbasbasbag56
(g72
g58
NtRp380
(dp381
g61
(dp382
sg70
g271
sg63
(lp383
g56
(g77
g58
NtRp384
(dp385
g61
(dp386
g81
g82
ssg70
g380
sg63
(lp387
S'path'
p388
asbag56
(g77
g58
NtRp389
(dp390
g61
(dp391
g88
g89
ssg70
g380
sg63
(lp392
S':'
asbag56
(g77
g58
NtRp393
(dp394
g61
(dp395
sg70
g380
sg63
(lp396
g56
(g57
g58
NtRp397
(dp398
g61
(dp399
g69
I3
ssg70
g393
sg63
(lp400
S''
asbasbasbag56
(g72
g58
NtRp401
(dp402
g61
(dp403
sg70
g271
sg63
(lp404
g56
(g77
g58
NtRp405
(dp406
g61
(dp407
g81
g82
ssg70
g401
sg63
(lp408
S'secure'
p409
asbag56
(g77
g58
NtRp410
(dp411
g61
(dp412
g88
g89
ssg70
g401
sg63
(lp413
S':'
asbag56
(g77
g58
NtRp414
(dp415
g61
(dp416
sg70
g401
sg63
(lp417
g56
(g57
g58
NtRp418
(dp419
g61
(dp420
g69
I3
ssg70
g414
sg63
(lp421
S''
asbasbasbag56
(g72
g58
NtRp422
(dp423
g61
(dp424
sg70
g271
sg63
(lp425
g56
(g77
g58
NtRp426
(dp427
g61
(dp428
g81
g82
ssg70
g422
sg63
(lp429
S'version'
p430
asbag56
(g77
g58
NtRp431
(dp432
g61
(dp433
g88
g89
ssg70
g422
sg63
(lp434
S':'
asbag56
(g77
g58
NtRp435
(dp436
g61
(dp437
sg70
g422
sg63
(lp438
g56
(g57
g58
NtRp439
(dp440
g61
(dp441
g69
I3
ssg70
g435
sg63
(lp442
S''
asbasbasbasbasbasbasbag56
(g72
g58
NtRp443
(dp444
g61
(dp445
sg70
g246
sg63
(lp446
g56
(g77
g58
NtRp447
(dp448
g61
(dp449
g81
g82
ssg70
g443
sg63
(lp450
S'session_id_paideia'
p451
asbag56
(g77
g58
NtRp452
(dp453
g61
(dp454
g88
g89
ssg70
g443
sg63
(lp455
S':'
asbag56
(g77
g58
NtRp456
(dp457
g61
(dp458
sg70
g443
sg63
(lp459
g56
(g57
g58
NtRp460
(dp461
g61
(dp462
g69
I4
ssg70
g456
sg63
(lp463
g56
(g65
g58
NtRp464
(dp465
g61
(dp466
g69
I3
ssg70
Nsg63
(lp467
g56
(g72
g58
NtRp468
(dp469
g61
(dp470
sg70
g464
sg63
(lp471
g56
(g77
g58
NtRp472
(dp473
g61
(dp474
g81
g82
ssg70
g468
sg63
(lp475
g283
asbag56
(g77
g58
NtRp476
(dp477
g61
(dp478
g88
g89
ssg70
g468
sg63
(lp479
S':'
asbag56
(g77
g58
NtRp480
(dp481
g61
(dp482
sg70
g468
sg63
(lp483
g56
(g57
g58
NtRp484
(dp485
g61
(dp486
g69
I3
ssg70
g480
sg63
(lp487
S''
asbasbasbag56
(g72
g58
NtRp488
(dp489
g61
(dp490
sg70
g464
sg63
(lp491
g56
(g77
g58
NtRp492
(dp493
g61
(dp494
g81
g82
ssg70
g488
sg63
(lp495
g304
asbag56
(g77
g58
NtRp496
(dp497
g61
(dp498
g88
g89
ssg70
g488
sg63
(lp499
S':'
asbag56
(g77
g58
NtRp500
(dp501
g61
(dp502
sg70
g488
sg63
(lp503
g56
(g57
g58
NtRp504
(dp505
g61
(dp506
g69
I3
ssg70
g500
sg63
(lp507
S''
asbasbasbag56
(g72
g58
NtRp508
(dp509
g61
(dp510
sg70
g464
sg63
(lp511
g56
(g77
g58
NtRp512
(dp513
g61
(dp514
g81
g82
ssg70
g508
sg63
(lp515
g325
asbag56
(g77
g58
NtRp516
(dp517
g61
(dp518
g88
g89
ssg70
g508
sg63
(lp519
S':'
asbag56
(g77
g58
NtRp520
(dp521
g61
(dp522
sg70
g508
sg63
(lp523
g56
(g57
g58
NtRp524
(dp525
g61
(dp526
g69
I3
ssg70
g520
sg63
(lp527
S''
asbasbasbag56
(g72
g58
NtRp528
(dp529
g61
(dp530
sg70
g464
sg63
(lp531
g56
(g77
g58
NtRp532
(dp533
g61
(dp534
g81
g82
ssg70
g528
sg63
(lp535
g346
asbag56
(g77
g58
NtRp536
(dp537
g61
(dp538
g88
g89
ssg70
g528
sg63
(lp539
S':'
asbag56
(g77
g58
NtRp540
(dp541
g61
(dp542
sg70
g528
sg63
(lp543
g56
(g57
g58
NtRp544
(dp545
g61
(dp546
g69
I3
ssg70
g540
sg63
(lp547
S''
asbasbasbag56
(g72
g58
NtRp548
(dp549
g61
(dp550
sg70
g464
sg63
(lp551
g56
(g77
g58
NtRp552
(dp553
g61
(dp554
g81
g82
ssg70
g548
sg63
(lp555
g367
asbag56
(g77
g58
NtRp556
(dp557
g61
(dp558
g88
g89
ssg70
g548
sg63
(lp559
S':'
asbag56
(g77
g58
NtRp560
(dp561
g61
(dp562
sg70
g548
sg63
(lp563
g56
(g57
g58
NtRp564
(dp565
g61
(dp566
g69
I3
ssg70
g560
sg63
(lp567
S''
asbasbasbag56
(g72
g58
NtRp568
(dp569
g61
(dp570
sg70
g464
sg63
(lp571
g56
(g77
g58
NtRp572
(dp573
g61
(dp574
g81
g82
ssg70
g568
sg63
(lp575
g388
asbag56
(g77
g58
NtRp576
(dp577
g61
(dp578
g88
g89
ssg70
g568
sg63
(lp579
S':'
asbag56
(g77
g58
NtRp580
(dp581
g61
(dp582
sg70
g568
sg63
(lp583
g56
(g57
g58
NtRp584
(dp585
g61
(dp586
g69
I3
ssg70
g580
sg63
(lp587
S''
asbasbasbag56
(g72
g58
NtRp588
(dp589
g61
(dp590
sg70
g464
sg63
(lp591
g56
(g77
g58
NtRp592
(dp593
g61
(dp594
g81
g82
ssg70
g588
sg63
(lp595
g409
asbag56
(g77
g58
NtRp596
(dp597
g61
(dp598
g88
g89
ssg70
g588
sg63
(lp599
S':'
asbag56
(g77
g58
NtRp600
(dp601
g61
(dp602
sg70
g588
sg63
(lp603
g56
(g57
g58
NtRp604
(dp605
g61
(dp606
g69
I3
ssg70
g600
sg63
(lp607
S''
asbasbasbag56
(g72
g58
NtRp608
(dp609
g61
(dp610
sg70
g464
sg63
(lp611
g56
(g77
g58
NtRp612
(dp613
g61
(dp614
g81
g82
ssg70
g608
sg63
(lp615
g430
asbag56
(g77
g58
NtRp616
(dp617
g61
(dp618
g88
g89
ssg70
g608
sg63
(lp619
S':'
asbag56
(g77
g58
NtRp620
(dp621
g61
(dp622
sg70
g608
sg63
(lp623
g56
(g57
g58
NtRp624
(dp625
g61
(dp626
g69
I3
ssg70
g620
sg63
(lp627
S''
asbasbasbasbasbasbasbag56
(g72
g58
NtRp628
(dp629
g61
(dp630
sg70
g246
sg63
(lp631
g56
(g77
g58
NtRp632
(dp633
g61
(dp634
g81
g82
ssg70
g628
sg63
(lp635
S'session_id_welcome'
p636
asbag56
(g77
g58
NtRp637
(dp638
g61
(dp639
g88
g89
ssg70
g628
sg63
(lp640
S':'
asbag56
(g77
g58
NtRp641
(dp642
g61
(dp643
sg70
g628
sg63
(lp644
g56
(g57
g58
NtRp645
(dp646
g61
(dp647
g69
I4
ssg70
g641
sg63
(lp648
g56
(g65
g58
NtRp649
(dp650
g61
(dp651
g69
I3
ssg70
Nsg63
(lp652
g56
(g72
g58
NtRp653
(dp654
g61
(dp655
sg70
g649
sg63
(lp656
g56
(g77
g58
NtRp657
(dp658
g61
(dp659
g81
g82
ssg70
g653
sg63
(lp660
g283
asbag56
(g77
g58
NtRp661
(dp662
g61
(dp663
g88
g89
ssg70
g653
sg63
(lp664
S':'
asbag56
(g77
g58
NtRp665
(dp666
g61
(dp667
sg70
g653
sg63
(lp668
g56
(g57
g58
NtRp669
(dp670
g61
(dp671
g69
I3
ssg70
g665
sg63
(lp672
S''
asbasbasbag56
(g72
g58
NtRp673
(dp674
g61
(dp675
sg70
g649
sg63
(lp676
g56
(g77
g58
NtRp677
(dp678
g61
(dp679
g81
g82
ssg70
g673
sg63
(lp680
g304
asbag56
(g77
g58
NtRp681
(dp682
g61
(dp683
g88
g89
ssg70
g673
sg63
(lp684
S':'
asbag56
(g77
g58
NtRp685
(dp686
g61
(dp687
sg70
g673
sg63
(lp688
g56
(g57
g58
NtRp689
(dp690
g61
(dp691
g69
I3
ssg70
g685
sg63
(lp692
S''
asbasbasbag56
(g72
g58
NtRp693
(dp694
g61
(dp695
sg70
g649
sg63
(lp696
g56
(g77
g58
NtRp697
(dp698
g61
(dp699
g81
g82
ssg70
g693
sg63
(lp700
g325
asbag56
(g77
g58
NtRp701
(dp702
g61
(dp703
g88
g89
ssg70
g693
sg63
(lp704
S':'
asbag56
(g77
g58
NtRp705
(dp706
g61
(dp707
sg70
g693
sg63
(lp708
g56
(g57
g58
NtRp709
(dp710
g61
(dp711
g69
I3
ssg70
g705
sg63
(lp712
S''
asbasbasbag56
(g72
g58
NtRp713
(dp714
g61
(dp715
sg70
g649
sg63
(lp716
g56
(g77
g58
NtRp717
(dp718
g61
(dp719
g81
g82
ssg70
g713
sg63
(lp720
g346
asbag56
(g77
g58
NtRp721
(dp722
g61
(dp723
g88
g89
ssg70
g713
sg63
(lp724
S':'
asbag56
(g77
g58
NtRp725
(dp726
g61
(dp727
sg70
g713
sg63
(lp728
g56
(g57
g58
NtRp729
(dp730
g61
(dp731
g69
I3
ssg70
g725
sg63
(lp732
S''
asbasbasbag56
(g72
g58
NtRp733
(dp734
g61
(dp735
sg70
g649
sg63
(lp736
g56
(g77
g58
NtRp737
(dp738
g61
(dp739
g81
g82
ssg70
g733
sg63
(lp740
g367
asbag56
(g77
g58
NtRp741
(dp742
g61
(dp743
g88
g89
ssg70
g733
sg63
(lp744
S':'
asbag56
(g77
g58
NtRp745
(dp746
g61
(dp747
sg70
g733
sg63
(lp748
g56
(g57
g58
NtRp749
(dp750
g61
(dp751
g69
I3
ssg70
g745
sg63
(lp752
S''
asbasbasbag56
(g72
g58
NtRp753
(dp754
g61
(dp755
sg70
g649
sg63
(lp756
g56
(g77
g58
NtRp757
(dp758
g61
(dp759
g81
g82
ssg70
g753
sg63
(lp760
g388
asbag56
(g77
g58
NtRp761
(dp762
g61
(dp763
g88
g89
ssg70
g753
sg63
(lp764
S':'
asbag56
(g77
g58
NtRp765
(dp766
g61
(dp767
sg70
g753
sg63
(lp768
g56
(g57
g58
NtRp769
(dp770
g61
(dp771
g69
I3
ssg70
g765
sg63
(lp772
S''
asbasbasbag56
(g72
g58
NtRp773
(dp774
g61
(dp775
sg70
g649
sg63
(lp776
g56
(g77
g58
NtRp777
(dp778
g61
(dp779
g81
g82
ssg70
g773
sg63
(lp780
g409
asbag56
(g77
g58
NtRp781
(dp782
g61
(dp783
g88
g89
ssg70
g773
sg63
(lp784
S':'
asbag56
(g77
g58
NtRp785
(dp786
g61
(dp787
sg70
g773
sg63
(lp788
g56
(g57
g58
NtRp789
(dp790
g61
(dp791
g69
I3
ssg70
g785
sg63
(lp792
S''
asbasbasbag56
(g72
g58
NtRp793
(dp794
g61
(dp795
sg70
g649
sg63
(lp796
g56
(g77
g58
NtRp797
(dp798
g61
(dp799
g81
g82
ssg70
g793
sg63
(lp800
g430
asbag56
(g77
g58
NtRp801
(dp802
g61
(dp803
g88
g89
ssg70
g793
sg63
(lp804
S':'
asbag56
(g77
g58
NtRp805
(dp806
g61
(dp807
sg70
g793
sg63
(lp808
g56
(g57
g58
NtRp809
(dp810
g61
(dp811
g69
I3
ssg70
g805
sg63
(lp812
S''
asbasbasbasbasbasbasbasbasbasbasbag56
(g72
g58
NtRp813
(dp814
g61
(dp815
sg70
g66
sg63
(lp816
g56
(g77
g58
NtRp817
(dp818
g61
(dp819
g81
g82
ssg70
g813
sg63
(lp820
S'env'
p821
asbag56
(g77
g58
NtRp822
(dp823
g61
(dp824
g88
g89
ssg70
g813
sg63
(lp825
S':'
asbag56
(g77
g58
NtRp826
(dp827
g61
(dp828
sg70
g813
sg63
(lp829
g56
(g57
g58
NtRp830
(dp831
g61
(dp832
g69
I5
ssg70
g826
sg63
(lp833
g56
(g65
g58
NtRp834
(dp835
g61
(dp836
g69
I4
ssg70
Nsg63
(lp837
g56
(g72
g58
NtRp838
(dp839
g61
(dp840
sg70
g834
sg63
(lp841
g56
(g77
g58
NtRp842
(dp843
g61
(dp844
g81
g82
ssg70
g838
sg63
(lp845
S'app_folders'
p846
asbag56
(g77
g58
NtRp847
(dp848
g61
(dp849
g88
g89
ssg70
g838
sg63
(lp850
S':'
asbag56
(g77
g58
NtRp851
(dp852
g61
(dp853
sg70
g838
sg63
(lp854
g56
(g57
g58
NtRp855
(dp856
g61
(dp857
g69
I4
ssg70
g851
sg63
(lp858
S"set(['/home/ian/web2py/applications/welcome/', '/home/ian/web2py/applications/paideia/', '/home/ian/web2py/applications/admin/'])"
p859
asbasbasbag56
(g72
g58
NtRp860
(dp861
g61
(dp862
sg70
g834
sg63
(lp863
g56
(g77
g58
NtRp864
(dp865
g61
(dp866
g81
g82
ssg70
g860
sg63
(lp867
S'applications_parent'
p868
asbag56
(g77
g58
NtRp869
(dp870
g61
(dp871
g88
g89
ssg70
g860
sg63
(lp872
S':'
asbag56
(g77
g58
NtRp873
(dp874
g61
(dp875
sg70
g860
sg63
(lp876
g56
(g57
g58
NtRp877
(dp878
g61
(dp879
g69
I4
ssg70
g873
sg63
(lp880
S'/home/ian/web2py'
p881
asbasbasbag56
(g72
g58
NtRp882
(dp883
g61
(dp884
sg70
g834
sg63
(lp885
g56
(g77
g58
NtRp886
(dp887
g61
(dp888
g81
g82
ssg70
g882
sg63
(lp889
S'cmd_args'
p890
asbag56
(g77
g58
NtRp891
(dp892
g61
(dp893
g88
g89
ssg70
g882
sg63
(lp894
S':'
asbag56
(g77
g58
NtRp895
(dp896
g61
(dp897
sg70
g882
sg63
(lp898
g56
(g57
g58
NtRp899
(dp900
g61
(dp901
g69
I4
ssg70
g895
sg63
(lp902
g56
(g65
g58
NtRp903
(dp904
g61
(dp905
g69
I3
ssg70
Nsg63
(lp906
sbasbasbasbag56
(g72
g58
NtRp907
(dp908
g61
(dp909
sg70
g834
sg63
(lp910
g56
(g77
g58
NtRp911
(dp912
g61
(dp913
g81
g82
ssg70
g907
sg63
(lp914
S'cmd_options'
p915
asbag56
(g77
g58
NtRp916
(dp917
g61
(dp918
g88
g89
ssg70
g907
sg63
(lp919
S':'
asbag56
(g77
g58
NtRp920
(dp921
g61
(dp922
sg70
g907
sg63
(lp923
g56
(g57
g58
NtRp924
(dp925
g61
(dp926
g69
I4
ssg70
g920
sg63
(lp927
S"<Values at 0x14ac7e8: {'verbose': False, 'ip': '127.0.0.1', 'shutdown_timeout': 5, 'taskbar': False, 'nocron': False, 'pid_filename': 'httpserver.pid', 'maxthreads': None, 'softcron': False, 'server_name': 'Ariel-ubuntu', 'bpython': False, 'nogui': False, 'port': 8000, 'extcron': False, 'debuglevel': 30, 'test': None, 'folder': '/home/ian/web2py', 'config': '', 'import_models': False, 'winservice': '', 'shell': None, 'run': '', 'log_filename': 'httpserver.log', 'args': [''], 'ssl_ca_certificate': None, 'scheduler': None, 'profiler_filename': None, 'ssl_private_key': '', 'password': '<ask>', 'request_queue_size': 5, 'ssl_certificate': '', 'cronjob': False, 'plain': False, 'quiet': False, 'interfaces': None, 'minthreads': None, 'timeout': 10, 'numthreads': None, 'nobanner': False}>"
p928
asbasbasbag56
(g72
g58
NtRp929
(dp930
g61
(dp931
sg70
g834
sg63
(lp932
g56
(g77
g58
NtRp933
(dp934
g61
(dp935
g81
g82
ssg70
g929
sg63
(lp936
S'db_sessions'
p937
asbag56
(g77
g58
NtRp938
(dp939
g61
(dp940
g88
g89
ssg70
g929
sg63
(lp941
S':'
asbag56
(g77
g58
NtRp942
(dp943
g61
(dp944
sg70
g929
sg63
(lp945
g56
(g57
g58
NtRp946
(dp947
g61
(dp948
g69
I4
ssg70
g942
sg63
(lp949
S'set([])'
p950
asbasbasbag56
(g72
g58
NtRp951
(dp952
g61
(dp953
sg70
g834
sg63
(lp954
g56
(g77
g58
NtRp955
(dp956
g61
(dp957
g81
g82
ssg70
g951
sg63
(lp958
S'debugging'
p959
asbag56
(g77
g58
NtRp960
(dp961
g61
(dp962
g88
g89
ssg70
g951
sg63
(lp963
S':'
asbag56
(g77
g58
NtRp964
(dp965
g61
(dp966
sg70
g951
sg63
(lp967
g56
(g57
g58
NtRp968
(dp969
g61
(dp970
g69
I4
ssg70
g964
sg63
(lp971
g99
asbasbasbag56
(g72
g58
NtRp972
(dp973
g61
(dp974
sg70
g834
sg63
(lp975
g56
(g77
g58
NtRp976
(dp977
g61
(dp978
g81
g82
ssg70
g972
sg63
(lp979
S'gluon_parent'
p980
asbag56
(g77
g58
NtRp981
(dp982
g61
(dp983
g88
g89
ssg70
g972
sg63
(lp984
S':'
asbag56
(g77
g58
NtRp985
(dp986
g61
(dp987
sg70
g972
sg63
(lp988
g56
(g57
g58
NtRp989
(dp990
g61
(dp991
g69
I4
ssg70
g985
sg63
(lp992
S'/home/ian/web2py'
p993
asbasbasbag56
(g72
g58
NtRp994
(dp995
g61
(dp996
sg70
g834
sg63
(lp997
g56
(g77
g58
NtRp998
(dp999
g61
(dp1000
g81
g82
ssg70
g994
sg63
(lp1001
S'http_accept'
p1002
asbag56
(g77
g58
NtRp1003
(dp1004
g61
(dp1005
g88
g89
ssg70
g994
sg63
(lp1006
S':'
asbag56
(g77
g58
NtRp1007
(dp1008
g61
(dp1009
sg70
g994
sg63
(lp1010
g56
(g57
g58
NtRp1011
(dp1012
g61
(dp1013
g69
I4
ssg70
g1007
sg63
(lp1014
S'text/html,application/xhtml+xml,application/xml;q=0.9,*/*;q=0.8'
p1015
asbasbasbag56
(g72
g58
NtRp1016
(dp1017
g61
(dp1018
sg70
g834
sg63
(lp1019
g56
(g77
g58
NtRp1020
(dp1021
g61
(dp1022
g81
g82
ssg70
g1016
sg63
(lp1023
S'http_accept_encoding'
p1024
asbag56
(g77
g58
NtRp1025
(dp1026
g61
(dp1027
g88
g89
ssg70
g1016
sg63
(lp1028
S':'
asbag56
(g77
g58
NtRp1029
(dp1030
g61
(dp1031
sg70
g1016
sg63
(lp1032
g56
(g57
g58
NtRp1033
(dp1034
g61
(dp1035
g69
I4
ssg70
g1029
sg63
(lp1036
S'gzip, deflate'
p1037
asbasbasbag56
(g72
g58
NtRp1038
(dp1039
g61
(dp1040
sg70
g834
sg63
(lp1041
g56
(g77
g58
NtRp1042
(dp1043
g61
(dp1044
g81
g82
ssg70
g1038
sg63
(lp1045
S'http_accept_language'
p1046
asbag56
(g77
g58
NtRp1047
(dp1048
g61
(dp1049
g88
g89
ssg70
g1038
sg63
(lp1050
S':'
asbag56
(g77
g58
NtRp1051
(dp1052
g61
(dp1053
sg70
g1038
sg63
(lp1054
g56
(g57
g58
NtRp1055
(dp1056
g61
(dp1057
g69
I4
ssg70
g1051
sg63
(lp1058
S'en-us,en;q=0.5'
p1059
asbasbasbag56
(g72
g58
NtRp1060
(dp1061
g61
(dp1062
sg70
g834
sg63
(lp1063
g56
(g77
g58
NtRp1064
(dp1065
g61
(dp1066
g81
g82
ssg70
g1060
sg63
(lp1067
S'http_cache_control'
p1068
asbag56
(g77
g58
NtRp1069
(dp1070
g61
(dp1071
g88
g89
ssg70
g1060
sg63
(lp1072
S':'
asbag56
(g77
g58
NtRp1073
(dp1074
g61
(dp1075
sg70
g1060
sg63
(lp1076
g56
(g57
g58
NtRp1077
(dp1078
g61
(dp1079
g69
I4
ssg70
g1073
sg63
(lp1080
S'max-age=0'
p1081
asbasbasbag56
(g72
g58
NtRp1082
(dp1083
g61
(dp1084
sg70
g834
sg63
(lp1085
g56
(g77
g58
NtRp1086
(dp1087
g61
(dp1088
g81
g82
ssg70
g1082
sg63
(lp1089
S'http_connection'
p1090
asbag56
(g77
g58
NtRp1091
(dp1092
g61
(dp1093
g88
g89
ssg70
g1082
sg63
(lp1094
S':'
asbag56
(g77
g58
NtRp1095
(dp1096
g61
(dp1097
sg70
g1082
sg63
(lp1098
g56
(g57
g58
NtRp1099
(dp1100
g61
(dp1101
g69
I4
ssg70
g1095
sg63
(lp1102
S'keep-alive'
p1103
asbasbasbag56
(g72
g58
NtRp1104
(dp1105
g61
(dp1106
sg70
g834
sg63
(lp1107
g56
(g77
g58
NtRp1108
(dp1109
g61
(dp1110
g81
g82
ssg70
g1104
sg63
(lp1111
S'http_cookie'
p1112
asbag56
(g77
g58
NtRp1113
(dp1114
g61
(dp1115
g88
g89
ssg70
g1104
sg63
(lp1116
S':'
asbag56
(g77
g58
NtRp1117
(dp1118
g61
(dp1119
sg70
g1104
sg63
(lp1120
g56
(g57
g58
NtRp1121
(dp1122
g61
(dp1123
g69
I4
ssg70
g1117
sg63
(lp1124
S'session_id_paideia=127.0.0.1-6d053dbd-b7b3-47b4-8e6e-379eeae268fd; session_id_admin=127.0.0.1-392fac91-b1ef-4f8f-ae90-a878e2ad8975; session_id_welcome=127.0.0.1-8df04714-0c67-401e-a667-3cbc995c87e1'
p1125
asbasbasbag56
(g72
g58
NtRp1126
(dp1127
g61
(dp1128
sg70
g834
sg63
(lp1129
g56
(g77
g58
NtRp1130
(dp1131
g61
(dp1132
g81
g82
ssg70
g1126
sg63
(lp1133
S'http_host'
p1134
asbag56
(g77
g58
NtRp1135
(dp1136
g61
(dp1137
g88
g89
ssg70
g1126
sg63
(lp1138
S':'
asbag56
(g77
g58
NtRp1139
(dp1140
g61
(dp1141
sg70
g1126
sg63
(lp1142
g56
(g57
g58
NtRp1143
(dp1144
g61
(dp1145
g69
I4
ssg70
g1139
sg63
(lp1146
S'127.0.0.1:8000'
p1147
asbasbasbag56
(g72
g58
NtRp1148
(dp1149
g61
(dp1150
sg70
g834
sg63
(lp1151
g56
(g77
g58
NtRp1152
(dp1153
g61
(dp1154
g81
g82
ssg70
g1148
sg63
(lp1155
S'http_referer'
p1156
asbag56
(g77
g58
NtRp1157
(dp1158
g61
(dp1159
g88
g89
ssg70
g1148
sg63
(lp1160
S':'
asbag56
(g77
g58
NtRp1161
(dp1162
g61
(dp1163
sg70
g1148
sg63
(lp1164
g56
(g57
g58
NtRp1165
(dp1166
g61
(dp1167
g69
I4
ssg70
g1161
sg63
(lp1168
S'http://127.0.0.1:8000/paideia'
p1169
asbasbasbag56
(g72
g58
NtRp1170
(dp1171
g61
(dp1172
sg70
g834
sg63
(lp1173
g56
(g77
g58
NtRp1174
(dp1175
g61
(dp1176
g81
g82
ssg70
g1170
sg63
(lp1177
S'http_user_agent'
p1178
asbag56
(g77
g58
NtRp1179
(dp1180
g61
(dp1181
g88
g89
ssg70
g1170
sg63
(lp1182
S':'
asbag56
(g77
g58
NtRp1183
(dp1184
g61
(dp1185
sg70
g1170
sg63
(lp1186
g56
(g57
g58
NtRp1187
(dp1188
g61
(dp1189
g69
I4
ssg70
g1183
sg63
(lp1190
S'Mozilla/5.0 (Ubuntu; X11; Linux x86_64; rv:9.0a2) Gecko/20111026 Firefox/9.0a2'
p1191
asbasbasbag56
(g72
g58
NtRp1192
(dp1193
g61
(dp1194
sg70
g834
sg63
(lp1195
g56
(g77
g58
NtRp1196
(dp1197
g61
(dp1198
g81
g82
ssg70
g1192
sg63
(lp1199
S'is_jython'
p1200
asbag56
(g77
g58
NtRp1201
(dp1202
g61
(dp1203
g88
g89
ssg70
g1192
sg63
(lp1204
S':'
asbag56
(g77
g58
NtRp1205
(dp1206
g61
(dp1207
sg70
g1192
sg63
(lp1208
g56
(g57
g58
NtRp1209
(dp1210
g61
(dp1211
g69
I4
ssg70
g1205
sg63
(lp1212
g99
asbasbasbag56
(g72
g58
NtRp1213
(dp1214
g61
(dp1215
sg70
g834
sg63
(lp1216
g56
(g77
g58
NtRp1217
(dp1218
g61
(dp1219
g81
g82
ssg70
g1213
sg63
(lp1220
S'path_info'
p1221
asbag56
(g77
g58
NtRp1222
(dp1223
g61
(dp1224
g88
g89
ssg70
g1213
sg63
(lp1225
S':'
asbag56
(g77
g58
NtRp1226
(dp1227
g61
(dp1228
sg70
g1213
sg63
(lp1229
g56
(g57
g58
NtRp1230
(dp1231
g61
(dp1232
g69
I4
ssg70
g1226
sg63
(lp1233
S'/paideia/default/user/login'
p1234
asbasbasbag56
(g72
g58
NtRp1235
(dp1236
g61
(dp1237
sg70
g834
sg63
(lp1238
g56
(g77
g58
NtRp1239
(dp1240
g61
(dp1241
g81
g82
ssg70
g1235
sg63
(lp1242
S'query_string'
p1243
asbag56
(g77
g58
NtRp1244
(dp1245
g61
(dp1246
g88
g89
ssg70
g1235
sg63
(lp1247
S':'
asbag56
(g77
g58
NtRp1248
(dp1249
g61
(dp1250
sg70
g1235
sg63
(lp1251
g56
(g57
g58
NtRp1252
(dp1253
g61
(dp1254
g69
I4
ssg70
g1248
sg63
(lp1255
S''
asbasbasbag56
(g72
g58
NtRp1256
(dp1257
g61
(dp1258
sg70
g834
sg63
(lp1259
g56
(g77
g58
NtRp1260
(dp1261
g61
(dp1262
g81
g82
ssg70
g1256
sg63
(lp1263
S'remote_addr'
p1264
asbag56
(g77
g58
NtRp1265
(dp1266
g61
(dp1267
g88
g89
ssg70
g1256
sg63
(lp1268
S':'
asbag56
(g77
g58
NtRp1269
(dp1270
g61
(dp1271
sg70
g1256
sg63
(lp1272
g56
(g57
g58
NtRp1273
(dp1274
g61
(dp1275
g69
I4
ssg70
g1269
sg63
(lp1276
g202
asbasbasbag56
(g72
g58
NtRp1277
(dp1278
g61
(dp1279
sg70
g834
sg63
(lp1280
g56
(g77
g58
NtRp1281
(dp1282
g61
(dp1283
g81
g82
ssg70
g1277
sg63
(lp1284
S'remote_port'
p1285
asbag56
(g77
g58
NtRp1286
(dp1287
g61
(dp1288
g88
g89
ssg70
g1277
sg63
(lp1289
S':'
asbag56
(g77
g58
NtRp1290
(dp1291
g61
(dp1292
sg70
g1277
sg63
(lp1293
g56
(g57
g58
NtRp1294
(dp1295
g61
(dp1296
g69
I4
ssg70
g1290
sg63
(lp1297
S'42517'
p1298
asbasbasbag56
(g72
g58
NtRp1299
(dp1300
g61
(dp1301
sg70
g834
sg63
(lp1302
g56
(g77
g58
NtRp1303
(dp1304
g61
(dp1305
g81
g82
ssg70
g1299
sg63
(lp1306
S'request_method'
p1307
asbag56
(g77
g58
NtRp1308
(dp1309
g61
(dp1310
g88
g89
ssg70
g1299
sg63
(lp1311
S':'
asbag56
(g77
g58
NtRp1312
(dp1313
g61
(dp1314
sg70
g1299
sg63
(lp1315
g56
(g57
g58
NtRp1316
(dp1317
g61
(dp1318
g69
I4
ssg70
g1312
sg63
(lp1319
S'GET'
p1320
asbasbasbag56
(g72
g58
NtRp1321
(dp1322
g61
(dp1323
sg70
g834
sg63
(lp1324
g56
(g77
g58
NtRp1325
(dp1326
g61
(dp1327
g81
g82
ssg70
g1321
sg63
(lp1328
S'script_name'
p1329
asbag56
(g77
g58
NtRp1330
(dp1331
g61
(dp1332
g88
g89
ssg70
g1321
sg63
(lp1333
S':'
asbag56
(g77
g58
NtRp1334
(dp1335
g61
(dp1336
sg70
g1321
sg63
(lp1337
g56
(g57
g58
NtRp1338
(dp1339
g61
(dp1340
g69
I4
ssg70
g1334
sg63
(lp1341
S''
asbasbasbag56
(g72
g58
NtRp1342
(dp1343
g61
(dp1344
sg70
g834
sg63
(lp1345
g56
(g77
g58
NtRp1346
(dp1347
g61
(dp1348
g81
g82
ssg70
g1342
sg63
(lp1349
S'server_name'
p1350
asbag56
(g77
g58
NtRp1351
(dp1352
g61
(dp1353
g88
g89
ssg70
g1342
sg63
(lp1354
S':'
asbag56
(g77
g58
NtRp1355
(dp1356
g61
(dp1357
sg70
g1342
sg63
(lp1358
g56
(g57
g58
NtRp1359
(dp1360
g61
(dp1361
g69
I4
ssg70
g1355
sg63
(lp1362
S'Ariel-ubuntu'
p1363
asbasbasbag56
(g72
g58
NtRp1364
(dp1365
g61
(dp1366
sg70
g834
sg63
(lp1367
g56
(g77
g58
NtRp1368
(dp1369
g61
(dp1370
g81
g82
ssg70
g1364
sg63
(lp1371
S'server_port'
p1372
asbag56
(g77
g58
NtRp1373
(dp1374
g61
(dp1375
g88
g89
ssg70
g1364
sg63
(lp1376
S':'
asbag56
(g77
g58
NtRp1377
(dp1378
g61
(dp1379
sg70
g1364
sg63
(lp1380
g56
(g57
g58
NtRp1381
(dp1382
g61
(dp1383
g69
I4
ssg70
g1377
sg63
(lp1384
S'8000'
p1385
asbasbasbag56
(g72
g58
NtRp1386
(dp1387
g61
(dp1388
sg70
g834
sg63
(lp1389
g56
(g77
g58
NtRp1390
(dp1391
g61
(dp1392
g81
g82
ssg70
g1386
sg63
(lp1393
S'server_protocol'
p1394
asbag56
(g77
g58
NtRp1395
(dp1396
g61
(dp1397
g88
g89
ssg70
g1386
sg63
(lp1398
S':'
asbag56
(g77
g58
NtRp1399
(dp1400
g61
(dp1401
sg70
g1386
sg63
(lp1402
g56
(g57
g58
NtRp1403
(dp1404
g61
(dp1405
g69
I4
ssg70
g1399
sg63
(lp1406
S'HTTP/1.1'
p1407
asbasbasbag56
(g72
g58
NtRp1408
(dp1409
g61
(dp1410
sg70
g834
sg63
(lp1411
g56
(g77
g58
NtRp1412
(dp1413
g61
(dp1414
g81
g82
ssg70
g1408
sg63
(lp1415
S'server_software'
p1416
asbag56
(g77
g58
NtRp1417
(dp1418
g61
(dp1419
g88
g89
ssg70
g1408
sg63
(lp1420
S':'
asbag56
(g77
g58
NtRp1421
(dp1422
g61
(dp1423
sg70
g1408
sg63
(lp1424
g56
(g57
g58
NtRp1425
(dp1426
g61
(dp1427
g69
I4
ssg70
g1421
sg63
(lp1428
S'Rocket 1.2.4'
p1429
asbasbasbag56
(g72
g58
NtRp1430
(dp1431
g61
(dp1432
sg70
g834
sg63
(lp1433
g56
(g77
g58
NtRp1434
(dp1435
g61
(dp1436
g81
g82
ssg70
g1430
sg63
(lp1437
S'web2py_crontype'
p1438
asbag56
(g77
g58
NtRp1439
(dp1440
g61
(dp1441
g88
g89
ssg70
g1430
sg63
(lp1442
S':'
asbag56
(g77
g58
NtRp1443
(dp1444
g61
(dp1445
sg70
g1430
sg63
(lp1446
g56
(g57
g58
NtRp1447
(dp1448
g61
(dp1449
g69
I4
ssg70
g1443
sg63
(lp1450
S'hard'
p1451
asbasbasbag56
(g72
g58
NtRp1452
(dp1453
g61
(dp1454
sg70
g834
sg63
(lp1455
g56
(g77
g58
NtRp1456
(dp1457
g61
(dp1458
g81
g82
ssg70
g1452
sg63
(lp1459
S'web2py_path'
p1460
asbag56
(g77
g58
NtRp1461
(dp1462
g61
(dp1463
g88
g89
ssg70
g1452
sg63
(lp1464
S':'
asbag56
(g77
g58
NtRp1465
(dp1466
g61
(dp1467
sg70
g1452
sg63
(lp1468
g56
(g57
g58
NtRp1469
(dp1470
g61
(dp1471
g69
I4
ssg70
g1465
sg63
(lp1472
g881
asbasbasbag56
(g72
g58
NtRp1473
(dp1474
g61
(dp1475
sg70
g834
sg63
(lp1476
g56
(g77
g58
NtRp1477
(dp1478
g61
(dp1479
g81
g82
ssg70
g1473
sg63
(lp1480
S'web2py_version'
p1481
asbag56
(g77
g58
NtRp1482
(dp1483
g61
(dp1484
g88
g89
ssg70
g1473
sg63
(lp1485
S':'
asbag56
(g77
g58
NtRp1486
(dp1487
g61
(dp1488
sg70
g1473
sg63
(lp1489
g56
(g57
g58
NtRp1490
(dp1491
g61
(dp1492
g69
I4
ssg70
g1486
sg63
(lp1493
g56
(g65
g58
NtRp1494
(dp1495
g61
(dp1496
g69
I3
ssg70
Nsg63
(lp1497
g56
(g72
g58
NtRp1498
(dp1499
g61
(dp1500
sg70
g1494
sg63
(lp1501
g56
(g77
g58
NtRp1502
(dp1503
g61
(dp1504
sg70
g1498
sg63
(lp1505
g56
(g57
g58
NtRp1506
(dp1507
g61
(dp1508
g69
I3
ssg70
g1502
sg63
(lp1509
S'1'
asbasbasbag56
(g72
g58
NtRp1510
(dp1511
g61
(dp1512
sg70
g1494
sg63
(lp1513
g56
(g77
g58
NtRp1514
(dp1515
g61
(dp1516
sg70
g1510
sg63
(lp1517
g56
(g57
g58
NtRp1518
(dp1519
g61
(dp1520
g69
I3
ssg70
g1514
sg63
(lp1521
S'99'
p1522
asbasbasbag56
(g72
g58
NtRp1523
(dp1524
g61
(dp1525
sg70
g1494
sg63
(lp1526
g56
(g77
g58
NtRp1527
(dp1528
g61
(dp1529
sg70
g1523
sg63
(lp1530
g56
(g57
g58
NtRp1531
(dp1532
g61
(dp1533
g69
I3
ssg70
g1527
sg63
(lp1534
S'2'
asbasbasbag56
(g72
g58
NtRp1535
(dp1536
g61
(dp1537
sg70
g1494
sg63
(lp1538
g56
(g77
g58
NtRp1539
(dp1540
g61
(dp1541
sg70
g1535
sg63
(lp1542
g56
(g57
g58
NtRp1543
(dp1544
g61
(dp1545
g69
I3
ssg70
g1539
sg63
(lp1546
S'datetime.datetime(2011, 9, 26, 6, 55, 33)'
p1547
asbasbasbag56
(g72
g58
NtRp1548
(dp1549
g61
(dp1550
sg70
g1494
sg63
(lp1551
g56
(g77
g58
NtRp1552
(dp1553
g61
(dp1554
sg70
g1548
sg63
(lp1555
g56
(g57
g58
NtRp1556
(dp1557
g61
(dp1558
g69
I3
ssg70
g1552
sg63
(lp1559
S'stable'
p1560
asbasbasbasbasbasbasbag56
(g72
g58
NtRp1561
(dp1562
g61
(dp1563
sg70
g834
sg63
(lp1564
g56
(g77
g58
NtRp1565
(dp1566
g61
(dp1567
g81
g82
ssg70
g1561
sg63
(lp1568
S'wsgi_errors'
p1569
asbag56
(g77
g58
NtRp1570
(dp1571
g61
(dp1572
g88
g89
ssg70
g1561
sg63
(lp1573
S':'
asbag56
(g77
g58
NtRp1574
(dp1575
g61
(dp1576
sg70
g1561
sg63
(lp1577
g56
(g57
g58
NtRp1578
(dp1579
g61
(dp1580
g69
I4
ssg70
g1574
sg63
(lp1581
S"<open file '<stderr>', mode 'w' at 0x7f32eac6f270>"
p1582
asbasbasbag56
(g72
g58
NtRp1583
(dp1584
g61
(dp1585
sg70
g834
sg63
(lp1586
g56
(g77
g58
NtRp1587
(dp1588
g61
(dp1589
g81
g82
ssg70
g1583
sg63
(lp1590
S'wsgi_file_wrapper'
p1591
asbag56
(g77
g58
NtRp1592
(dp1593
g61
(dp1594
g88
g89
ssg70
g1583
sg63
(lp1595
S':'
asbag56
(g77
g58
NtRp1596
(dp1597
g61
(dp1598
sg70
g1583
sg63
(lp1599
g56
(g57
g58
NtRp1600
(dp1601
g61
(dp1602
g69
I4
ssg70
g1596
sg63
(lp1603
S'<class wsgiref.util.FileWrapper at 0x1375808>'
p1604
asbasbasbag56
(g72
g58
NtRp1605
(dp1606
g61
(dp1607
sg70
g834
sg63
(lp1608
g56
(g77
g58
NtRp1609
(dp1610
g61
(dp1611
g81
g82
ssg70
g1605
sg63
(lp1612
S'wsgi_input'
p1613
asbag56
(g77
g58
NtRp1614
(dp1615
g61
(dp1616
g88
g89
ssg70
g1605
sg63
(lp1617
S':'
asbag56
(g77
g58
NtRp1618
(dp1619
g61
(dp1620
sg70
g1605
sg63
(lp1621
g56
(g57
g58
NtRp1622
(dp1623
g61
(dp1624
g69
I4
ssg70
g1618
sg63
(lp1625
S'<socket._fileobject object at 0x7f32e011aa50>'
p1626
asbasbasbag56
(g72
g58
NtRp1627
(dp1628
g61
(dp1629
sg70
g834
sg63
(lp1630
g56
(g77
g58
NtRp1631
(dp1632
g61
(dp1633
g81
g82
ssg70
g1627
sg63
(lp1634
S'wsgi_multiprocess'
p1635
asbag56
(g77
g58
NtRp1636
(dp1637
g61
(dp1638
g88
g89
ssg70
g1627
sg63
(lp1639
S':'
asbag56
(g77
g58
NtRp1640
(dp1641
g61
(dp1642
sg70
g1627
sg63
(lp1643
g56
(g57
g58
NtRp1644
(dp1645
g61
(dp1646
g69
I4
ssg70
g1640
sg63
(lp1647
g99
asbasbasbag56
(g72
g58
NtRp1648
(dp1649
g61
(dp1650
sg70
g834
sg63
(lp1651
g56
(g77
g58
NtRp1652
(dp1653
g61
(dp1654
g81
g82
ssg70
g1648
sg63
(lp1655
S'wsgi_multithread'
p1656
asbag56
(g77
g58
NtRp1657
(dp1658
g61
(dp1659
g88
g89
ssg70
g1648
sg63
(lp1660
S':'
asbag56
(g77
g58
NtRp1661
(dp1662
g61
(dp1663
sg70
g1648
sg63
(lp1664
g56
(g57
g58
NtRp1665
(dp1666
g61
(dp1667
g69
I4
ssg70
g1661
sg63
(lp1668
S'True'
p1669
asbasbasbag56
(g72
g58
NtRp1670
(dp1671
g61
(dp1672
sg70
g834
sg63
(lp1673
g56
(g77
g58
NtRp1674
(dp1675
g61
(dp1676
g81
g82
ssg70
g1670
sg63
(lp1677
S'wsgi_run_once'
p1678
asbag56
(g77
g58
NtRp1679
(dp1680
g61
(dp1681
g88
g89
ssg70
g1670
sg63
(lp1682
S':'
asbag56
(g77
g58
NtRp1683
(dp1684
g61
(dp1685
sg70
g1670
sg63
(lp1686
g56
(g57
g58
NtRp1687
(dp1688
g61
(dp1689
g69
I4
ssg70
g1683
sg63
(lp1690
g99
asbasbasbag56
(g72
g58
NtRp1691
(dp1692
g61
(dp1693
sg70
g834
sg63
(lp1694
g56
(g77
g58
NtRp1695
(dp1696
g61
(dp1697
g81
g82
ssg70
g1691
sg63
(lp1698
S'wsgi_url_scheme'
p1699
asbag56
(g77
g58
NtRp1700
(dp1701
g61
(dp1702
g88
g89
ssg70
g1691
sg63
(lp1703
S':'
asbag56
(g77
g58
NtRp1704
(dp1705
g61
(dp1706
sg70
g1691
sg63
(lp1707
g56
(g57
g58
NtRp1708
(dp1709
g61
(dp1710
g69
I4
ssg70
g1704
sg63
(lp1711
S'http'
p1712
asbasbasbag56
(g72
g58
NtRp1713
(dp1714
g61
(dp1715
sg70
g834
sg63
(lp1716
g56
(g77
g58
NtRp1717
(dp1718
g61
(dp1719
g81
g82
ssg70
g1713
sg63
(lp1720
S'wsgi_version'
p1721
asbag56
(g77
g58
NtRp1722
(dp1723
g61
(dp1724
g88
g89
ssg70
g1713
sg63
(lp1725
S':'
asbag56
(g77
g58
NtRp1726
(dp1727
g61
(dp1728
sg70
g1713
sg63
(lp1729
g56
(g57
g58
NtRp1730
(dp1731
g61
(dp1732
g69
I4
ssg70
g1726
sg63
(lp1733
g56
(g65
g58
NtRp1734
(dp1735
g61
(dp1736
g69
I3
ssg70
Nsg63
(lp1737
g56
(g72
g58
NtRp1738
(dp1739
g61
(dp1740
sg70
g1734
sg63
(lp1741
g56
(g77
g58
NtRp1742
(dp1743
g61
(dp1744
sg70
g1738
sg63
(lp1745
g56
(g57
g58
NtRp1746
(dp1747
g61
(dp1748
g69
I3
ssg70
g1742
sg63
(lp1749
S'1'
asbasbasbag56
(g72
g58
NtRp1750
(dp1751
g61
(dp1752
sg70
g1734
sg63
(lp1753
g56
(g77
g58
NtRp1754
(dp1755
g61
(dp1756
sg70
g1750
sg63
(lp1757
g56
(g57
g58
NtRp1758
(dp1759
g61
(dp1760
g69
I3
ssg70
g1754
sg63
(lp1761
S'0'
asbasbasbasbasbasbasbasbasbasbasbag56
(g72
g58
NtRp1762
(dp1763
g61
(dp1764
sg70
g66
sg63
(lp1765
g56
(g77
g58
NtRp1766
(dp1767
g61
(dp1768
g81
g82
ssg70
g1762
sg63
(lp1769
S'extension'
p1770
asbag56
(g77
g58
NtRp1771
(dp1772
g61
(dp1773
g88
g89
ssg70
g1762
sg63
(lp1774
S':'
asbag56
(g77
g58
NtRp1775
(dp1776
g61
(dp1777
sg70
g1762
sg63
(lp1778
g56
(g57
g58
NtRp1779
(dp1780
g61
(dp1781
g69
I5
ssg70
g1775
sg63
(lp1782
S'html'
p1783
asbasbasbag56
(g72
g58
NtRp1784
(dp1785
g61
(dp1786
sg70
g66
sg63
(lp1787
g56
(g77
g58
NtRp1788
(dp1789
g61
(dp1790
g81
g82
ssg70
g1784
sg63
(lp1791
S'folder'
p1792
asbag56
(g77
g58
NtRp1793
(dp1794
g61
(dp1795
g88
g89
ssg70
g1784
sg63
(lp1796
S':'
asbag56
(g77
g58
NtRp1797
(dp1798
g61
(dp1799
sg70
g1784
sg63
(lp1800
g56
(g57
g58
NtRp1801
(dp1802
g61
(dp1803
g69
I5
ssg70
g1797
sg63
(lp1804
S'/home/ian/web2py/applications/paideia/'
p1805
asbasbasbag56
(g72
g58
NtRp1806
(dp1807
g61
(dp1808
sg70
g66
sg63
(lp1809
g56
(g77
g58
NtRp1810
(dp1811
g61
(dp1812
g81
g82
ssg70
g1806
sg63
(lp1813
S'function'
p1814
asbag56
(g77
g58
NtRp1815
(dp1816
g61
(dp1817
g88
g89
ssg70
g1806
sg63
(lp1818
S':'
asbag56
(g77
g58
NtRp1819
(dp1820
g61
(dp1821
sg70
g1806
sg63
(lp1822
g56
(g57
g58
NtRp1823
(dp1824
g61
(dp1825
g69
I5
ssg70
g1819
sg63
(lp1826
S'user'
p1827
asbasbasbag56
(g72
g58
NtRp1828
(dp1829
g61
(dp1830
sg70
g66
sg63
(lp1831
g56
(g77
g58
NtRp1832
(dp1833
g61
(dp1834
g81
g82
ssg70
g1828
sg63
(lp1835
S'get_vars'
p1836
asbag56
(g77
g58
NtRp1837
(dp1838
g61
(dp1839
g88
g89
ssg70
g1828
sg63
(lp1840
S':'
asbag56
(g77
g58
NtRp1841
(dp1842
g61
(dp1843
sg70
g1828
sg63
(lp1844
g56
(g57
g58
NtRp1845
(dp1846
g61
(dp1847
g69
I5
ssg70
g1841
sg63
(lp1848
g56
(g65
g58
NtRp1849
(dp1850
g61
(dp1851
g69
I4
ssg70
Nsg63
(lp1852
sbasbasbasbag56
(g72
g58
NtRp1853
(dp1854
g61
(dp1855
sg70
g66
sg63
(lp1856
g56
(g77
g58
NtRp1857
(dp1858
g61
(dp1859
g81
g82
ssg70
g1853
sg63
(lp1860
S'global_settings'
p1861
asbag56
(g77
g58
NtRp1862
(dp1863
g61
(dp1864
g88
g89
ssg70
g1853
sg63
(lp1865
S':'
asbag56
(g77
g58
NtRp1866
(dp1867
g61
(dp1868
sg70
g1853
sg63
(lp1869
g56
(g57
g58
NtRp1870
(dp1871
g61
(dp1872
g69
I5
ssg70
g1866
sg63
(lp1873
g56
(g65
g58
NtRp1874
(dp1875
g61
(dp1876
g69
I4
ssg70
Nsg63
(lp1877
g56
(g72
g58
NtRp1878
(dp1879
g61
(dp1880
sg70
g1874
sg63
(lp1881
g56
(g77
g58
NtRp1882
(dp1883
g61
(dp1884
g81
g82
ssg70
g1878
sg63
(lp1885
g846
asbag56
(g77
g58
NtRp1886
(dp1887
g61
(dp1888
g88
g89
ssg70
g1878
sg63
(lp1889
S':'
asbag56
(g77
g58
NtRp1890
(dp1891
g61
(dp1892
sg70
g1878
sg63
(lp1893
g56
(g57
g58
NtRp1894
(dp1895
g61
(dp1896
g69
I4
ssg70
g1890
sg63
(lp1897
S"set(['/home/ian/web2py/applications/welcome/', '/home/ian/web2py/applications/paideia/', '/home/ian/web2py/applications/admin/'])"
p1898
asbasbasbag56
(g72
g58
NtRp1899
(dp1900
g61
(dp1901
sg70
g1874
sg63
(lp1902
g56
(g77
g58
NtRp1903
(dp1904
g61
(dp1905
g81
g82
ssg70
g1899
sg63
(lp1906
g868
asbag56
(g77
g58
NtRp1907
(dp1908
g61
(dp1909
g88
g89
ssg70
g1899
sg63
(lp1910
S':'
asbag56
(g77
g58
NtRp1911
(dp1912
g61
(dp1913
sg70
g1899
sg63
(lp1914
g56
(g57
g58
NtRp1915
(dp1916
g61
(dp1917
g69
I4
ssg70
g1911
sg63
(lp1918
g881
asbasbasbag56
(g72
g58
NtRp1919
(dp1920
g61
(dp1921
sg70
g1874
sg63
(lp1922
g56
(g77
g58
NtRp1923
(dp1924
g61
(dp1925
g81
g82
ssg70
g1919
sg63
(lp1926
g890
asbag56
(g77
g58
NtRp1927
(dp1928
g61
(dp1929
g88
g89
ssg70
g1919
sg63
(lp1930
S':'
asbag56
(g77
g58
NtRp1931
(dp1932
g61
(dp1933
sg70
g1919
sg63
(lp1934
g56
(g57
g58
NtRp1935
(dp1936
g61
(dp1937
g69
I4
ssg70
g1931
sg63
(lp1938
g56
(g65
g58
NtRp1939
(dp1940
g61
(dp1941
g69
I3
ssg70
Nsg63
(lp1942
sbasbasbasbag56
(g72
g58
NtRp1943
(dp1944
g61
(dp1945
sg70
g1874
sg63
(lp1946
g56
(g77
g58
NtRp1947
(dp1948
g61
(dp1949
g81
g82
ssg70
g1943
sg63
(lp1950
g915
asbag56
(g77
g58
NtRp1951
(dp1952
g61
(dp1953
g88
g89
ssg70
g1943
sg63
(lp1954
S':'
asbag56
(g77
g58
NtRp1955
(dp1956
g61
(dp1957
sg70
g1943
sg63
(lp1958
g56
(g57
g58
NtRp1959
(dp1960
g61
(dp1961
g69
I4
ssg70
g1955
sg63
(lp1962
S"<Values at 0x14ac7e8: {'verbose': False, 'ip': '127.0.0.1', 'shutdown_timeout': 5, 'taskbar': False, 'nocron': False, 'pid_filename': 'httpserver.pid', 'maxthreads': None, 'softcron': False, 'server_name': 'Ariel-ubuntu', 'bpython': False, 'nogui': False, 'port': 8000, 'extcron': False, 'debuglevel': 30, 'test': None, 'folder': '/home/ian/web2py', 'config': '', 'import_models': False, 'winservice': '', 'shell': None, 'run': '', 'log_filename': 'httpserver.log', 'args': [''], 'ssl_ca_certificate': None, 'scheduler': None, 'profiler_filename': None, 'ssl_private_key': '', 'password': '<ask>', 'request_queue_size': 5, 'ssl_certificate': '', 'cronjob': False, 'plain': False, 'quiet': False, 'interfaces': None, 'minthreads': None, 'timeout': 10, 'numthreads': None, 'nobanner': False}>"
p1963
asbasbasbag56
(g72
g58
NtRp1964
(dp1965
g61
(dp1966
sg70
g1874
sg63
(lp1967
g56
(g77
g58
NtRp1968
(dp1969
g61
(dp1970
g81
g82
ssg70
g1964
sg63
(lp1971
g937
asbag56
(g77
g58
NtRp1972
(dp1973
g61
(dp1974
g88
g89
ssg70
g1964
sg63
(lp1975
S':'
asbag56
(g77
g58
NtRp1976
(dp1977
g61
(dp1978
sg70
g1964
sg63
(lp1979
g56
(g57
g58
NtRp1980
(dp1981
g61
(dp1982
g69
I4
ssg70
g1976
sg63
(lp1983
S'set([])'
p1984
asbasbasbag56
(g72
g58
NtRp1985
(dp1986
g61
(dp1987
sg70
g1874
sg63
(lp1988
g56
(g77
g58
NtRp1989
(dp1990
g61
(dp1991
g81
g82
ssg70
g1985
sg63
(lp1992
g959
asbag56
(g77
g58
NtRp1993
(dp1994
g61
(dp1995
g88
g89
ssg70
g1985
sg63
(lp1996
S':'
asbag56
(g77
g58
NtRp1997
(dp1998
g61
(dp1999
sg70
g1985
sg63
(lp2000
g56
(g57
g58
NtRp2001
(dp2002
g61
(dp2003
g69
I4
ssg70
g1997
sg63
(lp2004
g99
asbasbasbag56
(g72
g58
NtRp2005
(dp2006
g61
(dp2007
sg70
g1874
sg63
(lp2008
g56
(g77
g58
NtRp2009
(dp2010
g61
(dp2011
g81
g82
ssg70
g2005
sg63
(lp2012
g980
asbag56
(g77
g58
NtRp2013
(dp2014
g61
(dp2015
g88
g89
ssg70
g2005
sg63
(lp2016
S':'
asbag56
(g77
g58
NtRp2017
(dp2018
g61
(dp2019
sg70
g2005
sg63
(lp2020
g56
(g57
g58
NtRp2021
(dp2022
g61
(dp2023
g69
I4
ssg70
g2017
sg63
(lp2024
g993
asbasbasbag56
(g72
g58
NtRp2025
(dp2026
g61
(dp2027
sg70
g1874
sg63
(lp2028
g56
(g77
g58
NtRp2029
(dp2030
g61
(dp2031
g81
g82
ssg70
g2025
sg63
(lp2032
g1200
asbag56
(g77
g58
NtRp2033
(dp2034
g61
(dp2035
g88
g89
ssg70
g2025
sg63
(lp2036
S':'
asbag56
(g77
g58
NtRp2037
(dp2038
g61
(dp2039
sg70
g2025
sg63
(lp2040
g56
(g57
g58
NtRp2041
(dp2042
g61
(dp2043
g69
I4
ssg70
g2037
sg63
(lp2044
g99
asbasbasbag56
(g72
g58
NtRp2045
(dp2046
g61
(dp2047
sg70
g1874
sg63
(lp2048
g56
(g77
g58
NtRp2049
(dp2050
g61
(dp2051
g81
g82
ssg70
g2045
sg63
(lp2052
g1438
asbag56
(g77
g58
NtRp2053
(dp2054
g61
(dp2055
g88
g89
ssg70
g2045
sg63
(lp2056
S':'
asbag56
(g77
g58
NtRp2057
(dp2058
g61
(dp2059
sg70
g2045
sg63
(lp2060
g56
(g57
g58
NtRp2061
(dp2062
g61
(dp2063
g69
I4
ssg70
g2057
sg63
(lp2064
g1451
asbasbasbag56
(g72
g58
NtRp2065
(dp2066
g61
(dp2067
sg70
g1874
sg63
(lp2068
g56
(g77
g58
NtRp2069
(dp2070
g61
(dp2071
g81
g82
ssg70
g2065
sg63
(lp2072
g1481
asbag56
(g77
g58
NtRp2073
(dp2074
g61
(dp2075
g88
g89
ssg70
g2065
sg63
(lp2076
S':'
asbag56
(g77
g58
NtRp2077
(dp2078
g61
(dp2079
sg70
g2065
sg63
(lp2080
g56
(g57
g58
NtRp2081
(dp2082
g61
(dp2083
g69
I4
ssg70
g2077
sg63
(lp2084
g56
(g65
g58
NtRp2085
(dp2086
g61
(dp2087
g69
I3
ssg70
Nsg63
(lp2088
g56
(g72
g58
NtRp2089
(dp2090
g61
(dp2091
sg70
g2085
sg63
(lp2092
g56
(g77
g58
NtRp2093
(dp2094
g61
(dp2095
sg70
g2089
sg63
(lp2096
g56
(g57
g58
NtRp2097
(dp2098
g61
(dp2099
g69
I3
ssg70
g2093
sg63
(lp2100
S'1'
asbasbasbag56
(g72
g58
NtRp2101
(dp2102
g61
(dp2103
sg70
g2085
sg63
(lp2104
g56
(g77
g58
NtRp2105
(dp2106
g61
(dp2107
sg70
g2101
sg63
(lp2108
g56
(g57
g58
NtRp2109
(dp2110
g61
(dp2111
g69
I3
ssg70
g2105
sg63
(lp2112
S'99'
p2113
asbasbasbag56
(g72
g58
NtRp2114
(dp2115
g61
(dp2116
sg70
g2085
sg63
(lp2117
g56
(g77
g58
NtRp2118
(dp2119
g61
(dp2120
sg70
g2114
sg63
(lp2121
g56
(g57
g58
NtRp2122
(dp2123
g61
(dp2124
g69
I3
ssg70
g2118
sg63
(lp2125
S'2'
asbasbasbag56
(g72
g58
NtRp2126
(dp2127
g61
(dp2128
sg70
g2085
sg63
(lp2129
g56
(g77
g58
NtRp2130
(dp2131
g61
(dp2132
sg70
g2126
sg63
(lp2133
g56
(g57
g58
NtRp2134
(dp2135
g61
(dp2136
g69
I3
ssg70
g2130
sg63
(lp2137
S'datetime.datetime(2011, 9, 26, 6, 55, 33)'
p2138
asbasbasbag56
(g72
g58
NtRp2139
(dp2140
g61
(dp2141
sg70
g2085
sg63
(lp2142
g56
(g77
g58
NtRp2143
(dp2144
g61
(dp2145
sg70
g2139
sg63
(lp2146
g56
(g57
g58
NtRp2147
(dp2148
g61
(dp2149
g69
I3
ssg70
g2143
sg63
(lp2150
g1560
asbasbasbasbasbasbasbasbasbasbasbag56
(g72
g58
NtRp2151
(dp2152
g61
(dp2153
sg70
g66
sg63
(lp2154
g56
(g77
g58
NtRp2155
(dp2156
g61
(dp2157
g81
g82
ssg70
g2151
sg63
(lp2158
S'is_https'
p2159
asbag56
(g77
g58
NtRp2160
(dp2161
g61
(dp2162
g88
g89
ssg70
g2151
sg63
(lp2163
S':'
asbag56
(g77
g58
NtRp2164
(dp2165
g61
(dp2166
sg70
g2151
sg63
(lp2167
g56
(g57
g58
NtRp2168
(dp2169
g61
(dp2170
g69
I5
ssg70
g2164
sg63
(lp2171
g99
asbasbasbag56
(g72
g58
NtRp2172
(dp2173
g61
(dp2174
sg70
g66
sg63
(lp2175
g56
(g77
g58
NtRp2176
(dp2177
g61
(dp2178
g81
g82
ssg70
g2172
sg63
(lp2179
S'is_local'
p2180
asbag56
(g77
g58
NtRp2181
(dp2182
g61
(dp2183
g88
g89
ssg70
g2172
sg63
(lp2184
S':'
asbag56
(g77
g58
NtRp2185
(dp2186
g61
(dp2187
sg70
g2172
sg63
(lp2188
g56
(g57
g58
NtRp2189
(dp2190
g61
(dp2191
g69
I5
ssg70
g2185
sg63
(lp2192
g1669
asbasbasbag56
(g72
g58
NtRp2193
(dp2194
g61
(dp2195
sg70
g66
sg63
(lp2196
g56
(g77
g58
NtRp2197
(dp2198
g61
(dp2199
g81
g82
ssg70
g2193
sg63
(lp2200
S'is_restful'
p2201
asbag56
(g77
g58
NtRp2202
(dp2203
g61
(dp2204
g88
g89
ssg70
g2193
sg63
(lp2205
S':'
asbag56
(g77
g58
NtRp2206
(dp2207
g61
(dp2208
sg70
g2193
sg63
(lp2209
g56
(g57
g58
NtRp2210
(dp2211
g61
(dp2212
g69
I5
ssg70
g2206
sg63
(lp2213
g99
asbasbasbag56
(g72
g58
NtRp2214
(dp2215
g61
(dp2216
sg70
g66
sg63
(lp2217
g56
(g77
g58
NtRp2218
(dp2219
g61
(dp2220
g81
g82
ssg70
g2214
sg63
(lp2221
S'now'
p2222
asbag56
(g77
g58
NtRp2223
(dp2224
g61
(dp2225
g88
g89
ssg70
g2214
sg63
(lp2226
S':'
asbag56
(g77
g58
NtRp2227
(dp2228
g61
(dp2229
sg70
g2214
sg63
(lp2230
g56
(g57
g58
NtRp2231
(dp2232
g61
(dp2233
g69
I5
ssg70
g2227
sg63
(lp2234
S'datetime.datetime(2011, 10, 28, 9, 31, 24, 334003)'
p2235
asbasbasbag56
(g72
g58
NtRp2236
(dp2237
g61
(dp2238
sg70
g66
sg63
(lp2239
g56
(g77
g58
NtRp2240
(dp2241
g61
(dp2242
g81
g82
ssg70
g2236
sg63
(lp2243
S'post_vars'
p2244
asbag56
(g77
g58
NtRp2245
(dp2246
g61
(dp2247
g88
g89
ssg70
g2236
sg63
(lp2248
S':'
asbag56
(g77
g58
NtRp2249
(dp2250
g61
(dp2251
sg70
g2236
sg63
(lp2252
g56
(g57
g58
NtRp2253
(dp2254
g61
(dp2255
g69
I5
ssg70
g2249
sg63
(lp2256
g56
(g65
g58
NtRp2257
(dp2258
g61
(dp2259
g69
I4
ssg70
Nsg63
(lp2260
sbasbasbasbag56
(g72
g58
NtRp2261
(dp2262
g61
(dp2263
sg70
g66
sg63
(lp2264
g56
(g77
g58
NtRp2265
(dp2266
g61
(dp2267
g81
g82
ssg70
g2261
sg63
(lp2268
S'raw_args'
p2269
asbag56
(g77
g58
NtRp2270
(dp2271
g61
(dp2272
g88
g89
ssg70
g2261
sg63
(lp2273
S':'
asbag56
(g77
g58
NtRp2274
(dp2275
g61
(dp2276
sg70
g2261
sg63
(lp2277
g56
(g57
g58
NtRp2278
(dp2279
g61
(dp2280
g69
I5
ssg70
g2274
sg63
(lp2281
g158
asbasbasbag56
(g72
g58
NtRp2282
(dp2283
g61
(dp2284
sg70
g66
sg63
(lp2285
g56
(g77
g58
NtRp2286
(dp2287
g61
(dp2288
g81
g82
ssg70
g2282
sg63
(lp2289
S'url'
p2290
asbag56
(g77
g58
NtRp2291
(dp2292
g61
(dp2293
g88
g89
ssg70
g2282
sg63
(lp2294
S':'
asbag56
(g77
g58
NtRp2295
(dp2296
g61
(dp2297
sg70
g2282
sg63
(lp2298
g56
(g57
g58
NtRp2299
(dp2300
g61
(dp2301
g69
I5
ssg70
g2295
sg63
(lp2302
S'/paideia/default/user/login'
p2303
asbasbasbag56
(g72
g58
NtRp2304
(dp2305
g61
(dp2306
sg70
g66
sg63
(lp2307
g56
(g77
g58
NtRp2308
(dp2309
g61
(dp2310
g81
g82
ssg70
g2304
sg63
(lp2311
S'utcnow'
p2312
asbag56
(g77
g58
NtRp2313
(dp2314
g61
(dp2315
g88
g89
ssg70
g2304
sg63
(lp2316
S':'
asbag56
(g77
g58
NtRp2317
(dp2318
g61
(dp2319
sg70
g2304
sg63
(lp2320
g56
(g57
g58
NtRp2321
(dp2322
g61
(dp2323
g69
I5
ssg70
g2317
sg63
(lp2324
S'datetime.datetime(2011, 10, 28, 13, 31, 24, 334092)'
p2325
asbasbasbag56
(g72
g58
NtRp2326
(dp2327
g61
(dp2328
sg70
g66
sg63
(lp2329
g56
(g77
g58
NtRp2330
(dp2331
g61
(dp2332
g81
g82
ssg70
g2326
sg63
(lp2333
S'uuid'
p2334
asbag56
(g77
g58
NtRp2335
(dp2336
g61
(dp2337
g88
g89
ssg70
g2326
sg63
(lp2338
S':'
asbag56
(g77
g58
NtRp2339
(dp2340
g61
(dp2341
sg70
g2326
sg63
(lp2342
g56
(g57
g58
NtRp2343
(dp2344
g61
(dp2345
g69
I5
ssg70
g2339
sg63
(lp2346
S'paideia/127.0.0.1.2011-10-28.09-31-24.0e767b2b-89e6-49f6-ba8c-a8d043871794'
p2347
asbasbasbag56
(g72
g58
NtRp2348
(dp2349
g61
(dp2350
sg70
g66
sg63
(lp2351
g56
(g77
g58
NtRp2352
(dp2353
g61
(dp2354
g81
g82
ssg70
g2348
sg63
(lp2355
S'vars'
p2356
asbag56
(g77
g58
NtRp2357
(dp2358
g61
(dp2359
g88
g89
ssg70
g2348
sg63
(lp2360
S':'
asbag56
(g77
g58
NtRp2361
(dp2362
g61
(dp2363
sg70
g2348
sg63
(lp2364
g56
(g57
g58
NtRp2365
(dp2366
g61
(dp2367
g69
I5
ssg70
g2361
sg63
(lp2368
g56
(g65
g58
NtRp2369
(dp2370
g61
(dp2371
g69
I4
ssg70
Nsg63
(lp2372
sbasbasbasbag56
(g72
g58
NtRp2373
(dp2374
g61
(dp2375
sg70
g66
sg63
(lp2376
g56
(g77
g58
NtRp2377
(dp2378
g61
(dp2379
g81
g82
ssg70
g2373
sg63
(lp2380
S'wsgi'
p2381
asbag56
(g77
g58
NtRp2382
(dp2383
g61
(dp2384
g88
g89
ssg70
g2373
sg63
(lp2385
S':'
asbag56
(g77
g58
NtRp2386
(dp2387
g61
(dp2388
sg70
g2373
sg63
(lp2389
g56
(g57
g58
NtRp2390
(dp2391
g61
(dp2392
g69
I5
ssg70
g2386
sg63
(lp2393
g56
(g65
g58
NtRp2394
(dp2395
g61
(dp2396
g69
I4
ssg70
Nsg63
(lp2397
g56
(g72
g58
NtRp2398
(dp2399
g61
(dp2400
sg70
g2394
sg63
(lp2401
g56
(g77
g58
NtRp2402
(dp2403
g61
(dp2404
g81
g82
ssg70
g2398
sg63
(lp2405
S'environ'
p2406
asbag56
(g77
g58
NtRp2407
(dp2408
g61
(dp2409
g88
g89
ssg70
g2398
sg63
(lp2410
S':'
asbag56
(g77
g58
NtRp2411
(dp2412
g61
(dp2413
sg70
g2398
sg63
(lp2414
g56
(g57
g58
NtRp2415
(dp2416
g61
(dp2417
g69
I4
ssg70
g2411
sg63
(lp2418
g56
(g65
g58
NtRp2419
(dp2420
g61
(dp2421
g69
I3
ssg70
Nsg63
(lp2422
g56
(g72
g58
NtRp2423
(dp2424
g61
(dp2425
sg70
g2419
sg63
(lp2426
g56
(g77
g58
NtRp2427
(dp2428
g61
(dp2429
g81
g82
ssg70
g2423
sg63
(lp2430
S'HTTP_ACCEPT'
p2431
asbag56
(g77
g58
NtRp2432
(dp2433
g61
(dp2434
g88
g89
ssg70
g2423
sg63
(lp2435
S':'
asbag56
(g77
g58
NtRp2436
(dp2437
g61
(dp2438
sg70
g2423
sg63
(lp2439
g56
(g57
g58
NtRp2440
(dp2441
g61
(dp2442
g69
I3
ssg70
g2436
sg63
(lp2443
g1015
asbasbasbag56
(g72
g58
NtRp2444
(dp2445
g61
(dp2446
sg70
g2419
sg63
(lp2447
g56
(g77
g58
NtRp2448
(dp2449
g61
(dp2450
g81
g82
ssg70
g2444
sg63
(lp2451
S'HTTP_ACCEPT_ENCODING'
p2452
asbag56
(g77
g58
NtRp2453
(dp2454
g61
(dp2455
g88
g89
ssg70
g2444
sg63
(lp2456
S':'
asbag56
(g77
g58
NtRp2457
(dp2458
g61
(dp2459
sg70
g2444
sg63
(lp2460
g56
(g57
g58
NtRp2461
(dp2462
g61
(dp2463
g69
I3
ssg70
g2457
sg63
(lp2464
g1037
asbasbasbag56
(g72
g58
NtRp2465
(dp2466
g61
(dp2467
sg70
g2419
sg63
(lp2468
g56
(g77
g58
NtRp2469
(dp2470
g61
(dp2471
g81
g82
ssg70
g2465
sg63
(lp2472
S'HTTP_ACCEPT_LANGUAGE'
p2473
asbag56
(g77
g58
NtRp2474
(dp2475
g61
(dp2476
g88
g89
ssg70
g2465
sg63
(lp2477
S':'
asbag56
(g77
g58
NtRp2478
(dp2479
g61
(dp2480
sg70
g2465
sg63
(lp2481
g56
(g57
g58
NtRp2482
(dp2483
g61
(dp2484
g69
I3
ssg70
g2478
sg63
(lp2485
g1059
asbasbasbag56
(g72
g58
NtRp2486
(dp2487
g61
(dp2488
sg70
g2419
sg63
(lp2489
g56
(g77
g58
NtRp2490
(dp2491
g61
(dp2492
g81
g82
ssg70
g2486
sg63
(lp2493
S'HTTP_CACHE_CONTROL'
p2494
asbag56
(g77
g58
NtRp2495
(dp2496
g61
(dp2497
g88
g89
ssg70
g2486
sg63
(lp2498
S':'
asbag56
(g77
g58
NtRp2499
(dp2500
g61
(dp2501
sg70
g2486
sg63
(lp2502
g56
(g57
g58
NtRp2503
(dp2504
g61
(dp2505
g69
I3
ssg70
g2499
sg63
(lp2506
g1081
asbasbasbag56
(g72
g58
NtRp2507
(dp2508
g61
(dp2509
sg70
g2419
sg63
(lp2510
g56
(g77
g58
NtRp2511
(dp2512
g61
(dp2513
g81
g82
ssg70
g2507
sg63
(lp2514
S'HTTP_CONNECTION'
p2515
asbag56
(g77
g58
NtRp2516
(dp2517
g61
(dp2518
g88
g89
ssg70
g2507
sg63
(lp2519
S':'
asbag56
(g77
g58
NtRp2520
(dp2521
g61
(dp2522
sg70
g2507
sg63
(lp2523
g56
(g57
g58
NtRp2524
(dp2525
g61
(dp2526
g69
I3
ssg70
g2520
sg63
(lp2527
g1103
asbasbasbag56
(g72
g58
NtRp2528
(dp2529
g61
(dp2530
sg70
g2419
sg63
(lp2531
g56
(g77
g58
NtRp2532
(dp2533
g61
(dp2534
g81
g82
ssg70
g2528
sg63
(lp2535
S'HTTP_COOKIE'
p2536
asbag56
(g77
g58
NtRp2537
(dp2538
g61
(dp2539
g88
g89
ssg70
g2528
sg63
(lp2540
S':'
asbag56
(g77
g58
NtRp2541
(dp2542
g61
(dp2543
sg70
g2528
sg63
(lp2544
g56
(g57
g58
NtRp2545
(dp2546
g61
(dp2547
g69
I3
ssg70
g2541
sg63
(lp2548
g1125
asbasbasbag56
(g72
g58
NtRp2549
(dp2550
g61
(dp2551
sg70
g2419
sg63
(lp2552
g56
(g77
g58
NtRp2553
(dp2554
g61
(dp2555
g81
g82
ssg70
g2549
sg63
(lp2556
S'HTTP_HOST'
p2557
asbag56
(g77
g58
NtRp2558
(dp2559
g61
(dp2560
g88
g89
ssg70
g2549
sg63
(lp2561
S':'
asbag56
(g77
g58
NtRp2562
(dp2563
g61
(dp2564
sg70
g2549
sg63
(lp2565
g56
(g57
g58
NtRp2566
(dp2567
g61
(dp2568
g69
I3
ssg70
g2562
sg63
(lp2569
g1147
asbasbasbag56
(g72
g58
NtRp2570
(dp2571
g61
(dp2572
sg70
g2419
sg63
(lp2573
g56
(g77
g58
NtRp2574
(dp2575
g61
(dp2576
g81
g82
ssg70
g2570
sg63
(lp2577
S'HTTP_REFERER'
p2578
asbag56
(g77
g58
NtRp2579
(dp2580
g61
(dp2581
g88
g89
ssg70
g2570
sg63
(lp2582
S':'
asbag56
(g77
g58
NtRp2583
(dp2584
g61
(dp2585
sg70
g2570
sg63
(lp2586
g56
(g57
g58
NtRp2587
(dp2588
g61
(dp2589
g69
I3
ssg70
g2583
sg63
(lp2590
g1169
asbasbasbag56
(g72
g58
NtRp2591
(dp2592
g61
(dp2593
sg70
g2419
sg63
(lp2594
g56
(g77
g58
NtRp2595
(dp2596
g61
(dp2597
g81
g82
ssg70
g2591
sg63
(lp2598
S'HTTP_USER_AGENT'
p2599
asbag56
(g77
g58
NtRp2600
(dp2601
g61
(dp2602
g88
g89
ssg70
g2591
sg63
(lp2603
S':'
asbag56
(g77
g58
NtRp2604
(dp2605
g61
(dp2606
sg70
g2591
sg63
(lp2607
g56
(g57
g58
NtRp2608
(dp2609
g61
(dp2610
g69
I3
ssg70
g2604
sg63
(lp2611
g1191
asbasbasbag56
(g72
g58
NtRp2612
(dp2613
g61
(dp2614
sg70
g2419
sg63
(lp2615
g56
(g77
g58
NtRp2616
(dp2617
g61
(dp2618
g81
g82
ssg70
g2612
sg63
(lp2619
S'PATH_INFO'
p2620
asbag56
(g77
g58
NtRp2621
(dp2622
g61
(dp2623
g88
g89
ssg70
g2612
sg63
(lp2624
S':'
asbag56
(g77
g58
NtRp2625
(dp2626
g61
(dp2627
sg70
g2612
sg63
(lp2628
g56
(g57
g58
NtRp2629
(dp2630
g61
(dp2631
g69
I3
ssg70
g2625
sg63
(lp2632
g1234
asbasbasbag56
(g72
g58
NtRp2633
(dp2634
g61
(dp2635
sg70
g2419
sg63
(lp2636
g56
(g77
g58
NtRp2637
(dp2638
g61
(dp2639
g81
g82
ssg70
g2633
sg63
(lp2640
S'QUERY_STRING'
p2641
asbag56
(g77
g58
NtRp2642
(dp2643
g61
(dp2644
g88
g89
ssg70
g2633
sg63
(lp2645
S':'
asbag56
(g77
g58
NtRp2646
(dp2647
g61
(dp2648
sg70
g2633
sg63
(lp2649
g56
(g57
g58
NtRp2650
(dp2651
g61
(dp2652
g69
I3
ssg70
g2646
sg63
(lp2653
S''
asbasbasbag56
(g72
g58
NtRp2654
(dp2655
g61
(dp2656
sg70
g2419
sg63
(lp2657
g56
(g77
g58
NtRp2658
(dp2659
g61
(dp2660
g81
g82
ssg70
g2654
sg63
(lp2661
S'REMOTE_ADDR'
p2662
asbag56
(g77
g58
NtRp2663
(dp2664
g61
(dp2665
g88
g89
ssg70
g2654
sg63
(lp2666
S':'
asbag56
(g77
g58
NtRp2667
(dp2668
g61
(dp2669
sg70
g2654
sg63
(lp2670
g56
(g57
g58
NtRp2671
(dp2672
g61
(dp2673
g69
I3
ssg70
g2667
sg63
(lp2674
g202
asbasbasbag56
(g72
g58
NtRp2675
(dp2676
g61
(dp2677
sg70
g2419
sg63
(lp2678
g56
(g77
g58
NtRp2679
(dp2680
g61
(dp2681
g81
g82
ssg70
g2675
sg63
(lp2682
S'REMOTE_PORT'
p2683
asbag56
(g77
g58
NtRp2684
(dp2685
g61
(dp2686
g88
g89
ssg70
g2675
sg63
(lp2687
S':'
asbag56
(g77
g58
NtRp2688
(dp2689
g61
(dp2690
sg70
g2675
sg63
(lp2691
g56
(g57
g58
NtRp2692
(dp2693
g61
(dp2694
g69
I3
ssg70
g2688
sg63
(lp2695
g1298
asbasbasbag56
(g72
g58
NtRp2696
(dp2697
g61
(dp2698
sg70
g2419
sg63
(lp2699
g56
(g77
g58
NtRp2700
(dp2701
g61
(dp2702
g81
g82
ssg70
g2696
sg63
(lp2703
S'REQUEST_METHOD'
p2704
asbag56
(g77
g58
NtRp2705
(dp2706
g61
(dp2707
g88
g89
ssg70
g2696
sg63
(lp2708
S':'
asbag56
(g77
g58
NtRp2709
(dp2710
g61
(dp2711
sg70
g2696
sg63
(lp2712
g56
(g57
g58
NtRp2713
(dp2714
g61
(dp2715
g69
I3
ssg70
g2709
sg63
(lp2716
g1320
asbasbasbag56
(g72
g58
NtRp2717
(dp2718
g61
(dp2719
sg70
g2419
sg63
(lp2720
g56
(g77
g58
NtRp2721
(dp2722
g61
(dp2723
g81
g82
ssg70
g2717
sg63
(lp2724
S'SCRIPT_NAME'
p2725
asbag56
(g77
g58
NtRp2726
(dp2727
g61
(dp2728
g88
g89
ssg70
g2717
sg63
(lp2729
S':'
asbag56
(g77
g58
NtRp2730
(dp2731
g61
(dp2732
sg70
g2717
sg63
(lp2733
g56
(g57
g58
NtRp2734
(dp2735
g61
(dp2736
g69
I3
ssg70
g2730
sg63
(lp2737
S''
asbasbasbag56
(g72
g58
NtRp2738
(dp2739
g61
(dp2740
sg70
g2419
sg63
(lp2741
g56
(g77
g58
NtRp2742
(dp2743
g61
(dp2744
g81
g82
ssg70
g2738
sg63
(lp2745
S'SERVER_NAME'
p2746
asbag56
(g77
g58
NtRp2747
(dp2748
g61
(dp2749
g88
g89
ssg70
g2738
sg63
(lp2750
S':'
asbag56
(g77
g58
NtRp2751
(dp2752
g61
(dp2753
sg70
g2738
sg63
(lp2754
g56
(g57
g58
NtRp2755
(dp2756
g61
(dp2757
g69
I3
ssg70
g2751
sg63
(lp2758
g1363
asbasbasbag56
(g72
g58
NtRp2759
(dp2760
g61
(dp2761
sg70
g2419
sg63
(lp2762
g56
(g77
g58
NtRp2763
(dp2764
g61
(dp2765
g81
g82
ssg70
g2759
sg63
(lp2766
S'SERVER_PORT'
p2767
asbag56
(g77
g58
NtRp2768
(dp2769
g61
(dp2770
g88
g89
ssg70
g2759
sg63
(lp2771
S':'
asbag56
(g77
g58
NtRp2772
(dp2773
g61
(dp2774
sg70
g2759
sg63
(lp2775
g56
(g57
g58
NtRp2776
(dp2777
g61
(dp2778
g69
I3
ssg70
g2772
sg63
(lp2779
g1385
asbasbasbag56
(g72
g58
NtRp2780
(dp2781
g61
(dp2782
sg70
g2419
sg63
(lp2783
g56
(g77
g58
NtRp2784
(dp2785
g61
(dp2786
g81
g82
ssg70
g2780
sg63
(lp2787
S'SERVER_PROTOCOL'
p2788
asbag56
(g77
g58
NtRp2789
(dp2790
g61
(dp2791
g88
g89
ssg70
g2780
sg63
(lp2792
S':'
asbag56
(g77
g58
NtRp2793
(dp2794
g61
(dp2795
sg70
g2780
sg63
(lp2796
g56
(g57
g58
NtRp2797
(dp2798
g61
(dp2799
g69
I3
ssg70
g2793
sg63
(lp2800
g1407
asbasbasbag56
(g72
g58
NtRp2801
(dp2802
g61
(dp2803
sg70
g2419
sg63
(lp2804
g56
(g77
g58
NtRp2805
(dp2806
g61
(dp2807
g81
g82
ssg70
g2801
sg63
(lp2808
S'SERVER_SOFTWARE'
p2809
asbag56
(g77
g58
NtRp2810
(dp2811
g61
(dp2812
g88
g89
ssg70
g2801
sg63
(lp2813
S':'
asbag56
(g77
g58
NtRp2814
(dp2815
g61
(dp2816
sg70
g2801
sg63
(lp2817
g56
(g57
g58
NtRp2818
(dp2819
g61
(dp2820
g69
I3
ssg70
g2814
sg63
(lp2821
g1429
asbasbasbag56
(g72
g58
NtRp2822
(dp2823
g61
(dp2824
sg70
g2419
sg63
(lp2825
g56
(g77
g58
NtRp2826
(dp2827
g61
(dp2828
g81
g82
ssg70
g2822
sg63
(lp2829
S'wsgi.errors'
p2830
asbag56
(g77
g58
NtRp2831
(dp2832
g61
(dp2833
g88
g89
ssg70
g2822
sg63
(lp2834
S':'
asbag56
(g77
g58
NtRp2835
(dp2836
g61
(dp2837
sg70
g2822
sg63
(lp2838
g56
(g57
g58
NtRp2839
(dp2840
g61
(dp2841
g69
I3
ssg70
g2835
sg63
(lp2842
S"<open file '<stderr>', mode 'w' at 0x7f32eac6f270>"
p2843
asbasbasbag56
(g72
g58
NtRp2844
(dp2845
g61
(dp2846
sg70
g2419
sg63
(lp2847
g56
(g77
g58
NtRp2848
(dp2849
g61
(dp2850
g81
g82
ssg70
g2844
sg63
(lp2851
S'wsgi.file_wrapper'
p2852
asbag56
(g77
g58
NtRp2853
(dp2854
g61
(dp2855
g88
g89
ssg70
g2844
sg63
(lp2856
S':'
asbag56
(g77
g58
NtRp2857
(dp2858
g61
(dp2859
sg70
g2844
sg63
(lp2860
g56
(g57
g58
NtRp2861
(dp2862
g61
(dp2863
g69
I3
ssg70
g2857
sg63
(lp2864
S'<class wsgiref.util.FileWrapper at 0x1375808>'
p2865
asbasbasbag56
(g72
g58
NtRp2866
(dp2867
g61
(dp2868
sg70
g2419
sg63
(lp2869
g56
(g77
g58
NtRp2870
(dp2871
g61
(dp2872
g81
g82
ssg70
g2866
sg63
(lp2873
S'wsgi.input'
p2874
asbag56
(g77
g58
NtRp2875
(dp2876
g61
(dp2877
g88
g89
ssg70
g2866
sg63
(lp2878
S':'
asbag56
(g77
g58
NtRp2879
(dp2880
g61
(dp2881
sg70
g2866
sg63
(lp2882
g56
(g57
g58
NtRp2883
(dp2884
g61
(dp2885
g69
I3
ssg70
g2879
sg63
(lp2886
S'<cStringIO.StringO object at 0x7f32e01a7650>'
p2887
asbasbasbag56
(g72
g58
NtRp2888
(dp2889
g61
(dp2890
sg70
g2419
sg63
(lp2891
g56
(g77
g58
NtRp2892
(dp2893
g61
(dp2894
g81
g82
ssg70
g2888
sg63
(lp2895
S'wsgi.multiprocess'
p2896
asbag56
(g77
g58
NtRp2897
(dp2898
g61
(dp2899
g88
g89
ssg70
g2888
sg63
(lp2900
S':'
asbag56
(g77
g58
NtRp2901
(dp2902
g61
(dp2903
sg70
g2888
sg63
(lp2904
g56
(g57
g58
NtRp2905
(dp2906
g61
(dp2907
g69
I3
ssg70
g2901
sg63
(lp2908
g99
asbasbasbag56
(g72
g58
NtRp2909
(dp2910
g61
(dp2911
sg70
g2419
sg63
(lp2912
g56
(g77
g58
NtRp2913
(dp2914
g61
(dp2915
g81
g82
ssg70
g2909
sg63
(lp2916
S'wsgi.multithread'
p2917
asbag56
(g77
g58
NtRp2918
(dp2919
g61
(dp2920
g88
g89
ssg70
g2909
sg63
(lp2921
S':'
asbag56
(g77
g58
NtRp2922
(dp2923
g61
(dp2924
sg70
g2909
sg63
(lp2925
g56
(g57
g58
NtRp2926
(dp2927
g61
(dp2928
g69
I3
ssg70
g2922
sg63
(lp2929
g1669
asbasbasbag56
(g72
g58
NtRp2930
(dp2931
g61
(dp2932
sg70
g2419
sg63
(lp2933
g56
(g77
g58
NtRp2934
(dp2935
g61
(dp2936
g81
g82
ssg70
g2930
sg63
(lp2937
S'wsgi.run_once'
p2938
asbag56
(g77
g58
NtRp2939
(dp2940
g61
(dp2941
g88
g89
ssg70
g2930
sg63
(lp2942
S':'
asbag56
(g77
g58
NtRp2943
(dp2944
g61
(dp2945
sg70
g2930
sg63
(lp2946
g56
(g57
g58
NtRp2947
(dp2948
g61
(dp2949
g69
I3
ssg70
g2943
sg63
(lp2950
g99
asbasbasbag56
(g72
g58
NtRp2951
(dp2952
g61
(dp2953
sg70
g2419
sg63
(lp2954
g56
(g77
g58
NtRp2955
(dp2956
g61
(dp2957
g81
g82
ssg70
g2951
sg63
(lp2958
S'wsgi.url_scheme'
p2959
asbag56
(g77
g58
NtRp2960
(dp2961
g61
(dp2962
g88
g89
ssg70
g2951
sg63
(lp2963
S':'
asbag56
(g77
g58
NtRp2964
(dp2965
g61
(dp2966
sg70
g2951
sg63
(lp2967
g56
(g57
g58
NtRp2968
(dp2969
g61
(dp2970
g69
I3
ssg70
g2964
sg63
(lp2971
g1712
asbasbasbag56
(g72
g58
NtRp2972
(dp2973
g61
(dp2974
sg70
g2419
sg63
(lp2975
g56
(g77
g58
NtRp2976
(dp2977
g61
(dp2978
g81
g82
ssg70
g2972
sg63
(lp2979
S'wsgi.version'
p2980
asbag56
(g77
g58
NtRp2981
(dp2982
g61
(dp2983
g88
g89
ssg70
g2972
sg63
(lp2984
S':'
asbag56
(g77
g58
NtRp2985
(dp2986
g61
(dp2987
sg70
g2972
sg63
(lp2988
g56
(g57
g58
NtRp2989
(dp2990
g61
(dp2991
g69
I3
ssg70
g2985
sg63
(lp2992
S'1'
asbasbasbasbasbasbasbasbasbasbasbasbasbsS'frames'
p2993
(lp2994
(dp2995
S'file'
p2996
S'/home/ian/web2py/gluon/restricted.py'
p2997
sS'dump'
p2998
(dp2999
S'environment'
p3000
S"{'A': <class 'gluon.html.A'>, 'Auth': <class 'gluon.tools.Auth'>, 'B': <class 'gluon.html.B'>, 'BEAUTIFY': <class 'gluon.html.BEAUTIFY'>, 'BODY': <class 'gluon.html.BODY'>, 'BR': <class 'gluon.html.BR'>, 'BUTTON': <class 'gluon.html.BUTTON'>, 'CAT': <class 'gluon.html.CAT'>, 'CENTER': <class 'gluon.html.CENTER'>, 'CLEANUP': <class 'gluon.validators.CLEANUP'>, ...}"
p3001
sS'ccode'
p3002
S'<code object <module> at 0x7f32e0aba330, file "/...cations/paideia/controllers/default.py", line 12>'
p3003
ssS'lnum'
p3004
I194
sS'lines'
p3005
(dp3006
I192
S'        else:'
p3007
sI193
S'            ccode = compile2(code,layer)'
p3008
sI194
S'        exec ccode in environment'
p3009
sI195
S'    except HTTP:'
p3010
sI196
S'        raise'
p3011
sI197
S'    except Exception, error:'
p3012
sI198
S'        # XXX Show exception in Wing IDE if running in debugger'
p3013
sI189
S'    try:'
p3014
sI190
S'        if type(code) == types.CodeType:'
p3015
sI191
S'            ccode = code'
p3016
ssS'call'
p3017
S"(code='# -*- coding: utf-8 -*-\\n# this file is released ... message)\\n\\nresponse._vars=response._caller(user)\\n', environment={'A': <class 'gluon.html.A'>, 'Auth': <class 'gluon.tools.Auth'>, 'B': <class 'gluon.html.B'>, 'BEAUTIFY': <class 'gluon.html.BEAUTIFY'>, 'BODY': <class 'gluon.html.BODY'>, 'BR': <class 'gluon.html.BR'>, 'BUTTON': <class 'gluon.html.BUTTON'>, 'CAT': <class 'gluon.html.CAT'>, 'CENTER': <class 'gluon.html.CENTER'>, 'CLEANUP': <class 'gluon.validators.CLEANUP'>, ...}, layer='/home/ian/web2py/applications/paideia/controllers/default.py')"
p3018
sS'func'
p3019
S'restricted'
p3020
sa(dp3021
g2996
S'/home/ian/web2py/applications/paideia/controllers/default.py'
p3022
sg2998
(dp3023
sg3004
I122
sg3005
(dp3024
I111
S'            cat = 1'
p3025
sI112
S'        # update database with categorization'
p3026
sI113
S'        db(db.question_records.id == record.id).update(category = cat)'
p3027
sI114
S'        # count each record updated'
p3028
sI115
S'        counter += 1'
p3029
sI116
S'        session.debug = record.id'
p3030
sI117
S''
sI118
S'    message = "Success. I categorized ", counter, " records."'
p3031
sI119
S''
sI120
S'    return dict(message = message)'
p3032
ssg3017
S'()'
p3033
sg3019
S'<module>'
p3034
sa(dp3035
g2996
S'/home/ian/web2py/gluon/globals.py'
p3036
sg2998
(dp3037
S'self'
p3038
S'undefined'
p3039
sS'f'
S'<function user>'
p3040
ssg3004
I149
sg3005
(dp3041
I144
S'        self.meta = Storage()      # used by web2py_ajax.html'
p3042
sI145
S'        self.menu = []             # used by the default view layout'
p3043
sI146
S'        self.files = []            # used by web2py_ajax.html'
p3044
sI147
S'        self.generic_patterns = [] # patterns to allow generic views'
p3045
sI148
S'        self._vars = None'
p3046
sI149
S'        self._caller = lambda f: f()'
p3047
sI150
S'        self._view_environment = None'
p3048
sI151
S'        self._custom_commit = None'
p3049
sI152
S'        self._custom_rollback = None'
p3050
sI153
S''
ssg3017
S'(f=<function user>)'
p3051
sg3019
S'<lambda>'
p3052
sa(dp3053
g2996
S'/home/ian/web2py/applications/paideia/controllers/default.py'
p3054
sg2998
(dp3055
S'global paideia_timestats'
p3056
S'<class __builtin__.paideia_timestats>'
p3057
sS't'
g3039
sS'global auth'
p3058
S'<gluon.tools.Auth object>'
p3059
sS'auth.user_id'
p3060
S'None'
p3061
ssg3004
I37
sg3005
(dp3062
I32
S"        @auth.requires_permission('read','table name',record_id)"
p3063
sI33
S'    to decorate functions that need access control'
p3064
sI34
S'    """'
p3065
sI35
S'    # create instance of paideia_stats class from models'
p3066
sI36
S'    s = paideia_stats(auth.user_id)'
p3067
sI37
S'    t = paideia_timestats(auth.user_id)'
p3068
sI38
S''
sI39
S'    return dict(form=auth(), score_avg=s.score_avg, total_len = t.total_len, total_cat1 = t.total_cat1, total_cat2 = t.total_cat2, total_cat3 = t.total_cat3, percent_cat1 = t.percent_cat1, percent_cat2 = t.percent_cat2, percent_cat3 = t.percent_cat3, total_cat4 = t.total_cat4, percent_cat4 = t.percent_cat4)'
p3069
sI40
S''
sI41
S'def download():'
p3070
ssg3017
S'()'
p3071
sg3019
S'user'
p3072
sa(dp3073
g2996
S'/home/ian/web2py/applications/paideia/models/paideia_stats.py'
p3074
sg2998
(dp3075
S'the_records'
p3076
g3039
sS'self'
p3077
S'<__builtin__.paideia_timestats instance>'
p3078
sS'self.user_id'
p3079
g3039
sS'db.question_records'
p3080
S"<Table {'last_wrong': <gluon.dal.Field object at...ht': <gluon.dal.Field object at 0x7f32e0aae090>}>"
p3081
sS'db.question_records.name'
p3082
S'<gluon.dal.Field object>'
p3083
sS'global db'
p3084
S"<DAL {'auth_event': <Table {'origin': <gluon.dal...': <gluon.dal.Field object at 0x7f32e01a2a10>}>}>"
p3085
ssg3004
I41
sg3005
(dp3086
I36
S'        percent_cat3 -- Percentage of questions attempted that are currently in category 3'
p3087
sI37
S'        percent_cat4 -- Percentage of questions attempted that are currently in category 4'
p3088
sI38
S'        """'
p3089
sI39
S''
sI40
S'        # get statistics for different classes of questions'
p3090
sI41
S'        the_records = db(db.question_records.name == self.user_id).select()'
p3091
sI42
S'        self.total_len = float(len(the_records))'
p3092
sI43
S'        try:'
p3093
sI44
S'            cat1 = db((db.question_records.name == self.user_id) & (db.question_records.category == 1)).select()'
p3094
sI45
S'            self.total_cat1 = len(cat1)'
p3095
ssg3017
S'(self=<__builtin__.paideia_timestats instance>, user_id=None)'
p3096
sg3019
g49
sasS'pyver'
p3097
S'Python 2.7.2+: /usr/bin/python2.7'
p3098
sS'session'
p3099
g56
(g57
g58
NtRp3100
(dp3101
g61
(dp3102
sg63
(lp3103
g56
(g65
g58
NtRp3104
(dp3105
g61
(dp3106
g69
I5
ssg70
Nsg63
(lp3107
sbasbsS'etype'
p3108
S"<type 'exceptions.AttributeError'>"
p3109
sS'date'
p3110
S'Fri Oct 28 09:31:24 2011'
p3111
sS'response'
p3112
g56
(g57
g58
NtRp3113
(dp3114
g61
(dp3115
sg63
(lp3116
g56
(g65
g58
NtRp3117
(dp3118
g61
(dp3119
g69
I5
ssg70
Nsg63
(lp3120
g56
(g72
g58
NtRp3121
(dp3122
g61
(dp3123
sg70
g3117
sg63
(lp3124
g56
(g77
g58
NtRp3125
(dp3126
g61
(dp3127
g81
g82
ssg70
g3121
sg63
(lp3128
g167
asbag56
(g77
g58
NtRp3129
(dp3130
g61
(dp3131
g88
g89
ssg70
g3121
sg63
(lp3132
S':'
asbag56
(g77
g58
NtRp3133
(dp3134
g61
(dp3135
sg70
g3121
sg63
(lp3136
g56
(g57
g58
NtRp3137
(dp3138
g61
(dp3139
g69
I5
ssg70
g3133
sg63
(lp3140
S'<cStringIO.StringO object at 0x7f32e0a96bc8>'
p3141
asbasbasbag56
(g72
g58
NtRp3142
(dp3143
g61
(dp3144
sg70
g3117
sg63
(lp3145
g56
(g77
g58
NtRp3146
(dp3147
g61
(dp3148
g81
g82
ssg70
g3142
sg63
(lp3149
g233
asbag56
(g77
g58
NtRp3150
(dp3151
g61
(dp3152
g88
g89
ssg70
g3142
sg63
(lp3153
S':'
asbag56
(g77
g58
NtRp3154
(dp3155
g61
(dp3156
sg70
g3142
sg63
(lp3157
g56
(g57
g58
NtRp3158
(dp3159
g61
(dp3160
g69
I5
ssg70
g3154
sg63
(lp3161
g56
(g65
g58
NtRp3162
(dp3163
g61
(dp3164
g69
I4
ssg70
Nsg63
(lp3165
g56
(g72
g58
NtRp3166
(dp3167
g61
(dp3168
sg70
g3162
sg63
(lp3169
g56
(g77
g58
NtRp3170
(dp3171
g61
(dp3172
g81
g82
ssg70
g3166
sg63
(lp3173
S'session_id_paideia'
p3174
asbag56
(g77
g58
NtRp3175
(dp3176
g61
(dp3177
g88
g89
ssg70
g3166
sg63
(lp3178
S':'
asbag56
(g77
g58
NtRp3179
(dp3180
g61
(dp3181
sg70
g3166
sg63
(lp3182
g56
(g57
g58
NtRp3183
(dp3184
g61
(dp3185
g69
I4
ssg70
g3179
sg63
(lp3186
g56
(g65
g58
NtRp3187
(dp3188
g61
(dp3189
g69
I3
ssg70
Nsg63
(lp3190
g56
(g72
g58
NtRp3191
(dp3192
g61
(dp3193
sg70
g3187
sg63
(lp3194
g56
(g77
g58
NtRp3195
(dp3196
g61
(dp3197
g81
g82
ssg70
g3191
sg63
(lp3198
g283
asbag56
(g77
g58
NtRp3199
(dp3200
g61
(dp3201
g88
g89
ssg70
g3191
sg63
(lp3202
S':'
asbag56
(g77
g58
NtRp3203
(dp3204
g61
(dp3205
sg70
g3191
sg63
(lp3206
g56
(g57
g58
NtRp3207
(dp3208
g61
(dp3209
g69
I3
ssg70
g3203
sg63
(lp3210
S''
asbasbasbag56
(g72
g58
NtRp3211
(dp3212
g61
(dp3213
sg70
g3187
sg63
(lp3214
g56
(g77
g58
NtRp3215
(dp3216
g61
(dp3217
g81
g82
ssg70
g3211
sg63
(lp3218
g304
asbag56
(g77
g58
NtRp3219
(dp3220
g61
(dp3221
g88
g89
ssg70
g3211
sg63
(lp3222
S':'
asbag56
(g77
g58
NtRp3223
(dp3224
g61
(dp3225
sg70
g3211
sg63
(lp3226
g56
(g57
g58
NtRp3227
(dp3228
g61
(dp3229
g69
I3
ssg70
g3223
sg63
(lp3230
S''
asbasbasbag56
(g72
g58
NtRp3231
(dp3232
g61
(dp3233
sg70
g3187
sg63
(lp3234
g56
(g77
g58
NtRp3235
(dp3236
g61
(dp3237
g81
g82
ssg70
g3231
sg63
(lp3238
g325
asbag56
(g77
g58
NtRp3239
(dp3240
g61
(dp3241
g88
g89
ssg70
g3231
sg63
(lp3242
S':'
asbag56
(g77
g58
NtRp3243
(dp3244
g61
(dp3245
sg70
g3231
sg63
(lp3246
g56
(g57
g58
NtRp3247
(dp3248
g61
(dp3249
g69
I3
ssg70
g3243
sg63
(lp3250
S''
asbasbasbag56
(g72
g58
NtRp3251
(dp3252
g61
(dp3253
sg70
g3187
sg63
(lp3254
g56
(g77
g58
NtRp3255
(dp3256
g61
(dp3257
g81
g82
ssg70
g3251
sg63
(lp3258
g346
asbag56
(g77
g58
NtRp3259
(dp3260
g61
(dp3261
g88
g89
ssg70
g3251
sg63
(lp3262
S':'
asbag56
(g77
g58
NtRp3263
(dp3264
g61
(dp3265
sg70
g3251
sg63
(lp3266
g56
(g57
g58
NtRp3267
(dp3268
g61
(dp3269
g69
I3
ssg70
g3263
sg63
(lp3270
S''
asbasbasbag56
(g72
g58
NtRp3271
(dp3272
g61
(dp3273
sg70
g3187
sg63
(lp3274
g56
(g77
g58
NtRp3275
(dp3276
g61
(dp3277
g81
g82
ssg70
g3271
sg63
(lp3278
g367
asbag56
(g77
g58
NtRp3279
(dp3280
g61
(dp3281
g88
g89
ssg70
g3271
sg63
(lp3282
S':'
asbag56
(g77
g58
NtRp3283
(dp3284
g61
(dp3285
sg70
g3271
sg63
(lp3286
g56
(g57
g58
NtRp3287
(dp3288
g61
(dp3289
g69
I3
ssg70
g3283
sg63
(lp3290
S''
asbasbasbag56
(g72
g58
NtRp3291
(dp3292
g61
(dp3293
sg70
g3187
sg63
(lp3294
g56
(g77
g58
NtRp3295
(dp3296
g61
(dp3297
g81
g82
ssg70
g3291
sg63
(lp3298
g388
asbag56
(g77
g58
NtRp3299
(dp3300
g61
(dp3301
g88
g89
ssg70
g3291
sg63
(lp3302
S':'
asbag56
(g77
g58
NtRp3303
(dp3304
g61
(dp3305
sg70
g3291
sg63
(lp3306
g56
(g57
g58
NtRp3307
(dp3308
g61
(dp3309
g69
I3
ssg70
g3303
sg63
(lp3310
S'/'
asbasbasbag56
(g72
g58
NtRp3311
(dp3312
g61
(dp3313
sg70
g3187
sg63
(lp3314
g56
(g77
g58
NtRp3315
(dp3316
g61
(dp3317
g81
g82
ssg70
g3311
sg63
(lp3318
g409
asbag56
(g77
g58
NtRp3319
(dp3320
g61
(dp3321
g88
g89
ssg70
g3311
sg63
(lp3322
S':'
asbag56
(g77
g58
NtRp3323
(dp3324
g61
(dp3325
sg70
g3311
sg63
(lp3326
g56
(g57
g58
NtRp3327
(dp3328
g61
(dp3329
g69
I3
ssg70
g3323
sg63
(lp3330
S''
asbasbasbag56
(g72
g58
NtRp3331
(dp3332
g61
(dp3333
sg70
g3187
sg63
(lp3334
g56
(g77
g58
NtRp3335
(dp3336
g61
(dp3337
g81
g82
ssg70
g3331
sg63
(lp3338
g430
asbag56
(g77
g58
NtRp3339
(dp3340
g61
(dp3341
g88
g89
ssg70
g3331
sg63
(lp3342
S':'
asbag56
(g77
g58
NtRp3343
(dp3344
g61
(dp3345
sg70
g3331
sg63
(lp3346
g56
(g57
g58
NtRp3347
(dp3348
g61
(dp3349
g69
I3
ssg70
g3343
sg63
(lp3350
S''
asbasbasbasbasbasbasbasbasbasbasbag56
(g72
g58
NtRp3351
(dp3352
g61
(dp3353
sg70
g3117
sg63
(lp3354
g56
(g77
g58
NtRp3355
(dp3356
g61
(dp3357
g81
g82
ssg70
g3351
sg63
(lp3358
S'files'
p3359
asbag56
(g77
g58
NtRp3360
(dp3361
g61
(dp3362
g88
g89
ssg70
g3351
sg63
(lp3363
S':'
asbag56
(g77
g58
NtRp3364
(dp3365
g61
(dp3366
sg70
g3351
sg63
(lp3367
g56
(g57
g58
NtRp3368
(dp3369
g61
(dp3370
g69
I5
ssg70
g3364
sg63
(lp3371
g56
(g65
g58
NtRp3372
(dp3373
g61
(dp3374
g69
I4
ssg70
Nsg63
(lp3375
sbasbasbasbag56
(g72
g58
NtRp3376
(dp3377
g61
(dp3378
sg70
g3117
sg63
(lp3379
g56
(g77
g58
NtRp3380
(dp3381
g61
(dp3382
g81
g82
ssg70
g3376
sg63
(lp3383
S'flash'
p3384
asbag56
(g77
g58
NtRp3385
(dp3386
g61
(dp3387
g88
g89
ssg70
g3376
sg63
(lp3388
S':'
asbag56
(g77
g58
NtRp3389
(dp3390
g61
(dp3391
sg70
g3376
sg63
(lp3392
g56
(g57
g58
NtRp3393
(dp3394
g61
(dp3395
g69
I5
ssg70
g3389
sg63
(lp3396
S''
asbasbasbag56
(g72
g58
NtRp3397
(dp3398
g61
(dp3399
sg70
g3117
sg63
(lp3400
g56
(g77
g58
NtRp3401
(dp3402
g61
(dp3403
g81
g82
ssg70
g3397
sg63
(lp3404
S'generic_patterns'
p3405
asbag56
(g77
g58
NtRp3406
(dp3407
g61
(dp3408
g88
g89
ssg70
g3397
sg63
(lp3409
S':'
asbag56
(g77
g58
NtRp3410
(dp3411
g61
(dp3412
sg70
g3397
sg63
(lp3413
g56
(g57
g58
NtRp3414
(dp3415
g61
(dp3416
g69
I5
ssg70
g3410
sg63
(lp3417
g56
(g65
g58
NtRp3418
(dp3419
g61
(dp3420
g69
I4
ssg70
Nsg63
(lp3421
g56
(g72
g58
NtRp3422
(dp3423
g61
(dp3424
sg70
g3418
sg63
(lp3425
g56
(g77
g58
NtRp3426
(dp3427
g61
(dp3428
sg70
g3422
sg63
(lp3429
g56
(g57
g58
NtRp3430
(dp3431
g61
(dp3432
g69
I4
ssg70
g3426
sg63
(lp3433
S'*'
asbasbasbasbasbasbasbag56
(g72
g58
NtRp3434
(dp3435
g61
(dp3436
sg70
g3117
sg63
(lp3437
g56
(g77
g58
NtRp3438
(dp3439
g61
(dp3440
g81
g82
ssg70
g3434
sg63
(lp3441
S'headers'
p3442
asbag56
(g77
g58
NtRp3443
(dp3444
g61
(dp3445
g88
g89
ssg70
g3434
sg63
(lp3446
S':'
asbag56
(g77
g58
NtRp3447
(dp3448
g61
(dp3449
sg70
g3434
sg63
(lp3450
g56
(g57
g58
NtRp3451
(dp3452
g61
(dp3453
g69
I5
ssg70
g3447
sg63
(lp3454
g56
(g65
g58
NtRp3455
(dp3456
g61
(dp3457
g69
I4
ssg70
Nsg63
(lp3458
g56
(g72
g58
NtRp3459
(dp3460
g61
(dp3461
sg70
g3455
sg63
(lp3462
g56
(g77
g58
NtRp3463
(dp3464
g61
(dp3465
g81
g82
ssg70
g3459
sg63
(lp3466
S'Cache-Control'
p3467
asbag56
(g77
g58
NtRp3468
(dp3469
g61
(dp3470
g88
g89
ssg70
g3459
sg63
(lp3471
S':'
asbag56
(g77
g58
NtRp3472
(dp3473
g61
(dp3474
sg70
g3459
sg63
(lp3475
g56
(g57
g58
NtRp3476
(dp3477
g61
(dp3478
g69
I4
ssg70
g3472
sg63
(lp3479
S'no-store, no-cache, must-revalidate, post-check=0, pre-check=0'
p3480
asbasbasbag56
(g72
g58
NtRp3481
(dp3482
g61
(dp3483
sg70
g3455
sg63
(lp3484
g56
(g77
g58
NtRp3485
(dp3486
g61
(dp3487
g81
g82
ssg70
g3481
sg63
(lp3488
S'Content-Type'
p3489
asbag56
(g77
g58
NtRp3490
(dp3491
g61
(dp3492
g88
g89
ssg70
g3481
sg63
(lp3493
S':'
asbag56
(g77
g58
NtRp3494
(dp3495
g61
(dp3496
sg70
g3481
sg63
(lp3497
g56
(g57
g58
NtRp3498
(dp3499
g61
(dp3500
g69
I4
ssg70
g3494
sg63
(lp3501
S'text/html; charset=utf-8'
p3502
asbasbasbag56
(g72
g58
NtRp3503
(dp3504
g61
(dp3505
sg70
g3455
sg63
(lp3506
g56
(g77
g58
NtRp3507
(dp3508
g61
(dp3509
g81
g82
ssg70
g3503
sg63
(lp3510
S'Expires'
p3511
asbag56
(g77
g58
NtRp3512
(dp3513
g61
(dp3514
g88
g89
ssg70
g3503
sg63
(lp3515
S':'
asbag56
(g77
g58
NtRp3516
(dp3517
g61
(dp3518
sg70
g3503
sg63
(lp3519
g56
(g57
g58
NtRp3520
(dp3521
g61
(dp3522
g69
I4
ssg70
g3516
sg63
(lp3523
S'Fri, 28 Oct 2011 13:31:24 GMT'
p3524
asbasbasbag56
(g72
g58
NtRp3525
(dp3526
g61
(dp3527
sg70
g3455
sg63
(lp3528
g56
(g77
g58
NtRp3529
(dp3530
g61
(dp3531
g81
g82
ssg70
g3525
sg63
(lp3532
S'Pragma'
p3533
asbag56
(g77
g58
NtRp3534
(dp3535
g61
(dp3536
g88
g89
ssg70
g3525
sg63
(lp3537
S':'
asbag56
(g77
g58
NtRp3538
(dp3539
g61
(dp3540
sg70
g3525
sg63
(lp3541
g56
(g57
g58
NtRp3542
(dp3543
g61
(dp3544
g69
I4
ssg70
g3538
sg63
(lp3545
S'no-cache'
p3546
asbasbasbag56
(g72
g58
NtRp3547
(dp3548
g61
(dp3549
sg70
g3455
sg63
(lp3550
g56
(g77
g58
NtRp3551
(dp3552
g61
(dp3553
g81
g82
ssg70
g3547
sg63
(lp3554
S'X-Powered-By'
p3555
asbag56
(g77
g58
NtRp3556
(dp3557
g61
(dp3558
g88
g89
ssg70
g3547
sg63
(lp3559
S':'
asbag56
(g77
g58
NtRp3560
(dp3561
g61
(dp3562
sg70
g3547
sg63
(lp3563
g56
(g57
g58
NtRp3564
(dp3565
g61
(dp3566
g69
I4
ssg70
g3560
sg63
(lp3567
S'web2py'
p3568
asbasbasbasbasbasbasbag56
(g72
g58
NtRp3569
(dp3570
g61
(dp3571
sg70
g3117
sg63
(lp3572
g56
(g77
g58
NtRp3573
(dp3574
g61
(dp3575
g81
g82
ssg70
g3569
sg63
(lp3576
S'menu'
p3577
asbag56
(g77
g58
NtRp3578
(dp3579
g61
(dp3580
g88
g89
ssg70
g3569
sg63
(lp3581
S':'
asbag56
(g77
g58
NtRp3582
(dp3583
g61
(dp3584
sg70
g3569
sg63
(lp3585
g56
(g57
g58
NtRp3586
(dp3587
g61
(dp3588
g69
I5
ssg70
g3582
sg63
(lp3589
g56
(g65
g58
NtRp3590
(dp3591
g61
(dp3592
g69
I4
ssg70
Nsg63
(lp3593
g56
(g72
g58
NtRp3594
(dp3595
g61
(dp3596
sg70
g3590
sg63
(lp3597
g56
(g77
g58
NtRp3598
(dp3599
g61
(dp3600
sg70
g3594
sg63
(lp3601
g56
(g57
g58
NtRp3602
(dp3603
g61
(dp3604
g69
I4
ssg70
g3598
sg63
(lp3605
g56
(g65
g58
NtRp3606
(dp3607
g61
(dp3608
g69
I3
ssg70
Nsg63
(lp3609
g56
(g72
g58
NtRp3610
(dp3611
g61
(dp3612
sg70
g3606
sg63
(lp3613
g56
(g77
g58
NtRp3614
(dp3615
g61
(dp3616
sg70
g3610
sg63
(lp3617
g56
(g57
g58
NtRp3618
(dp3619
g61
(dp3620
g69
I3
ssg70
g3614
sg63
(lp3621
cgluon.languages
lazyT_unpickle
p3622
(S't\x04\x00\x00\x00Home'
tRp3623
asbasbasbag56
(g72
g58
NtRp3624
(dp3625
g61
(dp3626
sg70
g3606
sg63
(lp3627
g56
(g77
g58
NtRp3628
(dp3629
g61
(dp3630
sg70
g3624
sg63
(lp3631
g56
(g57
g58
NtRp3632
(dp3633
g61
(dp3634
g69
I3
ssg70
g3628
sg63
(lp3635
g99
asbasbasbag56
(g72
g58
NtRp3636
(dp3637
g61
(dp3638
sg70
g3606
sg63
(lp3639
g56
(g77
g58
NtRp3640
(dp3641
g61
(dp3642
sg70
g3636
sg63
(lp3643
g56
(g57
g58
NtRp3644
(dp3645
g61
(dp3646
g69
I3
ssg70
g3640
sg63
(lp3647
S'/paideia/default/index'
p3648
asbasbasbag56
(g72
g58
NtRp3649
(dp3650
g61
(dp3651
sg70
g3606
sg63
(lp3652
g56
(g77
g58
NtRp3653
(dp3654
g61
(dp3655
sg70
g3649
sg63
(lp3656
g56
(g57
g58
NtRp3657
(dp3658
g61
(dp3659
g69
I3
ssg70
g3653
sg63
(lp3660
g56
(g65
g58
NtRp3661
(dp3662
g61
(dp3663
g69
I2
ssg70
Nsg63
(lp3664
sbasbasbasbasbasbasbasbag56
(g72
g58
NtRp3665
(dp3666
g61
(dp3667
sg70
g3590
sg63
(lp3668
g56
(g77
g58
NtRp3669
(dp3670
g61
(dp3671
sg70
g3665
sg63
(lp3672
g56
(g57
g58
NtRp3673
(dp3674
g61
(dp3675
g69
I4
ssg70
g3669
sg63
(lp3676
g56
(g65
g58
NtRp3677
(dp3678
g61
(dp3679
g69
I3
ssg70
Nsg63
(lp3680
g56
(g72
g58
NtRp3681
(dp3682
g61
(dp3683
sg70
g3677
sg63
(lp3684
g56
(g77
g58
NtRp3685
(dp3686
g61
(dp3687
sg70
g3681
sg63
(lp3688
g56
(g57
g58
NtRp3689
(dp3690
g61
(dp3691
g69
I3
ssg70
g3685
sg63
(lp3692
g3622
(S't\x05\x00\x00\x00Admin'
tRp3693
asbasbasbag56
(g72
g58
NtRp3694
(dp3695
g61
(dp3696
sg70
g3677
sg63
(lp3697
g56
(g77
g58
NtRp3698
(dp3699
g61
(dp3700
sg70
g3694
sg63
(lp3701
g56
(g57
g58
NtRp3702
(dp3703
g61
(dp3704
g69
I3
ssg70
g3698
sg63
(lp3705
g99
asbasbasbag56
(g72
g58
NtRp3706
(dp3707
g61
(dp3708
sg70
g3677
sg63
(lp3709
g56
(g77
g58
NtRp3710
(dp3711
g61
(dp3712
sg70
g3706
sg63
(lp3713
g56
(g57
g58
NtRp3714
(dp3715
g61
(dp3716
g69
I3
ssg70
g3710
sg63
(lp3717
S'None'
p3718
asbasbasbag56
(g72
g58
NtRp3719
(dp3720
g61
(dp3721
sg70
g3677
sg63
(lp3722
g56
(g77
g58
NtRp3723
(dp3724
g61
(dp3725
sg70
g3719
sg63
(lp3726
g56
(g57
g58
NtRp3727
(dp3728
g61
(dp3729
g69
I3
ssg70
g3723
sg63
(lp3730
g56
(g65
g58
NtRp3731
(dp3732
g61
(dp3733
g69
I2
ssg70
Nsg63
(lp3734
g56
(g72
g58
NtRp3735
(dp3736
g61
(dp3737
sg70
g3731
sg63
(lp3738
g56
(g77
g58
NtRp3739
(dp3740
g61
(dp3741
sg70
g3735
sg63
(lp3742
g56
(g57
g58
NtRp3743
(dp3744
g61
(dp3745
g69
I2
ssg70
g3739
sg63
(lp3746
g56
(g65
g58
NtRp3747
(dp3748
g61
(dp3749
g69
I1
ssg70
Nsg63
(lp3750
g56
(g72
g58
NtRp3751
(dp3752
g61
(dp3753
sg70
g3747
sg63
(lp3754
g56
(g77
g58
NtRp3755
(dp3756
g61
(dp3757
sg70
g3751
sg63
(lp3758
g56
(g57
g58
NtRp3759
(dp3760
g61
(dp3761
g69
I1
ssg70
g3755
sg63
(lp3762
g3622
(S't\x06\x00\x00\x00Design'
tRp3763
asbasbasbag56
(g72
g58
NtRp3764
(dp3765
g61
(dp3766
sg70
g3747
sg63
(lp3767
g56
(g77
g58
NtRp3768
(dp3769
g61
(dp3770
sg70
g3764
sg63
(lp3771
g56
(g57
g58
NtRp3772
(dp3773
g61
(dp3774
g69
I1
ssg70
g3768
sg63
(lp3775
I00
asbasbasbag56
(g72
g58
NtRp3776
(dp3777
g61
(dp3778
sg70
g3747
sg63
(lp3779
g56
(g77
g58
NtRp3780
(dp3781
g61
(dp3782
sg70
g3776
sg63
(lp3783
g56
(g57
g58
NtRp3784
(dp3785
g61
(dp3786
g69
I1
ssg70
g3780
sg63
(lp3787
S'/admin/default/index'
p3788
asbasbasbasbasbasbasbag56
(g72
g58
NtRp3789
(dp3790
g61
(dp3791
sg70
g3731
sg63
(lp3792
g56
(g77
g58
NtRp3793
(dp3794
g61
(dp3795
sg70
g3789
sg63
(lp3796
g56
(g57
g58
NtRp3797
(dp3798
g61
(dp3799
g69
I2
ssg70
g3793
sg63
(lp3800
g56
(g65
g58
NtRp3801
(dp3802
g61
(dp3803
g69
I1
ssg70
Nsg63
(lp3804
g56
(g72
g58
NtRp3805
(dp3806
g61
(dp3807
sg70
g3801
sg63
(lp3808
g56
(g77
g58
NtRp3809
(dp3810
g61
(dp3811
sg70
g3805
sg63
(lp3812
g56
(g57
g58
NtRp3813
(dp3814
g61
(dp3815
g69
I1
ssg70
g3809
sg63
(lp3816
g3622
(S't\x08\x00\x00\x00Database'
tRp3817
asbasbasbag56
(g72
g58
NtRp3818
(dp3819
g61
(dp3820
sg70
g3801
sg63
(lp3821
g56
(g77
g58
NtRp3822
(dp3823
g61
(dp3824
sg70
g3818
sg63
(lp3825
g56
(g57
g58
NtRp3826
(dp3827
g61
(dp3828
g69
I1
ssg70
g3822
sg63
(lp3829
I00
asbasbasbag56
(g72
g58
NtRp3830
(dp3831
g61
(dp3832
sg70
g3801
sg63
(lp3833
g56
(g77
g58
NtRp3834
(dp3835
g61
(dp3836
sg70
g3830
sg63
(lp3837
g56
(g57
g58
NtRp3838
(dp3839
g61
(dp3840
g69
I1
ssg70
g3834
sg63
(lp3841
S'/paideia/appadmin/index'
p3842
asbasbasbasbasbasbasbag56
(g72
g58
NtRp3843
(dp3844
g61
(dp3845
sg70
g3731
sg63
(lp3846
g56
(g77
g58
NtRp3847
(dp3848
g61
(dp3849
sg70
g3843
sg63
(lp3850
g56
(g57
g58
NtRp3851
(dp3852
g61
(dp3853
g69
I2
ssg70
g3847
sg63
(lp3854
g56
(g65
g58
NtRp3855
(dp3856
g61
(dp3857
g69
I1
ssg70
Nsg63
(lp3858
g56
(g72
g58
NtRp3859
(dp3860
g61
(dp3861
sg70
g3855
sg63
(lp3862
g56
(g77
g58
NtRp3863
(dp3864
g61
(dp3865
sg70
g3859
sg63
(lp3866
g56
(g57
g58
NtRp3867
(dp3868
g61
(dp3869
g69
I1
ssg70
g3863
sg63
(lp3870
g3622
(S't\x05\x00\x00\x00Users'
tRp3871
asbasbasbag56
(g72
g58
NtRp3872
(dp3873
g61
(dp3874
sg70
g3855
sg63
(lp3875
g56
(g77
g58
NtRp3876
(dp3877
g61
(dp3878
sg70
g3872
sg63
(lp3879
g56
(g57
g58
NtRp3880
(dp3881
g61
(dp3882
g69
I1
ssg70
g3876
sg63
(lp3883
I00
asbasbasbag56
(g72
g58
NtRp3884
(dp3885
g61
(dp3886
sg70
g3855
sg63
(lp3887
g56
(g77
g58
NtRp3888
(dp3889
g61
(dp3890
sg70
g3884
sg63
(lp3891
g56
(g57
g58
NtRp3892
(dp3893
g61
(dp3894
g69
I1
ssg70
g3888
sg63
(lp3895
S'/paideia/listing/user'
p3896
asbasbasbasbasbasbasbag56
(g72
g58
NtRp3897
(dp3898
g61
(dp3899
sg70
g3731
sg63
(lp3900
g56
(g77
g58
NtRp3901
(dp3902
g61
(dp3903
sg70
g3897
sg63
(lp3904
g56
(g57
g58
NtRp3905
(dp3906
g61
(dp3907
g69
I2
ssg70
g3901
sg63
(lp3908
g56
(g65
g58
NtRp3909
(dp3910
g61
(dp3911
g69
I1
ssg70
Nsg63
(lp3912
g56
(g72
g58
NtRp3913
(dp3914
g61
(dp3915
sg70
g3909
sg63
(lp3916
g56
(g77
g58
NtRp3917
(dp3918
g61
(dp3919
sg70
g3913
sg63
(lp3920
g56
(g57
g58
NtRp3921
(dp3922
g61
(dp3923
g69
I1
ssg70
g3917
sg63
(lp3924
g3622
(S't\t\x00\x00\x00Questions'
tRp3925
asbasbasbag56
(g72
g58
NtRp3926
(dp3927
g61
(dp3928
sg70
g3909
sg63
(lp3929
g56
(g77
g58
NtRp3930
(dp3931
g61
(dp3932
sg70
g3926
sg63
(lp3933
g56
(g57
g58
NtRp3934
(dp3935
g61
(dp3936
g69
I1
ssg70
g3930
sg63
(lp3937
I00
asbasbasbag56
(g72
g58
NtRp3938
(dp3939
g61
(dp3940
sg70
g3909
sg63
(lp3941
g56
(g77
g58
NtRp3942
(dp3943
g61
(dp3944
sg70
g3938
sg63
(lp3945
g56
(g57
g58
NtRp3946
(dp3947
g61
(dp3948
g69
I1
ssg70
g3942
sg63
(lp3949
S'/paideia/listing/question'
p3950
asbasbasbasbasbasbasbag56
(g72
g58
NtRp3951
(dp3952
g61
(dp3953
sg70
g3731
sg63
(lp3954
g56
(g77
g58
NtRp3955
(dp3956
g61
(dp3957
sg70
g3951
sg63
(lp3958
g56
(g57
g58
NtRp3959
(dp3960
g61
(dp3961
g69
I2
ssg70
g3955
sg63
(lp3962
g56
(g65
g58
NtRp3963
(dp3964
g61
(dp3965
g69
I1
ssg70
Nsg63
(lp3966
g56
(g72
g58
NtRp3967
(dp3968
g61
(dp3969
sg70
g3963
sg63
(lp3970
g56
(g77
g58
NtRp3971
(dp3972
g61
(dp3973
sg70
g3967
sg63
(lp3974
g56
(g57
g58
NtRp3975
(dp3976
g61
(dp3977
g69
I1
ssg70
g3971
sg63
(lp3978
g3622
(S't\x07\x00\x00\x00Quizzes'
tRp3979
asbasbasbag56
(g72
g58
NtRp3980
(dp3981
g61
(dp3982
sg70
g3963
sg63
(lp3983
g56
(g77
g58
NtRp3984
(dp3985
g61
(dp3986
sg70
g3980
sg63
(lp3987
g56
(g57
g58
NtRp3988
(dp3989
g61
(dp3990
g69
I1
ssg70
g3984
sg63
(lp3991
I00
asbasbasbag56
(g72
g58
NtRp3992
(dp3993
g61
(dp3994
sg70
g3963
sg63
(lp3995
g56
(g77
g58
NtRp3996
(dp3997
g61
(dp3998
sg70
g3992
sg63
(lp3999
g56
(g57
g58
NtRp4000
(dp4001
g61
(dp4002
g69
I1
ssg70
g3996
sg63
(lp4003
S'/paideia/listing/quiz'
p4004
asbasbasbasbasbasbasbag56
(g72
g58
NtRp4005
(dp4006
g61
(dp4007
sg70
g3731
sg63
(lp4008
g56
(g77
g58
NtRp4009
(dp4010
g61
(dp4011
sg70
g4005
sg63
(lp4012
g56
(g57
g58
NtRp4013
(dp4014
g61
(dp4015
g69
I2
ssg70
g4009
sg63
(lp4016
g56
(g65
g58
NtRp4017
(dp4018
g61
(dp4019
g69
I1
ssg70
Nsg63
(lp4020
g56
(g72
g58
NtRp4021
(dp4022
g61
(dp4023
sg70
g4017
sg63
(lp4024
g56
(g77
g58
NtRp4025
(dp4026
g61
(dp4027
sg70
g4021
sg63
(lp4028
g56
(g57
g58
NtRp4029
(dp4030
g61
(dp4031
g69
I1
ssg70
g4025
sg63
(lp4032
g3622
(S't\x04\x00\x00\x00Tags'
tRp4033
asbasbasbag56
(g72
g58
NtRp4034
(dp4035
g61
(dp4036
sg70
g4017
sg63
(lp4037
g56
(g77
g58
NtRp4038
(dp4039
g61
(dp4040
sg70
g4034
sg63
(lp4041
g56
(g57
g58
NtRp4042
(dp4043
g61
(dp4044
g69
I1
ssg70
g4038
sg63
(lp4045
I00
asbasbasbag56
(g72
g58
NtRp4046
(dp4047
g61
(dp4048
sg70
g4017
sg63
(lp4049
g56
(g77
g58
NtRp4050
(dp4051
g61
(dp4052
sg70
g4046
sg63
(lp4053
g56
(g57
g58
NtRp4054
(dp4055
g61
(dp4056
g69
I1
ssg70
g4050
sg63
(lp4057
S'/paideia/listing/tag'
p4058
asbasbasbasbasbasbasbasbasbasbasbasbasbasbasbasbasbasbasbag56
(g72
g58
NtRp4059
(dp4060
g61
(dp4061
sg70
g3117
sg63
(lp4062
g56
(g77
g58
NtRp4063
(dp4064
g61
(dp4065
g81
g82
ssg70
g4059
sg63
(lp4066
S'meta'
p4067
asbag56
(g77
g58
NtRp4068
(dp4069
g61
(dp4070
g88
g89
ssg70
g4059
sg63
(lp4071
S':'
asbag56
(g77
g58
NtRp4072
(dp4073
g61
(dp4074
sg70
g4059
sg63
(lp4075
g56
(g57
g58
NtRp4076
(dp4077
g61
(dp4078
g69
I5
ssg70
g4072
sg63
(lp4079
g56
(g65
g58
NtRp4080
(dp4081
g61
(dp4082
g69
I4
ssg70
Nsg63
(lp4083
g56
(g72
g58
NtRp4084
(dp4085
g61
(dp4086
sg70
g4080
sg63
(lp4087
g56
(g77
g58
NtRp4088
(dp4089
g61
(dp4090
g81
g82
ssg70
g4084
sg63
(lp4091
S'author'
p4092
asbag56
(g77
g58
NtRp4093
(dp4094
g61
(dp4095
g88
g89
ssg70
g4084
sg63
(lp4096
S':'
asbag56
(g77
g58
NtRp4097
(dp4098
g61
(dp4099
sg70
g4084
sg63
(lp4100
g56
(g57
g58
NtRp4101
(dp4102
g61
(dp4103
g69
I4
ssg70
g4097
sg63
(lp4104
S'Ian W. Scott'
p4105
asbasbasbag56
(g72
g58
NtRp4106
(dp4107
g61
(dp4108
sg70
g4080
sg63
(lp4109
g56
(g77
g58
NtRp4110
(dp4111
g61
(dp4112
g81
g82
ssg70
g4106
sg63
(lp4113
S'copyright'
p4114
asbag56
(g77
g58
NtRp4115
(dp4116
g61
(dp4117
g88
g89
ssg70
g4106
sg63
(lp4118
S':'
asbag56
(g77
g58
NtRp4119
(dp4120
g61
(dp4121
sg70
g4106
sg63
(lp4122
g56
(g57
g58
NtRp4123
(dp4124
g61
(dp4125
g69
I4
ssg70
g4119
sg63
(lp4126
S'Copyright 2011'
p4127
asbasbasbag56
(g72
g58
NtRp4128
(dp4129
g61
(dp4130
sg70
g4080
sg63
(lp4131
g56
(g77
g58
NtRp4132
(dp4133
g61
(dp4134
g81
g82
ssg70
g4128
sg63
(lp4135
S'description'
p4136
asbag56
(g77
g58
NtRp4137
(dp4138
g61
(dp4139
g88
g89
ssg70
g4128
sg63
(lp4140
S':'
asbag56
(g77
g58
NtRp4141
(dp4142
g61
(dp4143
sg70
g4128
sg63
(lp4144
g56
(g57
g58
NtRp4145
(dp4146
g61
(dp4147
g69
I4
ssg70
g4141
sg63
(lp4148
S'An online space for learning New Testament Greek'
p4149
asbasbasbag56
(g72
g58
NtRp4150
(dp4151
g61
(dp4152
sg70
g4080
sg63
(lp4153
g56
(g77
g58
NtRp4154
(dp4155
g61
(dp4156
g81
g82
ssg70
g4150
sg63
(lp4157
S'generator'
p4158
asbag56
(g77
g58
NtRp4159
(dp4160
g61
(dp4161
g88
g89
ssg70
g4150
sg63
(lp4162
S':'
asbag56
(g77
g58
NtRp4163
(dp4164
g61
(dp4165
sg70
g4150
sg63
(lp4166
g56
(g57
g58
NtRp4167
(dp4168
g61
(dp4169
g69
I4
ssg70
g4163
sg63
(lp4170
S'Web2py Enterprise Framework'
p4171
asbasbasbag56
(g72
g58
NtRp4172
(dp4173
g61
(dp4174
sg70
g4080
sg63
(lp4175
g56
(g77
g58
NtRp4176
(dp4177
g61
(dp4178
g81
g82
ssg70
g4172
sg63
(lp4179
S'keywords'
p4180
asbag56
(g77
g58
NtRp4181
(dp4182
g61
(dp4183
g88
g89
ssg70
g4172
sg63
(lp4184
S':'
asbag56
(g77
g58
NtRp4185
(dp4186
g61
(dp4187
sg70
g4172
sg63
(lp4188
g56
(g57
g58
NtRp4189
(dp4190
g61
(dp4191
g69
I4
ssg70
g4185
sg63
(lp4192
S'Greek, koine, New Testament, language, education, learning'
p4193
asbasbasbasbasbasbasbag56
(g72
g58
NtRp4194
(dp4195
g61
(dp4196
sg70
g3117
sg63
(lp4197
g56
(g77
g58
NtRp4198
(dp4199
g61
(dp4200
g81
g82
ssg70
g4194
sg63
(lp4201
S'postprocessing'
p4202
asbag56
(g77
g58
NtRp4203
(dp4204
g61
(dp4205
g88
g89
ssg70
g4194
sg63
(lp4206
S':'
asbag56
(g77
g58
NtRp4207
(dp4208
g61
(dp4209
sg70
g4194
sg63
(lp4210
g56
(g57
g58
NtRp4211
(dp4212
g61
(dp4213
g69
I5
ssg70
g4207
sg63
(lp4214
g56
(g65
g58
NtRp4215
(dp4216
g61
(dp4217
g69
I4
ssg70
Nsg63
(lp4218
sbasbasbasbag56
(g72
g58
NtRp4219
(dp4220
g61
(dp4221
sg70
g3117
sg63
(lp4222
g56
(g77
g58
NtRp4223
(dp4224
g61
(dp4225
g81
g82
ssg70
g4219
sg63
(lp4226
S'session_filename'
p4227
asbag56
(g77
g58
NtRp4228
(dp4229
g61
(dp4230
g88
g89
ssg70
g4219
sg63
(lp4231
S':'
asbag56
(g77
g58
NtRp4232
(dp4233
g61
(dp4234
sg70
g4219
sg63
(lp4235
g56
(g57
g58
NtRp4236
(dp4237
g61
(dp4238
g69
I5
ssg70
g4232
sg63
(lp4239
S'/home/ian/web2py/applications/paideia/sessions/127.0.0.1-788870e7-29b4-4646-bf30-7f61af621228'
p4240
asbasbasbag56
(g72
g58
NtRp4241
(dp4242
g61
(dp4243
sg70
g3117
sg63
(lp4244
g56
(g77
g58
NtRp4245
(dp4246
g61
(dp4247
g81
g82
ssg70
g4241
sg63
(lp4248
S'session_id'
p4249
asbag56
(g77
g58
NtRp4250
(dp4251
g61
(dp4252
g88
g89
ssg70
g4241
sg63
(lp4253
S':'
asbag56
(g77
g58
NtRp4254
(dp4255
g61
(dp4256
sg70
g4241
sg63
(lp4257
g56
(g57
g58
NtRp4258
(dp4259
g61
(dp4260
g69
I5
ssg70
g4254
sg63
(lp4261
S'127.0.0.1-788870e7-29b4-4646-bf30-7f61af621228'
p4262
asbasbasbag56
(g72
g58
NtRp4263
(dp4264
g61
(dp4265
sg70
g3117
sg63
(lp4266
g56
(g77
g58
NtRp4267
(dp4268
g61
(dp4269
g81
g82
ssg70
g4263
sg63
(lp4270
S'session_id_name'
p4271
asbag56
(g77
g58
NtRp4272
(dp4273
g61
(dp4274
g88
g89
ssg70
g4263
sg63
(lp4275
S':'
asbag56
(g77
g58
NtRp4276
(dp4277
g61
(dp4278
sg70
g4263
sg63
(lp4279
g56
(g57
g58
NtRp4280
(dp4281
g61
(dp4282
g69
I5
ssg70
g4276
sg63
(lp4283
g3174
asbasbasbag56
(g72
g58
NtRp4284
(dp4285
g61
(dp4286
sg70
g3117
sg63
(lp4287
g56
(g77
g58
NtRp4288
(dp4289
g61
(dp4290
g81
g82
ssg70
g4284
sg63
(lp4291
S'session_new'
p4292
asbag56
(g77
g58
NtRp4293
(dp4294
g61
(dp4295
g88
g89
ssg70
g4284
sg63
(lp4296
S':'
asbag56
(g77
g58
NtRp4297
(dp4298
g61
(dp4299
sg70
g4284
sg63
(lp4300
g56
(g57
g58
NtRp4301
(dp4302
g61
(dp4303
g69
I5
ssg70
g4297
sg63
(lp4304
g1669
asbasbasbag56
(g72
g58
NtRp4305
(dp4306
g61
(dp4307
sg70
g3117
sg63
(lp4308
g56
(g77
g58
NtRp4309
(dp4310
g61
(dp4311
g81
g82
ssg70
g4305
sg63
(lp4312
S'status'
p4313
asbag56
(g77
g58
NtRp4314
(dp4315
g61
(dp4316
g88
g89
ssg70
g4305
sg63
(lp4317
S':'
asbag56
(g77
g58
NtRp4318
(dp4319
g61
(dp4320
sg70
g4305
sg63
(lp4321
g56
(g57
g58
NtRp4322
(dp4323
g61
(dp4324
g69
I5
ssg70
g4318
sg63
(lp4325
S'200'
p4326
asbasbasbag56
(g72
g58
NtRp4327
(dp4328
g61
(dp4329
sg70
g3117
sg63
(lp4330
g56
(g77
g58
NtRp4331
(dp4332
g61
(dp4333
g81
g82
ssg70
g4327
sg63
(lp4334
S'subtitle'
p4335
asbag56
(g77
g58
NtRp4336
(dp4337
g61
(dp4338
g88
g89
ssg70
g4327
sg63
(lp4339
S':'
asbag56
(g77
g58
NtRp4340
(dp4341
g61
(dp4342
sg70
g4327
sg63
(lp4343
g56
(g57
g58
NtRp4344
(dp4345
g61
(dp4346
g69
I5
ssg70
g4340
sg63
(lp4347
g3622
(S's0\x00\x00\x00An online space for learning New Testament Greek'
tRp4348
asbasbasbag56
(g72
g58
NtRp4349
(dp4350
g61
(dp4351
sg70
g3117
sg63
(lp4352
g56
(g77
g58
NtRp4353
(dp4354
g61
(dp4355
g81
g82
ssg70
g4349
sg63
(lp4356
S'title'
p4357
asbag56
(g77
g58
NtRp4358
(dp4359
g61
(dp4360
g88
g89
ssg70
g4349
sg63
(lp4361
S':'
asbag56
(g77
g58
NtRp4362
(dp4363
g61
(dp4364
sg70
g4349
sg63
(lp4365
g56
(g57
g58
NtRp4366
(dp4367
g61
(dp4368
g69
I5
ssg70
g4362
sg63
(lp4369
g121
asbasbasbag56
(g72
g58
NtRp4370
(dp4371
g61
(dp4372
sg70
g3117
sg63
(lp4373
g56
(g77
g58
NtRp4374
(dp4375
g61
(dp4376
g81
g82
ssg70
g4370
sg63
(lp4377
g2334
asbag56
(g77
g58
NtRp4378
(dp4379
g61
(dp4380
g88
g89
ssg70
g4370
sg63
(lp4381
S':'
asbag56
(g77
g58
NtRp4382
(dp4383
g61
(dp4384
sg70
g4370
sg63
(lp4385
g56
(g57
g58
NtRp4386
(dp4387
g61
(dp4388
g69
I5
ssg70
g4382
sg63
(lp4389
g2347
asbasbasbag56
(g72
g58
NtRp4390
(dp4391
g61
(dp4392
sg70
g3117
sg63
(lp4393
g56
(g77
g58
NtRp4394
(dp4395
g61
(dp4396
g81
g82
ssg70
g4390
sg63
(lp4397
S'view'
p4398
asbag56
(g77
g58
NtRp4399
(dp4400
g61
(dp4401
g88
g89
ssg70
g4390
sg63
(lp4402
S':'
asbag56
(g77
g58
NtRp4403
(dp4404
g61
(dp4405
sg70
g4390
sg63
(lp4406
g56
(g57
g58
NtRp4407
(dp4408
g61
(dp4409
g69
I5
ssg70
g4403
sg63
(lp4410
S'default/user.html'
p4411
asbasbasbasbasbsS'locals'
p4412
(dp4413
S'self'
p4414
S'<__builtin__.paideia_timestats instance>'
p4415
sS'user_id'
p4416
S'None'
p4417
sssS'traceback'
p4418
S'Traceback (most recent call last):\n  File "/home/ian/web2py/gluon/restricted.py", line 194, in restricted\n    exec ccode in environment\n  File "/home/ian/web2py/applications/paideia/controllers/default.py", line 122, in <module>\n  File "/home/ian/web2py/gluon/globals.py", line 149, in <lambda>\n    self._caller = lambda f: f()\n  File "/home/ian/web2py/applications/paideia/controllers/default.py", line 37, in user\n    t = paideia_timestats(auth.user_id)\n  File "/home/ian/web2py/applications/paideia/models/paideia_stats.py", line 41, in __init__\n    the_records = db(db.question_records.name == self.user_id).select()\nAttributeError: paideia_timestats instance has no attribute \'user_id\'\n'
p4419
s.