(dp1
S'output'
p2
S''
sS'layer'
p3
S'/home/ian/web2py/applications/paideia/views/default/index.html'
p4
sS'code'
p5
S'left_sidebar_enabled=right_sidebar_enabled=False\nresponse.write(\'\\n\\n\', escape=False)\nresponse.write(\'<!DOCTYPE html>\\n<html lang="\', escape=False)\nresponse.write(T.accepted_language or \'en\')\nresponse.write(\'" class="no-js"><!-- no-js need it for modernzr -->\\n  <head>\\n    \\n    <meta charset="utf-8" />        \\n    <!-- www.phpied.com/conditional-comments-block-downloads/ -->\\n    <!--[if IE]><![endif]-->    \\n    <!-- Always force latest IE rendering engine \\n     (even in intranet) & Chrome Frame \\n     Remove this if you use the .htaccess -->\\n    <meta http-equiv="X-UA-Compatible" content="IE=edge,chrome=1">\\n    \\n    <title>\', escape=False)\nresponse.write(response.title or request.application)\nresponse.write(\'</title>\\n    \\n    <!-- http://dev.w3.org/html5/markup/meta.name.html -->\\n    <meta name="application-name" content="\', escape=False)\nresponse.write(request.application)\nresponse.write(\'" /> \\n    \\n    <!-- Speaking of Google, don\\\'t forget to set your site up: \\n     http://google.com/webmasters -->\\n    <meta name="google-site-verification" content="" />\\n    \\n    <!--  Mobile Viewport Fix\\n      j.mp/mobileviewport & davidbcalhoun.com/2010/viewport-metatag \\n      device-width: Occupy full width of the screen in its current orientation\\n      initial-scale = 1.0 retains dimensions instead of zooming out if page height > device height\\n      maximum-scale = 1.0 retains dimensions instead of zooming in if page width < device width\\n      -->\\n    <meta name="viewport" content="width=device-width, initial-scale=1.0, maximum-scale=1.0">\\n    \\n    <!-- Place favicon.ico and apple-touch-icon.png in the root of your domain and delete these references -->\\n    <link rel="shortcut icon" href="\', escape=False)\nresponse.write(URL(\'static\',\'favicon.ico\'))\nresponse.write(\'" type="image/x-icon">\\n    <link rel="apple-touch-icon" href="\', escape=False)\nresponse.write(URL(\'static\',\'favicon.png\'))\nresponse.write(\'">\\n\\n    <!-- For the less-enabled mobile browsers like Opera Mini -->\\n    <link rel="stylesheet" media="handheld" href="\', escape=False)\nresponse.write(URL(\'static\',\'css/handheld.css\'))\nresponse.write(\'">\\n    \\n    <!-- All JavaScript at the bottom, except for Modernizr which enables HTML5 elements & feature detects -->\\n    <script src="\', escape=False)\nresponse.write(URL(\'static\',\'js/modernizr-1.7.min.js\'))\nresponse.write(\'"></script>\\n    \\n    \', escape=False)\n#------  require CSS and JS files for this page (read info in base.css) ------\nresponse.write(\'\\n    \', escape=False)\nresponse.files.append(URL(\'static\',\'css/base.css\'))\nresponse.write(\'\\n    \', escape=False)\nresponse.files.append(URL(\'static\',\'css/superfish.css\'))\nresponse.write(\'\\n    \', escape=False)\nresponse.files.append(URL(\'static\',\'js/superfish.js\'))\nresponse.write(\'\\n    \', escape=False)\n#------ include web2py specific js code (jquery, calendar, form stuff) ------\nresponse.write(\'\\n    \', escape=False)\nresponse.files.insert(0,URL(\'static\',\'js/jquery.js\'))\nresponse.files.insert(1,URL(\'static\',\'css/calendar.css\'))\nresponse.files.insert(2,URL(\'static\',\'js/calendar.js\'))\nfor _item in response.meta or []:\n    response.write(\'\\n     <meta name="\', escape=False)\n    response.write(_item)\n    response.write(\'" content="\', escape=False)\n    response.write(response.meta[_item])\n    response.write(\'" />\', escape=False)\n    pass\nfor _k,_file in enumerate(response.files or []):\n    if _file in response.files[:_k]:\n        continue\n    _file0=_file.lower().split(\'?\')[0]\n    if _file0.endswith(\'.css\'):\n        response.write(\'\\n     <link href="\', escape=False)\n        response.write(_file)\n        response.write(\'" rel="stylesheet" type="text/css" />\', escape=False)\n    elif _file0.endswith(\'.js\'):\n        response.write(\'\\n     <script src="\', escape=False)\n        response.write(_file)\n        response.write(\'" type="text/javascript"></script>\', escape=False)\n        pass\n    pass\nresponse.write(\'\\n    <script type="text/javascript"><!--\\n    // These variables are used by the web2py_ajax_init function in web2py_ajax.js (which is loaded below).\\n    var w2p_ajax_confirm_message = "\', escape=False)\nresponse.write(T(\'Are you sure you want to delete this object?\'))\nresponse.write(\'";\\n    var w2p_ajax_date_format = "\', escape=False)\nresponse.write(T(\'%Y-%m-%d\'))\nresponse.write(\'";\\n    var w2p_ajax_datetime_format = "\', escape=False)\nresponse.write(T(\'%Y-%m-%d %H:%M:%S\'))\nresponse.write(\'";\\n    //--></script>\\n    <script src="\', escape=False)\nresponse.write(URL(\'static\',\'js/web2py_ajax.js\'))\nresponse.write(\'" type="text/javascript"></script>\\n\', escape=False)\nresponse.write(\'\\n\\n    \', escape=False)\n#using sidebars need to know what sidebar you want to use\n#prior of using it, because of static width size of content, you can use\n#left_sidebar, right_sidebar, both or none (False left and right)\nleft_sidebar_enabled = globals().get(\'left_sidebar_enabled\',False)\nright_sidebar_enabled = globals().get(\'right_sidebar_enabled\',False)\nif left_sidebar_enabled and right_sidebar_enabled: width_content=\'63%\'\nelif left_sidebar_enabled != right_sidebar_enabled: width_content=\'740px\'\nelse: width_content=\'100%\'\nif left_sidebar_enabled: left_sidebar_style = \'style="display: block;"\'\nelse: left_sidebar_style = \'style="display: none;"\'\nif right_sidebar_enabled: right_sidebar_style = \'style="display: block;"\'\nelse: right_sidebar_style = \'style="display: none;"\'\nstyle_content = \'style="width: %s"\' % width_content\nresponse.write(\'\\n    \\n    <!--use html5shiv to let IE see new html entities and give them block style so that they are treated properly--> \\n    <!--[if IE]>\\n        <script src="http://html5shiv.googlecode.com/svn/trunk/html5.js"></script>\\n    <![endif]-->\\n    <style>\\n      article, aside, details, figcaption, figure, footer, header,\\n      hgroup, menu, nav, section { display: block; }\\n    </style>\\n      \\n    \\n  </head>\\n  \\n  <!-- paulirish.com/2008/conditional-stylesheets-vs-css-hacks-answer-neither/ -->  \\n  <!--[if lt IE 7 ]> <body class="ie6"> <![endif]-->\\n  <!--[if IE 7 ]>    <body class="ie7"> <![endif]-->\\n  <!--[if IE 8 ]>    <body class="ie8"> <![endif]-->\\n  <!--[if IE 9 ]>    <body class="ie9"> <![endif]-->\\n  <!--[if (gt IE 9)|!(IE)]><!--> <body> <!--<![endif]-->\\n    \\n    <div class="flash">\', escape=False)\nresponse.write(response.flash or \'\')\nresponse.write("</div> <!-- notification div -->   \\n    \\n    <div id=\'modal_frame\'></div><!--div to display modal dialogues and forms-->                        \\n    \\n    <header>\\n    \\n    \\n      <nav>\\n          ", escape=False)\nresponse.write(\' <!-- this is default statusbar -->\\n          \', escape=False)\n#------ superfish menu ------\nresponse.write(\'\\n          \', escape=False)\nresponse.write(MENU(response.menu,_class=\'sf-menu\'))\nresponse.write(\'\\n          <script type="text/javascript">\\n              jQuery(document).ready(function(){\\n              jQuery(\\\'ul.sf-menu\\\').superfish();});\\n          </script>\\n          <div style="clear: both;"></div><!-- Clear the divs -->   \\n          \', escape=False)\nresponse.write(\'               \\n      </nav>\\n    \\n      \', escape=False)\nresponse.write(\' <!-- this is default header -->\\n      \', escape=False)\ntry:\n    response.write(auth.navbar(action=URL(\'default\',\'user\')))\nexcept:pass\nresponse.write(\'               \\n      <h1 id="appname">\', escape=False)\nresponse.write(A(request.application.capitalize(), _href=URL(\'default\', \'index\')))\nresponse.write(\'</h1>\\n      <div style="clear: both;"></div><!-- Clear the divs -->\\n      \', escape=False)\nresponse.write(\'                \\n                             \\n    </header>\\n    \\n    <div id="page" class="\', escape=False)\nresponse.write(request.controller)\nresponse.write(\' \', escape=False)\nresponse.write(request.function)\nresponse.write(\'">    \\n\\n      \', escape=False)\nif left_sidebar_enabled:\n    response.write(\'\\n          <div id="left_sidebar" \', escape=False)\n    response.write(XML(left_sidebar_style))\n    response.write(\' >\\n            <div style="padding: 4px;">\\n          \', escape=False)\n    response.write(\'New Left Sidebar Content\', escape=False)\n    response.write(\'       \\n            </div>\\n          </div><!-- left_sidebar -->\\n      \', escape=False)\n    pass\nresponse.write(\'\\n\\n      <!-- content of other views-->\\n      \', escape=False)\nresponse.write("\\n\\n\\n<h2>Welcome!</h2>\\n\\n<section id=\'updates\'>\\n", escape=False)\nresponse.write(LOAD(\'listing\', \'news.load\'),ajax=True)\nresponse.write(\'\\n</section>\\n\\n\', escape=False)\nresponse.write(A("start exploring", _href=URL(\'exploring\', \'index\'), _class=\'button-green-grad\'))\nresponse.write(\'\\n\\n\\n\', escape=False)\nresponse.write(\'\\n\\n\', escape=False)\nresponse.write(\'\\n\', escape=False)\nresponse.write(\' \\n      <!-- content -->\\n\\n      \', escape=False)\nif right_sidebar_enabled:\n    response.write(\'\\n          <div id="right_sidebar" \', escape=False)\n    response.write(XML(right_sidebar_style))\n    response.write(\' >\\n            <div style="padding: 4px;">\\n              \', escape=False)\n    response.write(\'New Right Sidebar Content\', escape=False)\n    response.write(\'\\n            </div>\\n          </div><!-- right_sidebar -->\\n      \', escape=False)\n    pass\nresponse.write(\'\\n       \\n      <div style="clear: both;"></div><!-- Clear the divs -->                         \\n    \\n    </div><!--page-->\\n    \\n    <footer>\\n      \', escape=False)\nresponse.write(\' <!-- this is default footer -->\\n      <a href="http://www.web2py.com/" >\\n        <img src="\', escape=False)\nresponse.write(URL(\'static\',\'images/poweredby.png\'))\nresponse.write(\'"/>\\n      </a>\\n      \', escape=False)\nresponse.write(T(\'Copyright\'))\nresponse.write(\' &#169; Ian W. Scott 2011 (licensed under GPL 3.0)               \\n      <div style="clear: both;"></div><!-- Clear the divs -->\\n      \', escape=False)\nresponse.write(\'\\n    </footer>           \\n\\n    <!--[if lt IE 7 ]>\\n    <script src="\', escape=False)\nresponse.write(URL(\'static\',\'js/dd_belatedpng.js\'))\nresponse.write(\'"></script>\\n    <script> DD_belatedPNG.fix(\\\'img, .png_bg\\\'); //fix any <img> or .png_bg background-images </script>\\n    <![endif]-->\\n    \\n    <!-- asynchronous google analytics: mathiasbynens.be/notes/async-analytics-snippet \\n     change the UA-XXXXX-X to be your site\\\'s ID -->\\n    <!--   \\n       <script>\\n         var _gaq = [[\\\'_setAccount\\\', \\\'UA-XXXXX-X\\\'], [\\\'_trackPageview\\\']];\\n         (function(d, t) {\\n         var g = d.createElement(t),\\n         s = d.getElementsByTagName(t)[0];\\n         g.async = true;\\n         g.src = \\\'//www.google-analytics.com/ga.js\\\';\\n         s.parentNode.insertBefore(g, s);\\n         })(document, \\\'script\\\');\\n       </script>\\n       -->    \\n    <script>\\n    $(document).ready(function() {\\n        $(\\\'.bug, .tag_create_link\\\').live(\\\'click\\\', function(){\\n            $(\\\'#modal_frame\\\').show();\\n        });\\n        $(\\\'.close_link\\\').live(\\\'click\\\', function(){\\n            $(\\\'#modal_frame\\\').hide();\\n            return false\\n        });\\n    });\\n    </script>\\n  \\n  </body>\\n</html>\\n\', escape=False)'
p6
sS'snapshot'
p7
(dp8
S'exception'
p9
(dp10
S'load'
p11
S'<bound method RestrictedError.load of RestrictedError()>'
p12
sS'__module__'
p13
S"'gluon.restricted'"
p14
sg5
S'"response.write(\'\\\\n\', escape=False)\\nresponse.writ...    pass\\nresponse.write(\'\\\\n\\\\n\\\\n\\\\n\', escape=False)"'
p15
sS'__getslice__'
p16
S"<method-wrapper '__getslice__' of RestrictedError object>"
p17
sS'__str__'
p18
S"<method-wrapper '__str__' of RestrictedError object>"
p19
sS'__reduce__'
p20
S'<built-in method __reduce__ of RestrictedError object>'
p21
sg3
S"'/home/ian/web2py/applications/paideia/views/listing/news.load'"
p22
sS'__dict__'
p23
S'{\'code\': "response.write(\'\\\\n\', escape=False)\\nresponse.writ...    pass\\nresponse.write(\'\\\\n\\\\n\\\\n\\\\n\', escape=False)", \'environment\': {\'A\': <class \'gluon.html.A\'>, \'Auth\': <class \'gluon.tools.Auth\'>, \'B\': <class \'gluon.html.B\'>, \'BEAUTIFY\': <class \'gluon.html.BEAUTIFY\'>, \'BODY\': <class \'gluon.html.BODY\'>, \'BR\': <class \'gluon.html.BR\'>, \'BUTTON\': <class \'gluon.html.BUTTON\'>, \'CAT\': <class \'gluon.html.CAT\'>, \'CENTER\': <class \'gluon.html.CENTER\'>, \'CLEANUP\': <class \'gluon.validators.CLEANUP\'>, ...}, \'layer\': \'/home/ian/web2py/applications/paideia/views/listing/news.load\', \'output\': \'\', \'snapshot\': {\'date\': \'Wed Oct 12 15:00:11 2011\', \'etype\': "<type \'exceptions.NameError\'>", \'evalue\': "name \'h3\' is not defined", \'exception\': {\'__class__\': "<type \'exceptions.NameError\'>", \'__delattr__\': "<method-wrapper \'__delattr__\' of exceptions.NameError object>", \'__dict__\': \'{}\', \'__doc__\': "\'Name not found globally.\'", \'__format__\': \'<built-in method __format__ of exceptions.NameError object>\', \'__getattribute__\': "<method-wrapper \'__getattribute__\' of exceptions.NameError object>", \'__getitem__\': "<method-wrapper \'__getitem__\' of exceptions.NameError object>", \'__getslice__\': "<method-wrapper \'__getslice__\' of exceptions.NameError object>", \'__hash__\': "<method-wrapper \'__hash__\' of exceptions.NameError object>", \'__init__\': "<method-wrapper \'__init__\' of exceptions.NameError object>", ...}, \'frames\': [{\'call\': \'(code="response.write(\\\'\\\\\\\\n\\\', escape=False)\\\\nresp...py/applications/paideia/views/listing/news.load\\\')\', \'dump\': {\'ccode\': \'<code object <module> at 0x7f017c153430, file "/...cations/paideia/views/listing/news.load", line 1>\', \'environment\': "{\'A\': <class \'gluon.html.A\'>, \'Auth\': <class \'gl...LEANUP\': <class \'gluon.validators.CLEANUP\'>, ...}"}, \'file\': \'/home/ian/web2py/gluon/restricted.py\', \'func\': \'restricted\', \'lines\': {189: \'    try:\', 190: \'        if type(code) == types.CodeType:\', 191: \'            ccode = code\', 192: \'        else:\', 193: \'            ccode = compile2(code,layer)\', 194: \'        exec ccode in environment\', 195: \'    except HTTP:\', 196: \'        raise\', 197: \'    except Exception, error:\', 198: \'        # XXX Show exception in Wing IDE if running in debugger\'}, \'lnum\': 194}, {\'call\': \'()\', \'dump\': {\'News\': \'undefined\', \'Updates\': \'undefined\', \'h3\': \'undefined\'}, \'file\': \'/home/ian/web2py/applications/paideia/views/listing/news.load\', \'func\': \'<module>\', \'lines\': {2: \'{{=h3(News and Updates)}}\', 3: \'\', 4: \'{{=button}}\', 5: \'\', 6: \'{{for story in newslist:}}\', 7: \'<article>\', 8: \'{{=H4(story.title)}}\', 9: \'{{=SPAN(story.name)}}\', 10: \'{{=SPAN(story.date_submitted)}}\', 11: \'{{=P(story.story)}}\'}, \'lnum\': 2}], \'locals\': {\'A\': "<class \'gluon.html.A\'>", \'Auth\': "<class \'gluon.tools.Auth\'>", \'B\': "<class \'gluon.html.B\'>", \'BEAUTIFY\': "<class \'gluon.html.BEAUTIFY\'>", \'BODY\': "<class \'gluon.html.BODY\'>", \'BR\': "<class \'gluon.html.BR\'>", \'BUTTON\': "<class \'gluon.html.BUTTON\'>", \'CAT\': "<class \'gluon.html.CAT\'>", \'CENTER\': "<class \'gluon.html.CENTER\'>", \'CLEANUP\': "<class \'gluon.validators.CLEANUP\'>", ...}, \'pyver\': \'Python 2.7.2+: /usr/bin/python2.7\', \'request\': <gluon.html.BEAUTIFY object>, \'response\': <gluon.html.BEAUTIFY object>, \'session\': <gluon.html.BEAUTIFY object>}, \'traceback\': \'Traceback (most recent call last):\\n  File "/home...d Updates)}}\\nNameError: name \\\'h3\\\' is not defined\\n\'}'
p24
sS'__sizeof__'
p25
S'<built-in method __sizeof__ of RestrictedError object>'
p26
sS'__weakref__'
p27
S'None'
p28
sS'__init__'
p29
S'<bound method RestrictedError.__init__ of RestrictedError()>'
p30
sS'__setattr__'
p31
S"<method-wrapper '__setattr__' of RestrictedError object>"
p32
sS'__reduce_ex__'
p33
S'<built-in method __reduce_ex__ of RestrictedError object>'
p34
sS'__new__'
p35
S'<built-in method __new__ of type object>'
p36
sS'__format__'
p37
S'<built-in method __format__ of RestrictedError object>'
p38
sS'__class__'
p39
S"<class 'gluon.restricted.RestrictedError'>"
p40
sS'environment'
p41
S"{'A': <class 'gluon.html.A'>, 'Auth': <class 'gluon.tools.Auth'>, 'B': <class 'gluon.html.B'>, 'BEAUTIFY': <class 'gluon.html.BEAUTIFY'>, 'BODY': <class 'gluon.html.BODY'>, 'BR': <class 'gluon.html.BR'>, 'BUTTON': <class 'gluon.html.BUTTON'>, 'CAT': <class 'gluon.html.CAT'>, 'CENTER': <class 'gluon.html.CENTER'>, 'CLEANUP': <class 'gluon.validators.CLEANUP'>, ...}"
p42
sS'__doc__'
p43
S"'\\n    class used to wrap an exception that occurs... to log the exception and generate a ticket.\\n    '"
p44
sS'__getitem__'
p45
S"<method-wrapper '__getitem__' of RestrictedError object>"
p46
sS'__setstate__'
p47
S'<built-in method __setstate__ of RestrictedError object>'
p48
sS'__getattribute__'
p49
S"<method-wrapper '__getattribute__' of RestrictedError object>"
p50
sS'args'
p51
S'()'
p52
sS'__subclasshook__'
p53
S'<built-in method __subclasshook__ of type object>'
p54
sS'__unicode__'
p55
S'<built-in method __unicode__ of RestrictedError object>'
p56
sS'log'
p57
S'<bound method RestrictedError.log of RestrictedError()>'
p58
sS'traceback'
p59
S'\'Traceback (most recent call last):\\n  File "/home...d Updates)}}\\nNameError: name \\\'h3\\\' is not defined\\n\''
p60
sS'__delattr__'
p61
S"<method-wrapper '__delattr__' of RestrictedError object>"
p62
sg7
S'{\'date\': \'Wed Oct 12 15:00:11 2011\', \'etype\': "<type \'exceptions.NameError\'>", \'evalue\': "name \'h3\' is not defined", \'exception\': {\'__class__\': "<type \'exceptions.NameError\'>", \'__delattr__\': "<method-wrapper \'__delattr__\' of exceptions.NameError object>", \'__dict__\': \'{}\', \'__doc__\': "\'Name not found globally.\'", \'__format__\': \'<built-in method __format__ of exceptions.NameError object>\', \'__getattribute__\': "<method-wrapper \'__getattribute__\' of exceptions.NameError object>", \'__getitem__\': "<method-wrapper \'__getitem__\' of exceptions.NameError object>", \'__getslice__\': "<method-wrapper \'__getslice__\' of exceptions.NameError object>", \'__hash__\': "<method-wrapper \'__hash__\' of exceptions.NameError object>", \'__init__\': "<method-wrapper \'__init__\' of exceptions.NameError object>", ...}, \'frames\': [{\'call\': \'(code="response.write(\\\'\\\\\\\\n\\\', escape=False)\\\\nresp...py/applications/paideia/views/listing/news.load\\\')\', \'dump\': {\'ccode\': \'<code object <module> at 0x7f017c153430, file "/...cations/paideia/views/listing/news.load", line 1>\', \'environment\': "{\'A\': <class \'gluon.html.A\'>, \'Auth\': <class \'gl...LEANUP\': <class \'gluon.validators.CLEANUP\'>, ...}"}, \'file\': \'/home/ian/web2py/gluon/restricted.py\', \'func\': \'restricted\', \'lines\': {189: \'    try:\', 190: \'        if type(code) == types.CodeType:\', 191: \'            ccode = code\', 192: \'        else:\', 193: \'            ccode = compile2(code,layer)\', 194: \'        exec ccode in environment\', 195: \'    except HTTP:\', 196: \'        raise\', 197: \'    except Exception, error:\', 198: \'        # XXX Show exception in Wing IDE if running in debugger\'}, \'lnum\': 194}, {\'call\': \'()\', \'dump\': {\'News\': \'undefined\', \'Updates\': \'undefined\', \'h3\': \'undefined\'}, \'file\': \'/home/ian/web2py/applications/paideia/views/listing/news.load\', \'func\': \'<module>\', \'lines\': {2: \'{{=h3(News and Updates)}}\', 3: \'\', 4: \'{{=button}}\', 5: \'\', 6: \'{{for story in newslist:}}\', 7: \'<article>\', 8: \'{{=H4(story.title)}}\', 9: \'{{=SPAN(story.name)}}\', 10: \'{{=SPAN(story.date_submitted)}}\', 11: \'{{=P(story.story)}}\'}, \'lnum\': 2}], \'locals\': {\'A\': "<class \'gluon.html.A\'>", \'Auth\': "<class \'gluon.tools.Auth\'>", \'B\': "<class \'gluon.html.B\'>", \'BEAUTIFY\': "<class \'gluon.html.BEAUTIFY\'>", \'BODY\': "<class \'gluon.html.BODY\'>", \'BR\': "<class \'gluon.html.BR\'>", \'BUTTON\': "<class \'gluon.html.BUTTON\'>", \'CAT\': "<class \'gluon.html.CAT\'>", \'CENTER\': "<class \'gluon.html.CENTER\'>", \'CLEANUP\': "<class \'gluon.validators.CLEANUP\'>", ...}, \'pyver\': \'Python 2.7.2+: /usr/bin/python2.7\', \'request\': <gluon.html.BEAUTIFY object>, \'response\': <gluon.html.BEAUTIFY object>, \'session\': <gluon.html.BEAUTIFY object>}'
p63
sS'__repr__'
p64
S"<method-wrapper '__repr__' of RestrictedError object>"
p65
sS'__hash__'
p66
S"<method-wrapper '__hash__' of RestrictedError object>"
p67
sg2
S"''"
p68
ssS'evalue'
p69
S''
sS'request'
p70
ccopy_reg
_reconstructor
p71
(cgluon.html
BEAUTIFY
p72
c__builtin__
object
p73
NtRp74
(dp75
S'attributes'
p76
(dp77
sS'components'
p78
(lp79
g71
(cgluon.html
TABLE
p80
g73
NtRp81
(dp82
g76
(dp83
S'level'
p84
I5
ssS'parent'
p85
Nsg78
(lp86
g71
(cgluon.html
TR
p87
g73
NtRp88
(dp89
g76
(dp90
sg85
g81
sg78
(lp91
g71
(cgluon.html
TD
p92
g73
NtRp93
(dp94
g76
(dp95
S'_style'
p96
S'font-weight:bold;'
p97
ssg85
g88
sg78
(lp98
S'ajax'
p99
asbag71
(g92
g73
NtRp100
(dp101
g76
(dp102
S'_valign'
p103
S'top'
p104
ssg85
g88
sg78
(lp105
S':'
asbag71
(g92
g73
NtRp106
(dp107
g76
(dp108
sg85
g88
sg78
(lp109
g71
(g72
g73
NtRp110
(dp111
g76
(dp112
g84
I5
ssg85
g106
sg78
(lp113
S'False'
p114
asbasbasbag71
(g87
g73
NtRp115
(dp116
g76
(dp117
sg85
g81
sg78
(lp118
g71
(g92
g73
NtRp119
(dp120
g76
(dp121
g96
g97
ssg85
g115
sg78
(lp122
S'application'
p123
asbag71
(g92
g73
NtRp124
(dp125
g76
(dp126
g103
g104
ssg85
g115
sg78
(lp127
S':'
asbag71
(g92
g73
NtRp128
(dp129
g76
(dp130
sg85
g115
sg78
(lp131
g71
(g72
g73
NtRp132
(dp133
g76
(dp134
g84
I5
ssg85
g128
sg78
(lp135
S'paideia'
p136
asbasbasbag71
(g87
g73
NtRp137
(dp138
g76
(dp139
sg85
g81
sg78
(lp140
g71
(g92
g73
NtRp141
(dp142
g76
(dp143
g96
g97
ssg85
g137
sg78
(lp144
g51
asbag71
(g92
g73
NtRp145
(dp146
g76
(dp147
g103
g104
ssg85
g137
sg78
(lp148
S':'
asbag71
(g92
g73
NtRp149
(dp150
g76
(dp151
sg85
g137
sg78
(lp152
g71
(g72
g73
NtRp153
(dp154
g76
(dp155
g84
I5
ssg85
g149
sg78
(lp156
g71
(g80
g73
NtRp157
(dp158
g76
(dp159
g84
I4
ssg85
Nsg78
(lp160
sbasbasbasbag71
(g87
g73
NtRp161
(dp162
g76
(dp163
sg85
g81
sg78
(lp164
g71
(g92
g73
NtRp165
(dp166
g76
(dp167
g96
g97
ssg85
g161
sg78
(lp168
S'body'
p169
asbag71
(g92
g73
NtRp170
(dp171
g76
(dp172
g103
g104
ssg85
g161
sg78
(lp173
S':'
asbag71
(g92
g73
NtRp174
(dp175
g76
(dp176
sg85
g161
sg78
(lp177
g71
(g72
g73
NtRp178
(dp179
g76
(dp180
g84
I5
ssg85
g174
sg78
(lp181
S'<cStringIO.StringO object at 0x3d11ce0>'
p182
asbasbasbag71
(g87
g73
NtRp183
(dp184
g76
(dp185
sg85
g81
sg78
(lp186
g71
(g92
g73
NtRp187
(dp188
g76
(dp189
g96
g97
ssg85
g183
sg78
(lp190
S'client'
p191
asbag71
(g92
g73
NtRp192
(dp193
g76
(dp194
g103
g104
ssg85
g183
sg78
(lp195
S':'
asbag71
(g92
g73
NtRp196
(dp197
g76
(dp198
sg85
g183
sg78
(lp199
g71
(g72
g73
NtRp200
(dp201
g76
(dp202
g84
I5
ssg85
g196
sg78
(lp203
S'127.0.0.1'
p204
asbasbasbag71
(g87
g73
NtRp205
(dp206
g76
(dp207
sg85
g81
sg78
(lp208
g71
(g92
g73
NtRp209
(dp210
g76
(dp211
g96
g97
ssg85
g205
sg78
(lp212
S'controller'
p213
asbag71
(g92
g73
NtRp214
(dp215
g76
(dp216
g103
g104
ssg85
g205
sg78
(lp217
S':'
asbag71
(g92
g73
NtRp218
(dp219
g76
(dp220
sg85
g205
sg78
(lp221
g71
(g72
g73
NtRp222
(dp223
g76
(dp224
g84
I5
ssg85
g218
sg78
(lp225
S'default'
p226
asbasbasbag71
(g87
g73
NtRp227
(dp228
g76
(dp229
sg85
g81
sg78
(lp230
g71
(g92
g73
NtRp231
(dp232
g76
(dp233
g96
g97
ssg85
g227
sg78
(lp234
S'cookies'
p235
asbag71
(g92
g73
NtRp236
(dp237
g76
(dp238
g103
g104
ssg85
g227
sg78
(lp239
S':'
asbag71
(g92
g73
NtRp240
(dp241
g76
(dp242
sg85
g227
sg78
(lp243
g71
(g72
g73
NtRp244
(dp245
g76
(dp246
g84
I5
ssg85
g240
sg78
(lp247
g71
(g80
g73
NtRp248
(dp249
g76
(dp250
g84
I4
ssg85
Nsg78
(lp251
g71
(g87
g73
NtRp252
(dp253
g76
(dp254
sg85
g248
sg78
(lp255
g71
(g92
g73
NtRp256
(dp257
g76
(dp258
g96
g97
ssg85
g252
sg78
(lp259
S'session_id_admin'
p260
asbag71
(g92
g73
NtRp261
(dp262
g76
(dp263
g103
g104
ssg85
g252
sg78
(lp264
S':'
asbag71
(g92
g73
NtRp265
(dp266
g76
(dp267
sg85
g252
sg78
(lp268
g71
(g72
g73
NtRp269
(dp270
g76
(dp271
g84
I4
ssg85
g265
sg78
(lp272
g71
(g80
g73
NtRp273
(dp274
g76
(dp275
g84
I3
ssg85
Nsg78
(lp276
g71
(g87
g73
NtRp277
(dp278
g76
(dp279
sg85
g273
sg78
(lp280
g71
(g92
g73
NtRp281
(dp282
g76
(dp283
g96
g97
ssg85
g277
sg78
(lp284
S'comment'
p285
asbag71
(g92
g73
NtRp286
(dp287
g76
(dp288
g103
g104
ssg85
g277
sg78
(lp289
S':'
asbag71
(g92
g73
NtRp290
(dp291
g76
(dp292
sg85
g277
sg78
(lp293
g71
(g72
g73
NtRp294
(dp295
g76
(dp296
g84
I3
ssg85
g290
sg78
(lp297
S''
asbasbasbag71
(g87
g73
NtRp298
(dp299
g76
(dp300
sg85
g273
sg78
(lp301
g71
(g92
g73
NtRp302
(dp303
g76
(dp304
g96
g97
ssg85
g298
sg78
(lp305
S'domain'
p306
asbag71
(g92
g73
NtRp307
(dp308
g76
(dp309
g103
g104
ssg85
g298
sg78
(lp310
S':'
asbag71
(g92
g73
NtRp311
(dp312
g76
(dp313
sg85
g298
sg78
(lp314
g71
(g72
g73
NtRp315
(dp316
g76
(dp317
g84
I3
ssg85
g311
sg78
(lp318
S''
asbasbasbag71
(g87
g73
NtRp319
(dp320
g76
(dp321
sg85
g273
sg78
(lp322
g71
(g92
g73
NtRp323
(dp324
g76
(dp325
g96
g97
ssg85
g319
sg78
(lp326
S'expires'
p327
asbag71
(g92
g73
NtRp328
(dp329
g76
(dp330
g103
g104
ssg85
g319
sg78
(lp331
S':'
asbag71
(g92
g73
NtRp332
(dp333
g76
(dp334
sg85
g319
sg78
(lp335
g71
(g72
g73
NtRp336
(dp337
g76
(dp338
g84
I3
ssg85
g332
sg78
(lp339
S''
asbasbasbag71
(g87
g73
NtRp340
(dp341
g76
(dp342
sg85
g273
sg78
(lp343
g71
(g92
g73
NtRp344
(dp345
g76
(dp346
g96
g97
ssg85
g340
sg78
(lp347
S'httponly'
p348
asbag71
(g92
g73
NtRp349
(dp350
g76
(dp351
g103
g104
ssg85
g340
sg78
(lp352
S':'
asbag71
(g92
g73
NtRp353
(dp354
g76
(dp355
sg85
g340
sg78
(lp356
g71
(g72
g73
NtRp357
(dp358
g76
(dp359
g84
I3
ssg85
g353
sg78
(lp360
S''
asbasbasbag71
(g87
g73
NtRp361
(dp362
g76
(dp363
sg85
g273
sg78
(lp364
g71
(g92
g73
NtRp365
(dp366
g76
(dp367
g96
g97
ssg85
g361
sg78
(lp368
S'max-age'
p369
asbag71
(g92
g73
NtRp370
(dp371
g76
(dp372
g103
g104
ssg85
g361
sg78
(lp373
S':'
asbag71
(g92
g73
NtRp374
(dp375
g76
(dp376
sg85
g361
sg78
(lp377
g71
(g72
g73
NtRp378
(dp379
g76
(dp380
g84
I3
ssg85
g374
sg78
(lp381
S''
asbasbasbag71
(g87
g73
NtRp382
(dp383
g76
(dp384
sg85
g273
sg78
(lp385
g71
(g92
g73
NtRp386
(dp387
g76
(dp388
g96
g97
ssg85
g382
sg78
(lp389
S'path'
p390
asbag71
(g92
g73
NtRp391
(dp392
g76
(dp393
g103
g104
ssg85
g382
sg78
(lp394
S':'
asbag71
(g92
g73
NtRp395
(dp396
g76
(dp397
sg85
g382
sg78
(lp398
g71
(g72
g73
NtRp399
(dp400
g76
(dp401
g84
I3
ssg85
g395
sg78
(lp402
S''
asbasbasbag71
(g87
g73
NtRp403
(dp404
g76
(dp405
sg85
g273
sg78
(lp406
g71
(g92
g73
NtRp407
(dp408
g76
(dp409
g96
g97
ssg85
g403
sg78
(lp410
S'secure'
p411
asbag71
(g92
g73
NtRp412
(dp413
g76
(dp414
g103
g104
ssg85
g403
sg78
(lp415
S':'
asbag71
(g92
g73
NtRp416
(dp417
g76
(dp418
sg85
g403
sg78
(lp419
g71
(g72
g73
NtRp420
(dp421
g76
(dp422
g84
I3
ssg85
g416
sg78
(lp423
S''
asbasbasbag71
(g87
g73
NtRp424
(dp425
g76
(dp426
sg85
g273
sg78
(lp427
g71
(g92
g73
NtRp428
(dp429
g76
(dp430
g96
g97
ssg85
g424
sg78
(lp431
S'version'
p432
asbag71
(g92
g73
NtRp433
(dp434
g76
(dp435
g103
g104
ssg85
g424
sg78
(lp436
S':'
asbag71
(g92
g73
NtRp437
(dp438
g76
(dp439
sg85
g424
sg78
(lp440
g71
(g72
g73
NtRp441
(dp442
g76
(dp443
g84
I3
ssg85
g437
sg78
(lp444
S''
asbasbasbasbasbasbasbag71
(g87
g73
NtRp445
(dp446
g76
(dp447
sg85
g248
sg78
(lp448
g71
(g92
g73
NtRp449
(dp450
g76
(dp451
g96
g97
ssg85
g445
sg78
(lp452
S'session_id_paideia'
p453
asbag71
(g92
g73
NtRp454
(dp455
g76
(dp456
g103
g104
ssg85
g445
sg78
(lp457
S':'
asbag71
(g92
g73
NtRp458
(dp459
g76
(dp460
sg85
g445
sg78
(lp461
g71
(g72
g73
NtRp462
(dp463
g76
(dp464
g84
I4
ssg85
g458
sg78
(lp465
g71
(g80
g73
NtRp466
(dp467
g76
(dp468
g84
I3
ssg85
Nsg78
(lp469
g71
(g87
g73
NtRp470
(dp471
g76
(dp472
sg85
g466
sg78
(lp473
g71
(g92
g73
NtRp474
(dp475
g76
(dp476
g96
g97
ssg85
g470
sg78
(lp477
g285
asbag71
(g92
g73
NtRp478
(dp479
g76
(dp480
g103
g104
ssg85
g470
sg78
(lp481
S':'
asbag71
(g92
g73
NtRp482
(dp483
g76
(dp484
sg85
g470
sg78
(lp485
g71
(g72
g73
NtRp486
(dp487
g76
(dp488
g84
I3
ssg85
g482
sg78
(lp489
S''
asbasbasbag71
(g87
g73
NtRp490
(dp491
g76
(dp492
sg85
g466
sg78
(lp493
g71
(g92
g73
NtRp494
(dp495
g76
(dp496
g96
g97
ssg85
g490
sg78
(lp497
g306
asbag71
(g92
g73
NtRp498
(dp499
g76
(dp500
g103
g104
ssg85
g490
sg78
(lp501
S':'
asbag71
(g92
g73
NtRp502
(dp503
g76
(dp504
sg85
g490
sg78
(lp505
g71
(g72
g73
NtRp506
(dp507
g76
(dp508
g84
I3
ssg85
g502
sg78
(lp509
S''
asbasbasbag71
(g87
g73
NtRp510
(dp511
g76
(dp512
sg85
g466
sg78
(lp513
g71
(g92
g73
NtRp514
(dp515
g76
(dp516
g96
g97
ssg85
g510
sg78
(lp517
g327
asbag71
(g92
g73
NtRp518
(dp519
g76
(dp520
g103
g104
ssg85
g510
sg78
(lp521
S':'
asbag71
(g92
g73
NtRp522
(dp523
g76
(dp524
sg85
g510
sg78
(lp525
g71
(g72
g73
NtRp526
(dp527
g76
(dp528
g84
I3
ssg85
g522
sg78
(lp529
S''
asbasbasbag71
(g87
g73
NtRp530
(dp531
g76
(dp532
sg85
g466
sg78
(lp533
g71
(g92
g73
NtRp534
(dp535
g76
(dp536
g96
g97
ssg85
g530
sg78
(lp537
g348
asbag71
(g92
g73
NtRp538
(dp539
g76
(dp540
g103
g104
ssg85
g530
sg78
(lp541
S':'
asbag71
(g92
g73
NtRp542
(dp543
g76
(dp544
sg85
g530
sg78
(lp545
g71
(g72
g73
NtRp546
(dp547
g76
(dp548
g84
I3
ssg85
g542
sg78
(lp549
S''
asbasbasbag71
(g87
g73
NtRp550
(dp551
g76
(dp552
sg85
g466
sg78
(lp553
g71
(g92
g73
NtRp554
(dp555
g76
(dp556
g96
g97
ssg85
g550
sg78
(lp557
g369
asbag71
(g92
g73
NtRp558
(dp559
g76
(dp560
g103
g104
ssg85
g550
sg78
(lp561
S':'
asbag71
(g92
g73
NtRp562
(dp563
g76
(dp564
sg85
g550
sg78
(lp565
g71
(g72
g73
NtRp566
(dp567
g76
(dp568
g84
I3
ssg85
g562
sg78
(lp569
S''
asbasbasbag71
(g87
g73
NtRp570
(dp571
g76
(dp572
sg85
g466
sg78
(lp573
g71
(g92
g73
NtRp574
(dp575
g76
(dp576
g96
g97
ssg85
g570
sg78
(lp577
g390
asbag71
(g92
g73
NtRp578
(dp579
g76
(dp580
g103
g104
ssg85
g570
sg78
(lp581
S':'
asbag71
(g92
g73
NtRp582
(dp583
g76
(dp584
sg85
g570
sg78
(lp585
g71
(g72
g73
NtRp586
(dp587
g76
(dp588
g84
I3
ssg85
g582
sg78
(lp589
S''
asbasbasbag71
(g87
g73
NtRp590
(dp591
g76
(dp592
sg85
g466
sg78
(lp593
g71
(g92
g73
NtRp594
(dp595
g76
(dp596
g96
g97
ssg85
g590
sg78
(lp597
g411
asbag71
(g92
g73
NtRp598
(dp599
g76
(dp600
g103
g104
ssg85
g590
sg78
(lp601
S':'
asbag71
(g92
g73
NtRp602
(dp603
g76
(dp604
sg85
g590
sg78
(lp605
g71
(g72
g73
NtRp606
(dp607
g76
(dp608
g84
I3
ssg85
g602
sg78
(lp609
S''
asbasbasbag71
(g87
g73
NtRp610
(dp611
g76
(dp612
sg85
g466
sg78
(lp613
g71
(g92
g73
NtRp614
(dp615
g76
(dp616
g96
g97
ssg85
g610
sg78
(lp617
g432
asbag71
(g92
g73
NtRp618
(dp619
g76
(dp620
g103
g104
ssg85
g610
sg78
(lp621
S':'
asbag71
(g92
g73
NtRp622
(dp623
g76
(dp624
sg85
g610
sg78
(lp625
g71
(g72
g73
NtRp626
(dp627
g76
(dp628
g84
I3
ssg85
g622
sg78
(lp629
S''
asbasbasbasbasbasbasbag71
(g87
g73
NtRp630
(dp631
g76
(dp632
sg85
g248
sg78
(lp633
g71
(g92
g73
NtRp634
(dp635
g76
(dp636
g96
g97
ssg85
g630
sg78
(lp637
S'session_id_paideia_backup'
p638
asbag71
(g92
g73
NtRp639
(dp640
g76
(dp641
g103
g104
ssg85
g630
sg78
(lp642
S':'
asbag71
(g92
g73
NtRp643
(dp644
g76
(dp645
sg85
g630
sg78
(lp646
g71
(g72
g73
NtRp647
(dp648
g76
(dp649
g84
I4
ssg85
g643
sg78
(lp650
g71
(g80
g73
NtRp651
(dp652
g76
(dp653
g84
I3
ssg85
Nsg78
(lp654
g71
(g87
g73
NtRp655
(dp656
g76
(dp657
sg85
g651
sg78
(lp658
g71
(g92
g73
NtRp659
(dp660
g76
(dp661
g96
g97
ssg85
g655
sg78
(lp662
g285
asbag71
(g92
g73
NtRp663
(dp664
g76
(dp665
g103
g104
ssg85
g655
sg78
(lp666
S':'
asbag71
(g92
g73
NtRp667
(dp668
g76
(dp669
sg85
g655
sg78
(lp670
g71
(g72
g73
NtRp671
(dp672
g76
(dp673
g84
I3
ssg85
g667
sg78
(lp674
S''
asbasbasbag71
(g87
g73
NtRp675
(dp676
g76
(dp677
sg85
g651
sg78
(lp678
g71
(g92
g73
NtRp679
(dp680
g76
(dp681
g96
g97
ssg85
g675
sg78
(lp682
g306
asbag71
(g92
g73
NtRp683
(dp684
g76
(dp685
g103
g104
ssg85
g675
sg78
(lp686
S':'
asbag71
(g92
g73
NtRp687
(dp688
g76
(dp689
sg85
g675
sg78
(lp690
g71
(g72
g73
NtRp691
(dp692
g76
(dp693
g84
I3
ssg85
g687
sg78
(lp694
S''
asbasbasbag71
(g87
g73
NtRp695
(dp696
g76
(dp697
sg85
g651
sg78
(lp698
g71
(g92
g73
NtRp699
(dp700
g76
(dp701
g96
g97
ssg85
g695
sg78
(lp702
g327
asbag71
(g92
g73
NtRp703
(dp704
g76
(dp705
g103
g104
ssg85
g695
sg78
(lp706
S':'
asbag71
(g92
g73
NtRp707
(dp708
g76
(dp709
sg85
g695
sg78
(lp710
g71
(g72
g73
NtRp711
(dp712
g76
(dp713
g84
I3
ssg85
g707
sg78
(lp714
S''
asbasbasbag71
(g87
g73
NtRp715
(dp716
g76
(dp717
sg85
g651
sg78
(lp718
g71
(g92
g73
NtRp719
(dp720
g76
(dp721
g96
g97
ssg85
g715
sg78
(lp722
g348
asbag71
(g92
g73
NtRp723
(dp724
g76
(dp725
g103
g104
ssg85
g715
sg78
(lp726
S':'
asbag71
(g92
g73
NtRp727
(dp728
g76
(dp729
sg85
g715
sg78
(lp730
g71
(g72
g73
NtRp731
(dp732
g76
(dp733
g84
I3
ssg85
g727
sg78
(lp734
S''
asbasbasbag71
(g87
g73
NtRp735
(dp736
g76
(dp737
sg85
g651
sg78
(lp738
g71
(g92
g73
NtRp739
(dp740
g76
(dp741
g96
g97
ssg85
g735
sg78
(lp742
g369
asbag71
(g92
g73
NtRp743
(dp744
g76
(dp745
g103
g104
ssg85
g735
sg78
(lp746
S':'
asbag71
(g92
g73
NtRp747
(dp748
g76
(dp749
sg85
g735
sg78
(lp750
g71
(g72
g73
NtRp751
(dp752
g76
(dp753
g84
I3
ssg85
g747
sg78
(lp754
S''
asbasbasbag71
(g87
g73
NtRp755
(dp756
g76
(dp757
sg85
g651
sg78
(lp758
g71
(g92
g73
NtRp759
(dp760
g76
(dp761
g96
g97
ssg85
g755
sg78
(lp762
g390
asbag71
(g92
g73
NtRp763
(dp764
g76
(dp765
g103
g104
ssg85
g755
sg78
(lp766
S':'
asbag71
(g92
g73
NtRp767
(dp768
g76
(dp769
sg85
g755
sg78
(lp770
g71
(g72
g73
NtRp771
(dp772
g76
(dp773
g84
I3
ssg85
g767
sg78
(lp774
S''
asbasbasbag71
(g87
g73
NtRp775
(dp776
g76
(dp777
sg85
g651
sg78
(lp778
g71
(g92
g73
NtRp779
(dp780
g76
(dp781
g96
g97
ssg85
g775
sg78
(lp782
g411
asbag71
(g92
g73
NtRp783
(dp784
g76
(dp785
g103
g104
ssg85
g775
sg78
(lp786
S':'
asbag71
(g92
g73
NtRp787
(dp788
g76
(dp789
sg85
g775
sg78
(lp790
g71
(g72
g73
NtRp791
(dp792
g76
(dp793
g84
I3
ssg85
g787
sg78
(lp794
S''
asbasbasbag71
(g87
g73
NtRp795
(dp796
g76
(dp797
sg85
g651
sg78
(lp798
g71
(g92
g73
NtRp799
(dp800
g76
(dp801
g96
g97
ssg85
g795
sg78
(lp802
g432
asbag71
(g92
g73
NtRp803
(dp804
g76
(dp805
g103
g104
ssg85
g795
sg78
(lp806
S':'
asbag71
(g92
g73
NtRp807
(dp808
g76
(dp809
sg85
g795
sg78
(lp810
g71
(g72
g73
NtRp811
(dp812
g76
(dp813
g84
I3
ssg85
g807
sg78
(lp814
S''
asbasbasbasbasbasbasbag71
(g87
g73
NtRp815
(dp816
g76
(dp817
sg85
g248
sg78
(lp818
g71
(g92
g73
NtRp819
(dp820
g76
(dp821
g96
g97
ssg85
g815
sg78
(lp822
S'session_id_welcome'
p823
asbag71
(g92
g73
NtRp824
(dp825
g76
(dp826
g103
g104
ssg85
g815
sg78
(lp827
S':'
asbag71
(g92
g73
NtRp828
(dp829
g76
(dp830
sg85
g815
sg78
(lp831
g71
(g72
g73
NtRp832
(dp833
g76
(dp834
g84
I4
ssg85
g828
sg78
(lp835
g71
(g80
g73
NtRp836
(dp837
g76
(dp838
g84
I3
ssg85
Nsg78
(lp839
g71
(g87
g73
NtRp840
(dp841
g76
(dp842
sg85
g836
sg78
(lp843
g71
(g92
g73
NtRp844
(dp845
g76
(dp846
g96
g97
ssg85
g840
sg78
(lp847
g285
asbag71
(g92
g73
NtRp848
(dp849
g76
(dp850
g103
g104
ssg85
g840
sg78
(lp851
S':'
asbag71
(g92
g73
NtRp852
(dp853
g76
(dp854
sg85
g840
sg78
(lp855
g71
(g72
g73
NtRp856
(dp857
g76
(dp858
g84
I3
ssg85
g852
sg78
(lp859
S''
asbasbasbag71
(g87
g73
NtRp860
(dp861
g76
(dp862
sg85
g836
sg78
(lp863
g71
(g92
g73
NtRp864
(dp865
g76
(dp866
g96
g97
ssg85
g860
sg78
(lp867
g306
asbag71
(g92
g73
NtRp868
(dp869
g76
(dp870
g103
g104
ssg85
g860
sg78
(lp871
S':'
asbag71
(g92
g73
NtRp872
(dp873
g76
(dp874
sg85
g860
sg78
(lp875
g71
(g72
g73
NtRp876
(dp877
g76
(dp878
g84
I3
ssg85
g872
sg78
(lp879
S''
asbasbasbag71
(g87
g73
NtRp880
(dp881
g76
(dp882
sg85
g836
sg78
(lp883
g71
(g92
g73
NtRp884
(dp885
g76
(dp886
g96
g97
ssg85
g880
sg78
(lp887
g327
asbag71
(g92
g73
NtRp888
(dp889
g76
(dp890
g103
g104
ssg85
g880
sg78
(lp891
S':'
asbag71
(g92
g73
NtRp892
(dp893
g76
(dp894
sg85
g880
sg78
(lp895
g71
(g72
g73
NtRp896
(dp897
g76
(dp898
g84
I3
ssg85
g892
sg78
(lp899
S''
asbasbasbag71
(g87
g73
NtRp900
(dp901
g76
(dp902
sg85
g836
sg78
(lp903
g71
(g92
g73
NtRp904
(dp905
g76
(dp906
g96
g97
ssg85
g900
sg78
(lp907
g348
asbag71
(g92
g73
NtRp908
(dp909
g76
(dp910
g103
g104
ssg85
g900
sg78
(lp911
S':'
asbag71
(g92
g73
NtRp912
(dp913
g76
(dp914
sg85
g900
sg78
(lp915
g71
(g72
g73
NtRp916
(dp917
g76
(dp918
g84
I3
ssg85
g912
sg78
(lp919
S''
asbasbasbag71
(g87
g73
NtRp920
(dp921
g76
(dp922
sg85
g836
sg78
(lp923
g71
(g92
g73
NtRp924
(dp925
g76
(dp926
g96
g97
ssg85
g920
sg78
(lp927
g369
asbag71
(g92
g73
NtRp928
(dp929
g76
(dp930
g103
g104
ssg85
g920
sg78
(lp931
S':'
asbag71
(g92
g73
NtRp932
(dp933
g76
(dp934
sg85
g920
sg78
(lp935
g71
(g72
g73
NtRp936
(dp937
g76
(dp938
g84
I3
ssg85
g932
sg78
(lp939
S''
asbasbasbag71
(g87
g73
NtRp940
(dp941
g76
(dp942
sg85
g836
sg78
(lp943
g71
(g92
g73
NtRp944
(dp945
g76
(dp946
g96
g97
ssg85
g940
sg78
(lp947
g390
asbag71
(g92
g73
NtRp948
(dp949
g76
(dp950
g103
g104
ssg85
g940
sg78
(lp951
S':'
asbag71
(g92
g73
NtRp952
(dp953
g76
(dp954
sg85
g940
sg78
(lp955
g71
(g72
g73
NtRp956
(dp957
g76
(dp958
g84
I3
ssg85
g952
sg78
(lp959
S''
asbasbasbag71
(g87
g73
NtRp960
(dp961
g76
(dp962
sg85
g836
sg78
(lp963
g71
(g92
g73
NtRp964
(dp965
g76
(dp966
g96
g97
ssg85
g960
sg78
(lp967
g411
asbag71
(g92
g73
NtRp968
(dp969
g76
(dp970
g103
g104
ssg85
g960
sg78
(lp971
S':'
asbag71
(g92
g73
NtRp972
(dp973
g76
(dp974
sg85
g960
sg78
(lp975
g71
(g72
g73
NtRp976
(dp977
g76
(dp978
g84
I3
ssg85
g972
sg78
(lp979
S''
asbasbasbag71
(g87
g73
NtRp980
(dp981
g76
(dp982
sg85
g836
sg78
(lp983
g71
(g92
g73
NtRp984
(dp985
g76
(dp986
g96
g97
ssg85
g980
sg78
(lp987
g432
asbag71
(g92
g73
NtRp988
(dp989
g76
(dp990
g103
g104
ssg85
g980
sg78
(lp991
S':'
asbag71
(g92
g73
NtRp992
(dp993
g76
(dp994
sg85
g980
sg78
(lp995
g71
(g72
g73
NtRp996
(dp997
g76
(dp998
g84
I3
ssg85
g992
sg78
(lp999
S''
asbasbasbasbasbasbasbasbasbasbasbag71
(g87
g73
NtRp1000
(dp1001
g76
(dp1002
sg85
g81
sg78
(lp1003
g71
(g92
g73
NtRp1004
(dp1005
g76
(dp1006
g96
g97
ssg85
g1000
sg78
(lp1007
S'env'
p1008
asbag71
(g92
g73
NtRp1009
(dp1010
g76
(dp1011
g103
g104
ssg85
g1000
sg78
(lp1012
S':'
asbag71
(g92
g73
NtRp1013
(dp1014
g76
(dp1015
sg85
g1000
sg78
(lp1016
g71
(g72
g73
NtRp1017
(dp1018
g76
(dp1019
g84
I5
ssg85
g1013
sg78
(lp1020
g71
(g80
g73
NtRp1021
(dp1022
g76
(dp1023
g84
I4
ssg85
Nsg78
(lp1024
g71
(g87
g73
NtRp1025
(dp1026
g76
(dp1027
sg85
g1021
sg78
(lp1028
g71
(g92
g73
NtRp1029
(dp1030
g76
(dp1031
g96
g97
ssg85
g1025
sg78
(lp1032
S'app_folders'
p1033
asbag71
(g92
g73
NtRp1034
(dp1035
g76
(dp1036
g103
g104
ssg85
g1025
sg78
(lp1037
S':'
asbag71
(g92
g73
NtRp1038
(dp1039
g76
(dp1040
sg85
g1025
sg78
(lp1041
g71
(g72
g73
NtRp1042
(dp1043
g76
(dp1044
g84
I4
ssg85
g1038
sg78
(lp1045
S"set(['/home/ian/web2py/applications/paideia_backup/', '/home/ian/web2py/applications/welcome/', '/home/ian/web2py/applications/paideia/', '/home/ian/web2py/applications/admin/'])"
p1046
asbasbasbag71
(g87
g73
NtRp1047
(dp1048
g76
(dp1049
sg85
g1021
sg78
(lp1050
g71
(g92
g73
NtRp1051
(dp1052
g76
(dp1053
g96
g97
ssg85
g1047
sg78
(lp1054
S'applications_parent'
p1055
asbag71
(g92
g73
NtRp1056
(dp1057
g76
(dp1058
g103
g104
ssg85
g1047
sg78
(lp1059
S':'
asbag71
(g92
g73
NtRp1060
(dp1061
g76
(dp1062
sg85
g1047
sg78
(lp1063
g71
(g72
g73
NtRp1064
(dp1065
g76
(dp1066
g84
I4
ssg85
g1060
sg78
(lp1067
S'/home/ian/web2py'
p1068
asbasbasbag71
(g87
g73
NtRp1069
(dp1070
g76
(dp1071
sg85
g1021
sg78
(lp1072
g71
(g92
g73
NtRp1073
(dp1074
g76
(dp1075
g96
g97
ssg85
g1069
sg78
(lp1076
S'cmd_args'
p1077
asbag71
(g92
g73
NtRp1078
(dp1079
g76
(dp1080
g103
g104
ssg85
g1069
sg78
(lp1081
S':'
asbag71
(g92
g73
NtRp1082
(dp1083
g76
(dp1084
sg85
g1069
sg78
(lp1085
g71
(g72
g73
NtRp1086
(dp1087
g76
(dp1088
g84
I4
ssg85
g1082
sg78
(lp1089
g71
(g80
g73
NtRp1090
(dp1091
g76
(dp1092
g84
I3
ssg85
Nsg78
(lp1093
sbasbasbasbag71
(g87
g73
NtRp1094
(dp1095
g76
(dp1096
sg85
g1021
sg78
(lp1097
g71
(g92
g73
NtRp1098
(dp1099
g76
(dp1100
g96
g97
ssg85
g1094
sg78
(lp1101
S'cmd_options'
p1102
asbag71
(g92
g73
NtRp1103
(dp1104
g76
(dp1105
g103
g104
ssg85
g1094
sg78
(lp1106
S':'
asbag71
(g92
g73
NtRp1107
(dp1108
g76
(dp1109
sg85
g1094
sg78
(lp1110
g71
(g72
g73
NtRp1111
(dp1112
g76
(dp1113
g84
I4
ssg85
g1107
sg78
(lp1114
S"<Values at 0x2ceb758: {'verbose': False, 'ip': '127.0.0.1', 'shutdown_timeout': 5, 'taskbar': False, 'nocron': False, 'pid_filename': 'httpserver.pid', 'maxthreads': None, 'softcron': False, 'server_name': 'uriel', 'bpython': False, 'nogui': False, 'port': 8000, 'extcron': False, 'debuglevel': 30, 'test': None, 'folder': '/home/ian/web2py', 'config': '', 'import_models': False, 'winservice': '', 'shell': None, 'run': '', 'log_filename': 'httpserver.log', 'args': [''], 'ssl_ca_certificate': None, 'scheduler': None, 'profiler_filename': None, 'ssl_private_key': '', 'password': '<ask>', 'request_queue_size': 5, 'ssl_certificate': '', 'cronjob': False, 'plain': False, 'quiet': False, 'interfaces': None, 'minthreads': None, 'timeout': 10, 'numthreads': None, 'nobanner': False}>"
p1115
asbasbasbag71
(g87
g73
NtRp1116
(dp1117
g76
(dp1118
sg85
g1021
sg78
(lp1119
g71
(g92
g73
NtRp1120
(dp1121
g76
(dp1122
g96
g97
ssg85
g1116
sg78
(lp1123
S'db_sessions'
p1124
asbag71
(g92
g73
NtRp1125
(dp1126
g76
(dp1127
g103
g104
ssg85
g1116
sg78
(lp1128
S':'
asbag71
(g92
g73
NtRp1129
(dp1130
g76
(dp1131
sg85
g1116
sg78
(lp1132
g71
(g72
g73
NtRp1133
(dp1134
g76
(dp1135
g84
I4
ssg85
g1129
sg78
(lp1136
S'set([])'
p1137
asbasbasbag71
(g87
g73
NtRp1138
(dp1139
g76
(dp1140
sg85
g1021
sg78
(lp1141
g71
(g92
g73
NtRp1142
(dp1143
g76
(dp1144
g96
g97
ssg85
g1138
sg78
(lp1145
S'debugging'
p1146
asbag71
(g92
g73
NtRp1147
(dp1148
g76
(dp1149
g103
g104
ssg85
g1138
sg78
(lp1150
S':'
asbag71
(g92
g73
NtRp1151
(dp1152
g76
(dp1153
sg85
g1138
sg78
(lp1154
g71
(g72
g73
NtRp1155
(dp1156
g76
(dp1157
g84
I4
ssg85
g1151
sg78
(lp1158
g114
asbasbasbag71
(g87
g73
NtRp1159
(dp1160
g76
(dp1161
sg85
g1021
sg78
(lp1162
g71
(g92
g73
NtRp1163
(dp1164
g76
(dp1165
g96
g97
ssg85
g1159
sg78
(lp1166
S'gluon_parent'
p1167
asbag71
(g92
g73
NtRp1168
(dp1169
g76
(dp1170
g103
g104
ssg85
g1159
sg78
(lp1171
S':'
asbag71
(g92
g73
NtRp1172
(dp1173
g76
(dp1174
sg85
g1159
sg78
(lp1175
g71
(g72
g73
NtRp1176
(dp1177
g76
(dp1178
g84
I4
ssg85
g1172
sg78
(lp1179
S'/home/ian/web2py'
p1180
asbasbasbag71
(g87
g73
NtRp1181
(dp1182
g76
(dp1183
sg85
g1021
sg78
(lp1184
g71
(g92
g73
NtRp1185
(dp1186
g76
(dp1187
g96
g97
ssg85
g1181
sg78
(lp1188
S'http_accept'
p1189
asbag71
(g92
g73
NtRp1190
(dp1191
g76
(dp1192
g103
g104
ssg85
g1181
sg78
(lp1193
S':'
asbag71
(g92
g73
NtRp1194
(dp1195
g76
(dp1196
sg85
g1181
sg78
(lp1197
g71
(g72
g73
NtRp1198
(dp1199
g76
(dp1200
g84
I4
ssg85
g1194
sg78
(lp1201
S'text/html,application/xhtml+xml,application/xml;q=0.9,*/*;q=0.8'
p1202
asbasbasbag71
(g87
g73
NtRp1203
(dp1204
g76
(dp1205
sg85
g1021
sg78
(lp1206
g71
(g92
g73
NtRp1207
(dp1208
g76
(dp1209
g96
g97
ssg85
g1203
sg78
(lp1210
S'http_accept_encoding'
p1211
asbag71
(g92
g73
NtRp1212
(dp1213
g76
(dp1214
g103
g104
ssg85
g1203
sg78
(lp1215
S':'
asbag71
(g92
g73
NtRp1216
(dp1217
g76
(dp1218
sg85
g1203
sg78
(lp1219
g71
(g72
g73
NtRp1220
(dp1221
g76
(dp1222
g84
I4
ssg85
g1216
sg78
(lp1223
S'gzip, deflate'
p1224
asbasbasbag71
(g87
g73
NtRp1225
(dp1226
g76
(dp1227
sg85
g1021
sg78
(lp1228
g71
(g92
g73
NtRp1229
(dp1230
g76
(dp1231
g96
g97
ssg85
g1225
sg78
(lp1232
S'http_accept_language'
p1233
asbag71
(g92
g73
NtRp1234
(dp1235
g76
(dp1236
g103
g104
ssg85
g1225
sg78
(lp1237
S':'
asbag71
(g92
g73
NtRp1238
(dp1239
g76
(dp1240
sg85
g1225
sg78
(lp1241
g71
(g72
g73
NtRp1242
(dp1243
g76
(dp1244
g84
I4
ssg85
g1238
sg78
(lp1245
S'en-us,en;q=0.5'
p1246
asbasbasbag71
(g87
g73
NtRp1247
(dp1248
g76
(dp1249
sg85
g1021
sg78
(lp1250
g71
(g92
g73
NtRp1251
(dp1252
g76
(dp1253
g96
g97
ssg85
g1247
sg78
(lp1254
S'http_cache_control'
p1255
asbag71
(g92
g73
NtRp1256
(dp1257
g76
(dp1258
g103
g104
ssg85
g1247
sg78
(lp1259
S':'
asbag71
(g92
g73
NtRp1260
(dp1261
g76
(dp1262
sg85
g1247
sg78
(lp1263
g71
(g72
g73
NtRp1264
(dp1265
g76
(dp1266
g84
I4
ssg85
g1260
sg78
(lp1267
S'max-age=0'
p1268
asbasbasbag71
(g87
g73
NtRp1269
(dp1270
g76
(dp1271
sg85
g1021
sg78
(lp1272
g71
(g92
g73
NtRp1273
(dp1274
g76
(dp1275
g96
g97
ssg85
g1269
sg78
(lp1276
S'http_connection'
p1277
asbag71
(g92
g73
NtRp1278
(dp1279
g76
(dp1280
g103
g104
ssg85
g1269
sg78
(lp1281
S':'
asbag71
(g92
g73
NtRp1282
(dp1283
g76
(dp1284
sg85
g1269
sg78
(lp1285
g71
(g72
g73
NtRp1286
(dp1287
g76
(dp1288
g84
I4
ssg85
g1282
sg78
(lp1289
S'keep-alive'
p1290
asbasbasbag71
(g87
g73
NtRp1291
(dp1292
g76
(dp1293
sg85
g1021
sg78
(lp1294
g71
(g92
g73
NtRp1295
(dp1296
g76
(dp1297
g96
g97
ssg85
g1291
sg78
(lp1298
S'http_cookie'
p1299
asbag71
(g92
g73
NtRp1300
(dp1301
g76
(dp1302
g103
g104
ssg85
g1291
sg78
(lp1303
S':'
asbag71
(g92
g73
NtRp1304
(dp1305
g76
(dp1306
sg85
g1291
sg78
(lp1307
g71
(g72
g73
NtRp1308
(dp1309
g76
(dp1310
g84
I4
ssg85
g1304
sg78
(lp1311
S'session_id_welcome=127.0.0.1-5817498e-354d-4bf6-84ef-f241847d3d40; session_id_admin=127.0.0.1-a52b2511-3305-48ac-b739-7c65bd29a570; session_id_paideia=127.0.0.1-5d55a0ea-d09f-4f00-8d83-befe38f53e0e; session_id_paideia_backup=127.0.0.1-54ee0a85-6aa0-4be1-8e74-054b58f8cbb3'
p1312
asbasbasbag71
(g87
g73
NtRp1313
(dp1314
g76
(dp1315
sg85
g1021
sg78
(lp1316
g71
(g92
g73
NtRp1317
(dp1318
g76
(dp1319
g96
g97
ssg85
g1313
sg78
(lp1320
S'http_host'
p1321
asbag71
(g92
g73
NtRp1322
(dp1323
g76
(dp1324
g103
g104
ssg85
g1313
sg78
(lp1325
S':'
asbag71
(g92
g73
NtRp1326
(dp1327
g76
(dp1328
sg85
g1313
sg78
(lp1329
g71
(g72
g73
NtRp1330
(dp1331
g76
(dp1332
g84
I4
ssg85
g1326
sg78
(lp1333
S'127.0.0.1:8000'
p1334
asbasbasbag71
(g87
g73
NtRp1335
(dp1336
g76
(dp1337
sg85
g1021
sg78
(lp1338
g71
(g92
g73
NtRp1339
(dp1340
g76
(dp1341
g96
g97
ssg85
g1335
sg78
(lp1342
S'http_referer'
p1343
asbag71
(g92
g73
NtRp1344
(dp1345
g76
(dp1346
g103
g104
ssg85
g1335
sg78
(lp1347
S':'
asbag71
(g92
g73
NtRp1348
(dp1349
g76
(dp1350
sg85
g1335
sg78
(lp1351
g71
(g72
g73
NtRp1352
(dp1353
g76
(dp1354
g84
I4
ssg85
g1348
sg78
(lp1355
S'http://127.0.0.1:8000/paideia/exploring/index'
p1356
asbasbasbag71
(g87
g73
NtRp1357
(dp1358
g76
(dp1359
sg85
g1021
sg78
(lp1360
g71
(g92
g73
NtRp1361
(dp1362
g76
(dp1363
g96
g97
ssg85
g1357
sg78
(lp1364
S'http_user_agent'
p1365
asbag71
(g92
g73
NtRp1366
(dp1367
g76
(dp1368
g103
g104
ssg85
g1357
sg78
(lp1369
S':'
asbag71
(g92
g73
NtRp1370
(dp1371
g76
(dp1372
sg85
g1357
sg78
(lp1373
g71
(g72
g73
NtRp1374
(dp1375
g76
(dp1376
g84
I4
ssg85
g1370
sg78
(lp1377
S'Mozilla/5.0 (X11; Linux x86_64; rv:8.0) Gecko/20100101 Firefox/8.0'
p1378
asbasbasbag71
(g87
g73
NtRp1379
(dp1380
g76
(dp1381
sg85
g1021
sg78
(lp1382
g71
(g92
g73
NtRp1383
(dp1384
g76
(dp1385
g96
g97
ssg85
g1379
sg78
(lp1386
S'is_jython'
p1387
asbag71
(g92
g73
NtRp1388
(dp1389
g76
(dp1390
g103
g104
ssg85
g1379
sg78
(lp1391
S':'
asbag71
(g92
g73
NtRp1392
(dp1393
g76
(dp1394
sg85
g1379
sg78
(lp1395
g71
(g72
g73
NtRp1396
(dp1397
g76
(dp1398
g84
I4
ssg85
g1392
sg78
(lp1399
g114
asbasbasbag71
(g87
g73
NtRp1400
(dp1401
g76
(dp1402
sg85
g1021
sg78
(lp1403
g71
(g92
g73
NtRp1404
(dp1405
g76
(dp1406
g96
g97
ssg85
g1400
sg78
(lp1407
S'path_info'
p1408
asbag71
(g92
g73
NtRp1409
(dp1410
g76
(dp1411
g103
g104
ssg85
g1400
sg78
(lp1412
S':'
asbag71
(g92
g73
NtRp1413
(dp1414
g76
(dp1415
sg85
g1400
sg78
(lp1416
g71
(g72
g73
NtRp1417
(dp1418
g76
(dp1419
g84
I4
ssg85
g1413
sg78
(lp1420
S'/paideia/default/index'
p1421
asbasbasbag71
(g87
g73
NtRp1422
(dp1423
g76
(dp1424
sg85
g1021
sg78
(lp1425
g71
(g92
g73
NtRp1426
(dp1427
g76
(dp1428
g96
g97
ssg85
g1422
sg78
(lp1429
S'query_string'
p1430
asbag71
(g92
g73
NtRp1431
(dp1432
g76
(dp1433
g103
g104
ssg85
g1422
sg78
(lp1434
S':'
asbag71
(g92
g73
NtRp1435
(dp1436
g76
(dp1437
sg85
g1422
sg78
(lp1438
g71
(g72
g73
NtRp1439
(dp1440
g76
(dp1441
g84
I4
ssg85
g1435
sg78
(lp1442
S''
asbasbasbag71
(g87
g73
NtRp1443
(dp1444
g76
(dp1445
sg85
g1021
sg78
(lp1446
g71
(g92
g73
NtRp1447
(dp1448
g76
(dp1449
g96
g97
ssg85
g1443
sg78
(lp1450
S'remote_addr'
p1451
asbag71
(g92
g73
NtRp1452
(dp1453
g76
(dp1454
g103
g104
ssg85
g1443
sg78
(lp1455
S':'
asbag71
(g92
g73
NtRp1456
(dp1457
g76
(dp1458
sg85
g1443
sg78
(lp1459
g71
(g72
g73
NtRp1460
(dp1461
g76
(dp1462
g84
I4
ssg85
g1456
sg78
(lp1463
g204
asbasbasbag71
(g87
g73
NtRp1464
(dp1465
g76
(dp1466
sg85
g1021
sg78
(lp1467
g71
(g92
g73
NtRp1468
(dp1469
g76
(dp1470
g96
g97
ssg85
g1464
sg78
(lp1471
S'remote_port'
p1472
asbag71
(g92
g73
NtRp1473
(dp1474
g76
(dp1475
g103
g104
ssg85
g1464
sg78
(lp1476
S':'
asbag71
(g92
g73
NtRp1477
(dp1478
g76
(dp1479
sg85
g1464
sg78
(lp1480
g71
(g72
g73
NtRp1481
(dp1482
g76
(dp1483
g84
I4
ssg85
g1477
sg78
(lp1484
S'55400'
p1485
asbasbasbag71
(g87
g73
NtRp1486
(dp1487
g76
(dp1488
sg85
g1021
sg78
(lp1489
g71
(g92
g73
NtRp1490
(dp1491
g76
(dp1492
g96
g97
ssg85
g1486
sg78
(lp1493
S'request_method'
p1494
asbag71
(g92
g73
NtRp1495
(dp1496
g76
(dp1497
g103
g104
ssg85
g1486
sg78
(lp1498
S':'
asbag71
(g92
g73
NtRp1499
(dp1500
g76
(dp1501
sg85
g1486
sg78
(lp1502
g71
(g72
g73
NtRp1503
(dp1504
g76
(dp1505
g84
I4
ssg85
g1499
sg78
(lp1506
S'GET'
p1507
asbasbasbag71
(g87
g73
NtRp1508
(dp1509
g76
(dp1510
sg85
g1021
sg78
(lp1511
g71
(g92
g73
NtRp1512
(dp1513
g76
(dp1514
g96
g97
ssg85
g1508
sg78
(lp1515
S'script_name'
p1516
asbag71
(g92
g73
NtRp1517
(dp1518
g76
(dp1519
g103
g104
ssg85
g1508
sg78
(lp1520
S':'
asbag71
(g92
g73
NtRp1521
(dp1522
g76
(dp1523
sg85
g1508
sg78
(lp1524
g71
(g72
g73
NtRp1525
(dp1526
g76
(dp1527
g84
I4
ssg85
g1521
sg78
(lp1528
S''
asbasbasbag71
(g87
g73
NtRp1529
(dp1530
g76
(dp1531
sg85
g1021
sg78
(lp1532
g71
(g92
g73
NtRp1533
(dp1534
g76
(dp1535
g96
g97
ssg85
g1529
sg78
(lp1536
S'server_name'
p1537
asbag71
(g92
g73
NtRp1538
(dp1539
g76
(dp1540
g103
g104
ssg85
g1529
sg78
(lp1541
S':'
asbag71
(g92
g73
NtRp1542
(dp1543
g76
(dp1544
sg85
g1529
sg78
(lp1545
g71
(g72
g73
NtRp1546
(dp1547
g76
(dp1548
g84
I4
ssg85
g1542
sg78
(lp1549
S'uriel'
p1550
asbasbasbag71
(g87
g73
NtRp1551
(dp1552
g76
(dp1553
sg85
g1021
sg78
(lp1554
g71
(g92
g73
NtRp1555
(dp1556
g76
(dp1557
g96
g97
ssg85
g1551
sg78
(lp1558
S'server_port'
p1559
asbag71
(g92
g73
NtRp1560
(dp1561
g76
(dp1562
g103
g104
ssg85
g1551
sg78
(lp1563
S':'
asbag71
(g92
g73
NtRp1564
(dp1565
g76
(dp1566
sg85
g1551
sg78
(lp1567
g71
(g72
g73
NtRp1568
(dp1569
g76
(dp1570
g84
I4
ssg85
g1564
sg78
(lp1571
S'8000'
p1572
asbasbasbag71
(g87
g73
NtRp1573
(dp1574
g76
(dp1575
sg85
g1021
sg78
(lp1576
g71
(g92
g73
NtRp1577
(dp1578
g76
(dp1579
g96
g97
ssg85
g1573
sg78
(lp1580
S'server_protocol'
p1581
asbag71
(g92
g73
NtRp1582
(dp1583
g76
(dp1584
g103
g104
ssg85
g1573
sg78
(lp1585
S':'
asbag71
(g92
g73
NtRp1586
(dp1587
g76
(dp1588
sg85
g1573
sg78
(lp1589
g71
(g72
g73
NtRp1590
(dp1591
g76
(dp1592
g84
I4
ssg85
g1586
sg78
(lp1593
S'HTTP/1.1'
p1594
asbasbasbag71
(g87
g73
NtRp1595
(dp1596
g76
(dp1597
sg85
g1021
sg78
(lp1598
g71
(g92
g73
NtRp1599
(dp1600
g76
(dp1601
g96
g97
ssg85
g1595
sg78
(lp1602
S'server_software'
p1603
asbag71
(g92
g73
NtRp1604
(dp1605
g76
(dp1606
g103
g104
ssg85
g1595
sg78
(lp1607
S':'
asbag71
(g92
g73
NtRp1608
(dp1609
g76
(dp1610
sg85
g1595
sg78
(lp1611
g71
(g72
g73
NtRp1612
(dp1613
g76
(dp1614
g84
I4
ssg85
g1608
sg78
(lp1615
S'Rocket 1.2.4'
p1616
asbasbasbag71
(g87
g73
NtRp1617
(dp1618
g76
(dp1619
sg85
g1021
sg78
(lp1620
g71
(g92
g73
NtRp1621
(dp1622
g76
(dp1623
g96
g97
ssg85
g1617
sg78
(lp1624
S'web2py_crontype'
p1625
asbag71
(g92
g73
NtRp1626
(dp1627
g76
(dp1628
g103
g104
ssg85
g1617
sg78
(lp1629
S':'
asbag71
(g92
g73
NtRp1630
(dp1631
g76
(dp1632
sg85
g1617
sg78
(lp1633
g71
(g72
g73
NtRp1634
(dp1635
g76
(dp1636
g84
I4
ssg85
g1630
sg78
(lp1637
S'hard'
p1638
asbasbasbag71
(g87
g73
NtRp1639
(dp1640
g76
(dp1641
sg85
g1021
sg78
(lp1642
g71
(g92
g73
NtRp1643
(dp1644
g76
(dp1645
g96
g97
ssg85
g1639
sg78
(lp1646
S'web2py_path'
p1647
asbag71
(g92
g73
NtRp1648
(dp1649
g76
(dp1650
g103
g104
ssg85
g1639
sg78
(lp1651
S':'
asbag71
(g92
g73
NtRp1652
(dp1653
g76
(dp1654
sg85
g1639
sg78
(lp1655
g71
(g72
g73
NtRp1656
(dp1657
g76
(dp1658
g84
I4
ssg85
g1652
sg78
(lp1659
g1068
asbasbasbag71
(g87
g73
NtRp1660
(dp1661
g76
(dp1662
sg85
g1021
sg78
(lp1663
g71
(g92
g73
NtRp1664
(dp1665
g76
(dp1666
g96
g97
ssg85
g1660
sg78
(lp1667
S'web2py_version'
p1668
asbag71
(g92
g73
NtRp1669
(dp1670
g76
(dp1671
g103
g104
ssg85
g1660
sg78
(lp1672
S':'
asbag71
(g92
g73
NtRp1673
(dp1674
g76
(dp1675
sg85
g1660
sg78
(lp1676
g71
(g72
g73
NtRp1677
(dp1678
g76
(dp1679
g84
I4
ssg85
g1673
sg78
(lp1680
g71
(g80
g73
NtRp1681
(dp1682
g76
(dp1683
g84
I3
ssg85
Nsg78
(lp1684
g71
(g87
g73
NtRp1685
(dp1686
g76
(dp1687
sg85
g1681
sg78
(lp1688
g71
(g92
g73
NtRp1689
(dp1690
g76
(dp1691
sg85
g1685
sg78
(lp1692
g71
(g72
g73
NtRp1693
(dp1694
g76
(dp1695
g84
I3
ssg85
g1689
sg78
(lp1696
S'1'
asbasbasbag71
(g87
g73
NtRp1697
(dp1698
g76
(dp1699
sg85
g1681
sg78
(lp1700
g71
(g92
g73
NtRp1701
(dp1702
g76
(dp1703
sg85
g1697
sg78
(lp1704
g71
(g72
g73
NtRp1705
(dp1706
g76
(dp1707
g84
I3
ssg85
g1701
sg78
(lp1708
S'99'
p1709
asbasbasbag71
(g87
g73
NtRp1710
(dp1711
g76
(dp1712
sg85
g1681
sg78
(lp1713
g71
(g92
g73
NtRp1714
(dp1715
g76
(dp1716
sg85
g1710
sg78
(lp1717
g71
(g72
g73
NtRp1718
(dp1719
g76
(dp1720
g84
I3
ssg85
g1714
sg78
(lp1721
S'2'
asbasbasbag71
(g87
g73
NtRp1722
(dp1723
g76
(dp1724
sg85
g1681
sg78
(lp1725
g71
(g92
g73
NtRp1726
(dp1727
g76
(dp1728
sg85
g1722
sg78
(lp1729
g71
(g72
g73
NtRp1730
(dp1731
g76
(dp1732
g84
I3
ssg85
g1726
sg78
(lp1733
S'datetime.datetime(2011, 9, 26, 6, 55, 33)'
p1734
asbasbasbag71
(g87
g73
NtRp1735
(dp1736
g76
(dp1737
sg85
g1681
sg78
(lp1738
g71
(g92
g73
NtRp1739
(dp1740
g76
(dp1741
sg85
g1735
sg78
(lp1742
g71
(g72
g73
NtRp1743
(dp1744
g76
(dp1745
g84
I3
ssg85
g1739
sg78
(lp1746
S'stable'
p1747
asbasbasbasbasbasbasbag71
(g87
g73
NtRp1748
(dp1749
g76
(dp1750
sg85
g1021
sg78
(lp1751
g71
(g92
g73
NtRp1752
(dp1753
g76
(dp1754
g96
g97
ssg85
g1748
sg78
(lp1755
S'wsgi_errors'
p1756
asbag71
(g92
g73
NtRp1757
(dp1758
g76
(dp1759
g103
g104
ssg85
g1748
sg78
(lp1760
S':'
asbag71
(g92
g73
NtRp1761
(dp1762
g76
(dp1763
sg85
g1748
sg78
(lp1764
g71
(g72
g73
NtRp1765
(dp1766
g76
(dp1767
g84
I4
ssg85
g1761
sg78
(lp1768
S"<open file '<stderr>', mode 'w' at 0x7f01916ab270>"
p1769
asbasbasbag71
(g87
g73
NtRp1770
(dp1771
g76
(dp1772
sg85
g1021
sg78
(lp1773
g71
(g92
g73
NtRp1774
(dp1775
g76
(dp1776
g96
g97
ssg85
g1770
sg78
(lp1777
S'wsgi_file_wrapper'
p1778
asbag71
(g92
g73
NtRp1779
(dp1780
g76
(dp1781
g103
g104
ssg85
g1770
sg78
(lp1782
S':'
asbag71
(g92
g73
NtRp1783
(dp1784
g76
(dp1785
sg85
g1770
sg78
(lp1786
g71
(g72
g73
NtRp1787
(dp1788
g76
(dp1789
g84
I4
ssg85
g1783
sg78
(lp1790
S'<class wsgiref.util.FileWrapper at 0x2bb6808>'
p1791
asbasbasbag71
(g87
g73
NtRp1792
(dp1793
g76
(dp1794
sg85
g1021
sg78
(lp1795
g71
(g92
g73
NtRp1796
(dp1797
g76
(dp1798
g96
g97
ssg85
g1792
sg78
(lp1799
S'wsgi_input'
p1800
asbag71
(g92
g73
NtRp1801
(dp1802
g76
(dp1803
g103
g104
ssg85
g1792
sg78
(lp1804
S':'
asbag71
(g92
g73
NtRp1805
(dp1806
g76
(dp1807
sg85
g1792
sg78
(lp1808
g71
(g72
g73
NtRp1809
(dp1810
g76
(dp1811
g84
I4
ssg85
g1805
sg78
(lp1812
S'<socket._fileobject object at 0x321cbd0>'
p1813
asbasbasbag71
(g87
g73
NtRp1814
(dp1815
g76
(dp1816
sg85
g1021
sg78
(lp1817
g71
(g92
g73
NtRp1818
(dp1819
g76
(dp1820
g96
g97
ssg85
g1814
sg78
(lp1821
S'wsgi_multiprocess'
p1822
asbag71
(g92
g73
NtRp1823
(dp1824
g76
(dp1825
g103
g104
ssg85
g1814
sg78
(lp1826
S':'
asbag71
(g92
g73
NtRp1827
(dp1828
g76
(dp1829
sg85
g1814
sg78
(lp1830
g71
(g72
g73
NtRp1831
(dp1832
g76
(dp1833
g84
I4
ssg85
g1827
sg78
(lp1834
g114
asbasbasbag71
(g87
g73
NtRp1835
(dp1836
g76
(dp1837
sg85
g1021
sg78
(lp1838
g71
(g92
g73
NtRp1839
(dp1840
g76
(dp1841
g96
g97
ssg85
g1835
sg78
(lp1842
S'wsgi_multithread'
p1843
asbag71
(g92
g73
NtRp1844
(dp1845
g76
(dp1846
g103
g104
ssg85
g1835
sg78
(lp1847
S':'
asbag71
(g92
g73
NtRp1848
(dp1849
g76
(dp1850
sg85
g1835
sg78
(lp1851
g71
(g72
g73
NtRp1852
(dp1853
g76
(dp1854
g84
I4
ssg85
g1848
sg78
(lp1855
S'True'
p1856
asbasbasbag71
(g87
g73
NtRp1857
(dp1858
g76
(dp1859
sg85
g1021
sg78
(lp1860
g71
(g92
g73
NtRp1861
(dp1862
g76
(dp1863
g96
g97
ssg85
g1857
sg78
(lp1864
S'wsgi_run_once'
p1865
asbag71
(g92
g73
NtRp1866
(dp1867
g76
(dp1868
g103
g104
ssg85
g1857
sg78
(lp1869
S':'
asbag71
(g92
g73
NtRp1870
(dp1871
g76
(dp1872
sg85
g1857
sg78
(lp1873
g71
(g72
g73
NtRp1874
(dp1875
g76
(dp1876
g84
I4
ssg85
g1870
sg78
(lp1877
g114
asbasbasbag71
(g87
g73
NtRp1878
(dp1879
g76
(dp1880
sg85
g1021
sg78
(lp1881
g71
(g92
g73
NtRp1882
(dp1883
g76
(dp1884
g96
g97
ssg85
g1878
sg78
(lp1885
S'wsgi_url_scheme'
p1886
asbag71
(g92
g73
NtRp1887
(dp1888
g76
(dp1889
g103
g104
ssg85
g1878
sg78
(lp1890
S':'
asbag71
(g92
g73
NtRp1891
(dp1892
g76
(dp1893
sg85
g1878
sg78
(lp1894
g71
(g72
g73
NtRp1895
(dp1896
g76
(dp1897
g84
I4
ssg85
g1891
sg78
(lp1898
S'http'
p1899
asbasbasbag71
(g87
g73
NtRp1900
(dp1901
g76
(dp1902
sg85
g1021
sg78
(lp1903
g71
(g92
g73
NtRp1904
(dp1905
g76
(dp1906
g96
g97
ssg85
g1900
sg78
(lp1907
S'wsgi_version'
p1908
asbag71
(g92
g73
NtRp1909
(dp1910
g76
(dp1911
g103
g104
ssg85
g1900
sg78
(lp1912
S':'
asbag71
(g92
g73
NtRp1913
(dp1914
g76
(dp1915
sg85
g1900
sg78
(lp1916
g71
(g72
g73
NtRp1917
(dp1918
g76
(dp1919
g84
I4
ssg85
g1913
sg78
(lp1920
g71
(g80
g73
NtRp1921
(dp1922
g76
(dp1923
g84
I3
ssg85
Nsg78
(lp1924
g71
(g87
g73
NtRp1925
(dp1926
g76
(dp1927
sg85
g1921
sg78
(lp1928
g71
(g92
g73
NtRp1929
(dp1930
g76
(dp1931
sg85
g1925
sg78
(lp1932
g71
(g72
g73
NtRp1933
(dp1934
g76
(dp1935
g84
I3
ssg85
g1929
sg78
(lp1936
S'1'
asbasbasbag71
(g87
g73
NtRp1937
(dp1938
g76
(dp1939
sg85
g1921
sg78
(lp1940
g71
(g92
g73
NtRp1941
(dp1942
g76
(dp1943
sg85
g1937
sg78
(lp1944
g71
(g72
g73
NtRp1945
(dp1946
g76
(dp1947
g84
I3
ssg85
g1941
sg78
(lp1948
S'0'
asbasbasbasbasbasbasbasbasbasbasbag71
(g87
g73
NtRp1949
(dp1950
g76
(dp1951
sg85
g81
sg78
(lp1952
g71
(g92
g73
NtRp1953
(dp1954
g76
(dp1955
g96
g97
ssg85
g1949
sg78
(lp1956
S'extension'
p1957
asbag71
(g92
g73
NtRp1958
(dp1959
g76
(dp1960
g103
g104
ssg85
g1949
sg78
(lp1961
S':'
asbag71
(g92
g73
NtRp1962
(dp1963
g76
(dp1964
sg85
g1949
sg78
(lp1965
g71
(g72
g73
NtRp1966
(dp1967
g76
(dp1968
g84
I5
ssg85
g1962
sg78
(lp1969
S'html'
p1970
asbasbasbag71
(g87
g73
NtRp1971
(dp1972
g76
(dp1973
sg85
g81
sg78
(lp1974
g71
(g92
g73
NtRp1975
(dp1976
g76
(dp1977
g96
g97
ssg85
g1971
sg78
(lp1978
S'folder'
p1979
asbag71
(g92
g73
NtRp1980
(dp1981
g76
(dp1982
g103
g104
ssg85
g1971
sg78
(lp1983
S':'
asbag71
(g92
g73
NtRp1984
(dp1985
g76
(dp1986
sg85
g1971
sg78
(lp1987
g71
(g72
g73
NtRp1988
(dp1989
g76
(dp1990
g84
I5
ssg85
g1984
sg78
(lp1991
S'/home/ian/web2py/applications/paideia/'
p1992
asbasbasbag71
(g87
g73
NtRp1993
(dp1994
g76
(dp1995
sg85
g81
sg78
(lp1996
g71
(g92
g73
NtRp1997
(dp1998
g76
(dp1999
g96
g97
ssg85
g1993
sg78
(lp2000
S'function'
p2001
asbag71
(g92
g73
NtRp2002
(dp2003
g76
(dp2004
g103
g104
ssg85
g1993
sg78
(lp2005
S':'
asbag71
(g92
g73
NtRp2006
(dp2007
g76
(dp2008
sg85
g1993
sg78
(lp2009
g71
(g72
g73
NtRp2010
(dp2011
g76
(dp2012
g84
I5
ssg85
g2006
sg78
(lp2013
S'index'
p2014
asbasbasbag71
(g87
g73
NtRp2015
(dp2016
g76
(dp2017
sg85
g81
sg78
(lp2018
g71
(g92
g73
NtRp2019
(dp2020
g76
(dp2021
g96
g97
ssg85
g2015
sg78
(lp2022
S'get_vars'
p2023
asbag71
(g92
g73
NtRp2024
(dp2025
g76
(dp2026
g103
g104
ssg85
g2015
sg78
(lp2027
S':'
asbag71
(g92
g73
NtRp2028
(dp2029
g76
(dp2030
sg85
g2015
sg78
(lp2031
g71
(g72
g73
NtRp2032
(dp2033
g76
(dp2034
g84
I5
ssg85
g2028
sg78
(lp2035
g71
(g80
g73
NtRp2036
(dp2037
g76
(dp2038
g84
I4
ssg85
Nsg78
(lp2039
sbasbasbasbag71
(g87
g73
NtRp2040
(dp2041
g76
(dp2042
sg85
g81
sg78
(lp2043
g71
(g92
g73
NtRp2044
(dp2045
g76
(dp2046
g96
g97
ssg85
g2040
sg78
(lp2047
S'global_settings'
p2048
asbag71
(g92
g73
NtRp2049
(dp2050
g76
(dp2051
g103
g104
ssg85
g2040
sg78
(lp2052
S':'
asbag71
(g92
g73
NtRp2053
(dp2054
g76
(dp2055
sg85
g2040
sg78
(lp2056
g71
(g72
g73
NtRp2057
(dp2058
g76
(dp2059
g84
I5
ssg85
g2053
sg78
(lp2060
g71
(g80
g73
NtRp2061
(dp2062
g76
(dp2063
g84
I4
ssg85
Nsg78
(lp2064
g71
(g87
g73
NtRp2065
(dp2066
g76
(dp2067
sg85
g2061
sg78
(lp2068
g71
(g92
g73
NtRp2069
(dp2070
g76
(dp2071
g96
g97
ssg85
g2065
sg78
(lp2072
g1033
asbag71
(g92
g73
NtRp2073
(dp2074
g76
(dp2075
g103
g104
ssg85
g2065
sg78
(lp2076
S':'
asbag71
(g92
g73
NtRp2077
(dp2078
g76
(dp2079
sg85
g2065
sg78
(lp2080
g71
(g72
g73
NtRp2081
(dp2082
g76
(dp2083
g84
I4
ssg85
g2077
sg78
(lp2084
S"set(['/home/ian/web2py/applications/paideia_backup/', '/home/ian/web2py/applications/welcome/', '/home/ian/web2py/applications/paideia/', '/home/ian/web2py/applications/admin/'])"
p2085
asbasbasbag71
(g87
g73
NtRp2086
(dp2087
g76
(dp2088
sg85
g2061
sg78
(lp2089
g71
(g92
g73
NtRp2090
(dp2091
g76
(dp2092
g96
g97
ssg85
g2086
sg78
(lp2093
g1055
asbag71
(g92
g73
NtRp2094
(dp2095
g76
(dp2096
g103
g104
ssg85
g2086
sg78
(lp2097
S':'
asbag71
(g92
g73
NtRp2098
(dp2099
g76
(dp2100
sg85
g2086
sg78
(lp2101
g71
(g72
g73
NtRp2102
(dp2103
g76
(dp2104
g84
I4
ssg85
g2098
sg78
(lp2105
g1068
asbasbasbag71
(g87
g73
NtRp2106
(dp2107
g76
(dp2108
sg85
g2061
sg78
(lp2109
g71
(g92
g73
NtRp2110
(dp2111
g76
(dp2112
g96
g97
ssg85
g2106
sg78
(lp2113
g1077
asbag71
(g92
g73
NtRp2114
(dp2115
g76
(dp2116
g103
g104
ssg85
g2106
sg78
(lp2117
S':'
asbag71
(g92
g73
NtRp2118
(dp2119
g76
(dp2120
sg85
g2106
sg78
(lp2121
g71
(g72
g73
NtRp2122
(dp2123
g76
(dp2124
g84
I4
ssg85
g2118
sg78
(lp2125
g71
(g80
g73
NtRp2126
(dp2127
g76
(dp2128
g84
I3
ssg85
Nsg78
(lp2129
sbasbasbasbag71
(g87
g73
NtRp2130
(dp2131
g76
(dp2132
sg85
g2061
sg78
(lp2133
g71
(g92
g73
NtRp2134
(dp2135
g76
(dp2136
g96
g97
ssg85
g2130
sg78
(lp2137
g1102
asbag71
(g92
g73
NtRp2138
(dp2139
g76
(dp2140
g103
g104
ssg85
g2130
sg78
(lp2141
S':'
asbag71
(g92
g73
NtRp2142
(dp2143
g76
(dp2144
sg85
g2130
sg78
(lp2145
g71
(g72
g73
NtRp2146
(dp2147
g76
(dp2148
g84
I4
ssg85
g2142
sg78
(lp2149
S"<Values at 0x2ceb758: {'verbose': False, 'ip': '127.0.0.1', 'shutdown_timeout': 5, 'taskbar': False, 'nocron': False, 'pid_filename': 'httpserver.pid', 'maxthreads': None, 'softcron': False, 'server_name': 'uriel', 'bpython': False, 'nogui': False, 'port': 8000, 'extcron': False, 'debuglevel': 30, 'test': None, 'folder': '/home/ian/web2py', 'config': '', 'import_models': False, 'winservice': '', 'shell': None, 'run': '', 'log_filename': 'httpserver.log', 'args': [''], 'ssl_ca_certificate': None, 'scheduler': None, 'profiler_filename': None, 'ssl_private_key': '', 'password': '<ask>', 'request_queue_size': 5, 'ssl_certificate': '', 'cronjob': False, 'plain': False, 'quiet': False, 'interfaces': None, 'minthreads': None, 'timeout': 10, 'numthreads': None, 'nobanner': False}>"
p2150
asbasbasbag71
(g87
g73
NtRp2151
(dp2152
g76
(dp2153
sg85
g2061
sg78
(lp2154
g71
(g92
g73
NtRp2155
(dp2156
g76
(dp2157
g96
g97
ssg85
g2151
sg78
(lp2158
g1124
asbag71
(g92
g73
NtRp2159
(dp2160
g76
(dp2161
g103
g104
ssg85
g2151
sg78
(lp2162
S':'
asbag71
(g92
g73
NtRp2163
(dp2164
g76
(dp2165
sg85
g2151
sg78
(lp2166
g71
(g72
g73
NtRp2167
(dp2168
g76
(dp2169
g84
I4
ssg85
g2163
sg78
(lp2170
S'set([])'
p2171
asbasbasbag71
(g87
g73
NtRp2172
(dp2173
g76
(dp2174
sg85
g2061
sg78
(lp2175
g71
(g92
g73
NtRp2176
(dp2177
g76
(dp2178
g96
g97
ssg85
g2172
sg78
(lp2179
g1146
asbag71
(g92
g73
NtRp2180
(dp2181
g76
(dp2182
g103
g104
ssg85
g2172
sg78
(lp2183
S':'
asbag71
(g92
g73
NtRp2184
(dp2185
g76
(dp2186
sg85
g2172
sg78
(lp2187
g71
(g72
g73
NtRp2188
(dp2189
g76
(dp2190
g84
I4
ssg85
g2184
sg78
(lp2191
g114
asbasbasbag71
(g87
g73
NtRp2192
(dp2193
g76
(dp2194
sg85
g2061
sg78
(lp2195
g71
(g92
g73
NtRp2196
(dp2197
g76
(dp2198
g96
g97
ssg85
g2192
sg78
(lp2199
g1167
asbag71
(g92
g73
NtRp2200
(dp2201
g76
(dp2202
g103
g104
ssg85
g2192
sg78
(lp2203
S':'
asbag71
(g92
g73
NtRp2204
(dp2205
g76
(dp2206
sg85
g2192
sg78
(lp2207
g71
(g72
g73
NtRp2208
(dp2209
g76
(dp2210
g84
I4
ssg85
g2204
sg78
(lp2211
g1180
asbasbasbag71
(g87
g73
NtRp2212
(dp2213
g76
(dp2214
sg85
g2061
sg78
(lp2215
g71
(g92
g73
NtRp2216
(dp2217
g76
(dp2218
g96
g97
ssg85
g2212
sg78
(lp2219
g1387
asbag71
(g92
g73
NtRp2220
(dp2221
g76
(dp2222
g103
g104
ssg85
g2212
sg78
(lp2223
S':'
asbag71
(g92
g73
NtRp2224
(dp2225
g76
(dp2226
sg85
g2212
sg78
(lp2227
g71
(g72
g73
NtRp2228
(dp2229
g76
(dp2230
g84
I4
ssg85
g2224
sg78
(lp2231
g114
asbasbasbag71
(g87
g73
NtRp2232
(dp2233
g76
(dp2234
sg85
g2061
sg78
(lp2235
g71
(g92
g73
NtRp2236
(dp2237
g76
(dp2238
g96
g97
ssg85
g2232
sg78
(lp2239
g1625
asbag71
(g92
g73
NtRp2240
(dp2241
g76
(dp2242
g103
g104
ssg85
g2232
sg78
(lp2243
S':'
asbag71
(g92
g73
NtRp2244
(dp2245
g76
(dp2246
sg85
g2232
sg78
(lp2247
g71
(g72
g73
NtRp2248
(dp2249
g76
(dp2250
g84
I4
ssg85
g2244
sg78
(lp2251
g1638
asbasbasbag71
(g87
g73
NtRp2252
(dp2253
g76
(dp2254
sg85
g2061
sg78
(lp2255
g71
(g92
g73
NtRp2256
(dp2257
g76
(dp2258
g96
g97
ssg85
g2252
sg78
(lp2259
g1668
asbag71
(g92
g73
NtRp2260
(dp2261
g76
(dp2262
g103
g104
ssg85
g2252
sg78
(lp2263
S':'
asbag71
(g92
g73
NtRp2264
(dp2265
g76
(dp2266
sg85
g2252
sg78
(lp2267
g71
(g72
g73
NtRp2268
(dp2269
g76
(dp2270
g84
I4
ssg85
g2264
sg78
(lp2271
g71
(g80
g73
NtRp2272
(dp2273
g76
(dp2274
g84
I3
ssg85
Nsg78
(lp2275
g71
(g87
g73
NtRp2276
(dp2277
g76
(dp2278
sg85
g2272
sg78
(lp2279
g71
(g92
g73
NtRp2280
(dp2281
g76
(dp2282
sg85
g2276
sg78
(lp2283
g71
(g72
g73
NtRp2284
(dp2285
g76
(dp2286
g84
I3
ssg85
g2280
sg78
(lp2287
S'1'
asbasbasbag71
(g87
g73
NtRp2288
(dp2289
g76
(dp2290
sg85
g2272
sg78
(lp2291
g71
(g92
g73
NtRp2292
(dp2293
g76
(dp2294
sg85
g2288
sg78
(lp2295
g71
(g72
g73
NtRp2296
(dp2297
g76
(dp2298
g84
I3
ssg85
g2292
sg78
(lp2299
S'99'
p2300
asbasbasbag71
(g87
g73
NtRp2301
(dp2302
g76
(dp2303
sg85
g2272
sg78
(lp2304
g71
(g92
g73
NtRp2305
(dp2306
g76
(dp2307
sg85
g2301
sg78
(lp2308
g71
(g72
g73
NtRp2309
(dp2310
g76
(dp2311
g84
I3
ssg85
g2305
sg78
(lp2312
S'2'
asbasbasbag71
(g87
g73
NtRp2313
(dp2314
g76
(dp2315
sg85
g2272
sg78
(lp2316
g71
(g92
g73
NtRp2317
(dp2318
g76
(dp2319
sg85
g2313
sg78
(lp2320
g71
(g72
g73
NtRp2321
(dp2322
g76
(dp2323
g84
I3
ssg85
g2317
sg78
(lp2324
S'datetime.datetime(2011, 9, 26, 6, 55, 33)'
p2325
asbasbasbag71
(g87
g73
NtRp2326
(dp2327
g76
(dp2328
sg85
g2272
sg78
(lp2329
g71
(g92
g73
NtRp2330
(dp2331
g76
(dp2332
sg85
g2326
sg78
(lp2333
g71
(g72
g73
NtRp2334
(dp2335
g76
(dp2336
g84
I3
ssg85
g2330
sg78
(lp2337
g1747
asbasbasbasbasbasbasbasbasbasbasbag71
(g87
g73
NtRp2338
(dp2339
g76
(dp2340
sg85
g81
sg78
(lp2341
g71
(g92
g73
NtRp2342
(dp2343
g76
(dp2344
g96
g97
ssg85
g2338
sg78
(lp2345
S'is_https'
p2346
asbag71
(g92
g73
NtRp2347
(dp2348
g76
(dp2349
g103
g104
ssg85
g2338
sg78
(lp2350
S':'
asbag71
(g92
g73
NtRp2351
(dp2352
g76
(dp2353
sg85
g2338
sg78
(lp2354
g71
(g72
g73
NtRp2355
(dp2356
g76
(dp2357
g84
I5
ssg85
g2351
sg78
(lp2358
g114
asbasbasbag71
(g87
g73
NtRp2359
(dp2360
g76
(dp2361
sg85
g81
sg78
(lp2362
g71
(g92
g73
NtRp2363
(dp2364
g76
(dp2365
g96
g97
ssg85
g2359
sg78
(lp2366
S'is_local'
p2367
asbag71
(g92
g73
NtRp2368
(dp2369
g76
(dp2370
g103
g104
ssg85
g2359
sg78
(lp2371
S':'
asbag71
(g92
g73
NtRp2372
(dp2373
g76
(dp2374
sg85
g2359
sg78
(lp2375
g71
(g72
g73
NtRp2376
(dp2377
g76
(dp2378
g84
I5
ssg85
g2372
sg78
(lp2379
g1856
asbasbasbag71
(g87
g73
NtRp2380
(dp2381
g76
(dp2382
sg85
g81
sg78
(lp2383
g71
(g92
g73
NtRp2384
(dp2385
g76
(dp2386
g96
g97
ssg85
g2380
sg78
(lp2387
S'is_restful'
p2388
asbag71
(g92
g73
NtRp2389
(dp2390
g76
(dp2391
g103
g104
ssg85
g2380
sg78
(lp2392
S':'
asbag71
(g92
g73
NtRp2393
(dp2394
g76
(dp2395
sg85
g2380
sg78
(lp2396
g71
(g72
g73
NtRp2397
(dp2398
g76
(dp2399
g84
I5
ssg85
g2393
sg78
(lp2400
g114
asbasbasbag71
(g87
g73
NtRp2401
(dp2402
g76
(dp2403
sg85
g81
sg78
(lp2404
g71
(g92
g73
NtRp2405
(dp2406
g76
(dp2407
g96
g97
ssg85
g2401
sg78
(lp2408
S'now'
p2409
asbag71
(g92
g73
NtRp2410
(dp2411
g76
(dp2412
g103
g104
ssg85
g2401
sg78
(lp2413
S':'
asbag71
(g92
g73
NtRp2414
(dp2415
g76
(dp2416
sg85
g2401
sg78
(lp2417
g71
(g72
g73
NtRp2418
(dp2419
g76
(dp2420
g84
I5
ssg85
g2414
sg78
(lp2421
S'datetime.datetime(2011, 10, 12, 15, 0, 11, 515154)'
p2422
asbasbasbag71
(g87
g73
NtRp2423
(dp2424
g76
(dp2425
sg85
g81
sg78
(lp2426
g71
(g92
g73
NtRp2427
(dp2428
g76
(dp2429
g96
g97
ssg85
g2423
sg78
(lp2430
S'post_vars'
p2431
asbag71
(g92
g73
NtRp2432
(dp2433
g76
(dp2434
g103
g104
ssg85
g2423
sg78
(lp2435
S':'
asbag71
(g92
g73
NtRp2436
(dp2437
g76
(dp2438
sg85
g2423
sg78
(lp2439
g71
(g72
g73
NtRp2440
(dp2441
g76
(dp2442
g84
I5
ssg85
g2436
sg78
(lp2443
g71
(g80
g73
NtRp2444
(dp2445
g76
(dp2446
g84
I4
ssg85
Nsg78
(lp2447
sbasbasbasbag71
(g87
g73
NtRp2448
(dp2449
g76
(dp2450
sg85
g81
sg78
(lp2451
g71
(g92
g73
NtRp2452
(dp2453
g76
(dp2454
g96
g97
ssg85
g2448
sg78
(lp2455
S'url'
p2456
asbag71
(g92
g73
NtRp2457
(dp2458
g76
(dp2459
g103
g104
ssg85
g2448
sg78
(lp2460
S':'
asbag71
(g92
g73
NtRp2461
(dp2462
g76
(dp2463
sg85
g2448
sg78
(lp2464
g71
(g72
g73
NtRp2465
(dp2466
g76
(dp2467
g84
I5
ssg85
g2461
sg78
(lp2468
S'/paideia/default/index'
p2469
asbasbasbag71
(g87
g73
NtRp2470
(dp2471
g76
(dp2472
sg85
g81
sg78
(lp2473
g71
(g92
g73
NtRp2474
(dp2475
g76
(dp2476
g96
g97
ssg85
g2470
sg78
(lp2477
S'utcnow'
p2478
asbag71
(g92
g73
NtRp2479
(dp2480
g76
(dp2481
g103
g104
ssg85
g2470
sg78
(lp2482
S':'
asbag71
(g92
g73
NtRp2483
(dp2484
g76
(dp2485
sg85
g2470
sg78
(lp2486
g71
(g72
g73
NtRp2487
(dp2488
g76
(dp2489
g84
I5
ssg85
g2483
sg78
(lp2490
S'datetime.datetime(2011, 10, 12, 19, 0, 11, 515211)'
p2491
asbasbasbag71
(g87
g73
NtRp2492
(dp2493
g76
(dp2494
sg85
g81
sg78
(lp2495
g71
(g92
g73
NtRp2496
(dp2497
g76
(dp2498
g96
g97
ssg85
g2492
sg78
(lp2499
S'uuid'
p2500
asbag71
(g92
g73
NtRp2501
(dp2502
g76
(dp2503
g103
g104
ssg85
g2492
sg78
(lp2504
S':'
asbag71
(g92
g73
NtRp2505
(dp2506
g76
(dp2507
sg85
g2492
sg78
(lp2508
g71
(g72
g73
NtRp2509
(dp2510
g76
(dp2511
g84
I5
ssg85
g2505
sg78
(lp2512
S'paideia/127.0.0.1.2011-10-12.15-00-11.a8d295f7-68e2-4b5d-827f-cab19a58e315'
p2513
asbasbasbag71
(g87
g73
NtRp2514
(dp2515
g76
(dp2516
sg85
g81
sg78
(lp2517
g71
(g92
g73
NtRp2518
(dp2519
g76
(dp2520
g96
g97
ssg85
g2514
sg78
(lp2521
S'vars'
p2522
asbag71
(g92
g73
NtRp2523
(dp2524
g76
(dp2525
g103
g104
ssg85
g2514
sg78
(lp2526
S':'
asbag71
(g92
g73
NtRp2527
(dp2528
g76
(dp2529
sg85
g2514
sg78
(lp2530
g71
(g72
g73
NtRp2531
(dp2532
g76
(dp2533
g84
I5
ssg85
g2527
sg78
(lp2534
g71
(g80
g73
NtRp2535
(dp2536
g76
(dp2537
g84
I4
ssg85
Nsg78
(lp2538
sbasbasbasbag71
(g87
g73
NtRp2539
(dp2540
g76
(dp2541
sg85
g81
sg78
(lp2542
g71
(g92
g73
NtRp2543
(dp2544
g76
(dp2545
g96
g97
ssg85
g2539
sg78
(lp2546
S'wsgi'
p2547
asbag71
(g92
g73
NtRp2548
(dp2549
g76
(dp2550
g103
g104
ssg85
g2539
sg78
(lp2551
S':'
asbag71
(g92
g73
NtRp2552
(dp2553
g76
(dp2554
sg85
g2539
sg78
(lp2555
g71
(g72
g73
NtRp2556
(dp2557
g76
(dp2558
g84
I5
ssg85
g2552
sg78
(lp2559
g71
(g80
g73
NtRp2560
(dp2561
g76
(dp2562
g84
I4
ssg85
Nsg78
(lp2563
g71
(g87
g73
NtRp2564
(dp2565
g76
(dp2566
sg85
g2560
sg78
(lp2567
g71
(g92
g73
NtRp2568
(dp2569
g76
(dp2570
g96
g97
ssg85
g2564
sg78
(lp2571
S'environ'
p2572
asbag71
(g92
g73
NtRp2573
(dp2574
g76
(dp2575
g103
g104
ssg85
g2564
sg78
(lp2576
S':'
asbag71
(g92
g73
NtRp2577
(dp2578
g76
(dp2579
sg85
g2564
sg78
(lp2580
g71
(g72
g73
NtRp2581
(dp2582
g76
(dp2583
g84
I4
ssg85
g2577
sg78
(lp2584
g71
(g80
g73
NtRp2585
(dp2586
g76
(dp2587
g84
I3
ssg85
Nsg78
(lp2588
g71
(g87
g73
NtRp2589
(dp2590
g76
(dp2591
sg85
g2585
sg78
(lp2592
g71
(g92
g73
NtRp2593
(dp2594
g76
(dp2595
g96
g97
ssg85
g2589
sg78
(lp2596
S'HTTP_ACCEPT'
p2597
asbag71
(g92
g73
NtRp2598
(dp2599
g76
(dp2600
g103
g104
ssg85
g2589
sg78
(lp2601
S':'
asbag71
(g92
g73
NtRp2602
(dp2603
g76
(dp2604
sg85
g2589
sg78
(lp2605
g71
(g72
g73
NtRp2606
(dp2607
g76
(dp2608
g84
I3
ssg85
g2602
sg78
(lp2609
g1202
asbasbasbag71
(g87
g73
NtRp2610
(dp2611
g76
(dp2612
sg85
g2585
sg78
(lp2613
g71
(g92
g73
NtRp2614
(dp2615
g76
(dp2616
g96
g97
ssg85
g2610
sg78
(lp2617
S'HTTP_ACCEPT_ENCODING'
p2618
asbag71
(g92
g73
NtRp2619
(dp2620
g76
(dp2621
g103
g104
ssg85
g2610
sg78
(lp2622
S':'
asbag71
(g92
g73
NtRp2623
(dp2624
g76
(dp2625
sg85
g2610
sg78
(lp2626
g71
(g72
g73
NtRp2627
(dp2628
g76
(dp2629
g84
I3
ssg85
g2623
sg78
(lp2630
g1224
asbasbasbag71
(g87
g73
NtRp2631
(dp2632
g76
(dp2633
sg85
g2585
sg78
(lp2634
g71
(g92
g73
NtRp2635
(dp2636
g76
(dp2637
g96
g97
ssg85
g2631
sg78
(lp2638
S'HTTP_ACCEPT_LANGUAGE'
p2639
asbag71
(g92
g73
NtRp2640
(dp2641
g76
(dp2642
g103
g104
ssg85
g2631
sg78
(lp2643
S':'
asbag71
(g92
g73
NtRp2644
(dp2645
g76
(dp2646
sg85
g2631
sg78
(lp2647
g71
(g72
g73
NtRp2648
(dp2649
g76
(dp2650
g84
I3
ssg85
g2644
sg78
(lp2651
g1246
asbasbasbag71
(g87
g73
NtRp2652
(dp2653
g76
(dp2654
sg85
g2585
sg78
(lp2655
g71
(g92
g73
NtRp2656
(dp2657
g76
(dp2658
g96
g97
ssg85
g2652
sg78
(lp2659
S'HTTP_CACHE_CONTROL'
p2660
asbag71
(g92
g73
NtRp2661
(dp2662
g76
(dp2663
g103
g104
ssg85
g2652
sg78
(lp2664
S':'
asbag71
(g92
g73
NtRp2665
(dp2666
g76
(dp2667
sg85
g2652
sg78
(lp2668
g71
(g72
g73
NtRp2669
(dp2670
g76
(dp2671
g84
I3
ssg85
g2665
sg78
(lp2672
g1268
asbasbasbag71
(g87
g73
NtRp2673
(dp2674
g76
(dp2675
sg85
g2585
sg78
(lp2676
g71
(g92
g73
NtRp2677
(dp2678
g76
(dp2679
g96
g97
ssg85
g2673
sg78
(lp2680
S'HTTP_CONNECTION'
p2681
asbag71
(g92
g73
NtRp2682
(dp2683
g76
(dp2684
g103
g104
ssg85
g2673
sg78
(lp2685
S':'
asbag71
(g92
g73
NtRp2686
(dp2687
g76
(dp2688
sg85
g2673
sg78
(lp2689
g71
(g72
g73
NtRp2690
(dp2691
g76
(dp2692
g84
I3
ssg85
g2686
sg78
(lp2693
g1290
asbasbasbag71
(g87
g73
NtRp2694
(dp2695
g76
(dp2696
sg85
g2585
sg78
(lp2697
g71
(g92
g73
NtRp2698
(dp2699
g76
(dp2700
g96
g97
ssg85
g2694
sg78
(lp2701
S'HTTP_COOKIE'
p2702
asbag71
(g92
g73
NtRp2703
(dp2704
g76
(dp2705
g103
g104
ssg85
g2694
sg78
(lp2706
S':'
asbag71
(g92
g73
NtRp2707
(dp2708
g76
(dp2709
sg85
g2694
sg78
(lp2710
g71
(g72
g73
NtRp2711
(dp2712
g76
(dp2713
g84
I3
ssg85
g2707
sg78
(lp2714
g1312
asbasbasbag71
(g87
g73
NtRp2715
(dp2716
g76
(dp2717
sg85
g2585
sg78
(lp2718
g71
(g92
g73
NtRp2719
(dp2720
g76
(dp2721
g96
g97
ssg85
g2715
sg78
(lp2722
S'HTTP_HOST'
p2723
asbag71
(g92
g73
NtRp2724
(dp2725
g76
(dp2726
g103
g104
ssg85
g2715
sg78
(lp2727
S':'
asbag71
(g92
g73
NtRp2728
(dp2729
g76
(dp2730
sg85
g2715
sg78
(lp2731
g71
(g72
g73
NtRp2732
(dp2733
g76
(dp2734
g84
I3
ssg85
g2728
sg78
(lp2735
g1334
asbasbasbag71
(g87
g73
NtRp2736
(dp2737
g76
(dp2738
sg85
g2585
sg78
(lp2739
g71
(g92
g73
NtRp2740
(dp2741
g76
(dp2742
g96
g97
ssg85
g2736
sg78
(lp2743
S'HTTP_REFERER'
p2744
asbag71
(g92
g73
NtRp2745
(dp2746
g76
(dp2747
g103
g104
ssg85
g2736
sg78
(lp2748
S':'
asbag71
(g92
g73
NtRp2749
(dp2750
g76
(dp2751
sg85
g2736
sg78
(lp2752
g71
(g72
g73
NtRp2753
(dp2754
g76
(dp2755
g84
I3
ssg85
g2749
sg78
(lp2756
g1356
asbasbasbag71
(g87
g73
NtRp2757
(dp2758
g76
(dp2759
sg85
g2585
sg78
(lp2760
g71
(g92
g73
NtRp2761
(dp2762
g76
(dp2763
g96
g97
ssg85
g2757
sg78
(lp2764
S'HTTP_USER_AGENT'
p2765
asbag71
(g92
g73
NtRp2766
(dp2767
g76
(dp2768
g103
g104
ssg85
g2757
sg78
(lp2769
S':'
asbag71
(g92
g73
NtRp2770
(dp2771
g76
(dp2772
sg85
g2757
sg78
(lp2773
g71
(g72
g73
NtRp2774
(dp2775
g76
(dp2776
g84
I3
ssg85
g2770
sg78
(lp2777
g1378
asbasbasbag71
(g87
g73
NtRp2778
(dp2779
g76
(dp2780
sg85
g2585
sg78
(lp2781
g71
(g92
g73
NtRp2782
(dp2783
g76
(dp2784
g96
g97
ssg85
g2778
sg78
(lp2785
S'PATH_INFO'
p2786
asbag71
(g92
g73
NtRp2787
(dp2788
g76
(dp2789
g103
g104
ssg85
g2778
sg78
(lp2790
S':'
asbag71
(g92
g73
NtRp2791
(dp2792
g76
(dp2793
sg85
g2778
sg78
(lp2794
g71
(g72
g73
NtRp2795
(dp2796
g76
(dp2797
g84
I3
ssg85
g2791
sg78
(lp2798
g1421
asbasbasbag71
(g87
g73
NtRp2799
(dp2800
g76
(dp2801
sg85
g2585
sg78
(lp2802
g71
(g92
g73
NtRp2803
(dp2804
g76
(dp2805
g96
g97
ssg85
g2799
sg78
(lp2806
S'QUERY_STRING'
p2807
asbag71
(g92
g73
NtRp2808
(dp2809
g76
(dp2810
g103
g104
ssg85
g2799
sg78
(lp2811
S':'
asbag71
(g92
g73
NtRp2812
(dp2813
g76
(dp2814
sg85
g2799
sg78
(lp2815
g71
(g72
g73
NtRp2816
(dp2817
g76
(dp2818
g84
I3
ssg85
g2812
sg78
(lp2819
S''
asbasbasbag71
(g87
g73
NtRp2820
(dp2821
g76
(dp2822
sg85
g2585
sg78
(lp2823
g71
(g92
g73
NtRp2824
(dp2825
g76
(dp2826
g96
g97
ssg85
g2820
sg78
(lp2827
S'REMOTE_ADDR'
p2828
asbag71
(g92
g73
NtRp2829
(dp2830
g76
(dp2831
g103
g104
ssg85
g2820
sg78
(lp2832
S':'
asbag71
(g92
g73
NtRp2833
(dp2834
g76
(dp2835
sg85
g2820
sg78
(lp2836
g71
(g72
g73
NtRp2837
(dp2838
g76
(dp2839
g84
I3
ssg85
g2833
sg78
(lp2840
g204
asbasbasbag71
(g87
g73
NtRp2841
(dp2842
g76
(dp2843
sg85
g2585
sg78
(lp2844
g71
(g92
g73
NtRp2845
(dp2846
g76
(dp2847
g96
g97
ssg85
g2841
sg78
(lp2848
S'REMOTE_PORT'
p2849
asbag71
(g92
g73
NtRp2850
(dp2851
g76
(dp2852
g103
g104
ssg85
g2841
sg78
(lp2853
S':'
asbag71
(g92
g73
NtRp2854
(dp2855
g76
(dp2856
sg85
g2841
sg78
(lp2857
g71
(g72
g73
NtRp2858
(dp2859
g76
(dp2860
g84
I3
ssg85
g2854
sg78
(lp2861
g1485
asbasbasbag71
(g87
g73
NtRp2862
(dp2863
g76
(dp2864
sg85
g2585
sg78
(lp2865
g71
(g92
g73
NtRp2866
(dp2867
g76
(dp2868
g96
g97
ssg85
g2862
sg78
(lp2869
S'REQUEST_METHOD'
p2870
asbag71
(g92
g73
NtRp2871
(dp2872
g76
(dp2873
g103
g104
ssg85
g2862
sg78
(lp2874
S':'
asbag71
(g92
g73
NtRp2875
(dp2876
g76
(dp2877
sg85
g2862
sg78
(lp2878
g71
(g72
g73
NtRp2879
(dp2880
g76
(dp2881
g84
I3
ssg85
g2875
sg78
(lp2882
g1507
asbasbasbag71
(g87
g73
NtRp2883
(dp2884
g76
(dp2885
sg85
g2585
sg78
(lp2886
g71
(g92
g73
NtRp2887
(dp2888
g76
(dp2889
g96
g97
ssg85
g2883
sg78
(lp2890
S'SCRIPT_NAME'
p2891
asbag71
(g92
g73
NtRp2892
(dp2893
g76
(dp2894
g103
g104
ssg85
g2883
sg78
(lp2895
S':'
asbag71
(g92
g73
NtRp2896
(dp2897
g76
(dp2898
sg85
g2883
sg78
(lp2899
g71
(g72
g73
NtRp2900
(dp2901
g76
(dp2902
g84
I3
ssg85
g2896
sg78
(lp2903
S''
asbasbasbag71
(g87
g73
NtRp2904
(dp2905
g76
(dp2906
sg85
g2585
sg78
(lp2907
g71
(g92
g73
NtRp2908
(dp2909
g76
(dp2910
g96
g97
ssg85
g2904
sg78
(lp2911
S'SERVER_NAME'
p2912
asbag71
(g92
g73
NtRp2913
(dp2914
g76
(dp2915
g103
g104
ssg85
g2904
sg78
(lp2916
S':'
asbag71
(g92
g73
NtRp2917
(dp2918
g76
(dp2919
sg85
g2904
sg78
(lp2920
g71
(g72
g73
NtRp2921
(dp2922
g76
(dp2923
g84
I3
ssg85
g2917
sg78
(lp2924
g1550
asbasbasbag71
(g87
g73
NtRp2925
(dp2926
g76
(dp2927
sg85
g2585
sg78
(lp2928
g71
(g92
g73
NtRp2929
(dp2930
g76
(dp2931
g96
g97
ssg85
g2925
sg78
(lp2932
S'SERVER_PORT'
p2933
asbag71
(g92
g73
NtRp2934
(dp2935
g76
(dp2936
g103
g104
ssg85
g2925
sg78
(lp2937
S':'
asbag71
(g92
g73
NtRp2938
(dp2939
g76
(dp2940
sg85
g2925
sg78
(lp2941
g71
(g72
g73
NtRp2942
(dp2943
g76
(dp2944
g84
I3
ssg85
g2938
sg78
(lp2945
g1572
asbasbasbag71
(g87
g73
NtRp2946
(dp2947
g76
(dp2948
sg85
g2585
sg78
(lp2949
g71
(g92
g73
NtRp2950
(dp2951
g76
(dp2952
g96
g97
ssg85
g2946
sg78
(lp2953
S'SERVER_PROTOCOL'
p2954
asbag71
(g92
g73
NtRp2955
(dp2956
g76
(dp2957
g103
g104
ssg85
g2946
sg78
(lp2958
S':'
asbag71
(g92
g73
NtRp2959
(dp2960
g76
(dp2961
sg85
g2946
sg78
(lp2962
g71
(g72
g73
NtRp2963
(dp2964
g76
(dp2965
g84
I3
ssg85
g2959
sg78
(lp2966
g1594
asbasbasbag71
(g87
g73
NtRp2967
(dp2968
g76
(dp2969
sg85
g2585
sg78
(lp2970
g71
(g92
g73
NtRp2971
(dp2972
g76
(dp2973
g96
g97
ssg85
g2967
sg78
(lp2974
S'SERVER_SOFTWARE'
p2975
asbag71
(g92
g73
NtRp2976
(dp2977
g76
(dp2978
g103
g104
ssg85
g2967
sg78
(lp2979
S':'
asbag71
(g92
g73
NtRp2980
(dp2981
g76
(dp2982
sg85
g2967
sg78
(lp2983
g71
(g72
g73
NtRp2984
(dp2985
g76
(dp2986
g84
I3
ssg85
g2980
sg78
(lp2987
g1616
asbasbasbag71
(g87
g73
NtRp2988
(dp2989
g76
(dp2990
sg85
g2585
sg78
(lp2991
g71
(g92
g73
NtRp2992
(dp2993
g76
(dp2994
g96
g97
ssg85
g2988
sg78
(lp2995
S'wsgi.errors'
p2996
asbag71
(g92
g73
NtRp2997
(dp2998
g76
(dp2999
g103
g104
ssg85
g2988
sg78
(lp3000
S':'
asbag71
(g92
g73
NtRp3001
(dp3002
g76
(dp3003
sg85
g2988
sg78
(lp3004
g71
(g72
g73
NtRp3005
(dp3006
g76
(dp3007
g84
I3
ssg85
g3001
sg78
(lp3008
S"<open file '<stderr>', mode 'w' at 0x7f01916ab270>"
p3009
asbasbasbag71
(g87
g73
NtRp3010
(dp3011
g76
(dp3012
sg85
g2585
sg78
(lp3013
g71
(g92
g73
NtRp3014
(dp3015
g76
(dp3016
g96
g97
ssg85
g3010
sg78
(lp3017
S'wsgi.file_wrapper'
p3018
asbag71
(g92
g73
NtRp3019
(dp3020
g76
(dp3021
g103
g104
ssg85
g3010
sg78
(lp3022
S':'
asbag71
(g92
g73
NtRp3023
(dp3024
g76
(dp3025
sg85
g3010
sg78
(lp3026
g71
(g72
g73
NtRp3027
(dp3028
g76
(dp3029
g84
I3
ssg85
g3023
sg78
(lp3030
S'<class wsgiref.util.FileWrapper at 0x2bb6808>'
p3031
asbasbasbag71
(g87
g73
NtRp3032
(dp3033
g76
(dp3034
sg85
g2585
sg78
(lp3035
g71
(g92
g73
NtRp3036
(dp3037
g76
(dp3038
g96
g97
ssg85
g3032
sg78
(lp3039
S'wsgi.input'
p3040
asbag71
(g92
g73
NtRp3041
(dp3042
g76
(dp3043
g103
g104
ssg85
g3032
sg78
(lp3044
S':'
asbag71
(g92
g73
NtRp3045
(dp3046
g76
(dp3047
sg85
g3032
sg78
(lp3048
g71
(g72
g73
NtRp3049
(dp3050
g76
(dp3051
g84
I3
ssg85
g3045
sg78
(lp3052
S'<cStringIO.StringO object at 0x3d11ce0>'
p3053
asbasbasbag71
(g87
g73
NtRp3054
(dp3055
g76
(dp3056
sg85
g2585
sg78
(lp3057
g71
(g92
g73
NtRp3058
(dp3059
g76
(dp3060
g96
g97
ssg85
g3054
sg78
(lp3061
S'wsgi.multiprocess'
p3062
asbag71
(g92
g73
NtRp3063
(dp3064
g76
(dp3065
g103
g104
ssg85
g3054
sg78
(lp3066
S':'
asbag71
(g92
g73
NtRp3067
(dp3068
g76
(dp3069
sg85
g3054
sg78
(lp3070
g71
(g72
g73
NtRp3071
(dp3072
g76
(dp3073
g84
I3
ssg85
g3067
sg78
(lp3074
g114
asbasbasbag71
(g87
g73
NtRp3075
(dp3076
g76
(dp3077
sg85
g2585
sg78
(lp3078
g71
(g92
g73
NtRp3079
(dp3080
g76
(dp3081
g96
g97
ssg85
g3075
sg78
(lp3082
S'wsgi.multithread'
p3083
asbag71
(g92
g73
NtRp3084
(dp3085
g76
(dp3086
g103
g104
ssg85
g3075
sg78
(lp3087
S':'
asbag71
(g92
g73
NtRp3088
(dp3089
g76
(dp3090
sg85
g3075
sg78
(lp3091
g71
(g72
g73
NtRp3092
(dp3093
g76
(dp3094
g84
I3
ssg85
g3088
sg78
(lp3095
g1856
asbasbasbag71
(g87
g73
NtRp3096
(dp3097
g76
(dp3098
sg85
g2585
sg78
(lp3099
g71
(g92
g73
NtRp3100
(dp3101
g76
(dp3102
g96
g97
ssg85
g3096
sg78
(lp3103
S'wsgi.run_once'
p3104
asbag71
(g92
g73
NtRp3105
(dp3106
g76
(dp3107
g103
g104
ssg85
g3096
sg78
(lp3108
S':'
asbag71
(g92
g73
NtRp3109
(dp3110
g76
(dp3111
sg85
g3096
sg78
(lp3112
g71
(g72
g73
NtRp3113
(dp3114
g76
(dp3115
g84
I3
ssg85
g3109
sg78
(lp3116
g114
asbasbasbag71
(g87
g73
NtRp3117
(dp3118
g76
(dp3119
sg85
g2585
sg78
(lp3120
g71
(g92
g73
NtRp3121
(dp3122
g76
(dp3123
g96
g97
ssg85
g3117
sg78
(lp3124
S'wsgi.url_scheme'
p3125
asbag71
(g92
g73
NtRp3126
(dp3127
g76
(dp3128
g103
g104
ssg85
g3117
sg78
(lp3129
S':'
asbag71
(g92
g73
NtRp3130
(dp3131
g76
(dp3132
sg85
g3117
sg78
(lp3133
g71
(g72
g73
NtRp3134
(dp3135
g76
(dp3136
g84
I3
ssg85
g3130
sg78
(lp3137
g1899
asbasbasbag71
(g87
g73
NtRp3138
(dp3139
g76
(dp3140
sg85
g2585
sg78
(lp3141
g71
(g92
g73
NtRp3142
(dp3143
g76
(dp3144
g96
g97
ssg85
g3138
sg78
(lp3145
S'wsgi.version'
p3146
asbag71
(g92
g73
NtRp3147
(dp3148
g76
(dp3149
g103
g104
ssg85
g3138
sg78
(lp3150
S':'
asbag71
(g92
g73
NtRp3151
(dp3152
g76
(dp3153
sg85
g3138
sg78
(lp3154
g71
(g72
g73
NtRp3155
(dp3156
g76
(dp3157
g84
I3
ssg85
g3151
sg78
(lp3158
S'1'
asbasbasbasbasbasbasbasbasbasbasbasbasbsS'frames'
p3159
(lp3160
(dp3161
S'file'
p3162
S'/home/ian/web2py/gluon/restricted.py'
p3163
sS'dump'
p3164
(dp3165
S'environment'
p3166
S"{'A': <class 'gluon.html.A'>, 'Auth': <class 'gluon.tools.Auth'>, 'B': <class 'gluon.html.B'>, 'BEAUTIFY': <class 'gluon.html.BEAUTIFY'>, 'BODY': <class 'gluon.html.BODY'>, 'BR': <class 'gluon.html.BR'>, 'BUTTON': <class 'gluon.html.BUTTON'>, 'CAT': <class 'gluon.html.CAT'>, 'CENTER': <class 'gluon.html.CENTER'>, 'CLEANUP': <class 'gluon.validators.CLEANUP'>, ...}"
p3167
sS'ccode'
p3168
S'<code object <module> at 0x2cad0b0, file "/home/...ations/paideia/views/default/index.html", line 1>'
p3169
ssS'lnum'
p3170
I194
sS'lines'
p3171
(dp3172
I192
S'        else:'
p3173
sI193
S'            ccode = compile2(code,layer)'
p3174
sI194
S'        exec ccode in environment'
p3175
sI195
S'    except HTTP:'
p3176
sI196
S'        raise'
p3177
sI197
S'    except Exception, error:'
p3178
sI198
S'        # XXX Show exception in Wing IDE if running in debugger'
p3179
sI189
S'    try:'
p3180
sI190
S'        if type(code) == types.CodeType:'
p3181
sI191
S'            ccode = code'
p3182
ssS'call'
p3183
S'(code=r"left_sidebar_enabled=right_sidebar_enabled=False...script>\\n  \\n  </body>\\n</html>\\n\', escape=False)", environment={\'A\': <class \'gluon.html.A\'>, \'Auth\': <class \'gluon.tools.Auth\'>, \'B\': <class \'gluon.html.B\'>, \'BEAUTIFY\': <class \'gluon.html.BEAUTIFY\'>, \'BODY\': <class \'gluon.html.BODY\'>, \'BR\': <class \'gluon.html.BR\'>, \'BUTTON\': <class \'gluon.html.BUTTON\'>, \'CAT\': <class \'gluon.html.CAT\'>, \'CENTER\': <class \'gluon.html.CENTER\'>, \'CLEANUP\': <class \'gluon.validators.CLEANUP\'>, ...}, layer=\'/home/ian/web2py/applications/paideia/views/default/index.html\')'
p3184
sS'func'
p3185
S'restricted'
p3186
sa(dp3187
g3162
S'/home/ian/web2py/applications/paideia/views/default/index.html'
p3188
sg3164
(dp3189
sg3170
I105
sg3171
(dp3190
I96
S'if left_sidebar_enabled:'
p3191
sI97
S'    response.write(\'\\n          <div id="left_sidebar" \', escape=False)'
p3192
sI98
S'    response.write(XML(left_sidebar_style))'
p3193
sI99
S'    response.write(\' >\\n            <div style="padding: 4px;">\\n          \', escape=False)'
p3194
sI100
S"    response.write('New Left Sidebar Content', escape=False)"
p3195
sI101
S"    response.write('       \\n            </div>\\n          </div><!-- left_sidebar -->\\n      ', escape=False)"
p3196
sI102
S'    pass'
p3197
sI103
S"response.write('\\n\\n      <!-- content of other views-->\\n      ', escape=False)"
p3198
sI104
S'response.write("\\n\\n\\n<h2>Welcome!</h2>\\n\\n<section id=\'updates\'>\\n", escape=False)'
p3199
sI105
S"response.write(LOAD('listing', 'news.load'),ajax=True)"
p3200
sI106
S"response.write('\\n</section>\\n\\n', escape=False)"
p3201
sI107
S'response.write(A("start exploring", _href=URL(\'exploring\', \'index\'), _class=\'button-green-grad\'))'
p3202
sI108
S"response.write('\\n\\n\\n', escape=False)"
p3203
sI109
S"response.write('\\n\\n', escape=False)"
p3204
sI110
S"response.write('\\n', escape=False)"
p3205
sI111
S"response.write(' \\n      <!-- content -->\\n\\n      ', escape=False)"
p3206
sI112
S'if right_sidebar_enabled:'
p3207
sI113
S'    response.write(\'\\n          <div id="right_sidebar" \', escape=False)'
p3208
sI114
S'    response.write(XML(right_sidebar_style))'
p3209
sI115
S'    response.write(\' >\\n            <div style="padding: 4px;">\\n              \', escape=False)'
p3210
ssg3183
S'()'
p3211
sg3185
S'<module>'
p3212
sa(dp3213
g3162
S'/home/ian/web2py/gluon/compileapp.py'
p3214
sg3164
(dp3215
S'other_response'
p3216
S"<Storage {'status': 200, 'body': <cStringIO.Stri...ea28>, 'files': [], 'view': 'listing/news.load'}>"
p3217
sS'other_response._view_environment'
p3218
S"{'A': <class 'gluon.html.A'>, 'Auth': <class 'gluon.tools.Auth'>, 'B': <class 'gluon.html.B'>, 'BEAUTIFY': <class 'gluon.html.BEAUTIFY'>, 'BODY': <class 'gluon.html.BODY'>, 'BR': <class 'gluon.html.BR'>, 'BUTTON': <class 'gluon.html.BUTTON'>, 'CAT': <class 'gluon.html.CAT'>, 'CENTER': <class 'gluon.html.CENTER'>, 'CLEANUP': <class 'gluon.validators.CLEANUP'>, ...}"
p3219
sS'global run_view_in'
p3220
S'<function run_view_in>'
p3221
ssg3170
I174
sg3171
(dp3222
I169
S'            page = run_controller_in(c, f, other_environment)'
p3223
sI170
S'            if isinstance(page, dict):'
p3224
sI171
S'                other_response._vars = page'
p3225
sI172
S'                for key in page:'
p3226
sI173
S'                    other_response._view_environment[key] = page[key]'
p3227
sI174
S'                run_view_in(other_response._view_environment)'
p3228
sI175
S'                page = other_response.body.getvalue()'
p3229
sI176
S'            current.request, current.response = original_request, original_response'
p3230
sI177
S'            js = None'
p3231
sI178
S'            if ajax_trap:'
p3232
ssg3183
S"(self=<gluon.compileapp.LoadFactory object>, c='listing', f='news', args=[], vars=<Storage {}>, extension='load', target='c251256866995', ajax=False, ajax_trap=False, url=None, user_signature=False, content='loading...', **attr={'_id': 'c251256866995'})"
p3233
sg3185
S'__call__'
p3234
sa(dp3235
g3162
S'/home/ian/web2py/gluon/compileapp.py'
p3236
sg3164
(dp3237
S'environment'
p3238
S"{'A': <class 'gluon.html.A'>, 'Auth': <class 'gluon.tools.Auth'>, 'B': <class 'gluon.html.B'>, 'BEAUTIFY': <class 'gluon.html.BEAUTIFY'>, 'BODY': <class 'gluon.html.BODY'>, 'BR': <class 'gluon.html.BR'>, 'BUTTON': <class 'gluon.html.BUTTON'>, 'CAT': <class 'gluon.html.CAT'>, 'CENTER': <class 'gluon.html.CENTER'>, 'CLEANUP': <class 'gluon.validators.CLEANUP'>, ...}"
p3239
sS'layer'
p3240
S"'/home/ian/web2py/applications/paideia/views/listing/news.load'"
p3241
sS'global restricted'
p3242
S'<function restricted>'
p3243
sS'ccode'
p3244
S'"response.write(\'\\\\n\', escape=False)\\nresponse.writ...    pass\\nresponse.write(\'\\\\n\\\\n\\\\n\\\\n\', escape=False)"'
p3245
ssg3170
I524
sg3171
(dp3246
I519
S'                                            context=environment),layer))'
p3247
sI520
S'        else:'
p3248
sI521
S'            ccode = parse_template(response.view,'
p3249
sI522
S"                                   os.path.join(folder, 'views'),"
p3250
sI523
S'                                   context=environment)'
p3251
sI524
S'        restricted(ccode, environment, layer)'
p3252
sI525
S''
sI526
S'def remove_compiled_application(folder):'
p3253
sI527
S'    """'
p3254
sI528
S'    Deletes the folder `compiled` containing the compiled application.'
p3255
ssg3183
S"(environment={'A': <class 'gluon.html.A'>, 'Auth': <class 'gluon.tools.Auth'>, 'B': <class 'gluon.html.B'>, 'BEAUTIFY': <class 'gluon.html.BEAUTIFY'>, 'BODY': <class 'gluon.html.BODY'>, 'BR': <class 'gluon.html.BR'>, 'BUTTON': <class 'gluon.html.BUTTON'>, 'CAT': <class 'gluon.html.CAT'>, 'CENTER': <class 'gluon.html.CENTER'>, 'CLEANUP': <class 'gluon.validators.CLEANUP'>, ...})"
p3256
sg3185
S'run_view_in'
p3257
sa(dp3258
g3162
S'/home/ian/web2py/gluon/restricted.py'
p3259
sg3164
(dp3260
S'global RestrictedError'
p3261
S"<class 'gluon.restricted.RestrictedError'>"
p3262
sS'environment'
p3263
S"{'A': <class 'gluon.html.A'>, 'Auth': <class 'gluon.tools.Auth'>, 'B': <class 'gluon.html.B'>, 'BEAUTIFY': <class 'gluon.html.BEAUTIFY'>, 'BODY': <class 'gluon.html.BODY'>, 'BR': <class 'gluon.html.BR'>, 'BUTTON': <class 'gluon.html.BUTTON'>, 'CAT': <class 'gluon.html.CAT'>, 'CENTER': <class 'gluon.html.CENTER'>, 'CLEANUP': <class 'gluon.validators.CLEANUP'>, ...}"
p3264
sS'layer'
p3265
S"'/home/ian/web2py/applications/paideia/views/listing/news.load'"
p3266
sS'code'
p3267
S'"response.write(\'\\\\n\', escape=False)\\nresponse.writ...    pass\\nresponse.write(\'\\\\n\\\\n\\\\n\\\\n\', escape=False)"'
p3268
ssg3170
I202
sg3171
(dp3269
I197
S'    except Exception, error:'
p3270
sI198
S'        # XXX Show exception in Wing IDE if running in debugger'
p3271
sI199
S"        if __debug__ and 'WINGDB_ACTIVE' in os.environ:"
p3272
sI200
S'            etype, evalue, tb = sys.exc_info()'
p3273
sI201
S'            sys.excepthook(etype, evalue, tb)'
p3274
sI202
S"        raise RestrictedError(layer, code, '', environment)"
p3275
sI203
S''
sI204
S'def snapshot(info=None, context=5, code=None, environment=None):'
p3276
sI205
S'    """Return a dict describing a given traceback (based on cgitb.text)."""'
p3277
sI206
S'    import os, types, time, traceback, linecache, inspect, pydoc, cgitb'
p3278
ssg3183
S'(code="response.write(\'\\\\n\', escape=False)\\nresponse.writ...    pass\\nresponse.write(\'\\\\n\\\\n\\\\n\\\\n\', escape=False)", environment={\'A\': <class \'gluon.html.A\'>, \'Auth\': <class \'gluon.tools.Auth\'>, \'B\': <class \'gluon.html.B\'>, \'BEAUTIFY\': <class \'gluon.html.BEAUTIFY\'>, \'BODY\': <class \'gluon.html.BODY\'>, \'BR\': <class \'gluon.html.BR\'>, \'BUTTON\': <class \'gluon.html.BUTTON\'>, \'CAT\': <class \'gluon.html.CAT\'>, \'CENTER\': <class \'gluon.html.CENTER\'>, \'CLEANUP\': <class \'gluon.validators.CLEANUP\'>, ...}, layer=\'/home/ian/web2py/applications/paideia/views/listing/news.load\')'
p3279
sg3185
g3186
sasS'pyver'
p3280
S'Python 2.7.2+: /usr/bin/python2.7'
p3281
sS'session'
p3282
g71
(g72
g73
NtRp3283
(dp3284
g76
(dp3285
sg78
(lp3286
g71
(g80
g73
NtRp3287
(dp3288
g76
(dp3289
g84
I5
ssg85
Nsg78
(lp3290
g71
(g87
g73
NtRp3291
(dp3292
g76
(dp3293
sg85
g3287
sg78
(lp3294
g71
(g92
g73
NtRp3295
(dp3296
g76
(dp3297
g96
g97
ssg85
g3291
sg78
(lp3298
S'answer'
p3299
asbag71
(g92
g73
NtRp3300
(dp3301
g76
(dp3302
g103
g104
ssg85
g3291
sg78
(lp3303
S':'
asbag71
(g92
g73
NtRp3304
(dp3305
g76
(dp3306
sg85
g3291
sg78
(lp3307
g71
(g72
g73
NtRp3308
(dp3309
g76
(dp3310
g84
I5
ssg85
g3304
sg78
(lp3311
S'you'
p3312
asbasbasbag71
(g87
g73
NtRp3313
(dp3314
g76
(dp3315
sg85
g3287
sg78
(lp3316
g71
(g92
g73
NtRp3317
(dp3318
g76
(dp3319
g96
g97
ssg85
g3313
sg78
(lp3320
S'answer2'
p3321
asbag71
(g92
g73
NtRp3322
(dp3323
g76
(dp3324
g103
g104
ssg85
g3313
sg78
(lp3325
S':'
asbag71
(g92
g73
NtRp3326
(dp3327
g76
(dp3328
sg85
g3313
sg78
(lp3329
g71
(g72
g73
NtRp3330
(dp3331
g76
(dp3332
g84
I5
ssg85
g3326
sg78
(lp3333
S'null'
p3334
asbasbasbag71
(g87
g73
NtRp3335
(dp3336
g76
(dp3337
sg85
g3287
sg78
(lp3338
g71
(g92
g73
NtRp3339
(dp3340
g76
(dp3341
g96
g97
ssg85
g3335
sg78
(lp3342
S'answer3'
p3343
asbag71
(g92
g73
NtRp3344
(dp3345
g76
(dp3346
g103
g104
ssg85
g3335
sg78
(lp3347
S':'
asbag71
(g92
g73
NtRp3348
(dp3349
g76
(dp3350
sg85
g3335
sg78
(lp3351
g71
(g72
g73
NtRp3352
(dp3353
g76
(dp3354
g84
I5
ssg85
g3348
sg78
(lp3355
S'null'
p3356
asbasbasbag71
(g87
g73
NtRp3357
(dp3358
g76
(dp3359
sg85
g3287
sg78
(lp3360
g71
(g92
g73
NtRp3361
(dp3362
g76
(dp3363
g96
g97
ssg85
g3357
sg78
(lp3364
S'auth'
p3365
asbag71
(g92
g73
NtRp3366
(dp3367
g76
(dp3368
g103
g104
ssg85
g3357
sg78
(lp3369
S':'
asbag71
(g92
g73
NtRp3370
(dp3371
g76
(dp3372
sg85
g3357
sg78
(lp3373
g71
(g72
g73
NtRp3374
(dp3375
g76
(dp3376
g84
I5
ssg85
g3370
sg78
(lp3377
g71
(g80
g73
NtRp3378
(dp3379
g76
(dp3380
g84
I4
ssg85
Nsg78
(lp3381
g71
(g87
g73
NtRp3382
(dp3383
g76
(dp3384
sg85
g3378
sg78
(lp3385
g71
(g92
g73
NtRp3386
(dp3387
g76
(dp3388
g96
g97
ssg85
g3382
sg78
(lp3389
S'expiration'
p3390
asbag71
(g92
g73
NtRp3391
(dp3392
g76
(dp3393
g103
g104
ssg85
g3382
sg78
(lp3394
S':'
asbag71
(g92
g73
NtRp3395
(dp3396
g76
(dp3397
sg85
g3382
sg78
(lp3398
g71
(g72
g73
NtRp3399
(dp3400
g76
(dp3401
g84
I4
ssg85
g3395
sg78
(lp3402
S'2592000'
p3403
asbasbasbag71
(g87
g73
NtRp3404
(dp3405
g76
(dp3406
sg85
g3378
sg78
(lp3407
g71
(g92
g73
NtRp3408
(dp3409
g76
(dp3410
g96
g97
ssg85
g3404
sg78
(lp3411
S'hmac_key'
p3412
asbag71
(g92
g73
NtRp3413
(dp3414
g76
(dp3415
g103
g104
ssg85
g3404
sg78
(lp3416
S':'
asbag71
(g92
g73
NtRp3417
(dp3418
g76
(dp3419
sg85
g3404
sg78
(lp3420
g71
(g72
g73
NtRp3421
(dp3422
g76
(dp3423
g84
I4
ssg85
g3417
sg78
(lp3424
S'87689865-ec6e-4c39-8720-e4cb0ebace1f'
p3425
asbasbasbag71
(g87
g73
NtRp3426
(dp3427
g76
(dp3428
sg85
g3378
sg78
(lp3429
g71
(g92
g73
NtRp3430
(dp3431
g76
(dp3432
g96
g97
ssg85
g3426
sg78
(lp3433
S'last_visit'
p3434
asbag71
(g92
g73
NtRp3435
(dp3436
g76
(dp3437
g103
g104
ssg85
g3426
sg78
(lp3438
S':'
asbag71
(g92
g73
NtRp3439
(dp3440
g76
(dp3441
sg85
g3426
sg78
(lp3442
g71
(g72
g73
NtRp3443
(dp3444
g76
(dp3445
g84
I4
ssg85
g3439
sg78
(lp3446
S'datetime.datetime(2011, 10, 11, 17, 25, 46, 438960)'
p3447
asbasbasbag71
(g87
g73
NtRp3448
(dp3449
g76
(dp3450
sg85
g3378
sg78
(lp3451
g71
(g92
g73
NtRp3452
(dp3453
g76
(dp3454
g96
g97
ssg85
g3448
sg78
(lp3455
S'remember'
p3456
asbag71
(g92
g73
NtRp3457
(dp3458
g76
(dp3459
g103
g104
ssg85
g3448
sg78
(lp3460
S':'
asbag71
(g92
g73
NtRp3461
(dp3462
g76
(dp3463
sg85
g3448
sg78
(lp3464
g71
(g72
g73
NtRp3465
(dp3466
g76
(dp3467
g84
I4
ssg85
g3461
sg78
(lp3468
g114
asbasbasbag71
(g87
g73
NtRp3469
(dp3470
g76
(dp3471
sg85
g3378
sg78
(lp3472
g71
(g92
g73
NtRp3473
(dp3474
g76
(dp3475
g96
g97
ssg85
g3469
sg78
(lp3476
S'user'
p3477
asbag71
(g92
g73
NtRp3478
(dp3479
g76
(dp3480
g103
g104
ssg85
g3469
sg78
(lp3481
S':'
asbag71
(g92
g73
NtRp3482
(dp3483
g76
(dp3484
sg85
g3469
sg78
(lp3485
g71
(g72
g73
NtRp3486
(dp3487
g76
(dp3488
g84
I4
ssg85
g3482
sg78
(lp3489
g71
(g80
g73
NtRp3490
(dp3491
g76
(dp3492
g84
I3
ssg85
Nsg78
(lp3493
g71
(g87
g73
NtRp3494
(dp3495
g76
(dp3496
sg85
g3490
sg78
(lp3497
g71
(g92
g73
NtRp3498
(dp3499
g76
(dp3500
g96
g97
ssg85
g3494
sg78
(lp3501
S'email'
p3502
asbag71
(g92
g73
NtRp3503
(dp3504
g76
(dp3505
g103
g104
ssg85
g3494
sg78
(lp3506
S':'
asbag71
(g92
g73
NtRp3507
(dp3508
g76
(dp3509
sg85
g3494
sg78
(lp3510
g71
(g72
g73
NtRp3511
(dp3512
g76
(dp3513
g84
I3
ssg85
g3507
sg78
(lp3514
S'scottianw@gmail.com'
p3515
asbasbasbag71
(g87
g73
NtRp3516
(dp3517
g76
(dp3518
sg85
g3490
sg78
(lp3519
g71
(g92
g73
NtRp3520
(dp3521
g76
(dp3522
g96
g97
ssg85
g3516
sg78
(lp3523
S'first_name'
p3524
asbag71
(g92
g73
NtRp3525
(dp3526
g76
(dp3527
g103
g104
ssg85
g3516
sg78
(lp3528
S':'
asbag71
(g92
g73
NtRp3529
(dp3530
g76
(dp3531
sg85
g3516
sg78
(lp3532
g71
(g72
g73
NtRp3533
(dp3534
g76
(dp3535
g84
I3
ssg85
g3529
sg78
(lp3536
S'Ian'
p3537
asbasbasbag71
(g87
g73
NtRp3538
(dp3539
g76
(dp3540
sg85
g3490
sg78
(lp3541
g71
(g92
g73
NtRp3542
(dp3543
g76
(dp3544
g96
g97
ssg85
g3538
sg78
(lp3545
S'id'
p3546
asbag71
(g92
g73
NtRp3547
(dp3548
g76
(dp3549
g103
g104
ssg85
g3538
sg78
(lp3550
S':'
asbag71
(g92
g73
NtRp3551
(dp3552
g76
(dp3553
sg85
g3538
sg78
(lp3554
g71
(g72
g73
NtRp3555
(dp3556
g76
(dp3557
g84
I3
ssg85
g3551
sg78
(lp3558
S'2'
asbasbasbag71
(g87
g73
NtRp3559
(dp3560
g76
(dp3561
sg85
g3490
sg78
(lp3562
g71
(g92
g73
NtRp3563
(dp3564
g76
(dp3565
g96
g97
ssg85
g3559
sg78
(lp3566
S'last_name'
p3567
asbag71
(g92
g73
NtRp3568
(dp3569
g76
(dp3570
g103
g104
ssg85
g3559
sg78
(lp3571
S':'
asbag71
(g92
g73
NtRp3572
(dp3573
g76
(dp3574
sg85
g3559
sg78
(lp3575
g71
(g72
g73
NtRp3576
(dp3577
g76
(dp3578
g84
I3
ssg85
g3572
sg78
(lp3579
S'Scott'
p3580
asbasbasbag71
(g87
g73
NtRp3581
(dp3582
g76
(dp3583
sg85
g3490
sg78
(lp3584
g71
(g92
g73
NtRp3585
(dp3586
g76
(dp3587
g96
g97
ssg85
g3581
sg78
(lp3588
S'password'
p3589
asbag71
(g92
g73
NtRp3590
(dp3591
g76
(dp3592
g103
g104
ssg85
g3581
sg78
(lp3593
S':'
asbag71
(g92
g73
NtRp3594
(dp3595
g76
(dp3596
sg85
g3581
sg78
(lp3597
g71
(g72
g73
NtRp3598
(dp3599
g76
(dp3600
g84
I3
ssg85
g3594
sg78
(lp3601
S'19738f1e9a2c8eaac81936a86bf608a1a6995e02f527fa31723cb88a2e513a1efae33471354a02805bf25ea2ea17a59c025a5fc8eca6b3bb2137bda74e538737'
p3602
asbasbasbag71
(g87
g73
NtRp3603
(dp3604
g76
(dp3605
sg85
g3490
sg78
(lp3606
g71
(g92
g73
NtRp3607
(dp3608
g76
(dp3609
g96
g97
ssg85
g3603
sg78
(lp3610
S'registration_key'
p3611
asbag71
(g92
g73
NtRp3612
(dp3613
g76
(dp3614
g103
g104
ssg85
g3603
sg78
(lp3615
S':'
asbag71
(g92
g73
NtRp3616
(dp3617
g76
(dp3618
sg85
g3603
sg78
(lp3619
g71
(g72
g73
NtRp3620
(dp3621
g76
(dp3622
g84
I3
ssg85
g3616
sg78
(lp3623
S''
asbasbasbag71
(g87
g73
NtRp3624
(dp3625
g76
(dp3626
sg85
g3490
sg78
(lp3627
g71
(g92
g73
NtRp3628
(dp3629
g76
(dp3630
g96
g97
ssg85
g3624
sg78
(lp3631
S'reset_password_key'
p3632
asbag71
(g92
g73
NtRp3633
(dp3634
g76
(dp3635
g103
g104
ssg85
g3624
sg78
(lp3636
S':'
asbag71
(g92
g73
NtRp3637
(dp3638
g76
(dp3639
sg85
g3624
sg78
(lp3640
g71
(g72
g73
NtRp3641
(dp3642
g76
(dp3643
g84
I3
ssg85
g3637
sg78
(lp3644
S''
asbasbasbasbasbasbasbasbasbasbasbag71
(g87
g73
NtRp3645
(dp3646
g76
(dp3647
sg85
g3287
sg78
(lp3648
g71
(g92
g73
NtRp3649
(dp3650
g76
(dp3651
g96
g97
ssg85
g3645
sg78
(lp3652
S'eval'
p3653
asbag71
(g92
g73
NtRp3654
(dp3655
g76
(dp3656
g103
g104
ssg85
g3645
sg78
(lp3657
S':'
asbag71
(g92
g73
NtRp3658
(dp3659
g76
(dp3660
sg85
g3645
sg78
(lp3661
g71
(g72
g73
NtRp3662
(dp3663
g76
(dp3664
g84
I5
ssg85
g3658
sg78
(lp3665
S'correct'
p3666
asbasbasbag71
(g87
g73
NtRp3667
(dp3668
g76
(dp3669
sg85
g3287
sg78
(lp3670
g71
(g92
g73
NtRp3671
(dp3672
g76
(dp3673
g96
g97
ssg85
g3667
sg78
(lp3674
S'path_freq'
p3675
asbag71
(g92
g73
NtRp3676
(dp3677
g76
(dp3678
g103
g104
ssg85
g3667
sg78
(lp3679
S':'
asbag71
(g92
g73
NtRp3680
(dp3681
g76
(dp3682
sg85
g3667
sg78
(lp3683
g71
(g72
g73
NtRp3684
(dp3685
g76
(dp3686
g84
I5
ssg85
g3680
sg78
(lp3687
S''
asbasbasbag71
(g87
g73
NtRp3688
(dp3689
g76
(dp3690
sg85
g3287
sg78
(lp3691
g71
(g92
g73
NtRp3692
(dp3693
g76
(dp3694
g96
g97
ssg85
g3688
sg78
(lp3695
S'path_id'
p3696
asbag71
(g92
g73
NtRp3697
(dp3698
g76
(dp3699
g103
g104
ssg85
g3688
sg78
(lp3700
S':'
asbag71
(g92
g73
NtRp3701
(dp3702
g76
(dp3703
sg85
g3688
sg78
(lp3704
g71
(g72
g73
NtRp3705
(dp3706
g76
(dp3707
g84
I5
ssg85
g3701
sg78
(lp3708
S'4'
asbasbasbag71
(g87
g73
NtRp3709
(dp3710
g76
(dp3711
sg85
g3287
sg78
(lp3712
g71
(g92
g73
NtRp3713
(dp3714
g76
(dp3715
g96
g97
ssg85
g3709
sg78
(lp3716
S'path_length'
p3717
asbag71
(g92
g73
NtRp3718
(dp3719
g76
(dp3720
g103
g104
ssg85
g3709
sg78
(lp3721
S':'
asbag71
(g92
g73
NtRp3722
(dp3723
g76
(dp3724
sg85
g3709
sg78
(lp3725
g71
(g72
g73
NtRp3726
(dp3727
g76
(dp3728
g84
I5
ssg85
g3722
sg78
(lp3729
S'20'
p3730
asbasbasbag71
(g87
g73
NtRp3731
(dp3732
g76
(dp3733
sg85
g3287
sg78
(lp3734
g71
(g92
g73
NtRp3735
(dp3736
g76
(dp3737
g96
g97
ssg85
g3731
sg78
(lp3738
S'path_name'
p3739
asbag71
(g92
g73
NtRp3740
(dp3741
g76
(dp3742
g103
g104
ssg85
g3731
sg78
(lp3743
S':'
asbag71
(g92
g73
NtRp3744
(dp3745
g76
(dp3746
sg85
g3731
sg78
(lp3747
g71
(g72
g73
NtRp3748
(dp3749
g76
(dp3750
g84
I5
ssg85
g3744
sg78
(lp3751
S'Tyndale - Greek Exegesis I - Week 4'
p3752
asbasbasbag71
(g87
g73
NtRp3753
(dp3754
g76
(dp3755
sg85
g3287
sg78
(lp3756
g71
(g92
g73
NtRp3757
(dp3758
g76
(dp3759
g96
g97
ssg85
g3753
sg78
(lp3760
S'path_tags'
p3761
asbag71
(g92
g73
NtRp3762
(dp3763
g76
(dp3764
g103
g104
ssg85
g3753
sg78
(lp3765
S':'
asbag71
(g92
g73
NtRp3766
(dp3767
g76
(dp3768
sg85
g3753
sg78
(lp3769
g71
(g72
g73
NtRp3770
(dp3771
g76
(dp3772
g84
I5
ssg85
g3766
sg78
(lp3773
g71
(g80
g73
NtRp3774
(dp3775
g76
(dp3776
g84
I4
ssg85
Nsg78
(lp3777
sbasbasbasbag71
(g87
g73
NtRp3778
(dp3779
g76
(dp3780
sg85
g3287
sg78
(lp3781
g71
(g92
g73
NtRp3782
(dp3783
g76
(dp3784
g96
g97
ssg85
g3778
sg78
(lp3785
S'qID'
p3786
asbag71
(g92
g73
NtRp3787
(dp3788
g76
(dp3789
g103
g104
ssg85
g3778
sg78
(lp3790
S':'
asbag71
(g92
g73
NtRp3791
(dp3792
g76
(dp3793
sg85
g3778
sg78
(lp3794
g71
(g72
g73
NtRp3795
(dp3796
g76
(dp3797
g84
I5
ssg85
g3791
sg78
(lp3798
S'11'
p3799
asbasbasbag71
(g87
g73
NtRp3800
(dp3801
g76
(dp3802
sg85
g3287
sg78
(lp3803
g71
(g92
g73
NtRp3804
(dp3805
g76
(dp3806
g96
g97
ssg85
g3800
sg78
(lp3807
S'q_counter'
p3808
asbag71
(g92
g73
NtRp3809
(dp3810
g76
(dp3811
g103
g104
ssg85
g3800
sg78
(lp3812
S':'
asbag71
(g92
g73
NtRp3813
(dp3814
g76
(dp3815
sg85
g3800
sg78
(lp3816
g71
(g72
g73
NtRp3817
(dp3818
g76
(dp3819
g84
I5
ssg85
g3813
sg78
(lp3820
S'11'
p3821
asbasbasbag71
(g87
g73
NtRp3822
(dp3823
g76
(dp3824
sg85
g3287
sg78
(lp3825
g71
(g92
g73
NtRp3826
(dp3827
g76
(dp3828
g96
g97
ssg85
g3822
sg78
(lp3829
S'question_text'
p3830
asbag71
(g92
g73
NtRp3831
(dp3832
g76
(dp3833
g103
g104
ssg85
g3822
sg78
(lp3834
S':'
asbag71
(g92
g73
NtRp3835
(dp3836
g76
(dp3837
sg85
g3822
sg78
(lp3838
g71
(g72
g73
NtRp3839
(dp3840
g76
(dp3841
g84
I5
ssg85
g3835
sg78
(lp3842
S'What does \xcf\x83\xcf\x8d mean?'
p3843
asbasbasbag71
(g87
g73
NtRp3844
(dp3845
g76
(dp3846
sg85
g3287
sg78
(lp3847
g71
(g92
g73
NtRp3848
(dp3849
g76
(dp3850
g96
g97
ssg85
g3844
sg78
(lp3851
S'quiz_type'
p3852
asbag71
(g92
g73
NtRp3853
(dp3854
g76
(dp3855
g103
g104
ssg85
g3844
sg78
(lp3856
S':'
asbag71
(g92
g73
NtRp3857
(dp3858
g76
(dp3859
sg85
g3844
sg78
(lp3860
g71
(g72
g73
NtRp3861
(dp3862
g76
(dp3863
g84
I5
ssg85
g3857
sg78
(lp3864
S"regular review (haven't gotten correct today)"
p3865
asbasbasbag71
(g87
g73
NtRp3866
(dp3867
g76
(dp3868
sg85
g3287
sg78
(lp3869
g71
(g92
g73
NtRp3870
(dp3871
g76
(dp3872
g96
g97
ssg85
g3866
sg78
(lp3873
S'readable_answer'
p3874
asbag71
(g92
g73
NtRp3875
(dp3876
g76
(dp3877
g103
g104
ssg85
g3866
sg78
(lp3878
S':'
asbag71
(g92
g73
NtRp3879
(dp3880
g76
(dp3881
sg85
g3866
sg78
(lp3882
g71
(g72
g73
NtRp3883
(dp3884
g76
(dp3885
g84
I5
ssg85
g3879
sg78
(lp3886
S'you'
p3887
asbasbasbag71
(g87
g73
NtRp3888
(dp3889
g76
(dp3890
sg85
g3287
sg78
(lp3891
g71
(g92
g73
NtRp3892
(dp3893
g76
(dp3894
g96
g97
ssg85
g3888
sg78
(lp3895
S'response'
p3896
asbag71
(g92
g73
NtRp3897
(dp3898
g76
(dp3899
g103
g104
ssg85
g3888
sg78
(lp3900
S':'
asbag71
(g92
g73
NtRp3901
(dp3902
g76
(dp3903
sg85
g3888
sg78
(lp3904
g71
(g72
g73
NtRp3905
(dp3906
g76
(dp3907
g84
I5
ssg85
g3901
sg78
(lp3908
S'you'
p3909
asbasbasbag71
(g87
g73
NtRp3910
(dp3911
g76
(dp3912
sg85
g3287
sg78
(lp3913
g71
(g92
g73
NtRp3914
(dp3915
g76
(dp3916
g96
g97
ssg85
g3910
sg78
(lp3917
S'score'
p3918
asbag71
(g92
g73
NtRp3919
(dp3920
g76
(dp3921
g103
g104
ssg85
g3910
sg78
(lp3922
S':'
asbag71
(g92
g73
NtRp3923
(dp3924
g76
(dp3925
sg85
g3910
sg78
(lp3926
g71
(g72
g73
NtRp3927
(dp3928
g76
(dp3929
g84
I5
ssg85
g3923
sg78
(lp3930
S'1'
asbasbasbasbasbsS'etype'
p3931
S"<class 'gluon.restricted.RestrictedError'>"
p3932
sS'date'
p3933
S'Wed Oct 12 15:00:11 2011'
p3934
sS'response'
p3935
g71
(g72
g73
NtRp3936
(dp3937
g76
(dp3938
sg78
(lp3939
g71
(g80
g73
NtRp3940
(dp3941
g76
(dp3942
g84
I5
ssg85
Nsg78
(lp3943
g71
(g87
g73
NtRp3944
(dp3945
g76
(dp3946
sg85
g3940
sg78
(lp3947
g71
(g92
g73
NtRp3948
(dp3949
g76
(dp3950
g96
g97
ssg85
g3944
sg78
(lp3951
g169
asbag71
(g92
g73
NtRp3952
(dp3953
g76
(dp3954
g103
g104
ssg85
g3944
sg78
(lp3955
S':'
asbag71
(g92
g73
NtRp3956
(dp3957
g76
(dp3958
sg85
g3944
sg78
(lp3959
g71
(g72
g73
NtRp3960
(dp3961
g76
(dp3962
g84
I5
ssg85
g3956
sg78
(lp3963
S'<cStringIO.StringO object at 0x3260bc8>'
p3964
asbasbasbag71
(g87
g73
NtRp3965
(dp3966
g76
(dp3967
sg85
g3940
sg78
(lp3968
g71
(g92
g73
NtRp3969
(dp3970
g76
(dp3971
g96
g97
ssg85
g3965
sg78
(lp3972
g235
asbag71
(g92
g73
NtRp3973
(dp3974
g76
(dp3975
g103
g104
ssg85
g3965
sg78
(lp3976
S':'
asbag71
(g92
g73
NtRp3977
(dp3978
g76
(dp3979
sg85
g3965
sg78
(lp3980
g71
(g72
g73
NtRp3981
(dp3982
g76
(dp3983
g84
I5
ssg85
g3977
sg78
(lp3984
g71
(g80
g73
NtRp3985
(dp3986
g76
(dp3987
g84
I4
ssg85
Nsg78
(lp3988
g71
(g87
g73
NtRp3989
(dp3990
g76
(dp3991
sg85
g3985
sg78
(lp3992
g71
(g92
g73
NtRp3993
(dp3994
g76
(dp3995
g96
g97
ssg85
g3989
sg78
(lp3996
S'session_id_paideia'
p3997
asbag71
(g92
g73
NtRp3998
(dp3999
g76
(dp4000
g103
g104
ssg85
g3989
sg78
(lp4001
S':'
asbag71
(g92
g73
NtRp4002
(dp4003
g76
(dp4004
sg85
g3989
sg78
(lp4005
g71
(g72
g73
NtRp4006
(dp4007
g76
(dp4008
g84
I4
ssg85
g4002
sg78
(lp4009
g71
(g80
g73
NtRp4010
(dp4011
g76
(dp4012
g84
I3
ssg85
Nsg78
(lp4013
g71
(g87
g73
NtRp4014
(dp4015
g76
(dp4016
sg85
g4010
sg78
(lp4017
g71
(g92
g73
NtRp4018
(dp4019
g76
(dp4020
g96
g97
ssg85
g4014
sg78
(lp4021
g285
asbag71
(g92
g73
NtRp4022
(dp4023
g76
(dp4024
g103
g104
ssg85
g4014
sg78
(lp4025
S':'
asbag71
(g92
g73
NtRp4026
(dp4027
g76
(dp4028
sg85
g4014
sg78
(lp4029
g71
(g72
g73
NtRp4030
(dp4031
g76
(dp4032
g84
I3
ssg85
g4026
sg78
(lp4033
S''
asbasbasbag71
(g87
g73
NtRp4034
(dp4035
g76
(dp4036
sg85
g4010
sg78
(lp4037
g71
(g92
g73
NtRp4038
(dp4039
g76
(dp4040
g96
g97
ssg85
g4034
sg78
(lp4041
g306
asbag71
(g92
g73
NtRp4042
(dp4043
g76
(dp4044
g103
g104
ssg85
g4034
sg78
(lp4045
S':'
asbag71
(g92
g73
NtRp4046
(dp4047
g76
(dp4048
sg85
g4034
sg78
(lp4049
g71
(g72
g73
NtRp4050
(dp4051
g76
(dp4052
g84
I3
ssg85
g4046
sg78
(lp4053
S''
asbasbasbag71
(g87
g73
NtRp4054
(dp4055
g76
(dp4056
sg85
g4010
sg78
(lp4057
g71
(g92
g73
NtRp4058
(dp4059
g76
(dp4060
g96
g97
ssg85
g4054
sg78
(lp4061
g327
asbag71
(g92
g73
NtRp4062
(dp4063
g76
(dp4064
g103
g104
ssg85
g4054
sg78
(lp4065
S':'
asbag71
(g92
g73
NtRp4066
(dp4067
g76
(dp4068
sg85
g4054
sg78
(lp4069
g71
(g72
g73
NtRp4070
(dp4071
g76
(dp4072
g84
I3
ssg85
g4066
sg78
(lp4073
S''
asbasbasbag71
(g87
g73
NtRp4074
(dp4075
g76
(dp4076
sg85
g4010
sg78
(lp4077
g71
(g92
g73
NtRp4078
(dp4079
g76
(dp4080
g96
g97
ssg85
g4074
sg78
(lp4081
g348
asbag71
(g92
g73
NtRp4082
(dp4083
g76
(dp4084
g103
g104
ssg85
g4074
sg78
(lp4085
S':'
asbag71
(g92
g73
NtRp4086
(dp4087
g76
(dp4088
sg85
g4074
sg78
(lp4089
g71
(g72
g73
NtRp4090
(dp4091
g76
(dp4092
g84
I3
ssg85
g4086
sg78
(lp4093
S''
asbasbasbag71
(g87
g73
NtRp4094
(dp4095
g76
(dp4096
sg85
g4010
sg78
(lp4097
g71
(g92
g73
NtRp4098
(dp4099
g76
(dp4100
g96
g97
ssg85
g4094
sg78
(lp4101
g369
asbag71
(g92
g73
NtRp4102
(dp4103
g76
(dp4104
g103
g104
ssg85
g4094
sg78
(lp4105
S':'
asbag71
(g92
g73
NtRp4106
(dp4107
g76
(dp4108
sg85
g4094
sg78
(lp4109
g71
(g72
g73
NtRp4110
(dp4111
g76
(dp4112
g84
I3
ssg85
g4106
sg78
(lp4113
S''
asbasbasbag71
(g87
g73
NtRp4114
(dp4115
g76
(dp4116
sg85
g4010
sg78
(lp4117
g71
(g92
g73
NtRp4118
(dp4119
g76
(dp4120
g96
g97
ssg85
g4114
sg78
(lp4121
g390
asbag71
(g92
g73
NtRp4122
(dp4123
g76
(dp4124
g103
g104
ssg85
g4114
sg78
(lp4125
S':'
asbag71
(g92
g73
NtRp4126
(dp4127
g76
(dp4128
sg85
g4114
sg78
(lp4129
g71
(g72
g73
NtRp4130
(dp4131
g76
(dp4132
g84
I3
ssg85
g4126
sg78
(lp4133
S'/'
asbasbasbag71
(g87
g73
NtRp4134
(dp4135
g76
(dp4136
sg85
g4010
sg78
(lp4137
g71
(g92
g73
NtRp4138
(dp4139
g76
(dp4140
g96
g97
ssg85
g4134
sg78
(lp4141
g411
asbag71
(g92
g73
NtRp4142
(dp4143
g76
(dp4144
g103
g104
ssg85
g4134
sg78
(lp4145
S':'
asbag71
(g92
g73
NtRp4146
(dp4147
g76
(dp4148
sg85
g4134
sg78
(lp4149
g71
(g72
g73
NtRp4150
(dp4151
g76
(dp4152
g84
I3
ssg85
g4146
sg78
(lp4153
S''
asbasbasbag71
(g87
g73
NtRp4154
(dp4155
g76
(dp4156
sg85
g4010
sg78
(lp4157
g71
(g92
g73
NtRp4158
(dp4159
g76
(dp4160
g96
g97
ssg85
g4154
sg78
(lp4161
g432
asbag71
(g92
g73
NtRp4162
(dp4163
g76
(dp4164
g103
g104
ssg85
g4154
sg78
(lp4165
S':'
asbag71
(g92
g73
NtRp4166
(dp4167
g76
(dp4168
sg85
g4154
sg78
(lp4169
g71
(g72
g73
NtRp4170
(dp4171
g76
(dp4172
g84
I3
ssg85
g4166
sg78
(lp4173
S''
asbasbasbasbasbasbasbasbasbasbasbag71
(g87
g73
NtRp4174
(dp4175
g76
(dp4176
sg85
g3940
sg78
(lp4177
g71
(g92
g73
NtRp4178
(dp4179
g76
(dp4180
g96
g97
ssg85
g4174
sg78
(lp4181
S'files'
p4182
asbag71
(g92
g73
NtRp4183
(dp4184
g76
(dp4185
g103
g104
ssg85
g4174
sg78
(lp4186
S':'
asbag71
(g92
g73
NtRp4187
(dp4188
g76
(dp4189
sg85
g4174
sg78
(lp4190
g71
(g72
g73
NtRp4191
(dp4192
g76
(dp4193
g84
I5
ssg85
g4187
sg78
(lp4194
g71
(g80
g73
NtRp4195
(dp4196
g76
(dp4197
g84
I4
ssg85
Nsg78
(lp4198
g71
(g87
g73
NtRp4199
(dp4200
g76
(dp4201
sg85
g4195
sg78
(lp4202
g71
(g92
g73
NtRp4203
(dp4204
g76
(dp4205
sg85
g4199
sg78
(lp4206
g71
(g72
g73
NtRp4207
(dp4208
g76
(dp4209
g84
I4
ssg85
g4203
sg78
(lp4210
S'/paideia/static/js/jquery.js'
p4211
asbasbasbag71
(g87
g73
NtRp4212
(dp4213
g76
(dp4214
sg85
g4195
sg78
(lp4215
g71
(g92
g73
NtRp4216
(dp4217
g76
(dp4218
sg85
g4212
sg78
(lp4219
g71
(g72
g73
NtRp4220
(dp4221
g76
(dp4222
g84
I4
ssg85
g4216
sg78
(lp4223
S'/paideia/static/css/calendar.css'
p4224
asbasbasbag71
(g87
g73
NtRp4225
(dp4226
g76
(dp4227
sg85
g4195
sg78
(lp4228
g71
(g92
g73
NtRp4229
(dp4230
g76
(dp4231
sg85
g4225
sg78
(lp4232
g71
(g72
g73
NtRp4233
(dp4234
g76
(dp4235
g84
I4
ssg85
g4229
sg78
(lp4236
S'/paideia/static/js/calendar.js'
p4237
asbasbasbag71
(g87
g73
NtRp4238
(dp4239
g76
(dp4240
sg85
g4195
sg78
(lp4241
g71
(g92
g73
NtRp4242
(dp4243
g76
(dp4244
sg85
g4238
sg78
(lp4245
g71
(g72
g73
NtRp4246
(dp4247
g76
(dp4248
g84
I4
ssg85
g4242
sg78
(lp4249
S'/paideia/static/css/base.css'
p4250
asbasbasbag71
(g87
g73
NtRp4251
(dp4252
g76
(dp4253
sg85
g4195
sg78
(lp4254
g71
(g92
g73
NtRp4255
(dp4256
g76
(dp4257
sg85
g4251
sg78
(lp4258
g71
(g72
g73
NtRp4259
(dp4260
g76
(dp4261
g84
I4
ssg85
g4255
sg78
(lp4262
S'/paideia/static/css/superfish.css'
p4263
asbasbasbag71
(g87
g73
NtRp4264
(dp4265
g76
(dp4266
sg85
g4195
sg78
(lp4267
g71
(g92
g73
NtRp4268
(dp4269
g76
(dp4270
sg85
g4264
sg78
(lp4271
g71
(g72
g73
NtRp4272
(dp4273
g76
(dp4274
g84
I4
ssg85
g4268
sg78
(lp4275
S'/paideia/static/js/superfish.js'
p4276
asbasbasbasbasbasbasbag71
(g87
g73
NtRp4277
(dp4278
g76
(dp4279
sg85
g3940
sg78
(lp4280
g71
(g92
g73
NtRp4281
(dp4282
g76
(dp4283
g96
g97
ssg85
g4277
sg78
(lp4284
S'flash'
p4285
asbag71
(g92
g73
NtRp4286
(dp4287
g76
(dp4288
g103
g104
ssg85
g4277
sg78
(lp4289
S':'
asbag71
(g92
g73
NtRp4290
(dp4291
g76
(dp4292
sg85
g4277
sg78
(lp4293
g71
(g72
g73
NtRp4294
(dp4295
g76
(dp4296
g84
I5
ssg85
g4290
sg78
(lp4297
S''
asbasbasbag71
(g87
g73
NtRp4298
(dp4299
g76
(dp4300
sg85
g3940
sg78
(lp4301
g71
(g92
g73
NtRp4302
(dp4303
g76
(dp4304
g96
g97
ssg85
g4298
sg78
(lp4305
S'generic_patterns'
p4306
asbag71
(g92
g73
NtRp4307
(dp4308
g76
(dp4309
g103
g104
ssg85
g4298
sg78
(lp4310
S':'
asbag71
(g92
g73
NtRp4311
(dp4312
g76
(dp4313
sg85
g4298
sg78
(lp4314
g71
(g72
g73
NtRp4315
(dp4316
g76
(dp4317
g84
I5
ssg85
g4311
sg78
(lp4318
g71
(g80
g73
NtRp4319
(dp4320
g76
(dp4321
g84
I4
ssg85
Nsg78
(lp4322
g71
(g87
g73
NtRp4323
(dp4324
g76
(dp4325
sg85
g4319
sg78
(lp4326
g71
(g92
g73
NtRp4327
(dp4328
g76
(dp4329
sg85
g4323
sg78
(lp4330
g71
(g72
g73
NtRp4331
(dp4332
g76
(dp4333
g84
I4
ssg85
g4327
sg78
(lp4334
S'*'
asbasbasbasbasbasbasbag71
(g87
g73
NtRp4335
(dp4336
g76
(dp4337
sg85
g3940
sg78
(lp4338
g71
(g92
g73
NtRp4339
(dp4340
g76
(dp4341
g96
g97
ssg85
g4335
sg78
(lp4342
S'headers'
p4343
asbag71
(g92
g73
NtRp4344
(dp4345
g76
(dp4346
g103
g104
ssg85
g4335
sg78
(lp4347
S':'
asbag71
(g92
g73
NtRp4348
(dp4349
g76
(dp4350
sg85
g4335
sg78
(lp4351
g71
(g72
g73
NtRp4352
(dp4353
g76
(dp4354
g84
I5
ssg85
g4348
sg78
(lp4355
g71
(g80
g73
NtRp4356
(dp4357
g76
(dp4358
g84
I4
ssg85
Nsg78
(lp4359
g71
(g87
g73
NtRp4360
(dp4361
g76
(dp4362
sg85
g4356
sg78
(lp4363
g71
(g92
g73
NtRp4364
(dp4365
g76
(dp4366
g96
g97
ssg85
g4360
sg78
(lp4367
S'Cache-Control'
p4368
asbag71
(g92
g73
NtRp4369
(dp4370
g76
(dp4371
g103
g104
ssg85
g4360
sg78
(lp4372
S':'
asbag71
(g92
g73
NtRp4373
(dp4374
g76
(dp4375
sg85
g4360
sg78
(lp4376
g71
(g72
g73
NtRp4377
(dp4378
g76
(dp4379
g84
I4
ssg85
g4373
sg78
(lp4380
S'no-store, no-cache, must-revalidate, post-check=0, pre-check=0'
p4381
asbasbasbag71
(g87
g73
NtRp4382
(dp4383
g76
(dp4384
sg85
g4356
sg78
(lp4385
g71
(g92
g73
NtRp4386
(dp4387
g76
(dp4388
g96
g97
ssg85
g4382
sg78
(lp4389
S'Content-Type'
p4390
asbag71
(g92
g73
NtRp4391
(dp4392
g76
(dp4393
g103
g104
ssg85
g4382
sg78
(lp4394
S':'
asbag71
(g92
g73
NtRp4395
(dp4396
g76
(dp4397
sg85
g4382
sg78
(lp4398
g71
(g72
g73
NtRp4399
(dp4400
g76
(dp4401
g84
I4
ssg85
g4395
sg78
(lp4402
S'text/html; charset=utf-8'
p4403
asbasbasbag71
(g87
g73
NtRp4404
(dp4405
g76
(dp4406
sg85
g4356
sg78
(lp4407
g71
(g92
g73
NtRp4408
(dp4409
g76
(dp4410
g96
g97
ssg85
g4404
sg78
(lp4411
S'Expires'
p4412
asbag71
(g92
g73
NtRp4413
(dp4414
g76
(dp4415
g103
g104
ssg85
g4404
sg78
(lp4416
S':'
asbag71
(g92
g73
NtRp4417
(dp4418
g76
(dp4419
sg85
g4404
sg78
(lp4420
g71
(g72
g73
NtRp4421
(dp4422
g76
(dp4423
g84
I4
ssg85
g4417
sg78
(lp4424
S'Wed, 12 Oct 2011 19:00:11 GMT'
p4425
asbasbasbag71
(g87
g73
NtRp4426
(dp4427
g76
(dp4428
sg85
g4356
sg78
(lp4429
g71
(g92
g73
NtRp4430
(dp4431
g76
(dp4432
g96
g97
ssg85
g4426
sg78
(lp4433
S'Pragma'
p4434
asbag71
(g92
g73
NtRp4435
(dp4436
g76
(dp4437
g103
g104
ssg85
g4426
sg78
(lp4438
S':'
asbag71
(g92
g73
NtRp4439
(dp4440
g76
(dp4441
sg85
g4426
sg78
(lp4442
g71
(g72
g73
NtRp4443
(dp4444
g76
(dp4445
g84
I4
ssg85
g4439
sg78
(lp4446
S'no-cache'
p4447
asbasbasbag71
(g87
g73
NtRp4448
(dp4449
g76
(dp4450
sg85
g4356
sg78
(lp4451
g71
(g92
g73
NtRp4452
(dp4453
g76
(dp4454
g96
g97
ssg85
g4448
sg78
(lp4455
S'X-Powered-By'
p4456
asbag71
(g92
g73
NtRp4457
(dp4458
g76
(dp4459
g103
g104
ssg85
g4448
sg78
(lp4460
S':'
asbag71
(g92
g73
NtRp4461
(dp4462
g76
(dp4463
sg85
g4448
sg78
(lp4464
g71
(g72
g73
NtRp4465
(dp4466
g76
(dp4467
g84
I4
ssg85
g4461
sg78
(lp4468
S'web2py'
p4469
asbasbasbasbasbasbasbag71
(g87
g73
NtRp4470
(dp4471
g76
(dp4472
sg85
g3940
sg78
(lp4473
g71
(g92
g73
NtRp4474
(dp4475
g76
(dp4476
g96
g97
ssg85
g4470
sg78
(lp4477
S'menu'
p4478
asbag71
(g92
g73
NtRp4479
(dp4480
g76
(dp4481
g103
g104
ssg85
g4470
sg78
(lp4482
S':'
asbag71
(g92
g73
NtRp4483
(dp4484
g76
(dp4485
sg85
g4470
sg78
(lp4486
g71
(g72
g73
NtRp4487
(dp4488
g76
(dp4489
g84
I5
ssg85
g4483
sg78
(lp4490
g71
(g80
g73
NtRp4491
(dp4492
g76
(dp4493
g84
I4
ssg85
Nsg78
(lp4494
g71
(g87
g73
NtRp4495
(dp4496
g76
(dp4497
sg85
g4491
sg78
(lp4498
g71
(g92
g73
NtRp4499
(dp4500
g76
(dp4501
sg85
g4495
sg78
(lp4502
g71
(g72
g73
NtRp4503
(dp4504
g76
(dp4505
g84
I4
ssg85
g4499
sg78
(lp4506
g71
(g80
g73
NtRp4507
(dp4508
g76
(dp4509
g84
I3
ssg85
Nsg78
(lp4510
g71
(g87
g73
NtRp4511
(dp4512
g76
(dp4513
sg85
g4507
sg78
(lp4514
g71
(g92
g73
NtRp4515
(dp4516
g76
(dp4517
sg85
g4511
sg78
(lp4518
g71
(g72
g73
NtRp4519
(dp4520
g76
(dp4521
g84
I3
ssg85
g4515
sg78
(lp4522
cgluon.languages
lazyT_unpickle
p4523
(S't\x04\x00\x00\x00Home'
tRp4524
asbasbasbag71
(g87
g73
NtRp4525
(dp4526
g76
(dp4527
sg85
g4507
sg78
(lp4528
g71
(g92
g73
NtRp4529
(dp4530
g76
(dp4531
sg85
g4525
sg78
(lp4532
g71
(g72
g73
NtRp4533
(dp4534
g76
(dp4535
g84
I3
ssg85
g4529
sg78
(lp4536
g114
asbasbasbag71
(g87
g73
NtRp4537
(dp4538
g76
(dp4539
sg85
g4507
sg78
(lp4540
g71
(g92
g73
NtRp4541
(dp4542
g76
(dp4543
sg85
g4537
sg78
(lp4544
g71
(g72
g73
NtRp4545
(dp4546
g76
(dp4547
g84
I3
ssg85
g4541
sg78
(lp4548
S'/paideia/default/index'
p4549
asbasbasbag71
(g87
g73
NtRp4550
(dp4551
g76
(dp4552
sg85
g4507
sg78
(lp4553
g71
(g92
g73
NtRp4554
(dp4555
g76
(dp4556
sg85
g4550
sg78
(lp4557
g71
(g72
g73
NtRp4558
(dp4559
g76
(dp4560
g84
I3
ssg85
g4554
sg78
(lp4561
g71
(g80
g73
NtRp4562
(dp4563
g76
(dp4564
g84
I2
ssg85
Nsg78
(lp4565
sbasbasbasbasbasbasbasbag71
(g87
g73
NtRp4566
(dp4567
g76
(dp4568
sg85
g4491
sg78
(lp4569
g71
(g92
g73
NtRp4570
(dp4571
g76
(dp4572
sg85
g4566
sg78
(lp4573
g71
(g72
g73
NtRp4574
(dp4575
g76
(dp4576
g84
I4
ssg85
g4570
sg78
(lp4577
g71
(g80
g73
NtRp4578
(dp4579
g76
(dp4580
g84
I3
ssg85
Nsg78
(lp4581
g71
(g87
g73
NtRp4582
(dp4583
g76
(dp4584
sg85
g4578
sg78
(lp4585
g71
(g92
g73
NtRp4586
(dp4587
g76
(dp4588
sg85
g4582
sg78
(lp4589
g71
(g72
g73
NtRp4590
(dp4591
g76
(dp4592
g84
I3
ssg85
g4586
sg78
(lp4593
g4523
(S't\x05\x00\x00\x00Admin'
tRp4594
asbasbasbag71
(g87
g73
NtRp4595
(dp4596
g76
(dp4597
sg85
g4578
sg78
(lp4598
g71
(g92
g73
NtRp4599
(dp4600
g76
(dp4601
sg85
g4595
sg78
(lp4602
g71
(g72
g73
NtRp4603
(dp4604
g76
(dp4605
g84
I3
ssg85
g4599
sg78
(lp4606
g114
asbasbasbag71
(g87
g73
NtRp4607
(dp4608
g76
(dp4609
sg85
g4578
sg78
(lp4610
g71
(g92
g73
NtRp4611
(dp4612
g76
(dp4613
sg85
g4607
sg78
(lp4614
g71
(g72
g73
NtRp4615
(dp4616
g76
(dp4617
g84
I3
ssg85
g4611
sg78
(lp4618
S'None'
p4619
asbasbasbag71
(g87
g73
NtRp4620
(dp4621
g76
(dp4622
sg85
g4578
sg78
(lp4623
g71
(g92
g73
NtRp4624
(dp4625
g76
(dp4626
sg85
g4620
sg78
(lp4627
g71
(g72
g73
NtRp4628
(dp4629
g76
(dp4630
g84
I3
ssg85
g4624
sg78
(lp4631
g71
(g80
g73
NtRp4632
(dp4633
g76
(dp4634
g84
I2
ssg85
Nsg78
(lp4635
g71
(g87
g73
NtRp4636
(dp4637
g76
(dp4638
sg85
g4632
sg78
(lp4639
g71
(g92
g73
NtRp4640
(dp4641
g76
(dp4642
sg85
g4636
sg78
(lp4643
g71
(g72
g73
NtRp4644
(dp4645
g76
(dp4646
g84
I2
ssg85
g4640
sg78
(lp4647
g71
(g80
g73
NtRp4648
(dp4649
g76
(dp4650
g84
I1
ssg85
Nsg78
(lp4651
g71
(g87
g73
NtRp4652
(dp4653
g76
(dp4654
sg85
g4648
sg78
(lp4655
g71
(g92
g73
NtRp4656
(dp4657
g76
(dp4658
sg85
g4652
sg78
(lp4659
g71
(g72
g73
NtRp4660
(dp4661
g76
(dp4662
g84
I1
ssg85
g4656
sg78
(lp4663
g4523
(S't\x06\x00\x00\x00Design'
tRp4664
asbasbasbag71
(g87
g73
NtRp4665
(dp4666
g76
(dp4667
sg85
g4648
sg78
(lp4668
g71
(g92
g73
NtRp4669
(dp4670
g76
(dp4671
sg85
g4665
sg78
(lp4672
g71
(g72
g73
NtRp4673
(dp4674
g76
(dp4675
g84
I1
ssg85
g4669
sg78
(lp4676
I00
asbasbasbag71
(g87
g73
NtRp4677
(dp4678
g76
(dp4679
sg85
g4648
sg78
(lp4680
g71
(g92
g73
NtRp4681
(dp4682
g76
(dp4683
sg85
g4677
sg78
(lp4684
g71
(g72
g73
NtRp4685
(dp4686
g76
(dp4687
g84
I1
ssg85
g4681
sg78
(lp4688
S'/admin/default/index'
p4689
asbasbasbasbasbasbasbag71
(g87
g73
NtRp4690
(dp4691
g76
(dp4692
sg85
g4632
sg78
(lp4693
g71
(g92
g73
NtRp4694
(dp4695
g76
(dp4696
sg85
g4690
sg78
(lp4697
g71
(g72
g73
NtRp4698
(dp4699
g76
(dp4700
g84
I2
ssg85
g4694
sg78
(lp4701
g71
(g80
g73
NtRp4702
(dp4703
g76
(dp4704
g84
I1
ssg85
Nsg78
(lp4705
g71
(g87
g73
NtRp4706
(dp4707
g76
(dp4708
sg85
g4702
sg78
(lp4709
g71
(g92
g73
NtRp4710
(dp4711
g76
(dp4712
sg85
g4706
sg78
(lp4713
g71
(g72
g73
NtRp4714
(dp4715
g76
(dp4716
g84
I1
ssg85
g4710
sg78
(lp4717
g4523
(S't\x08\x00\x00\x00Database'
tRp4718
asbasbasbag71
(g87
g73
NtRp4719
(dp4720
g76
(dp4721
sg85
g4702
sg78
(lp4722
g71
(g92
g73
NtRp4723
(dp4724
g76
(dp4725
sg85
g4719
sg78
(lp4726
g71
(g72
g73
NtRp4727
(dp4728
g76
(dp4729
g84
I1
ssg85
g4723
sg78
(lp4730
I00
asbasbasbag71
(g87
g73
NtRp4731
(dp4732
g76
(dp4733
sg85
g4702
sg78
(lp4734
g71
(g92
g73
NtRp4735
(dp4736
g76
(dp4737
sg85
g4731
sg78
(lp4738
g71
(g72
g73
NtRp4739
(dp4740
g76
(dp4741
g84
I1
ssg85
g4735
sg78
(lp4742
S'/paideia/appadmin/index'
p4743
asbasbasbasbasbasbasbag71
(g87
g73
NtRp4744
(dp4745
g76
(dp4746
sg85
g4632
sg78
(lp4747
g71
(g92
g73
NtRp4748
(dp4749
g76
(dp4750
sg85
g4744
sg78
(lp4751
g71
(g72
g73
NtRp4752
(dp4753
g76
(dp4754
g84
I2
ssg85
g4748
sg78
(lp4755
g71
(g80
g73
NtRp4756
(dp4757
g76
(dp4758
g84
I1
ssg85
Nsg78
(lp4759
g71
(g87
g73
NtRp4760
(dp4761
g76
(dp4762
sg85
g4756
sg78
(lp4763
g71
(g92
g73
NtRp4764
(dp4765
g76
(dp4766
sg85
g4760
sg78
(lp4767
g71
(g72
g73
NtRp4768
(dp4769
g76
(dp4770
g84
I1
ssg85
g4764
sg78
(lp4771
g4523
(S't\x05\x00\x00\x00Users'
tRp4772
asbasbasbag71
(g87
g73
NtRp4773
(dp4774
g76
(dp4775
sg85
g4756
sg78
(lp4776
g71
(g92
g73
NtRp4777
(dp4778
g76
(dp4779
sg85
g4773
sg78
(lp4780
g71
(g72
g73
NtRp4781
(dp4782
g76
(dp4783
g84
I1
ssg85
g4777
sg78
(lp4784
I00
asbasbasbag71
(g87
g73
NtRp4785
(dp4786
g76
(dp4787
sg85
g4756
sg78
(lp4788
g71
(g92
g73
NtRp4789
(dp4790
g76
(dp4791
sg85
g4785
sg78
(lp4792
g71
(g72
g73
NtRp4793
(dp4794
g76
(dp4795
g84
I1
ssg85
g4789
sg78
(lp4796
S'/paideia/listing/user'
p4797
asbasbasbasbasbasbasbag71
(g87
g73
NtRp4798
(dp4799
g76
(dp4800
sg85
g4632
sg78
(lp4801
g71
(g92
g73
NtRp4802
(dp4803
g76
(dp4804
sg85
g4798
sg78
(lp4805
g71
(g72
g73
NtRp4806
(dp4807
g76
(dp4808
g84
I2
ssg85
g4802
sg78
(lp4809
g71
(g80
g73
NtRp4810
(dp4811
g76
(dp4812
g84
I1
ssg85
Nsg78
(lp4813
g71
(g87
g73
NtRp4814
(dp4815
g76
(dp4816
sg85
g4810
sg78
(lp4817
g71
(g92
g73
NtRp4818
(dp4819
g76
(dp4820
sg85
g4814
sg78
(lp4821
g71
(g72
g73
NtRp4822
(dp4823
g76
(dp4824
g84
I1
ssg85
g4818
sg78
(lp4825
g4523
(S't\t\x00\x00\x00Questions'
tRp4826
asbasbasbag71
(g87
g73
NtRp4827
(dp4828
g76
(dp4829
sg85
g4810
sg78
(lp4830
g71
(g92
g73
NtRp4831
(dp4832
g76
(dp4833
sg85
g4827
sg78
(lp4834
g71
(g72
g73
NtRp4835
(dp4836
g76
(dp4837
g84
I1
ssg85
g4831
sg78
(lp4838
I00
asbasbasbag71
(g87
g73
NtRp4839
(dp4840
g76
(dp4841
sg85
g4810
sg78
(lp4842
g71
(g92
g73
NtRp4843
(dp4844
g76
(dp4845
sg85
g4839
sg78
(lp4846
g71
(g72
g73
NtRp4847
(dp4848
g76
(dp4849
g84
I1
ssg85
g4843
sg78
(lp4850
S'/paideia/listing/question'
p4851
asbasbasbasbasbasbasbag71
(g87
g73
NtRp4852
(dp4853
g76
(dp4854
sg85
g4632
sg78
(lp4855
g71
(g92
g73
NtRp4856
(dp4857
g76
(dp4858
sg85
g4852
sg78
(lp4859
g71
(g72
g73
NtRp4860
(dp4861
g76
(dp4862
g84
I2
ssg85
g4856
sg78
(lp4863
g71
(g80
g73
NtRp4864
(dp4865
g76
(dp4866
g84
I1
ssg85
Nsg78
(lp4867
g71
(g87
g73
NtRp4868
(dp4869
g76
(dp4870
sg85
g4864
sg78
(lp4871
g71
(g92
g73
NtRp4872
(dp4873
g76
(dp4874
sg85
g4868
sg78
(lp4875
g71
(g72
g73
NtRp4876
(dp4877
g76
(dp4878
g84
I1
ssg85
g4872
sg78
(lp4879
g4523
(S't\x07\x00\x00\x00Quizzes'
tRp4880
asbasbasbag71
(g87
g73
NtRp4881
(dp4882
g76
(dp4883
sg85
g4864
sg78
(lp4884
g71
(g92
g73
NtRp4885
(dp4886
g76
(dp4887
sg85
g4881
sg78
(lp4888
g71
(g72
g73
NtRp4889
(dp4890
g76
(dp4891
g84
I1
ssg85
g4885
sg78
(lp4892
I00
asbasbasbag71
(g87
g73
NtRp4893
(dp4894
g76
(dp4895
sg85
g4864
sg78
(lp4896
g71
(g92
g73
NtRp4897
(dp4898
g76
(dp4899
sg85
g4893
sg78
(lp4900
g71
(g72
g73
NtRp4901
(dp4902
g76
(dp4903
g84
I1
ssg85
g4897
sg78
(lp4904
S'/paideia/listing/quiz'
p4905
asbasbasbasbasbasbasbag71
(g87
g73
NtRp4906
(dp4907
g76
(dp4908
sg85
g4632
sg78
(lp4909
g71
(g92
g73
NtRp4910
(dp4911
g76
(dp4912
sg85
g4906
sg78
(lp4913
g71
(g72
g73
NtRp4914
(dp4915
g76
(dp4916
g84
I2
ssg85
g4910
sg78
(lp4917
g71
(g80
g73
NtRp4918
(dp4919
g76
(dp4920
g84
I1
ssg85
Nsg78
(lp4921
g71
(g87
g73
NtRp4922
(dp4923
g76
(dp4924
sg85
g4918
sg78
(lp4925
g71
(g92
g73
NtRp4926
(dp4927
g76
(dp4928
sg85
g4922
sg78
(lp4929
g71
(g72
g73
NtRp4930
(dp4931
g76
(dp4932
g84
I1
ssg85
g4926
sg78
(lp4933
g4523
(S't\x04\x00\x00\x00Tags'
tRp4934
asbasbasbag71
(g87
g73
NtRp4935
(dp4936
g76
(dp4937
sg85
g4918
sg78
(lp4938
g71
(g92
g73
NtRp4939
(dp4940
g76
(dp4941
sg85
g4935
sg78
(lp4942
g71
(g72
g73
NtRp4943
(dp4944
g76
(dp4945
g84
I1
ssg85
g4939
sg78
(lp4946
I00
asbasbasbag71
(g87
g73
NtRp4947
(dp4948
g76
(dp4949
sg85
g4918
sg78
(lp4950
g71
(g92
g73
NtRp4951
(dp4952
g76
(dp4953
sg85
g4947
sg78
(lp4954
g71
(g72
g73
NtRp4955
(dp4956
g76
(dp4957
g84
I1
ssg85
g4951
sg78
(lp4958
S'/paideia/listing/tag'
p4959
asbasbasbasbasbasbasbasbasbasbasbasbasbasbasbasbasbasbasbag71
(g87
g73
NtRp4960
(dp4961
g76
(dp4962
sg85
g3940
sg78
(lp4963
g71
(g92
g73
NtRp4964
(dp4965
g76
(dp4966
g96
g97
ssg85
g4960
sg78
(lp4967
S'meta'
p4968
asbag71
(g92
g73
NtRp4969
(dp4970
g76
(dp4971
g103
g104
ssg85
g4960
sg78
(lp4972
S':'
asbag71
(g92
g73
NtRp4973
(dp4974
g76
(dp4975
sg85
g4960
sg78
(lp4976
g71
(g72
g73
NtRp4977
(dp4978
g76
(dp4979
g84
I5
ssg85
g4973
sg78
(lp4980
g71
(g80
g73
NtRp4981
(dp4982
g76
(dp4983
g84
I4
ssg85
Nsg78
(lp4984
g71
(g87
g73
NtRp4985
(dp4986
g76
(dp4987
sg85
g4981
sg78
(lp4988
g71
(g92
g73
NtRp4989
(dp4990
g76
(dp4991
g96
g97
ssg85
g4985
sg78
(lp4992
S'author'
p4993
asbag71
(g92
g73
NtRp4994
(dp4995
g76
(dp4996
g103
g104
ssg85
g4985
sg78
(lp4997
S':'
asbag71
(g92
g73
NtRp4998
(dp4999
g76
(dp5000
sg85
g4985
sg78
(lp5001
g71
(g72
g73
NtRp5002
(dp5003
g76
(dp5004
g84
I4
ssg85
g4998
sg78
(lp5005
S'Ian W. Scott'
p5006
asbasbasbag71
(g87
g73
NtRp5007
(dp5008
g76
(dp5009
sg85
g4981
sg78
(lp5010
g71
(g92
g73
NtRp5011
(dp5012
g76
(dp5013
g96
g97
ssg85
g5007
sg78
(lp5014
S'copyright'
p5015
asbag71
(g92
g73
NtRp5016
(dp5017
g76
(dp5018
g103
g104
ssg85
g5007
sg78
(lp5019
S':'
asbag71
(g92
g73
NtRp5020
(dp5021
g76
(dp5022
sg85
g5007
sg78
(lp5023
g71
(g72
g73
NtRp5024
(dp5025
g76
(dp5026
g84
I4
ssg85
g5020
sg78
(lp5027
S'Copyright 2011'
p5028
asbasbasbag71
(g87
g73
NtRp5029
(dp5030
g76
(dp5031
sg85
g4981
sg78
(lp5032
g71
(g92
g73
NtRp5033
(dp5034
g76
(dp5035
g96
g97
ssg85
g5029
sg78
(lp5036
S'description'
p5037
asbag71
(g92
g73
NtRp5038
(dp5039
g76
(dp5040
g103
g104
ssg85
g5029
sg78
(lp5041
S':'
asbag71
(g92
g73
NtRp5042
(dp5043
g76
(dp5044
sg85
g5029
sg78
(lp5045
g71
(g72
g73
NtRp5046
(dp5047
g76
(dp5048
g84
I4
ssg85
g5042
sg78
(lp5049
S'An online space for learning New Testament Greek'
p5050
asbasbasbag71
(g87
g73
NtRp5051
(dp5052
g76
(dp5053
sg85
g4981
sg78
(lp5054
g71
(g92
g73
NtRp5055
(dp5056
g76
(dp5057
g96
g97
ssg85
g5051
sg78
(lp5058
S'generator'
p5059
asbag71
(g92
g73
NtRp5060
(dp5061
g76
(dp5062
g103
g104
ssg85
g5051
sg78
(lp5063
S':'
asbag71
(g92
g73
NtRp5064
(dp5065
g76
(dp5066
sg85
g5051
sg78
(lp5067
g71
(g72
g73
NtRp5068
(dp5069
g76
(dp5070
g84
I4
ssg85
g5064
sg78
(lp5071
S'Web2py Enterprise Framework'
p5072
asbasbasbag71
(g87
g73
NtRp5073
(dp5074
g76
(dp5075
sg85
g4981
sg78
(lp5076
g71
(g92
g73
NtRp5077
(dp5078
g76
(dp5079
g96
g97
ssg85
g5073
sg78
(lp5080
S'keywords'
p5081
asbag71
(g92
g73
NtRp5082
(dp5083
g76
(dp5084
g103
g104
ssg85
g5073
sg78
(lp5085
S':'
asbag71
(g92
g73
NtRp5086
(dp5087
g76
(dp5088
sg85
g5073
sg78
(lp5089
g71
(g72
g73
NtRp5090
(dp5091
g76
(dp5092
g84
I4
ssg85
g5086
sg78
(lp5093
S'Greek, koine, New Testament, language, education, learning'
p5094
asbasbasbasbasbasbasbag71
(g87
g73
NtRp5095
(dp5096
g76
(dp5097
sg85
g3940
sg78
(lp5098
g71
(g92
g73
NtRp5099
(dp5100
g76
(dp5101
g96
g97
ssg85
g5095
sg78
(lp5102
S'postprocessing'
p5103
asbag71
(g92
g73
NtRp5104
(dp5105
g76
(dp5106
g103
g104
ssg85
g5095
sg78
(lp5107
S':'
asbag71
(g92
g73
NtRp5108
(dp5109
g76
(dp5110
sg85
g5095
sg78
(lp5111
g71
(g72
g73
NtRp5112
(dp5113
g76
(dp5114
g84
I5
ssg85
g5108
sg78
(lp5115
g71
(g80
g73
NtRp5116
(dp5117
g76
(dp5118
g84
I4
ssg85
Nsg78
(lp5119
sbasbasbasbag71
(g87
g73
NtRp5120
(dp5121
g76
(dp5122
sg85
g3940
sg78
(lp5123
g71
(g92
g73
NtRp5124
(dp5125
g76
(dp5126
g96
g97
ssg85
g5120
sg78
(lp5127
S'session_file'
p5128
asbag71
(g92
g73
NtRp5129
(dp5130
g76
(dp5131
g103
g104
ssg85
g5120
sg78
(lp5132
S':'
asbag71
(g92
g73
NtRp5133
(dp5134
g76
(dp5135
sg85
g5120
sg78
(lp5136
g71
(g72
g73
NtRp5137
(dp5138
g76
(dp5139
g84
I5
ssg85
g5133
sg78
(lp5140
S"<open file '/home/ian/web2py/applications/paideia/sessions/127.0.0.1-5d55a0ea-d09f-4f00-8d83-befe38f53e0e', mode 'rb+' at 0x7f017c1429c0>"
p5141
asbasbasbag71
(g87
g73
NtRp5142
(dp5143
g76
(dp5144
sg85
g3940
sg78
(lp5145
g71
(g92
g73
NtRp5146
(dp5147
g76
(dp5148
g96
g97
ssg85
g5142
sg78
(lp5149
S'session_filename'
p5150
asbag71
(g92
g73
NtRp5151
(dp5152
g76
(dp5153
g103
g104
ssg85
g5142
sg78
(lp5154
S':'
asbag71
(g92
g73
NtRp5155
(dp5156
g76
(dp5157
sg85
g5142
sg78
(lp5158
g71
(g72
g73
NtRp5159
(dp5160
g76
(dp5161
g84
I5
ssg85
g5155
sg78
(lp5162
S'/home/ian/web2py/applications/paideia/sessions/127.0.0.1-5d55a0ea-d09f-4f00-8d83-befe38f53e0e'
p5163
asbasbasbag71
(g87
g73
NtRp5164
(dp5165
g76
(dp5166
sg85
g3940
sg78
(lp5167
g71
(g92
g73
NtRp5168
(dp5169
g76
(dp5170
g96
g97
ssg85
g5164
sg78
(lp5171
S'session_id'
p5172
asbag71
(g92
g73
NtRp5173
(dp5174
g76
(dp5175
g103
g104
ssg85
g5164
sg78
(lp5176
S':'
asbag71
(g92
g73
NtRp5177
(dp5178
g76
(dp5179
sg85
g5164
sg78
(lp5180
g71
(g72
g73
NtRp5181
(dp5182
g76
(dp5183
g84
I5
ssg85
g5177
sg78
(lp5184
S'127.0.0.1-5d55a0ea-d09f-4f00-8d83-befe38f53e0e'
p5185
asbasbasbag71
(g87
g73
NtRp5186
(dp5187
g76
(dp5188
sg85
g3940
sg78
(lp5189
g71
(g92
g73
NtRp5190
(dp5191
g76
(dp5192
g96
g97
ssg85
g5186
sg78
(lp5193
S'session_id_name'
p5194
asbag71
(g92
g73
NtRp5195
(dp5196
g76
(dp5197
g103
g104
ssg85
g5186
sg78
(lp5198
S':'
asbag71
(g92
g73
NtRp5199
(dp5200
g76
(dp5201
sg85
g5186
sg78
(lp5202
g71
(g72
g73
NtRp5203
(dp5204
g76
(dp5205
g84
I5
ssg85
g5199
sg78
(lp5206
g3997
asbasbasbag71
(g87
g73
NtRp5207
(dp5208
g76
(dp5209
sg85
g3940
sg78
(lp5210
g71
(g92
g73
NtRp5211
(dp5212
g76
(dp5213
g96
g97
ssg85
g5207
sg78
(lp5214
S'session_locked'
p5215
asbag71
(g92
g73
NtRp5216
(dp5217
g76
(dp5218
g103
g104
ssg85
g5207
sg78
(lp5219
S':'
asbag71
(g92
g73
NtRp5220
(dp5221
g76
(dp5222
sg85
g5207
sg78
(lp5223
g71
(g72
g73
NtRp5224
(dp5225
g76
(dp5226
g84
I5
ssg85
g5220
sg78
(lp5227
g1856
asbasbasbag71
(g87
g73
NtRp5228
(dp5229
g76
(dp5230
sg85
g3940
sg78
(lp5231
g71
(g92
g73
NtRp5232
(dp5233
g76
(dp5234
g96
g97
ssg85
g5228
sg78
(lp5235
S'session_new'
p5236
asbag71
(g92
g73
NtRp5237
(dp5238
g76
(dp5239
g103
g104
ssg85
g5228
sg78
(lp5240
S':'
asbag71
(g92
g73
NtRp5241
(dp5242
g76
(dp5243
sg85
g5228
sg78
(lp5244
g71
(g72
g73
NtRp5245
(dp5246
g76
(dp5247
g84
I5
ssg85
g5241
sg78
(lp5248
g114
asbasbasbag71
(g87
g73
NtRp5249
(dp5250
g76
(dp5251
sg85
g3940
sg78
(lp5252
g71
(g92
g73
NtRp5253
(dp5254
g76
(dp5255
g96
g97
ssg85
g5249
sg78
(lp5256
S'status'
p5257
asbag71
(g92
g73
NtRp5258
(dp5259
g76
(dp5260
g103
g104
ssg85
g5249
sg78
(lp5261
S':'
asbag71
(g92
g73
NtRp5262
(dp5263
g76
(dp5264
sg85
g5249
sg78
(lp5265
g71
(g72
g73
NtRp5266
(dp5267
g76
(dp5268
g84
I5
ssg85
g5262
sg78
(lp5269
S'200'
p5270
asbasbasbag71
(g87
g73
NtRp5271
(dp5272
g76
(dp5273
sg85
g3940
sg78
(lp5274
g71
(g92
g73
NtRp5275
(dp5276
g76
(dp5277
g96
g97
ssg85
g5271
sg78
(lp5278
S'subtitle'
p5279
asbag71
(g92
g73
NtRp5280
(dp5281
g76
(dp5282
g103
g104
ssg85
g5271
sg78
(lp5283
S':'
asbag71
(g92
g73
NtRp5284
(dp5285
g76
(dp5286
sg85
g5271
sg78
(lp5287
g71
(g72
g73
NtRp5288
(dp5289
g76
(dp5290
g84
I5
ssg85
g5284
sg78
(lp5291
g4523
(S's0\x00\x00\x00An online space for learning New Testament Greek'
tRp5292
asbasbasbag71
(g87
g73
NtRp5293
(dp5294
g76
(dp5295
sg85
g3940
sg78
(lp5296
g71
(g92
g73
NtRp5297
(dp5298
g76
(dp5299
g96
g97
ssg85
g5293
sg78
(lp5300
S'title'
p5301
asbag71
(g92
g73
NtRp5302
(dp5303
g76
(dp5304
g103
g104
ssg85
g5293
sg78
(lp5305
S':'
asbag71
(g92
g73
NtRp5306
(dp5307
g76
(dp5308
sg85
g5293
sg78
(lp5309
g71
(g72
g73
NtRp5310
(dp5311
g76
(dp5312
g84
I5
ssg85
g5306
sg78
(lp5313
g136
asbasbasbag71
(g87
g73
NtRp5314
(dp5315
g76
(dp5316
sg85
g3940
sg78
(lp5317
g71
(g92
g73
NtRp5318
(dp5319
g76
(dp5320
g96
g97
ssg85
g5314
sg78
(lp5321
g2500
asbag71
(g92
g73
NtRp5322
(dp5323
g76
(dp5324
g103
g104
ssg85
g5314
sg78
(lp5325
S':'
asbag71
(g92
g73
NtRp5326
(dp5327
g76
(dp5328
sg85
g5314
sg78
(lp5329
g71
(g72
g73
NtRp5330
(dp5331
g76
(dp5332
g84
I5
ssg85
g5326
sg78
(lp5333
g2513
asbasbasbag71
(g87
g73
NtRp5334
(dp5335
g76
(dp5336
sg85
g3940
sg78
(lp5337
g71
(g92
g73
NtRp5338
(dp5339
g76
(dp5340
g96
g97
ssg85
g5334
sg78
(lp5341
S'view'
p5342
asbag71
(g92
g73
NtRp5343
(dp5344
g76
(dp5345
g103
g104
ssg85
g5334
sg78
(lp5346
S':'
asbag71
(g92
g73
NtRp5347
(dp5348
g76
(dp5349
sg85
g5334
sg78
(lp5350
g71
(g72
g73
NtRp5351
(dp5352
g76
(dp5353
g84
I5
ssg85
g5347
sg78
(lp5354
S'default/index.html'
p5355
asbasbasbasbasbsS'locals'
p5356
(dp5357
g41
S"{'A': <class 'gluon.html.A'>, 'Auth': <class 'gluon.tools.Auth'>, 'B': <class 'gluon.html.B'>, 'BEAUTIFY': <class 'gluon.html.BEAUTIFY'>, 'BODY': <class 'gluon.html.BODY'>, 'BR': <class 'gluon.html.BR'>, 'BUTTON': <class 'gluon.html.BUTTON'>, 'CAT': <class 'gluon.html.CAT'>, 'CENTER': <class 'gluon.html.CENTER'>, 'CLEANUP': <class 'gluon.validators.CLEANUP'>, ...}"
p5358
sg3
S"'/home/ian/web2py/applications/paideia/views/listing/news.load'"
p5359
sg5
S'"response.write(\'\\\\n\', escape=False)\\nresponse.writ...    pass\\nresponse.write(\'\\\\n\\\\n\\\\n\\\\n\', escape=False)"'
p5360
sS'ccode'
p5361
S'<code object <module> at 0x7f017c153430, file "/...cations/paideia/views/listing/news.load", line 1>'
p5362
sS'error'
p5363
S'NameError("name \'h3\' is not defined",)'
p5364
sssg59
S'Traceback (most recent call last):\n  File "/home/ian/web2py/gluon/restricted.py", line 194, in restricted\n    exec ccode in environment\n  File "/home/ian/web2py/applications/paideia/views/default/index.html", line 105, in <module>\n  File "/home/ian/web2py/gluon/compileapp.py", line 174, in __call__\n    run_view_in(other_response._view_environment)\n  File "/home/ian/web2py/gluon/compileapp.py", line 524, in run_view_in\n    restricted(ccode, environment, layer)\n  File "/home/ian/web2py/gluon/restricted.py", line 202, in restricted\n    raise RestrictedError(layer, code, \'\', environment)\nRestrictedError\n'
p5365
s.